 FingerStrokeAssistance_xpc

 Timestamp is 58af71d0 (Thu Feb 23 15:35:44 2017)

 Preferred load address is 10000000

 Start         Length     Name                   Class
 0001:00000000 00040c4eH .text$mn                CODE
 0002:00000000 00000104H .CRT$XCA                DATA
 0002:00000104 00000104H .CRT$XCZ                DATA
 0002:00000208 00000104H .CRT$XIA                DATA
 0002:0000030c 00000118H .CRT$XIC                DATA
 0002:00000424 00000104H .CRT$XIZ                DATA
 0002:00000528 00000104H .CRT$XPA                DATA
 0002:0000062c 00000109H .CRT$XPX                DATA
 0002:00000738 00000104H .CRT$XPXA               DATA
 0002:0000083c 00000104H .CRT$XPZ                DATA
 0002:00000940 00000104H .CRT$XTA                DATA
 0002:00000a44 00000104H .CRT$XTZ                DATA
 0002:00000b50 00013804H .rdata                  DATA
 0002:00014354 000001c4H .rdata$debug            DATA
 0002:00014520 0000010eH .rdata$sxdata           DATA
 0002:00014630 00000104H .rtc$IAA                DATA
 0002:00014734 00000104H .rtc$IZZ                DATA
 0002:00014838 00000104H .rtc$TAA                DATA
 0002:0001493c 00000104H .rtc$TZZ                DATA
 0002:00014a40 00000991H .xdata$x                DATA
 0002:000153e0 00000226H .edata                  DATA
 0003:00000000 00002da0H .data                   DATA
 0003:00002da0 00016504H .bss                    DATA
 0004:00000000 000001b0H .idata$5                DATA
 0004:000001b0 00000014H .idata$2                DATA
 0004:000001c4 00000014H .idata$3                DATA
 0004:000001d8 000001b0H .idata$4                DATA
 0004:00000388 0000076bH .idata$6                DATA

  Address         Publics by Value              Rva+Base       Lib:Object

 0000:00000000       ___guard_fids_count        00000000     <absolute>
 0000:00000000       ___guard_fids_table        00000000     <absolute>
 0000:00000000       ___guard_flags             00000000     <absolute>
 0000:00000000       __except_list              00000000     <absolute>
 0000:00000003       ___safe_se_handler_count   00000003     <absolute>
 0000:00000000       ___ImageBase               10000000     <linker-defined>
 0001:00000460       _FingerStrokeAssi_MATLABFunction 10001460 f   FingerStrokeAssistance.obj
 0001:000004c0       _FingerStrokeAssistance    100014c0 f   FingerStrokeAssistance.obj
 0001:00001680       _FingerStrokeAssistance_gainramp 10002680 f   FingerStrokeAssistance.obj
 0001:00004380       _MdlInitialize             10005380 f   FingerStrokeAssistance.obj
 0001:00004390       _MdlInitializeSampleTimes  10005390 f   FingerStrokeAssistance.obj
 0001:000043a0       _MdlInitializeSizes        100053a0 f   FingerStrokeAssistance.obj
 0001:000043b0       _MdlOutputs                100053b0 f   FingerStrokeAssistance.obj
 0001:000043c0       _MdlStart                  100053c0 f   FingerStrokeAssistance.obj
 0001:000043d0       _MdlTerminate              100053d0 f   FingerStrokeAssistance.obj
 0001:00004430       _MdlUpdate                 10005430 f   FingerStrokeAssistance.obj
 0001:00004440       _rt_powd_snf               10005440 f   FingerStrokeAssistance.obj
 0001:000046d0       _rt_roundd_snf             100056d0 f   FingerStrokeAssistance.obj
 0001:000047d0       _FingerStrokeAssistance_GetCAPIStaticMap 100057d0 f   FingerStrokeAssistance_capi.obj
 0001:000047e0       _FingerStrokeAssistance_InitializeDataMapInfo 100057e0 f   FingerStrokeAssistance_capi.obj
 0001:00004870       _TgtConnBackgroundTask     10005870 f   FingerStrokeAssistance_tgtconn.obj
 0001:00004880       _TgtConnInit               10005880 f   FingerStrokeAssistance_tgtconn.obj
 0001:000048a0       _TgtConnPostStep           100058a0 f   FingerStrokeAssistance_tgtconn.obj
 0001:000048b0       _TgtConnPreStep            100058b0 f   FingerStrokeAssistance_tgtconn.obj
 0001:000048c0       _TgtConnTerm               100058c0 f   FingerStrokeAssistance_tgtconn.obj
 0001:000048d0       _rtGetInf                  100058d0 f   rtGetInf.obj
 0001:00004900       _rtGetInfF                 10005900 f   rtGetInf.obj
 0001:00004920       _rtGetMinusInf             10005920 f   rtGetInf.obj
 0001:00004950       _rtGetMinusInfF            10005950 f   rtGetInf.obj
 0001:00004970       _rtGetNaN                  10005970 f   rtGetNaN.obj
 0001:000049a0       _rtGetNaNF                 100059a0 f   rtGetNaN.obj
 0001:000052d0       _rt_CreateLogVar           100062d0 f   rt_logging.obj
 0001:00005360       _rt_CreateLogVarWithConvert 10006360 f   rt_logging.obj
 0001:00005ce0       _rt_CreateStructLogVar     10006ce0 f   rt_logging.obj
 0001:00006a50       _rt_GetMxIdFromDTypeId     10007a50 f   rt_logging.obj
 0001:00006a80       _rt_GetMxIdFromDTypeIdForRSim 10007a80 f   rt_logging.obj
 0001:000093c0       _rt_StartDataLogging       1000a3c0 f   rt_logging.obj
 0001:00009880       _rt_StartDataLoggingWithStartTime 1000a880 f   rt_logging.obj
 0001:0000a1e0       _rt_StopDataLogging        1000b1e0 f   rt_logging.obj
 0001:0000a200       _rt_StopDataLoggingImpl    1000b200 f   rt_logging.obj
 0001:0000a520       _rt_UpdateLogVar           1000b520 f   rt_logging.obj
 0001:0000b8e0       _rt_UpdateStructLogVar     1000c8e0 f   rt_logging.obj
 0001:0000b970       _rt_UpdateTXXFYLogVars     1000c970 f   rt_logging.obj
 0001:0000bcb0       _rt_UpdateTXYLogVars       1000ccb0 f   rt_logging.obj
 0001:0000bf00       _rt_CleanUpForStateLogWithMMI 1000cf00 f   rt_logging_mmi.obj
 0001:0000c010       _rt_FillStateSigInfoFromMMI 1000d010 f   rt_logging_mmi.obj
 0001:0000c3c0       _rt_mxCreateCharMatrixFromStrings 1000d3c0 f   rt_matrx.obj
 0001:0000c510       _rt_mxCreateDoubleMatrix   1000d510 f   rt_matrx.obj
 0001:0000c570       _rt_mxCreateNumericArray   1000d570 f   rt_matrx.obj
 0001:0000c5f0       _rt_mxCreateString         1000d5f0 f   rt_matrx.obj
 0001:0000c680       _rt_mxDuplicateArray       1000d680 f   rt_matrx.obj
 0001:0000c6e0       _rt_mxGetDimensions        1000d6e0 f   rt_matrx.obj
 0001:0000c720       _rt_mxGetEps               1000d720 f   rt_matrx.obj
 0001:0000c730       _rt_mxGetString            1000d730 f   rt_matrx.obj
 0001:0000c7b0       _rtIsInf                   1000d7b0 f   rt_nonfinite.obj
 0001:0000c7f0       _rtIsInfF                  1000d7f0 f   rt_nonfinite.obj
 0001:0000c830       _rtIsNaN                   1000d830 f   rt_nonfinite.obj
 0001:0000c850       _rtIsNaNF                  1000d850 f   rt_nonfinite.obj
 0001:0000c870       _rt_InitInfAndNaN          1000d870 f   rt_nonfinite.obj
 0001:0000c8d0       _rtPrintfNoOp              1000d8d0 f   rt_printf.obj
 0001:0000c8e0       _rt_ZCFcn                  1000d8e0 f   rt_zcfcn.obj
 0001:0000c9a0       _rtwCAPI_CountSysRan       1000d9a0 f   rtw_modelmap_utils.obj
 0001:0000ca40       _rtwCAPI_EncodePath        1000da40 f   rtw_modelmap_utils.obj
 0001:0000cb30       _rtwCAPI_FillSysRan        1000db30 f   rtw_modelmap_utils.obj
 0001:0000cc20       _rtwCAPI_FreeFullPaths     1000dc20 f   rtw_modelmap_utils.obj
 0001:0000ccb0       _rtwCAPI_GetFullStateBlockPath 1000dcb0 f   rtw_modelmap_utils.obj
 0001:0000ce60       _rtwCAPI_GetNumContStateRecords 1000de60 f   rtw_modelmap_utils.obj
 0001:0000cf20       _rtwCAPI_GetNumSigLogRecords 1000df20 f   rtw_modelmap_utils.obj
 0001:0000cf70       _rtwCAPI_GetNumSigLogRecordsForRTWLogging 1000df70 f   rtw_modelmap_utils.obj
 0001:0000d000       _rtwCAPI_GetNumStateRecords 1000e000 f   rtw_modelmap_utils.obj
 0001:0000d050       _rtwCAPI_GetNumStateRecordsForRTWLogging 1000e050 f   rtw_modelmap_utils.obj
 0001:0000d0e0       _rtwCAPI_GetSigAddrFromMap 1000e0e0 f   rtw_modelmap_utils.obj
 0001:0000d1a0       _rtwCAPI_GetSigLogRecordInfo 1000e1a0 f   rtw_modelmap_utils.obj
 0001:0000d5d0       _rtwCAPI_GetStateRecordInfo 1000e5d0 f   rtw_modelmap_utils.obj
 0001:0000da80       _rtwCAPI_GetStateWidth     1000ea80 f   rtw_modelmap_utils.obj
 0001:0000dae0       _rtwCAPI_HasStates         1000eae0 f   rtw_modelmap_utils.obj
 0001:0000db50       _rtwCAPI_UpdateFullPaths   1000eb50 f   rtw_modelmap_utils.obj
 0001:0000dd30       _DllMain@12                1000ed30 f   xpctarget.obj
 0001:0000dd40       _FingerStrokeAssistance_ChangeStepSize 1000ed40 f   xpctarget.obj
 0001:0000dd90       _SLRTSetErrorStatus        1000ed90 f   xpctarget.obj
 0001:0000ddb0       _changeStepSize            1000edb0 f   xpctarget.obj
 0001:0000de00       _getDLMVersion             1000ee00 f   xpctarget.obj
 0001:0000de10       _getRefMdlPath             1000ee10 f   xpctarget.obj
 0001:0000de90       _getRefMdlSignalNumber     1000ee90 f   xpctarget.obj
 0001:0000df40       _getrlmdlinfo              1000ef40 f   xpctarget.obj
 0001:0000e120       _updateDiscreteEvents      1000f120 f   xpctarget.obj
 0001:0000e130       _getNumRef                 1000f130 f   appmappingData.obj
 0001:0000e140       _encnipcim                 1000f140 f   encnipcim.obj
 0001:0000e770       _danipcim                  1000f770 f   danipcim.obj
 0001:0000ef10       _adnipcim                  1000ff10 f   adnipcim.obj
 0001:0000f940       _niMIdentify               10010940 f   xpcionim.obj
 0001:0000fac0       _niM_AISetup               10010ac0 f   xpcionim.obj
 0001:0000fed0       _niM_AO_Setup              10010ed0 f   xpcionim.obj
 0001:00010060       _niM_Cont_Pulse_Train_Generation 10011060 f   xpcionim.obj
 0001:000101a0       _niM_Counter_Reset_All     100111a0 f   xpcionim.obj
 0001:00010250       _niM_CtrArm                10011250 f   xpcionim.obj
 0001:00010270       _niM_CtrDisarm             10011270 f   xpcionim.obj
 0001:00010290       _niM_CtrReadArm            10011290 f   xpcionim.obj
 0001:000102b0       _niM_CtrReadDisarm         100112b0 f   xpcionim.obj
 0001:000102d0       _niM_PeriodConfigure       100112d0 f   xpcionim.obj
 0001:00010440       _niM_Private_Data          10011440 f   xpcionim.obj
 0001:00010a20       _niM_SetPFIFilter          10011a20 f   xpcionim.obj
 0001:00010aa0       _niM_SetPFI_DO             10011aa0 f   xpcionim.obj
 0001:00010af0       _niM_SetPFI_Select         10011af0 f   xpcionim.obj
 0001:00010b70       _niM_aiConfigureChannel    10011b70 f   xpcionim.obj
 0001:00010be0       _niM_aiGetScalingCoefficients 10011be0 f   xpcionim.obj
 0001:00010dc0       _niM_aiPolynomialScaler    10011dc0 f   xpcionim.obj
 0001:00010ee0       _niM_analogTriggerReset    10011ee0 f   xpcionim.obj
 0001:00010f30       _niM_aoConfigureDAC        10011f30 f   xpcionim.obj
 0001:00010f80       _niM_aoGetScalingCoefficients 10011f80 f   xpcionim.obj
 0001:00011030       _niM_aoLinearScaler        10012030 f   xpcionim.obj
 0001:00011060       _niM_configureTimebase     10012060 f   xpcionim.obj
 0001:00011080       _niM_eepromReadMSeries     10012080 f   xpcionim.obj
 0001:00011150       _niM_pllReset              10012150 f   xpcionim.obj
 0001:00011180       _niM_resetCtr              10012180 f   xpcionim.obj
 0001:000111a0       _niM_whichBank             100121a0 f   xpcionim.obj
 0001:000111e0       _niMconfig                 100121e0 f   xpcionim.obj
 0001:00011280       _GetPCIDeviceFull          10012280 f   xpcruntime:xpcimports.obj
 0001:000112b0       _ShowPCIDevice             100122b0 f   xpcruntime:xpcimports.obj
 0001:00011920       _xpcGetPciConfigAtSlot     10012920 f   xpcruntime:xpcimports.obj
 0001:00011ba0       _xpcInitProcs              10012ba0 f   xpcruntime:xpcimports.obj
 0001:00012700       _xpceuploadevent           10013700 f   xpcruntime:xpcimports.obj
 0001:00012701       __heap_alloc               10013701 f i LIBCMT:malloc.obj
 0001:0001273e       _malloc                    1001373e f   LIBCMT:malloc.obj
 0001:000127d0       __get_printf_count_output  100137d0 f   LIBCMT:printf.obj
 0001:000127e5       __printf_l                 100137e5 f   LIBCMT:printf.obj
 0001:000127fc       __printf_p                 100137fc f   LIBCMT:printf.obj
 0001:00012812       __printf_p_l               10013812 f   LIBCMT:printf.obj
 0001:00012829       __printf_s_l               10013829 f   LIBCMT:printf.obj
 0001:00012840       __set_printf_count_output  10013840 f   LIBCMT:printf.obj
 0001:00012868       _printf                    10013868 f   LIBCMT:printf.obj
 0001:00012917       _printf_s                  10013917 f   LIBCMT:printf.obj
 0001:0001292d       ___libm_sse2_pow           1001392d f   LIBCMT:pow_sse2.obj
 0001:000133b0       _ceil                      100143b0 f   LIBCMT:ceil_pentium4.obj
 0001:000133f0       __ceil_pentium4            100143f0 f   LIBCMT:ceil_pentium4.obj
 0001:000134d0       _memset                    100144d0 f   LIBCMT:memset.obj
 0001:00013560       __fpmath                   10014560 f   LIBCMT:fpinit.obj
 0001:00013577       ___setfflag                10014577 f   LIBCMT:fpinit.obj
 0001:0001358a       __cfltcvt_init             1001458a f   LIBCMT:fpinit.obj
 0001:000135ea       ___raise_securityfailure   100145ea f   LIBCMT:gs_report.obj
 0001:00013627       ___report_gsfailure        10014627 f   LIBCMT:gs_report.obj
 0001:00013722       ___report_rangecheckfailure 10014722 f   LIBCMT:gs_report.obj
 0001:0001372e       ___report_securityfailure  1001472e f   LIBCMT:gs_report.obj
 0001:000137fe       ___report_securityfailureEx 100147fe f   LIBCMT:gs_report.obj
 0001:00013914       ___copy_path_to_wide_string 10014914 f   LIBCMT:crt0dat.obj
 0001:000139c6       ___copy_to_char            100149c6 f   LIBCMT:crt0dat.obj
 0001:00013a7b       ___crtCorExitProcess       10014a7b f   LIBCMT:crt0dat.obj
 0001:00013aaf       ___crtExitProcess          10014aaf f   LIBCMT:crt0dat.obj
 0001:00013ac5       ___freeCrtMemory           10014ac5 f   LIBCMT:crt0dat.obj
 0001:00013bd2       __amsg_exit                10014bd2 f   LIBCMT:crt0dat.obj
 0001:00013bee       __c_exit                   10014bee f   LIBCMT:crt0dat.obj
 0001:00013bfd       __cexit                    10014bfd f   LIBCMT:crt0dat.obj
 0001:00013c0c       __cinit                    10014c0c f   LIBCMT:crt0dat.obj
 0001:00013c90       __exit                     10014c90 f   LIBCMT:crt0dat.obj
 0001:00013ca4       __exit_app                 10014ca4 f   LIBCMT:crt0dat.obj
 0001:00013cb2       __get_pgmptr               10014cb2 f   LIBCMT:crt0dat.obj
 0001:00013ce1       __get_wpgmptr              10014ce1 f   LIBCMT:crt0dat.obj
 0001:00013d10       __init_pointers            10014d10 f   LIBCMT:crt0dat.obj
 0001:00013d7e       __initterm_e               10014d7e f   LIBCMT:crt0dat.obj
 0001:00013da0       __lockexit                 10014da0 f   LIBCMT:crt0dat.obj
 0001:00013da9       __unlockexit               10014da9 f   LIBCMT:crt0dat.obj
 0001:00013ee1       _exit                      10014ee1 f   LIBCMT:crt0dat.obj
 0001:00013ef5       _calloc                    10014ef5 f   LIBCMT:calloc.obj
 0001:00013f35       _free                      10014f35 f   LIBCMT:free.obj
 0001:00013f6d       _realloc                   10014f6d f   LIBCMT:realloc.obj
 0001:00014020       _memmove                   10015020 f   LIBCMT:memmove.obj
 0001:00014670       _strchr                    10015670 f   LIBCMT:strchr.obj
 0001:000146de       ___from_strstr_to_strchr   100156de     LIBCMT:strchr.obj
 0001:000147a0       _strncat                   100157a0 f   LIBCMT:strncat.obj
 0001:000148e0       _strncpy                   100158e0 f   LIBCMT:strncpy.obj
 0001:00014a04       ___initstdio               10015a04 f   LIBCMT:_file.obj
 0001:00014a77       ___endstdio                10015a77 f   LIBCMT:_file.obj
 0001:00014a9e       ___iob_func                10015a9e f   LIBCMT:_file.obj
 0001:00014aa4       __lock_file                10015aa4 f   LIBCMT:_file.obj
 0001:00014ae3       __lock_file2               10015ae3 f   LIBCMT:_file.obj
 0001:00014b13       __unlock_file              10015b13 f   LIBCMT:_file.obj
 0001:00014b4d       __unlock_file2             10015b4d f   LIBCMT:_file.obj
 0001:00014b7a       __fclose_nolock            10015b7a f   LIBCMT:fclose.obj
 0001:00014be6       _fclose                    10015be6 f   LIBCMT:fclose.obj
 0001:00014c5d       __fsopen                   10015c5d f   LIBCMT:fopen.obj
 0001:00014d21       _fopen                     10015d21 f   LIBCMT:fopen.obj
 0001:00014d36       _fopen_s                   10015d36 f   LIBCMT:fopen.obj
 0001:00014d7b       __fprintf_l                10015d7b f   LIBCMT:fprintf.obj
 0001:00014d95       __fprintf_p                10015d95 f   LIBCMT:fprintf.obj
 0001:00014dae       __fprintf_p_l              10015dae f   LIBCMT:fprintf.obj
 0001:00014dc8       __fprintf_s_l              10015dc8 f   LIBCMT:fprintf.obj
 0001:00014de2       _fprintf                   10015de2 f   LIBCMT:fprintf.obj
 0001:00014ef4       _fprintf_s                 10015ef4 f   LIBCMT:fprintf.obj
 0001:00014f0d       __fread_nolock             10015f0d f   LIBCMT:fread.obj
 0001:00014f28       __fread_nolock_s           10015f28 f   LIBCMT:fread.obj
 0001:000150ed       _fread                     100160ed f   LIBCMT:fread.obj
 0001:00015108       _fread_s                   10016108 f   LIBCMT:fread.obj
 0001:00015199       __fwrite_nolock            10016199 f   LIBCMT:fwrite.obj
 0001:000152f2       _fwrite                    100162f2 f   LIBCMT:fwrite.obj
 0001:00015374       __unlink                   10016374 f   LIBCMT:unlink.obj
 0001:0001537d       _remove                    1001637d f   LIBCMT:unlink.obj
 0001:000153bf       _rewind                    100163bf f   LIBCMT:rewind.obj
 0001:0001547e       __scprintf                 1001647e f   LIBCMT:sprintf.obj
 0001:00015491       __scprintf_l               10016491 f   LIBCMT:sprintf.obj
 0001:000154a8       __scprintf_p               100164a8 f   LIBCMT:sprintf.obj
 0001:000154bb       __scprintf_p_l             100164bb f   LIBCMT:sprintf.obj
 0001:000154d2       __snprintf_s               100164d2 f   LIBCMT:sprintf.obj
 0001:000154f1       __snprintf_s_l             100164f1 f   LIBCMT:sprintf.obj
 0001:00015511       __sprintf_l                10016511 f   LIBCMT:sprintf.obj
 0001:0001552b       __sprintf_p                1001652b f   LIBCMT:sprintf.obj
 0001:00015547       __sprintf_p_l              10016547 f   LIBCMT:sprintf.obj
 0001:00015564       __sprintf_s_l              10016564 f   LIBCMT:sprintf.obj
 0001:00015581       _sprintf                   10016581 f   LIBCMT:sprintf.obj
 0001:00015605       _sprintf_s                 10016605 f   LIBCMT:sprintf.obj
 0001:00015621       _ldexp                     10016621 f   LIBCMT:ldexp.obj
 0001:0001580d       @__security_check_cookie@4 1001680d f   LIBCMT:secchk.obj
 0001:00015820       __ftoui3                   10016820 f   LIBCMT:ftol3.obj
 0001:0001582f       __ftoul3                   1001682f f   LIBCMT:ftol3.obj
 0001:0001583e       __ftol3                    1001683e f   LIBCMT:ftol3.obj
 0001:0001584b       __ftol3_NaN                1001684b f   LIBCMT:ftol3.obj
 0001:00015863       __ftol3_work               10016863 f   LIBCMT:ftol3.obj
 0001:000158e9       __ftol3_common             100168e9 f   LIBCMT:ftol3.obj
 0001:000159ab       __ftol3_arg_error          100169ab f   LIBCMT:ftol3.obj
 0001:000159bd       __ftol3_except             100169bd f   LIBCMT:ftol3.obj
 0001:000159ff       __dtoui3                   100169ff f   LIBCMT:ftol3.obj
 0001:00015a0e       __dtoul3                   10016a0e f   LIBCMT:ftol3.obj
 0001:00015a1d       __dtol3                    10016a1d f   LIBCMT:ftol3.obj
 0001:00015a2a       __dtol3_NaN                10016a2a f   LIBCMT:ftol3.obj
 0001:00015a47       __dtol3_work               10016a47 f   LIBCMT:ftol3.obj
 0001:00015b2c       __ultod3                   10016b2c f   LIBCMT:ftol3.obj
 0001:00015bbd       __ltod3                    10016bbd f   LIBCMT:ftol3.obj
 0001:00015bf0       _memcpy                    10016bf0 f   LIBCMT:memcpy.obj
 0001:00016234       ___isa_available_init      10017234 f   LIBCMT:cpu_disp.obj
 0001:000163ad       __invoke_watson_if_error   100173ad f i LIBCMT:wassert.obj
 0001:000163cd       __wassert                  100173cd f   LIBCMT:wassert.obj
 0001:00016a71       __CRT_INIT@12              10017a71 f   LIBCMT:dllcrt0.obj
 0001:00016be3       __DllMainCRTStartup@12     10017be3 f   LIBCMT:dllcrt0.obj
 0001:00016d14       ___DllXcptFilter           10017d14 f   LIBCMT:dllcrt0.obj
 0001:00016d39       ?_query_new_handler@@YAP6AHI@ZXZ 10017d39 f   LIBCMT:handler.obj
 0001:00016d46       ?_set_new_handler@@YAP6AHI@ZH@Z 10017d46 f   LIBCMT:handler.obj
 0001:00016d4f       ?_set_new_handler@@YAP6AHI@ZP6AHI@Z@Z 10017d4f f   LIBCMT:handler.obj
 0001:00016d84       __callnewh                 10017d84 f   LIBCMT:handler.obj
 0001:00016daa       __initp_heap_handler       10017daa f   LIBCMT:handler.obj
 0001:00016db7       __FF_MSGBANNER             10017db7 f   LIBCMT:crt0msg.obj
 0001:00016df0       __GET_RTERRMSG             10017df0 f   LIBCMT:crt0msg.obj
 0001:00016e14       __NMSG_WRITE               10017e14 f   LIBCMT:crt0msg.obj
 0001:00016fd1       ___doserrno                10017fd1 f   LIBCMT:dosmap.obj
 0001:00016fe4       __dosmaperr                10017fe4 f   LIBCMT:dosmap.obj
 0001:00017005       __errno                    10018005 f   LIBCMT:dosmap.obj
 0001:00017018       __get_doserrno             10018018 f   LIBCMT:dosmap.obj
 0001:0001703b       __get_errno                1001803b f   LIBCMT:dosmap.obj
 0001:0001705e       __get_errno_from_oserr     1001805e f   LIBCMT:dosmap.obj
 0001:0001709f       __set_doserrno             1001809f f   LIBCMT:dosmap.obj
 0001:000170be       __set_errno                100180be f   LIBCMT:dosmap.obj
 0001:000170dd       __get_heap_handle          100180dd f   LIBCMT:heapinit.obj
 0001:000170e3       __heap_init                100180e3 f   LIBCMT:heapinit.obj
 0001:000170f8       __heap_term                100180f8 f   LIBCMT:heapinit.obj
 0001:00017100       ?_invalid_parameter@@YAXPBG00II@Z 10018100 f   LIBCMT:invarg.obj
 0001:00017105       ?_invoke_watson@@YAXPBG00II@Z 10018105 f   LIBCMT:invarg.obj
 0001:0001711d       __call_reportfault         1001811d f   LIBCMT:invarg.obj
 0001:00017242       __get_invalid_parameter_handler 10018242 f   LIBCMT:invarg.obj
 0001:0001724f       __initp_misc_invarg        1001824f f   LIBCMT:invarg.obj
 0001:0001725c       __invalid_parameter        1001825c f   LIBCMT:invarg.obj
 0001:00017287       __invalid_parameter_noinfo 10018287 f   LIBCMT:invarg.obj
 0001:00017297       __invalid_parameter_noinfo_noreturn 10018297 f   LIBCMT:invarg.obj
 0001:000172b2       __invoke_watson            100182b2 f   LIBCMT:invarg.obj
 0001:000172dd       __set_invalid_parameter_handler 100182dd f   LIBCMT:invarg.obj
 0001:00017302       __vprintf_l                10018302 f   LIBCMT:vprintf.obj
 0001:0001731d       __vprintf_p                1001831d f   LIBCMT:vprintf.obj
 0001:00017337       __vprintf_p_l              10018337 f   LIBCMT:vprintf.obj
 0001:00017352       __vprintf_s_l              10018352 f   LIBCMT:vprintf.obj
 0001:0001736d       _vprintf                   1001836d f   LIBCMT:vprintf.obj
 0001:00017387       _vprintf_helper            10018387 f   LIBCMT:vprintf.obj
 0001:00017414       _vprintf_s                 10018414 f   LIBCMT:vprintf.obj
 0001:0001742e       __ftbuf                    1001842e f   LIBCMT:_sftbuf.obj
 0001:0001745f       __stbuf                    1001845f f   LIBCMT:_sftbuf.obj
 0001:00017505       ??0_LocaleUpdate@@QAE@PAUlocaleinfo_struct@@@Z 10018505 f i LIBCMT:output.obj
 0001:0001758d       ??1_LocaleUpdate@@QAE@XZ   1001858d f i LIBCMT:output.obj
 0001:0001759b       ?GetLocaleT@_LocaleUpdate@@QAEPAUlocaleinfo_struct@@XZ 1001859b f i LIBCMT:output.obj
 0001:0001759e       __output_l                 1001859e f   LIBCMT:output.obj
 0001:0001811e       _get_int64_arg             1001911e f i LIBCMT:output.obj
 0001:00018131       _get_int_arg               10019131 f i LIBCMT:output.obj
 0001:00018141       _get_short_arg             10019141 f i LIBCMT:output.obj
 0001:00018240       __SEH_prolog4              10019240 f   LIBCMT:sehprolg4.obj
 0001:00018285       __SEH_epilog4              10019285 f   LIBCMT:sehprolg4.obj
 0001:000182e0       __except_handler4          100192e0 f   LIBCMT:chandler4.obj
 0001:00018474       ___libm_error_support      10019474 f   LIBCMT:libm_error.obj
 0001:0001875c       ___libm_setusermatherr     1001975c f   LIBCMT:libm_error.obj
 0001:00018788       __sse2_mathfcns_init       10019788 f   LIBCMT:mathfcns.obj
 0001:00018797       __set_SSE2_enable          10019797 f   LIBCMT:mathfcns.obj
 0001:000187b6       __ceil_default             100197b6 f   LIBCMT:ceil.obj
 0001:0001888d       __VEC_memset               1001988d f   LIBCMT:p4_memset.obj
 0001:00018955       ?strrchr@@YAPADPADH@Z      10019955 f i LIBCMT:cvt.obj
 0001:0001895e       __cfltcvt                  1001995e f   LIBCMT:cvt.obj
 0001:0001897f       __cfltcvt_l                1001997f f   LIBCMT:cvt.obj
 0001:00018a05       __cftoa                    10019a05 f   LIBCMT:cvt.obj
 0001:00018a23       __cftoa_l                  10019a23 f   LIBCMT:cvt.obj
 0001:00018d7f       __cftoe                    10019d7f f   LIBCMT:cvt.obj
 0001:00018eee       __cftoe_l                  10019eee f   LIBCMT:cvt.obj
 0001:00018fbc       __cftof                    10019fbc f   LIBCMT:cvt.obj
 0001:000190c3       __cftof_l                  1001a0c3 f   LIBCMT:cvt.obj
 0001:00019184       __cftog                    1001a184 f   LIBCMT:cvt.obj
 0001:000191a2       __cftog_l                  1001a1a2 f   LIBCMT:cvt.obj
 0001:000192a1       __cropzeros                1001a2a1 f   LIBCMT:cvt.obj
 0001:000192b2       __cropzeros_l              1001a2b2 f   LIBCMT:cvt.obj
 0001:00019332       __fassign                  1001a332 f   LIBCMT:cvt.obj
 0001:0001934a       __fassign_l                1001a34a f   LIBCMT:cvt.obj
 0001:0001938c       __forcdecpt                1001a38c f   LIBCMT:cvt.obj
 0001:0001939d       __forcdecpt_l              1001a39d f   LIBCMT:cvt.obj
 0001:00019411       __positive                 1001a411 f   LIBCMT:cvt.obj
 0001:00019453       __setdefaultprecision      1001a453 f   LIBCMT:fp8.obj
 0001:0001947a       __initp_misc_cfltcvt_tab   1001a47a f   LIBCMT:cmiscdat.obj
 0001:00019499       __crt_debugger_hook        1001a499 f   LIBCMT:dbghook.obj
 0001:000194ce       ___crtCloseThreadpoolTimer 1001a4ce f   LIBCMT:winapisupp.obj
 0001:000194e5       ___crtCloseThreadpoolWait  1001a4e5 f   LIBCMT:winapisupp.obj
 0001:000194fc       ___crtCreateEventExW       1001a4fc f   LIBCMT:winapisupp.obj
 0001:00019537       ___crtCreateSemaphoreExW   1001a537 f   LIBCMT:winapisupp.obj
 0001:00019571       ___crtCreateSymbolicLinkW  1001a571 f   LIBCMT:winapisupp.obj
 0001:0001959a       ___crtCreateThreadpoolTimer 1001a59a f   LIBCMT:winapisupp.obj
 0001:000195bb       ___crtCreateThreadpoolWait 1001a5bb f   LIBCMT:winapisupp.obj
 0001:000195dc       ___crtFlsAlloc             1001a5dc f   LIBCMT:winapisupp.obj
 0001:000195fa       ___crtFlsFree              1001a5fa f   LIBCMT:winapisupp.obj
 0001:00019619       ___crtFlsGetValue          1001a619 f   LIBCMT:winapisupp.obj
 0001:00019638       ___crtFlsSetValue          1001a638 f   LIBCMT:winapisupp.obj
 0001:0001965a       ___crtFlushProcessWriteBuffers 1001a65a f   LIBCMT:winapisupp.obj
 0001:0001966a       ___crtFreeLibraryWhenCallbackReturns 1001a66a f   LIBCMT:winapisupp.obj
 0001:00019684       ___crtGetCurrentProcessorNumber 1001a684 f   LIBCMT:winapisupp.obj
 0001:00019696       ___crtGetFileInformationByHandleEx 1001a696 f   LIBCMT:winapisupp.obj
 0001:000196c2       ___crtGetLogicalProcessorInformation 1001a6c2 f   LIBCMT:winapisupp.obj
 0001:000196e8       ___crtGetShowWindowMode    1001a6e8 f   LIBCMT:winapisupp.obj
 0001:0001970b       ___crtGetTickCount64       1001a70b f   LIBCMT:winapisupp.obj
 0001:00019723       ___crtInitializeCriticalSectionEx 1001a723 f   LIBCMT:winapisupp.obj
 0001:00019751       ___crtIsPackagedApp        1001a751 f   LIBCMT:winapisupp.obj
 0001:00019791       ___crtLoadWinApiPointers   1001a791 f   LIBCMT:winapisupp.obj
 0001:00019a1c       ___crtSetFileInformationByHandle 1001aa1c f   LIBCMT:winapisupp.obj
 0001:00019a48       ___crtSetThreadStackGuarantee 1001aa48 f   LIBCMT:winapisupp.obj
 0001:00019a63       ___crtSetThreadpoolTimer   1001aa63 f   LIBCMT:winapisupp.obj
 0001:00019a83       ___crtSetThreadpoolWait    1001aa83 f   LIBCMT:winapisupp.obj
 0001:00019aa0       ___crtSetUnhandledExceptionFilter 1001aaa0 f   LIBCMT:winapisupp.obj
 0001:00019aae       ___crtSleep                1001aaae f   LIBCMT:winapisupp.obj
 0001:00019abc       ___crtTerminateProcess     1001aabc f   LIBCMT:winapisupp.obj
 0001:00019ad1       ___crtUnhandledException   1001aad1 f   LIBCMT:winapisupp.obj
 0001:00019ae7       ___crtWaitForThreadpoolTimerCallbacks 1001aae7 f   LIBCMT:winapisupp.obj
 0001:00019b01       __RTC_Initialize           1001ab01 f   LIBCMT:initsect.obj
 0001:00019b21       __RTC_Terminate            1001ab21 f   LIBCMT:initsect.obj
 0001:00019b41       __lock                     1001ab41 f   LIBCMT:mlock.obj
 0001:00019b75       __lockerr_exit             1001ab75 f   LIBCMT:mlock.obj
 0001:00019b95       __mtdeletelocks            1001ab95 f   LIBCMT:mlock.obj
 0001:00019be9       __mtinitlocknum            1001abe9 f   LIBCMT:mlock.obj
 0001:00019c92       __mtinitlocks              1001ac92 f   LIBCMT:mlock.obj
 0001:00019ccb       __unlock                   1001accb f   LIBCMT:mlock.obj
 0001:00019ce0       __FindPESection            1001ace0 f   LIBCMT:pesect.obj
 0001:00019d30       __IsNonwritableInCurrentImage 1001ad30 f   LIBCMT:pesect.obj
 0001:00019df0       __ValidateImageBase        1001adf0 f   LIBCMT:pesect.obj
 0001:00019e21       ___onexitinit              1001ae21 f   LIBCMT:onexit.obj
 0001:00019e50       __onexit                   1001ae50 f   LIBCMT:onexit.obj
 0001:00019f4c       _atexit                    1001af4c f   LIBCMT:onexit.obj
 0001:00019f61       __calloc_crt               1001af61 f   LIBCMT:crtheap.obj
 0001:00019fa9       __malloc_crt               1001afa9 f   LIBCMT:crtheap.obj
 0001:00019ff0       __realloc_crt              1001aff0 f   LIBCMT:crtheap.obj
 0001:0001a03a       __recalloc_crt             1001b03a f   LIBCMT:crtheap.obj
 0001:0001a088       __set_malloc_crt_max_wait  1001b088 f   LIBCMT:crtheap.obj
 0001:0001a09b       _wait_a_bit                1001b09b f i LIBCMT:crtheap.obj
 0001:0001a0bf       ?_inconsistency@@YAXXZ     1001b0bf f   LIBCMT:hooks.obj
 0001:0001a0f7       ?terminate@@YAXXZ          1001b0f7 f   LIBCMT:hooks.obj
 0001:0001a12b       ?unexpected@@YAXXZ         1001b12b f   LIBCMT:hooks.obj
 0001:0001a13e       __initp_eh_hooks           1001b13e f   LIBCMT:hooks.obj
 0001:0001a14f       ___getlocaleinfo           1001b14f f   LIBCMT:inithelp.obj
 0001:0001a328       __initp_misc_purevirt      1001b328 f   LIBCMT:inithelp.obj
 0001:0001a335       ___fpecode                 1001b335 f   LIBCMT:winsig.obj
 0001:0001a33e       ___get_sigabrt             1001b33e f   LIBCMT:winsig.obj
 0001:0001a34b       ___pxcptinfoptrs           1001b34b f   LIBCMT:winsig.obj
 0001:0001a354       __initp_misc_winsig        1001b354 f   LIBCMT:winsig.obj
 0001:0001a415       _raise                     1001b415 f   LIBCMT:winsig.obj
 0001:0001a60a       _signal                    1001b60a f   LIBCMT:winsig.obj
 0001:0001a861       __initp_misc_rand_s        1001b861 f   LIBCMT:rand_s.obj
 0001:0001a86e       _rand_s                    1001b86e f   LIBCMT:rand_s.obj
 0001:0001a974       ___initmbctable            1001b974 f   LIBCMT:mbctype.obj
 0001:0001ac2b       ___updatetmbcinfo          1001bc2b f   LIBCMT:mbctype.obj
 0001:0001acd1       __getmbcp                  1001bcd1 f   LIBCMT:mbctype.obj
 0001:0001ad02       __setmbcp                  1001bd02 f   LIBCMT:mbctype.obj
 0001:0001aeaa       __setmbcp_nolock           1001beaa f   LIBCMT:mbctype.obj
 0001:0001b095       __calloc_impl              1001c095 f   LIBCMT:calloc_impl.obj
 0001:0001b10f       __fcloseall                1001c10f f   LIBCMT:closeall.obj
 0001:0001b1ac       __fflush_nolock            1001c1ac f   LIBCMT:fflush.obj
 0001:0001b1f2       __flush                    1001c1f2 f   LIBCMT:fflush.obj
 0001:0001b256       __flushall                 1001c256 f   LIBCMT:fflush.obj
 0001:0001b25f       _fflush                    1001c25f f   LIBCMT:fflush.obj
 0001:0001b39c       __fileno                   1001c39c f   LIBCMT:fileno.obj
 0001:0001b3c0       __close                    1001c3c0 f   LIBCMT:close.obj
 0001:0001b49b       __close_nolock             1001c49b f   LIBCMT:close.obj
 0001:0001b535       __freebuf                  1001c535 f   LIBCMT:_freebuf.obj
 0001:0001b565       __getstream                1001c565 f   LIBCMT:stream.obj
 0001:0001b684       __openfile                 1001c684 f   LIBCMT:_open.obj
 0001:0001b900       __local_unwind4            1001c900 f   LIBCMT:exsup4.obj
 0001:0001b9d6       __seh_longjmp_unwind4@4    1001c9d6 f   LIBCMT:exsup4.obj
 0001:0001b9f2       @_EH4_CallFilterFunc@8     1001c9f2 f   LIBCMT:exsup4.obj
 0001:0001ba09       @_EH4_TransferToHandler@8  1001ca09 f   LIBCMT:exsup4.obj
 0001:0001ba22       @_EH4_GlobalUnwind2@8      1001ca22 f   LIBCMT:exsup4.obj
 0001:0001ba3b       @_EH4_LocalUnwind@16       1001ca3b f   LIBCMT:exsup4.obj
 0001:0001ba52       __vfprintf_l               1001ca52 f   LIBCMT:vfprintf.obj
 0001:0001ba70       __vfprintf_p               1001ca70 f   LIBCMT:vfprintf.obj
 0001:0001ba8d       __vfprintf_p_l             1001ca8d f   LIBCMT:vfprintf.obj
 0001:0001baab       __vfprintf_s_l             1001caab f   LIBCMT:vfprintf.obj
 0001:0001bac9       _vfprintf                  1001cac9 f   LIBCMT:vfprintf.obj
 0001:0001bae6       _vfprintf_helper           1001cae6 f   LIBCMT:vfprintf.obj
 0001:0001bbf7       _vfprintf_s                1001cbf7 f   LIBCMT:vfprintf.obj
 0001:0001bc14       __ioinit                   1001cc14 f   LIBCMT:ioinit.obj
 0001:0001bec8       __ioterm                   1001cec8 f   LIBCMT:ioinit.obj
 0001:0001bf1a       __filbuf                   1001cf1a f   LIBCMT:_filbuf.obj
 0001:0001c03b       _memcpy_s                  1001d03b f   LIBCMT:memcpy_s.obj
 0001:0001c0ba       __read                     1001d0ba f   LIBCMT:read.obj
 0001:0001c1ce       __read_nolock              1001d1ce f   LIBCMT:read.obj
 0001:0001c95f       __flsbuf                   1001d95f f   LIBCMT:_flsbuf.obj
 0001:0001caae       __write                    1001daae f   LIBCMT:write.obj
 0001:0001cb9d       __write_nolock             1001db9d f   LIBCMT:write.obj
 0001:0001d402       __wremove                  1001e402 f   LIBCMT:wunlink.obj
 0001:0001d430       __wunlink                  1001e430 f   LIBCMT:wunlink.obj
 0001:0001d439       __lseek                    1001e439 f   LIBCMT:lseek.obj
 0001:0001d528       __lseek_nolock             1001e528 f   LIBCMT:lseek.obj
 0001:0001d5cf       __vscprintf                1001e5cf f   LIBCMT:vsprintf.obj
 0001:0001d5e9       __vscprintf_helper         1001e5e9 f   LIBCMT:vsprintf.obj
 0001:0001d645       __vscprintf_l              1001e645 f   LIBCMT:vsprintf.obj
 0001:0001d660       __vscprintf_p              1001e660 f   LIBCMT:vsprintf.obj
 0001:0001d67a       __vscprintf_p_l            1001e67a f   LIBCMT:vsprintf.obj
 0001:0001d695       __vsprintf_l               1001e695 f   LIBCMT:vsprintf.obj
 0001:0001d719       _vsprintf                  1001e719 f   LIBCMT:vsprintf.obj
 0001:0001d731       __vsnprintf_c              1001e731 f   LIBCMT:vsnprnc.obj
 0001:0001d758       __vsnprintf_c_l            1001e758 f   LIBCMT:vsnprnc.obj
 0001:0001d780       __vsnprintf_helper         1001e780 f   LIBCMT:vsnprnc.obj
 0001:0001d84a       __vsnprintf_s              1001e84a f   LIBCMT:vsnprnc.obj
 0001:0001d868       __vsnprintf_s_l            1001e868 f   LIBCMT:vsnprnc.obj
 0001:0001d968       __vsprintf_p               1001e968 f   LIBCMT:vsnprnc.obj
 0001:0001d98f       __vsprintf_p_l             1001e98f f   LIBCMT:vsnprnc.obj
 0001:0001d9b7       __vsprintf_s_l             1001e9b7 f   LIBCMT:vsnprnc.obj
 0001:0001da2c       _vsprintf_s                1001ea2c f   LIBCMT:vsnprnc.obj
 0001:0001da47       __chgsign                  1001ea47 f   LIBCMT:ieeemisc.obj
 0001:0001da74       __chgsignf                 1001ea74 f   LIBCMT:ieeemisc.obj
 0001:0001da95       __copysign                 1001ea95 f   LIBCMT:ieeemisc.obj
 0001:0001dabd       __copysignf                1001eabd f   LIBCMT:ieeemisc.obj
 0001:0001dad9       __finite                   1001ead9 f   LIBCMT:ieeemisc.obj
 0001:0001daf1       __fpclass                  1001eaf1 f   LIBCMT:ieeemisc.obj
 0001:0001db8d       __isnan                    1001eb8d f   LIBCMT:ieeemisc.obj
 0001:0001dbc0       __logb                     1001ebc0 f   LIBCMT:ieeemisc.obj
 0001:0001dca1       __nextafter                1001eca1 f   LIBCMT:ieeemisc.obj
 0001:0001df41       __scalb                    1001ef41 f   LIBCMT:ieeemisc.obj
 0001:0001df59       __add_exp                  1001ef59 f   LIBCMT:util.obj
 0001:0001df88       __decomp                   1001ef88 f   LIBCMT:util.obj
 0001:0001e05a       __get_exp                  1001f05a f   LIBCMT:util.obj
 0001:0001e073       __set_bexp                 1001f073 f   LIBCMT:util.obj
 0001:0001e09c       __set_exp                  1001f09c f   LIBCMT:util.obj
 0001:0001e0cb       __sptype                   1001f0cb f   LIBCMT:util.obj
 0001:0001e126       __errcode                  1001f126 f   LIBCMT:fpexcept.obj
 0001:0001e158       __except1                  1001f158 f   LIBCMT:fpexcept.obj
 0001:0001e220       __except2                  1001f220 f   LIBCMT:fpexcept.obj
 0001:0001e320       __handle_exc               1001f320 f   LIBCMT:fpexcept.obj
 0001:0001e4fe       __handle_qnan1             1001f4fe f   LIBCMT:fpexcept.obj
 0001:0001e54e       __handle_qnan2             1001f54e f   LIBCMT:fpexcept.obj
 0001:0001e5ae       __raise_exc                1001f5ae f   LIBCMT:fpexcept.obj
 0001:0001e5cf       __raise_exc_ex             1001f5cf f   LIBCMT:fpexcept.obj
 0001:0001e8b4       __raise_excf               1001f8b4 f   LIBCMT:fpexcept.obj
 0001:0001e8d5       __set_errno_from_matherr   1001f8d5 f   LIBCMT:fpexcept.obj
 0001:0001e902       __umatherr                 1001f902 f   LIBCMT:fpexcept.obj
 0001:0001e9a2       ___clrfp_sse2              1001f9a2 f   LIBCMT:fpctrl.obj
 0001:0001e9c3       ___ctrlfp_sse2             1001f9c3 f   LIBCMT:fpctrl.obj
 0001:0001e9fc       ___fclrf_sse2              1001f9fc f   LIBCMT:fpctrl.obj
 0001:0001ea19       ___get_fpsr_sse2           1001fa19 f   LIBCMT:fpctrl.obj
 0001:0001ea35       ___set_fpsr_sse2           1001fa35 f   LIBCMT:fpctrl.obj
 0001:0001eaab       ___set_statfp_sse2         1001faab f   LIBCMT:fpctrl.obj
 0001:0001eac4       ___statfp_sse2             1001fac4 f   LIBCMT:fpctrl.obj
 0001:0001ead9       __clrfp                    1001fad9 f   LIBCMT:fpctrl.obj
 0001:0001eaea       __ctrlfp                   1001faea f   LIBCMT:fpctrl.obj
 0001:0001eb15       __set_statfp               1001fb15 f   LIBCMT:fpctrl.obj
 0001:0001eb6d       __statfp                   1001fb6d f   LIBCMT:fpctrl.obj
 0001:0001eb7d       _wcscat_s                  1001fb7d f   LIBCMT:wcscat_s.obj
 0001:0001ebe9       _wcscpy_s                  1001fbe9 f   LIBCMT:wcscpy_s.obj
 0001:0001ec45       _wcslen                    1001fc45 f   LIBCMT:wcslen.obj
 0001:0001ec5e       _wcsncat_s                 1001fc5e f   LIBCMT:wcsncat_s.obj
 0001:0001ed2c       __set_abort_behavior       1001fd2c f   LIBCMT:abort.obj
 0001:0001ed4b       _abort                     1001fd4b f   LIBCMT:abort.obj
 0001:0001ed8e       ___set_app_type            1001fd8e f   LIBCMT:errmode.obj
 0001:0001ed9b       __set_error_mode           1001fd9b f   LIBCMT:errmode.obj
 0001:0001eef7       __i64tow_s                 1001fef7 f   LIBCMT:xtows.obj
 0001:0001ef28       __itow_s                   1001ff28 f   LIBCMT:xtows.obj
 0001:0001ef51       __ltow_s                   1001ff51 f   LIBCMT:xtows.obj
 0001:0001ef7b       __ui64tow_s                1001ff7b f   LIBCMT:xtows.obj
 0001:0001ef96       __ultow_s                  1001ff96 f   LIBCMT:xtows.obj
 0001:0001f0a1       _setvbuf                   100200a1 f   LIBCMT:setvbuf.obj
 0001:0001f1a7       __fwprintf_l               100201a7 f   LIBCMT:fwprintf.obj
 0001:0001f1c1       __fwprintf_p               100201c1 f   LIBCMT:fwprintf.obj
 0001:0001f1da       __fwprintf_p_l             100201da f   LIBCMT:fwprintf.obj
 0001:0001f1f4       __fwprintf_s_l             100201f4 f   LIBCMT:fwprintf.obj
 0001:0001f20e       _fwprintf                  1002020e f   LIBCMT:fwprintf.obj
 0001:0001f2a2       _fwprintf_s                100202a2 f   LIBCMT:fwprintf.obj
 0001:0001f2bb       __vsnwprintf_s             100202bb f   LIBCMT:vswprnc.obj
 0001:0001f2d9       __vsnwprintf_s_l           100202d9 f   LIBCMT:vswprnc.obj
 0001:0001f3dd       __vswprintf_c              100203dd f   LIBCMT:vswprnc.obj
 0001:0001f404       __vswprintf_c_l            10020404 f   LIBCMT:vswprnc.obj
 0001:0001f42c       __vswprintf_helper         1002042c f   LIBCMT:vswprnc.obj
 0001:0001f527       __vswprintf_p              10020527 f   LIBCMT:vswprnc.obj
 0001:0001f54e       __vswprintf_p_l            1002054e f   LIBCMT:vswprnc.obj
 0001:0001f576       __vswprintf_s_l            10020576 f   LIBCMT:vswprnc.obj
 0001:0001f5ed       _vswprintf_s               100205ed f   LIBCMT:vswprnc.obj
 0001:0001f608       ___crtMessageBoxW          10020608 f   LIBCMT:crtmboxw.obj
 0001:0001f7ee       ___crtMessageBoxWaitThreadW@4 100207ee f   LIBCMT:crtmboxw.obj
 0001:0001f80c       __XcptFilter               1002080c f   LIBCMT:winxfltr.obj
 0001:0001f967       ___CppXcptFilter           10020967 f   LIBCMT:winxfltr.obj
 0001:0001f9b9       ___get_flsindex            100209b9 f   LIBCMT:tidtable.obj
 0001:0001f9bf       ___threadhandle            100209bf f   LIBCMT:tidtable.obj
 0001:0001f9c5       ___threadid                100209c5 f   LIBCMT:tidtable.obj
 0001:0001f9cb       __freefls@4                100209cb f   LIBCMT:tidtable.obj
 0001:0001fb00       __freeptd                  10020b00 f   LIBCMT:tidtable.obj
 0001:0001fb36       __getptd                   10020b36 f   LIBCMT:tidtable.obj
 0001:0001fb4e       __getptd_noexit            10020b4e f   LIBCMT:tidtable.obj
 0001:0001fbbd       __initptd                  10020bbd f   LIBCMT:tidtable.obj
 0001:0001fc70       __mtinit                   10020c70 f   LIBCMT:tidtable.obj
 0001:0001fce6       __mtterm                   10020ce6 f   LIBCMT:tidtable.obj
 0001:0001fd03       __set_pgmptr               10020d03 f i LIBCMT:stdargv.obj
 0001:0001fd10       __setargv                  10020d10 f   LIBCMT:stdargv.obj
 0001:0001ff3f       __setenvp                  10020f3f f   LIBCMT:stdenvp.obj
 0001:00020020       ___security_init_cookie    10021020 f   LIBCMT:gs_support.obj
 0001:000200bc       ___crtGetEnvironmentStringsA 100210bc f   LIBCMT:a_env.obj
 0001:00020150       _strlen                    10021150 f   LIBCMT:strlen.obj
 0001:000201db       _wcsncpy_s                 100211db f   LIBCMT:wcsncpy_s.obj
 0001:00020299       __output_s_l               10021299 f   LIBCMT:outputs.obj
 0001:00020f21       __output_p_l               10021f21 f   LIBCMT:outputp.obj
 0001:00022259       __validate_param_reuseA    10023259 f   LIBCMT:outputp.obj
 0001:0002238f       _get_crtdouble_arg         1002338f f i LIBCMT:outputp.obj
 0001:0002248e       __isatty                   1002348e f   LIBCMT:isatty.obj
 0001:000224e2       ___addlocaleref            100234e2 f   LIBCMT:localref.obj
 0001:00022577       ___freetlocinfo            10023577 f   LIBCMT:localref.obj
 0001:000226d1       ___removelocaleref         100236d1 f   LIBCMT:localref.obj
 0001:00022771       ___updatetlocinfo          10023771 f   LIBCMT:localref.obj
 0001:000227f1       __updatetlocinfoEx_nolock  100237f1 f   LIBCMT:localref.obj
 0001:0002283c       ___iswcsym                 1002383c f i LIBCMT:_wctype.obj
 0001:00022860       ___iswcsymf                10023860 f i LIBCMT:_wctype.obj
 0001:00022884       __isleadbyte_l             10023884 f i LIBCMT:_wctype.obj
 0001:000228be       __iswalnum_l               100238be f i LIBCMT:_wctype.obj
 0001:000228d2       __iswalpha_l               100238d2 f i LIBCMT:_wctype.obj
 0001:000228e6       __iswblank_l               100238e6 f i LIBCMT:_wctype.obj
 0001:00022901       __iswcntrl_l               10023901 f i LIBCMT:_wctype.obj
 0001:00022912       __iswcsym_l                10023912 f i LIBCMT:_wctype.obj
 0001:00022936       __iswcsymf_l               10023936 f i LIBCMT:_wctype.obj
 0001:0002295a       __iswdigit_l               1002395a f i LIBCMT:_wctype.obj
 0001:0002296b       __iswgraph_l               1002396b f i LIBCMT:_wctype.obj
 0001:0002297f       __iswlower_l               1002397f f i LIBCMT:_wctype.obj
 0001:00022990       __iswprint_l               10023990 f i LIBCMT:_wctype.obj
 0001:000229a4       __iswpunct_l               100239a4 f i LIBCMT:_wctype.obj
 0001:000229b5       __iswspace_l               100239b5 f i LIBCMT:_wctype.obj
 0001:000229c6       __iswupper_l               100239c6 f i LIBCMT:_wctype.obj
 0001:000229d7       __iswxdigit_l              100239d7 f i LIBCMT:_wctype.obj
 0001:000229eb       _isleadbyte                100239eb f i LIBCMT:_wctype.obj
 0001:000229fc       _iswalnum                  100239fc f i LIBCMT:_wctype.obj
 0001:00022a10       _iswalpha                  10023a10 f i LIBCMT:_wctype.obj
 0001:00022a24       _iswascii                  10023a24 f i LIBCMT:_wctype.obj
 0001:00022a36       _iswblank                  10023a36 f i LIBCMT:_wctype.obj
 0001:00022a51       _iswcntrl                  10023a51 f i LIBCMT:_wctype.obj
 0001:00022a62       _iswdigit                  10023a62 f i LIBCMT:_wctype.obj
 0001:00022a73       _iswgraph                  10023a73 f i LIBCMT:_wctype.obj
 0001:00022a87       _iswlower                  10023a87 f i LIBCMT:_wctype.obj
 0001:00022a98       _iswprint                  10023a98 f i LIBCMT:_wctype.obj
 0001:00022aac       _iswpunct                  10023aac f i LIBCMT:_wctype.obj
 0001:00022abd       _iswspace                  10023abd f i LIBCMT:_wctype.obj
 0001:00022ace       _iswupper                  10023ace f i LIBCMT:_wctype.obj
 0001:00022adf       _iswxdigit                 10023adf f i LIBCMT:_wctype.obj
 0001:00022af3       __wctomb_l                 10023af3 f   LIBCMT:wctomb.obj
 0001:00022b42       __wctomb_s_l               10023b42 f   LIBCMT:wctomb.obj
 0001:00022c66       _wctomb                    10023c66 f   LIBCMT:wctomb.obj
 0001:00022c99       _wctomb_s                  10023c99 f   LIBCMT:wctomb.obj
 0001:00022cc0       __aulldvrm                 10023cc0 f   LIBCMT:ulldvrm.obj
 0001:00022d55       __matherr                  10023d55 f   LIBCMT:matherr.obj
 0001:00022d58       __frnd                     10023d58 f   LIBCMT:frnd.obj
 0001:00022d6c       ___isascii                 10023d6c f i LIBCMT:_ctype.obj
 0001:00022d7c       ___iscsym                  10023d7c f i LIBCMT:_ctype.obj
 0001:00022d9c       ___iscsymf                 10023d9c f i LIBCMT:_ctype.obj
 0001:00022db9       ___toascii                 10023db9 f i LIBCMT:_ctype.obj
 0001:00022dc4       __isalnum_l                10023dc4 f i LIBCMT:_ctype.obj
 0001:00022e1c       __isalpha_l                10023e1c f i LIBCMT:_ctype.obj
 0001:00022e74       __isblank_l                10023e74 f i LIBCMT:_ctype.obj
 0001:00022ece       __iscntrl_l                10023ece f i LIBCMT:_ctype.obj
 0001:00022f20       __iscsym_l                 10023f20 f i LIBCMT:_ctype.obj
 0001:00022f41       __iscsymf_l                10023f41 f i LIBCMT:_ctype.obj
 0001:00022f62       __isdigit_l                10023f62 f i LIBCMT:_ctype.obj
 0001:00022fb4       __isgraph_l                10023fb4 f i LIBCMT:_ctype.obj
 0001:0002300c       __islower_l                1002400c f i LIBCMT:_ctype.obj
 0001:0002305e       __isprint_l                1002405e f i LIBCMT:_ctype.obj
 0001:000230b6       __ispunct_l                100240b6 f i LIBCMT:_ctype.obj
 0001:00023108       __isspace_l                10024108 f i LIBCMT:_ctype.obj
 0001:0002315a       __isupper_l                1002415a f i LIBCMT:_ctype.obj
 0001:000231ac       __isxdigit_l               100241ac f i LIBCMT:_ctype.obj
 0001:00023204       _isalnum                   10024204 f i LIBCMT:_ctype.obj
 0001:00023231       _isalpha                   10024231 f i LIBCMT:_ctype.obj
 0001:0002325e       _isblank                   1002425e f i LIBCMT:_ctype.obj
 0001:00023293       _iscntrl                   10024293 f i LIBCMT:_ctype.obj
 0001:000232be       _isdigit                   100242be f i LIBCMT:_ctype.obj
 0001:000232e9       _isgraph                   100242e9 f i LIBCMT:_ctype.obj
 0001:00023316       _islower                   10024316 f i LIBCMT:_ctype.obj
 0001:00023341       _isprint                   10024341 f i LIBCMT:_ctype.obj
 0001:0002336e       _ispunct                   1002436e f i LIBCMT:_ctype.obj
 0001:00023399       _isspace                   10024399 f i LIBCMT:_ctype.obj
 0001:000233c4       _isupper                   100243c4 f i LIBCMT:_ctype.obj
 0001:000233ef       _isxdigit                  100243ef f i LIBCMT:_ctype.obj
 0001:0002341c       __tolower                  1002441c f   LIBCMT:tolower.obj
 0001:00023427       __tolower_l                10024427 f   LIBCMT:tolower.obj
 0001:0002356a       _tolower                   1002456a f   LIBCMT:tolower.obj
 0001:00023596       _strcpy_s                  10024596 f   LIBCMT:strcpy_s.obj
 0001:000235f0       _strrchr                   100245f0 f   LIBCMT:strrchr.obj
 0001:00023727       __fptostr                  10024727 f   LIBCMT:_fptostr.obj
 0001:000237d7       ___crt_atoflt_l            100247d7 f   LIBCMT:atodbl.obj
 0001:0002387b       __atodbl                   1002487b f   LIBCMT:atodbl.obj
 0001:00023890       __atodbl_l                 10024890 f   LIBCMT:atodbl.obj
 0001:0002391e       __atoflt                   1002491e f   LIBCMT:atodbl.obj
 0001:00023933       __atoflt_l                 10024933 f   LIBCMT:atodbl.obj
 0001:0002394b       __atoldbl                  1002494b f   LIBCMT:atodbl.obj
 0001:00023960       __atoldbl_l                10024960 f   LIBCMT:atodbl.obj
 0001:000239ef       ___dtold                   100249ef f   LIBCMT:cfout.obj
 0001:00023ab7       __fltout2                  10024ab7 f   LIBCMT:cfout.obj
 0001:00023b50       __alldvrm                  10024b50 f   LIBCMT:lldvrm.obj
 0001:00023c30       __aullshr                  10024c30 f   LIBCMT:ullshr.obj
 0001:00023c4f       __get_output_format        10024c4f f   LIBCMT:outputformat.obj
 0001:00023c55       __set_output_format        10024c55 f   LIBCMT:outputformat.obj
 0001:00023c87       __controlfp_s              10024c87 f   LIBCMT:contrlfp.obj
 0001:00023ce4       __fptrap                   10024ce4 f   LIBCMT:crt0fp.obj
 0001:00023ced       __msize                    10024ced f   LIBCMT:msize.obj
 0001:00023d1e       __recalloc                 10024d1e f   LIBCMT:recalloc.obj
 0001:00023d87       _strncpy_s                 10024d87 f   LIBCMT:strncpy_s.obj
 0001:00023f0f       __MallocaIsSizeInRange     10024f0f f i LIBCMT:a_loc.obj
 0001:00023f20       __MarkAllocaS              10024f20 f i LIBCMT:a_loc.obj
 0001:00023f34       ___crtGetLocaleInfoA       10024f34 f   LIBCMT:a_loc.obj
 0001:00023f6e       __freea                    10024f6e f i LIBCMT:a_loc.obj
 0001:00023f8c       _GetTableIndexFromLcid     10024f8c f   LIBCMT:winapinls.obj
 0001:00023fc1       _GetTableIndexFromLocaleName 10024fc1 f   LIBCMT:winapinls.obj
 0001:0002400f       ___crtCompareStringEx      1002500f f   LIBCMT:winapinls.obj
 0001:0002405b       ___crtDownlevelLCIDToLocaleName 1002505b f   LIBCMT:winapinls.obj
 0001:000240d7       ___crtDownlevelLocaleNameToLCID 100250d7 f   LIBCMT:winapinls.obj
 0001:00024115       ___crtEnumSystemLocalesEx  10025115 f   LIBCMT:winapinls.obj
 0001:00024152       ___crtGetDateFormatEx      10025152 f   LIBCMT:winapinls.obj
 0001:0002419b       ___crtGetLocaleInfoEx      1002519b f   LIBCMT:winapinls.obj
 0001:000241ca       ___crtGetTimeFormatEx      100251ca f   LIBCMT:winapinls.obj
 0001:000241ff       ___crtGetUserDefaultLocaleName 100251ff f   LIBCMT:winapinls.obj
 0001:0002422a       ___crtIsValidLocaleName    1002522a f   LIBCMT:winapinls.obj
 0001:00024255       ___crtLCMapStringEx        10025255 f   LIBCMT:winapinls.obj
 0001:000242a1       ___wcsnicmp_ascii          100252a1 f   LIBCMT:winapinls.obj
 0001:00024533       ___crtLCMapStringA         10025533 f   LIBCMT:a_map.obj
 0001:00024671       ___crtGetStringTypeA       10025671 f   LIBCMT:a_str.obj
 0001:000246b1       __commit                   100256b1 f   LIBCMT:commit.obj
 0001:0002479a       ___lock_fhandle            1002579a f   LIBCMT:osfinfo.obj
 0001:00024828       __alloc_osfhnd             10025828 f   LIBCMT:osfinfo.obj
 0001:000249d1       __free_osfhnd              100259d1 f   LIBCMT:osfinfo.obj
 0001:00024a57       __get_osfhandle            10025a57 f   LIBCMT:osfinfo.obj
 0001:00024abe       __open_osfhandle           10025abe f   LIBCMT:osfinfo.obj
 0001:00024bd4       __set_osfhnd               10025bd4 f   LIBCMT:osfinfo.obj
 0001:00024c56       __unlock_fhandle           10025c56 f   LIBCMT:osfinfo.obj
 0001:00024c7c       __open                     10025c7c f   LIBCMT:open.obj
 0001:00024d2c       __sopen                    10025d2c f   LIBCMT:open.obj
 0001:00024d5f       __sopen_helper             10025d5f f   LIBCMT:open.obj
 0001:00024e28       __sopen_nolock             10025e28 f   LIBCMT:open.obj
 0001:00024e76       __sopen_s                  10025e76 f   LIBCMT:open.obj
 0001:00024e94       __mbsnbcmp                 10025e94 f   LIBCMT:mbsnbcmp.obj
 0001:00024eac       __mbsnbcmp_l               10025eac f   LIBCMT:mbsnbcmp.obj
 0001:00024fc3       __mbsnbicmp                10025fc3 f   LIBCMT:mbsnbicm.obj
 0001:00024fdb       __mbsnbicmp_l              10025fdb f   LIBCMT:mbsnbicm.obj
 0001:000251a0       __global_unwind2           100261a0 f   LIBCMT:exsup.obj
 0001:00025205       __local_unwind2            10026205 f   LIBCMT:exsup.obj
 0001:00025289       __abnormal_termination     10026289 f   LIBCMT:exsup.obj
 0001:000252ac       __NLG_Notify1              100262ac f   LIBCMT:exsup.obj
 0001:000252b5       __NLG_Notify               100262b5 f   LIBCMT:exsup.obj
 0001:000252cc       __NLG_Dispatch             100262cc     LIBCMT:exsup.obj
 0001:000252cc       __NLG_Dispatch2            100262cc     LIBCMT:exsup.obj
 0001:000252d4       __NLG_Call                 100262d4 f   LIBCMT:exsup.obj
 0001:000252d6       __NLG_Return2              100262d6     LIBCMT:exsup.obj
 0001:000252d7       __getbuf                   100262d7 f   LIBCMT:_getbuf.obj
 0001:0002531d       __lseeki64                 1002631d f   LIBCMT:lseeki64.obj
 0001:00025419       __lseeki64_nolock          10026419 f   LIBCMT:lseeki64.obj
 0001:0002548c       __mbtowc_l                 1002648c f   LIBCMT:mbtowc.obj
 0001:00025581       _mbtowc                    10026581 f   LIBCMT:mbtowc.obj
 0001:00025599       __putwch                   10026599 f   LIBCMT:putwch.obj
 0001:000255e5       __putwch_nolock            100265e5 f   LIBCMT:putwch.obj
 0001:00025630       __chkstk                   10026630 f   LIBCMT:chkstk.obj
 0001:00025630       __alloca_probe             10026630 f   LIBCMT:chkstk.obj
 0001:0002565b       __vfwprintf_l              1002665b f   LIBCMT:vfwprint.obj
 0001:00025679       __vfwprintf_p              10026679 f   LIBCMT:vfwprint.obj
 0001:00025696       __vfwprintf_p_l            10026696 f   LIBCMT:vfwprint.obj
 0001:000256b4       __vfwprintf_s_l            100266b4 f   LIBCMT:vfwprint.obj
 0001:000256d2       _vfwprintf                 100266d2 f   LIBCMT:vfwprint.obj
 0001:000256ef       _vfwprintf_helper          100266ef f   LIBCMT:vfwprint.obj
 0001:00025782       _vfwprintf_s               10026782 f   LIBCMT:vfwprint.obj
 0001:0002579f       __woutput_l                1002679f f   LIBCMT:woutput.obj
 0001:0002647e       __woutput_s_l              1002747e f   LIBCMT:woutputs.obj
 0001:00027195       __validate_param_reuseW    10028195 f   LIBCMT:woutputp.obj
 0001:0002730d       __woutput_p_l              1002830d f   LIBCMT:woutputp.obj
 0001:00028736       __ismbbalnum               10029736 f   LIBCMT:ismbbyte.obj
 0001:0002874f       __ismbbalnum_l             1002974f f   LIBCMT:ismbbyte.obj
 0001:00028769       __ismbbalpha               10029769 f   LIBCMT:ismbbyte.obj
 0001:00028782       __ismbbalpha_l             10029782 f   LIBCMT:ismbbyte.obj
 0001:0002879c       __ismbbblank               1002979c f   LIBCMT:ismbbyte.obj
 0001:000287bd       __ismbbblank_l             100297bd f   LIBCMT:ismbbyte.obj
 0001:000287df       __ismbbgraph               100297df f   LIBCMT:ismbbyte.obj
 0001:000287f8       __ismbbgraph_l             100297f8 f   LIBCMT:ismbbyte.obj
 0001:00028812       __ismbbkalnum              10029812 f   LIBCMT:ismbbyte.obj
 0001:00028828       __ismbbkalnum_l            10029828 f   LIBCMT:ismbbyte.obj
 0001:0002883f       __ismbbkana                1002983f f   LIBCMT:ismbbyte.obj
 0001:00028850       __ismbbkana_l              10029850 f   LIBCMT:ismbbyte.obj
 0001:0002889c       __ismbbkprint              1002989c f   LIBCMT:ismbbyte.obj
 0001:000288b2       __ismbbkprint_l            100298b2 f   LIBCMT:ismbbyte.obj
 0001:000288c9       __ismbbkpunct              100298c9 f   LIBCMT:ismbbyte.obj
 0001:000288df       __ismbbkpunct_l            100298df f   LIBCMT:ismbbyte.obj
 0001:000288f6       __ismbblead                100298f6 f   LIBCMT:ismbbyte.obj
 0001:0002890c       __ismbblead_l              1002990c f   LIBCMT:ismbbyte.obj
 0001:00028923       __ismbbprint               10029923 f   LIBCMT:ismbbyte.obj
 0001:0002893c       __ismbbprint_l             1002993c f   LIBCMT:ismbbyte.obj
 0001:00028956       __ismbbpunct               10029956 f   LIBCMT:ismbbyte.obj
 0001:0002896c       __ismbbpunct_l             1002996c f   LIBCMT:ismbbyte.obj
 0001:00028983       __ismbbtrail               10029983 f   LIBCMT:ismbbyte.obj
 0001:00028999       __ismbbtrail_l             10029999 f   LIBCMT:ismbbyte.obj
 0001:00028bd6       __strtol_l                 10029bd6 f   LIBCMT:strtol.obj
 0001:00028bf1       __strtoul_l                10029bf1 f   LIBCMT:strtol.obj
 0001:00028c0c       _strtol                    10029c0c f   LIBCMT:strtol.obj
 0001:00028c36       _strtoul                   10029c36 f   LIBCMT:strtol.obj
 0001:00028c60       ___free_lconv_mon          10029c60 f   LIBCMT:initmon.obj
 0001:00028d5c       ___init_monetary           10029d5c f   LIBCMT:initmon.obj
 0001:00029135       ___free_lconv_num          1002a135 f   LIBCMT:initnum.obj
 0001:0002919c       ___init_numeric            1002a19c f   LIBCMT:initnum.obj
 0001:000293da       ___free_lc_time            1002a3da f   LIBCMT:inittime.obj
 0001:0002975a       ___init_time               1002a75a f   LIBCMT:inittime.obj
 0001:00029fc9       _localeconv                1002afc9 f   LIBCMT:lconv.obj
 0001:00029fef       __iswctype_l               1002afef f   LIBCMT:iswctype.obj
 0001:0002a001       _is_wctype                 1002b001 f   LIBCMT:iswctype.obj
 0001:0002a00a       _iswctype                  1002b00a f   LIBCMT:iswctype.obj
 0001:0002a060       ____lc_codepage_func       1002b060 f   LIBCMT:initctyp.obj
 0001:0002a086       ____lc_collate_cp_func     1002b086 f   LIBCMT:initctyp.obj
 0001:0002a0ac       ____lc_locale_name_func    1002b0ac f   LIBCMT:initctyp.obj
 0001:0002a0d4       ____mb_cur_max_func        1002b0d4 f   LIBCMT:initctyp.obj
 0001:0002a0fa       ____mb_cur_max_l_func      1002b0fa f   LIBCMT:initctyp.obj
 0001:0002a111       ___init_ctype              1002b111 f   LIBCMT:initctyp.obj
 0001:0002a4a9       ___pctype_func             1002b4a9 f   LIBCMT:ctype.obj
 0001:0002a4d2       ___pwctype_func            1002b4d2 f   LIBCMT:ctype.obj
 0001:0002a4d8       __isctype                  1002b4d8 f   LIBCMT:isctype.obj
 0001:0002a507       __isctype_l                1002b507 f   LIBCMT:isctype.obj
 0001:0002a5b8       ___init_dummy              1002b5b8 f   LIBCMT:wsetloca.obj
 0001:0002a5bb       __locterm                  1002b5bb f   LIBCMT:wsetloca.obj
 0001:0002a60d       ____setlc_active_func      1002b60d f   LIBCMT:wsetloca.obj
 0001:0002a613       ____unguarded_readlc_active_add_func 1002b613 f   LIBCMT:wsetloca.obj
 0001:0002a619       ___copy_locale_name        1002b619 f   LIBCMT:wsetloca.obj
 0001:0002a67d       ___create_locale           1002b67d f   LIBCMT:wsetloca.obj
 0001:0002a686       ___free_locale             1002b686 f   LIBCMT:wsetloca.obj
 0001:0002a68b       ___get_current_locale      1002b68b f   LIBCMT:wsetloca.obj
 0001:0002a690       ___lc_lctowcs              1002b690 f   LIBCMT:wsetloca.obj
 0001:0002a6fe       ___lc_wcstolc              1002b6fe f   LIBCMT:wsetloca.obj
 0001:0002a82a       __configthreadlocale       1002b82a f   LIBCMT:wsetloca.obj
 0001:0002a8b0       __create_locale            1002b8b0 f   LIBCMT:wsetloca.obj
 0001:0002a912       __expandlocale             1002b912 f   LIBCMT:wsetloca.obj
 0001:0002ac09       __free_locale              1002bc09 f   LIBCMT:wsetloca.obj
 0001:0002acc0       __get_current_locale       1002bcc0 f   LIBCMT:wsetloca.obj
 0001:0002ad6f       __wcreate_locale           1002bd6f f   LIBCMT:wsetloca.obj
 0001:0002ae46       __wcscats                  1002be46 f   LIBCMT:wsetloca.obj
 0001:0002ae85       __wsetlocale               1002be85 f   LIBCMT:wsetloca.obj
 0001:0002b7c7       __CopyMan                  1002c7c7 f i LIBCMT:intrncvt.obj
 0001:0002b7e4       __FillZeroMan              1002c7e4 f i LIBCMT:intrncvt.obj
 0001:0002b7f3       __IncMan                   1002c7f3 f i LIBCMT:intrncvt.obj
 0001:0002b855       __IsZeroMan                1002c855 f i LIBCMT:intrncvt.obj
 0001:0002b872       __RoundMan                 1002c872 f i LIBCMT:intrncvt.obj
 0001:0002b973       __ShrMan                   1002c973 f i LIBCMT:intrncvt.obj
 0001:0002ba01       __ZeroTail                 1002ca01 f i LIBCMT:intrncvt.obj
 0001:0002ba49       ___addl                    1002ca49 f i LIBCMT:intrncvt.obj
 0001:0002ba6d       __ld12cvt                  1002ca6d f i LIBCMT:intrncvt.obj
 0001:0002bfd8       __ld12tod                  1002cfd8 f   LIBCMT:intrncvt.obj
 0001:0002c54a       __ld12tof                  1002d54a f   LIBCMT:intrncvt.obj
 0001:0002cabc       __ld12told                 1002dabc f   LIBCMT:intrncvt.obj
 0001:0002cb8b       ___STRINGTOLD_L            1002db8b f   LIBCMT:strgtold.obj
 0001:0002cbe6       ___ld12mul                 1002dbe6 f i LIBCMT:strgtold.obj
 0001:0002ceb2       ___multtenpow12            1002deb2 f i LIBCMT:strgtold.obj
 0001:0002d205       ___shl_12                  1002e205 f i LIBCMT:strgtold.obj
 0001:0002d236       ___shr_12                  1002e236 f i LIBCMT:strgtold.obj
 0001:0002d266       ___strgtold12_l            1002e266 f   LIBCMT:strgtold.obj
 0001:0002da0e       _$I10_OUTPUT               1002ea0e f   LIBCMT:x10fout.obj
 0001:0002e3e2       ___add_12                  1002f3e2 f i LIBCMT:x10fout.obj
 0001:0002e58e       ___control87_2             1002f58e f   LIBCMT:ieee87.obj
 0001:0002ec02       __clearfp                  1002fc02 f   LIBCMT:ieee87.obj
 0001:0002ece2       __control87                1002fce2 f i LIBCMT:ieee87.obj
 0001:0002efe4       __controlfp                1002ffe4 f   LIBCMT:ieee87.obj
 0001:0002f2ef       __fpreset                  100302ef f   LIBCMT:ieee87.obj
 0001:0002f3bc       __set_controlfp            100303bc f   LIBCMT:ieee87.obj
 0001:0002f42f       __statusfp                 1003042f f   LIBCMT:ieee87.obj
 0001:0002f4c9       __statusfp2                100304c9 f   LIBCMT:ieee87.obj
 0001:0002f530       __alloca_probe_16          10030530 f   LIBCMT:alloca16.obj
 0001:0002f546       __alloca_probe_8           10030546     LIBCMT:alloca16.obj
 0001:0002f55c       _wcsnlen                   1003055c f   LIBCMT:wcslen_s.obj
 0001:0002f603       __wopen                    10030603 f   LIBCMT:wopen.obj
 0001:0002f6b3       __wsopen                   100306b3 f   LIBCMT:wopen.obj
 0001:0002f6e6       __wsopen_helper            100306e6 f   LIBCMT:wopen.obj
 0001:0002f7af       __wsopen_nolock            100307af f   LIBCMT:wopen.obj
 0001:0002ff02       __wsopen_s                 10030f02 f   LIBCMT:wopen.obj
 0001:0002ff20       _strncmp                   10030f20 f   LIBCMT:strncmp.obj
 0001:0002ff98       __strnicmp                 10030f98 f   LIBCMT:strnicmp.obj
 0001:00030003       __strnicmp_l               10031003 f   LIBCMT:strnicmp.obj
 0001:000300b4       ___termconout              100310b4 f   LIBCMT:initcon.obj
 0001:000300cb       ___initconout              100310cb f   LIBCMT:initcon.obj
 0001:000300ea       __fputwc_nolock            100310ea f   LIBCMT:fputwc.obj
 0001:00030270       _fputwc                    10031270 f   LIBCMT:fputwc.obj
 0001:000302e7       _putwc                     100312e7 f   LIBCMT:fputwc.obj
 0001:000304d1       __wcstol_l                 100314d1 f   LIBCMT:wcstol.obj
 0001:000304e9       __wcstoul_l                100314e9 f   LIBCMT:wcstol.obj
 0001:00030501       _wcstol                    10031501 f   LIBCMT:wcstol.obj
 0001:00030519       _wcstoul                   10031519 f   LIBCMT:wcstol.obj
 0001:00030531       ___init_collate            10031531 f   LIBCMT:initcoll.obj
 0001:00030651       _memcmp                    10031651 f   LIBCMT:memcmp.obj
 0001:00033565       _wcscmp                    10034565 f   LIBCMT:wcscmp.obj
 0001:000335a3       _wcscspn                   100345a3 f   LIBCMT:wcscspn.obj
 0001:000335ee       _wcsncmp                   100345ee f   LIBCMT:wcsncmp.obj
 0001:00033624       _wcspbrk                   10034624 f   LIBCMT:wcspbrk.obj
 0001:00033c28       ___get_qualified_locale    10034c28 f   LIBCMT:getqloc.obj
 0001:00034498       ___get_qualified_locale_downlevel 10035498 f   LIBCMT:getqloc_downlevel.obj
 0001:000346b4       ___mtold12                 100356b4 f   LIBCMT:mantold.obj
 0001:00034894       __chsize                   10035894 f   LIBCMT:chsize.obj
 0001:000348ae       __chsize_nolock            100358ae f   LIBCMT:chsize.obj
 0001:00034a64       __chsize_s                 10035a64 f   LIBCMT:chsize.obj
 0001:00034b52       __get_fmode                10035b52 f   LIBCMT:setmode.obj
 0001:00034b7c       __set_fmode                10035b7c f   LIBCMT:setmode.obj
 0001:00034bb7       __setmode                  10035bb7 f   LIBCMT:setmode.obj
 0001:00034cbc       __setmode_nolock           10035cbc f   LIBCMT:setmode.obj
 0001:00034d90       ___ascii_strnicmp          10035d90 f   LIBCMT:_strnicm.obj
 0001:00034df1       __flswbuf                  10035df1 f   LIBCMT:_flswbuf.obj
 0001:00034f53       __wchartodigit             10035f53 f   LIBCMT:wchtodig.obj
 0001:000350f2       __wtoi                     100360f2 f   LIBCMT:wtox.obj
 0001:000350fb       __wtoi64                   100360fb f   LIBCMT:wtox.obj
 0001:0003510f       __wtoi64_l                 1003610f f   LIBCMT:wtox.obj
 0001:00035126       __wtoi_l                   10036126 f   LIBCMT:wtox.obj
 0001:0003512f       __wtol                     1003612f f   LIBCMT:wtox.obj
 0001:00035143       __wtol_l                   10036143 f   LIBCMT:wtox.obj
 0001:0003515a       __wtoll                    1003615a f   LIBCMT:wtox.obj
 0001:0003516e       __wtoll_l                  1003616e f   LIBCMT:wtox.obj
 0001:00035185       _wcschr                    10036185 f   LIBCMT:wcschr.obj
 0001:00035233       __wcsicmp                  10036233 f   LIBCMT:wcsicmp.obj
 0001:000352c6       __wcsicmp_l                100362c6 f   LIBCMT:wcsicmp.obj
 0001:000353a1       __wcsnicmp                 100363a1 f   LIBCMT:wcsnicmp.obj
 0001:00035457       __wcsnicmp_l               10036457 f   LIBCMT:wcsnicmp.obj
 0001:00035820       __wcstof_l                 10036820 f   LIBCMT:wcstoq.obj
 0001:000358d3       __wcstoi64                 100368d3 f   LIBCMT:wcstoq.obj
 0001:000358fd       __wcstoi64_l               100368fd f   LIBCMT:wcstoq.obj
 0001:00035918       __wcstoimax_l              10036918 f   LIBCMT:wcstoq.obj
 0001:00035921       __wcstold_l                10036921 f   LIBCMT:wcstoq.obj
 0001:0003592a       __wcstoll_l                1003692a f   LIBCMT:wcstoq.obj
 0001:00035933       __wcstoui64                10036933 f   LIBCMT:wcstoq.obj
 0001:0003595d       __wcstoui64_l              1003695d f   LIBCMT:wcstoq.obj
 0001:00035978       __wcstoull_l               10036978 f   LIBCMT:wcstoq.obj
 0001:00035981       __wcstoumax_l              10036981 f   LIBCMT:wcstoq.obj
 0001:0003598a       _wcstof                    1003698a f   LIBCMT:wcstoq.obj
 0001:0003599f       _wcstoimax                 1003699f f   LIBCMT:wcstoq.obj
 0001:000359a8       _wcstold                   100369a8 f   LIBCMT:wcstoq.obj
 0001:000359b1       _wcstoll                   100369b1 f   LIBCMT:wcstoq.obj
 0001:000359ba       _wcstoull                  100369ba f   LIBCMT:wcstoq.obj
 0001:000359c3       _wcstoumax                 100369c3 f   LIBCMT:wcstoq.obj
 0001:000359cc       __towlower_l               100369cc f   LIBCMT:towlower.obj
 0001:00035a7d       _towlower                  10036a7d f   LIBCMT:towlower.obj
 0001:00035a8e       __wcstod_l                 10036a8e f   LIBCMT:wcstod.obj
 0001:00035b89       _wcstod                    10036b89 f   LIBCMT:wcstod.obj
 0001:00035ba0       __allmul                   10036ba0 f   LIBCMT:llmul.obj
 0001:00035bd4       ___crtLCMapStringW         10036bd4 f   LIBCMT:w_map.obj
 0001:00035c03       __wfltin2                  10036c03 f   LIBCMT:wcfin.obj
 0001:00035cb0       ___WSTRINGTOLD_L           10036cb0 f   LIBCMT:wstrgtold.obj
 0001:00035d0b       ___wstrgtold12_l           10036d0b f   LIBCMT:wstrgtold.obj
 0001:0003655c       _GetModuleHandleA@4        1003755c f   kernel32:KERNEL32.dll
 0001:00036562       _GetProcAddress@8          10037562 f   kernel32:KERNEL32.dll
 0001:00036568       _HeapAlloc@12              10037568 f   kernel32:KERNEL32.dll
 0001:0003656e       _IsDebuggerPresent@0       1003756e f   kernel32:KERNEL32.dll
 0001:00036574       _IsProcessorFeaturePresent@4 10037574 f   kernel32:KERNEL32.dll
 0001:0003657a       _EncodePointer@4           1003757a f   kernel32:KERNEL32.dll
 0001:00036580       _DecodePointer@4           10037580 f   kernel32:KERNEL32.dll
 0001:00036586       _GetLastError@0            10037586 f   kernel32:KERNEL32.dll
 0001:0003658c       _ExitProcess@4             1003758c f   kernel32:KERNEL32.dll
 0001:00036592       _GetModuleHandleExW@12     10037592 f   kernel32:KERNEL32.dll
 0001:00036598       _AreFileApisANSI@0         10037598 f   kernel32:KERNEL32.dll
 0001:0003659e       _MultiByteToWideChar@24    1003759e f   kernel32:KERNEL32.dll
 0001:000365a4       _WideCharToMultiByte@32    100375a4 f   kernel32:KERNEL32.dll
 0001:000365aa       _HeapFree@12               100375aa f   kernel32:KERNEL32.dll
 0001:000365b0       _HeapReAlloc@16            100375b0 f   kernel32:KERNEL32.dll
 0001:000365b6       _EnterCriticalSection@4    100375b6 f   kernel32:KERNEL32.dll
 0001:000365bc       _LeaveCriticalSection@4    100375bc f   kernel32:KERNEL32.dll
 0001:000365c2       _GetStdHandle@4            100375c2 f   kernel32:KERNEL32.dll
 0001:000365c8       _GetFileType@4             100375c8 f   kernel32:KERNEL32.dll
 0001:000365ce       _GetModuleFileNameW@12     100375ce f   kernel32:KERNEL32.dll
 0001:000365d4       _WriteConsoleW@20          100375d4 f   kernel32:KERNEL32.dll
 0001:000365da       _GetCommandLineA@0         100375da f   kernel32:KERNEL32.dll
 0001:000365e0       _GetCurrentThreadId@0      100375e0 f   kernel32:KERNEL32.dll
 0001:000365e6       _WriteFile@20              100375e6 f   kernel32:KERNEL32.dll
 0001:000365ec       _GetProcessHeap@0          100375ec f   kernel32:KERNEL32.dll
 0001:000365f2       _UnhandledExceptionFilter@4 100375f2 f   kernel32:KERNEL32.dll
 0001:000365f8       _SetUnhandledExceptionFilter@4 100375f8 f   kernel32:KERNEL32.dll
 0001:000365fe       _SetLastError@4            100375fe f   kernel32:KERNEL32.dll
 0001:00036604       _InitializeCriticalSectionAndSpinCount@8 10037604 f   kernel32:KERNEL32.dll
 0001:0003660a       _CreateEventW@16           1003760a f   kernel32:KERNEL32.dll
 0001:00036610       _Sleep@4                   10037610 f   kernel32:KERNEL32.dll
 0001:00036616       _GetCurrentProcess@0       10037616 f   kernel32:KERNEL32.dll
 0001:0003661c       _TerminateProcess@8        1003761c f   kernel32:KERNEL32.dll
 0001:00036622       _TlsAlloc@0                10037622 f   kernel32:KERNEL32.dll
 0001:00036628       _TlsGetValue@4             10037628 f   kernel32:KERNEL32.dll
 0001:0003662e       _TlsSetValue@8             1003762e f   kernel32:KERNEL32.dll
 0001:00036634       _TlsFree@4                 10037634 f   kernel32:KERNEL32.dll
 0001:0003663a       _GetStartupInfoW@4         1003763a f   kernel32:KERNEL32.dll
 0001:00036640       _GetTickCount@0            10037640 f   kernel32:KERNEL32.dll
 0001:00036646       _GetModuleHandleW@4        10037646 f   kernel32:KERNEL32.dll
 0001:0003664c       _CreateSemaphoreW@16       1003764c f   kernel32:KERNEL32.dll
 0001:00036652       _DeleteCriticalSection@4   10037652 f   kernel32:KERNEL32.dll
 0001:00036658       _FatalAppExitA@8           10037658 f   kernel32:KERNEL32.dll
 0001:0003665e       _SetConsoleCtrlHandler@8   1003765e f   kernel32:KERNEL32.dll
 0001:00036664       _FreeLibrary@4             10037664 f   kernel32:KERNEL32.dll
 0001:0003666a       _LoadLibraryExW@12         1003766a f   kernel32:KERNEL32.dll
 0001:00036670       _IsValidCodePage@4         10037670 f   kernel32:KERNEL32.dll
 0001:00036676       _GetACP@0                  10037676 f   kernel32:KERNEL32.dll
 0001:0003667c       _GetOEMCP@0                1003767c f   kernel32:KERNEL32.dll
 0001:00036682       _GetCPInfo@8               10037682 f   kernel32:KERNEL32.dll
 0001:00036688       _CloseHandle@4             10037688 f   kernel32:KERNEL32.dll
 0001:0003668e       _RtlUnwind@16              1003768e f   kernel32:KERNEL32.dll
 0001:00036694       _ReadFile@20               10037694 f   kernel32:KERNEL32.dll
 0001:0003669a       _GetConsoleMode@8          1003769a f   kernel32:KERNEL32.dll
 0001:000366a0       _ReadConsoleW@20           100376a0 f   kernel32:KERNEL32.dll
 0001:000366a6       _GetConsoleCP@0            100376a6 f   kernel32:KERNEL32.dll
 0001:000366ac       _DeleteFileW@4             100376ac f   kernel32:KERNEL32.dll
 0001:000366b2       _SetFilePointerEx@20       100376b2 f   kernel32:KERNEL32.dll
 0001:000366b8       _RaiseException@16         100376b8 f   kernel32:KERNEL32.dll
 0001:000366be       _OutputDebugStringW@4      100376be f   kernel32:KERNEL32.dll
 0001:000366c4       _GetCurrentThread@0        100376c4 f   kernel32:KERNEL32.dll
 0001:000366ca       _GetModuleFileNameA@12     100376ca f   kernel32:KERNEL32.dll
 0001:000366d0       _QueryPerformanceCounter@4 100376d0 f   kernel32:KERNEL32.dll
 0001:000366d6       _GetCurrentProcessId@0     100376d6 f   kernel32:KERNEL32.dll
 0001:000366dc       _GetSystemTimeAsFileTime@4 100376dc f   kernel32:KERNEL32.dll
 0001:000366e2       _GetEnvironmentStringsW@0  100376e2 f   kernel32:KERNEL32.dll
 0001:000366e8       _FreeEnvironmentStringsW@4 100376e8 f   kernel32:KERNEL32.dll
 0001:000366ee       _HeapSize@12               100376ee f   kernel32:KERNEL32.dll
 0001:000366f4       _GetDateFormatW@24         100376f4 f   kernel32:KERNEL32.dll
 0001:000366fa       _GetTimeFormatW@24         100376fa f   kernel32:KERNEL32.dll
 0001:00036700       _CompareStringW@24         10037700 f   kernel32:KERNEL32.dll
 0001:00036706       _LCMapStringW@24           10037706 f   kernel32:KERNEL32.dll
 0001:0003670c       _GetLocaleInfoW@16         1003770c f   kernel32:KERNEL32.dll
 0001:00036712       _IsValidLocale@8           10037712 f   kernel32:KERNEL32.dll
 0001:00036718       _GetUserDefaultLCID@0      10037718 f   kernel32:KERNEL32.dll
 0001:0003671e       _EnumSystemLocalesW@8      1003771e f   kernel32:KERNEL32.dll
 0001:00036724       _GetStringTypeW@16         10037724 f   kernel32:KERNEL32.dll
 0001:0003672a       _FlushFileBuffers@4        1003772a f   kernel32:KERNEL32.dll
 0001:00036730       _SetStdHandle@8            10037730 f   kernel32:KERNEL32.dll
 0001:00036736       _CreateFileW@28            10037736 f   kernel32:KERNEL32.dll
 0001:0003673c       _SetEndOfFile@4            1003773c f   kernel32:KERNEL32.dll
 0002:00000000       ___xc_a                    10042000     LIBCMT:crt0init.obj
 0002:00000104       ___xc_z                    10042104     LIBCMT:crt0init.obj
 0002:00000208       ___xi_a                    10042208     LIBCMT:crt0init.obj
 0002:00000424       ___xi_z                    10042424     LIBCMT:crt0init.obj
 0002:00000528       ___xp_a                    10042528     LIBCMT:crt0init.obj
 0002:0000083c       ___xp_z                    1004283c     LIBCMT:crt0init.obj
 0002:00000940       ___xt_a                    10042940     LIBCMT:crt0init.obj
 0002:00000a44       ___xt_z                    10042a44     LIBCMT:crt0init.obj
 0002:00000b88       _FingerStrokeAssistance_M  10042b88     FingerStrokeAssistance.obj
 0002:00000b8c       ??_C@_0BI@PBFPDHLE@Error?5creating?5scope?54?6?$AA@ 10042b8c     FingerStrokeAssistance.obj
 0002:00000ba8       ??_C@_0BG@FLOHFMFJ@MATLAB?5Function?1p2?1s2?$AA@ 10042ba8     FingerStrokeAssistance.obj
 0002:00000bc4       ??_C@_0DB@ENPBKHPM@Robot?1account?5for?5handedness1?1MA@ 10042bc4     FingerStrokeAssistance.obj
 0002:00000c00       ??_C@_0O@CAPLFIJB@Robot?1Gain?1s2?$AA@ 10042c00     FingerStrokeAssistance.obj
 0002:00000c10       ??_C@_0BG@JDAHNDCJ@MATLAB?5Function?1p7?1s2?$AA@ 10042c10     FingerStrokeAssistance.obj
 0002:00000c2c       ??_C@_0N@NDALLKN@Robot?1Sum?1s2?$AA@ 10042c2c     FingerStrokeAssistance.obj
 0002:00000c3c       ??_C@_0O@DNKOCOOP@f_ref2?3?$CF15?46f?$AA@ 10042c3c     FingerStrokeAssistance.obj
 0002:00000c4c       ??_C@_0BA@BAONOGED@enc_raw2?3?$CF15?46f?$AA@ 10042c4c     FingerStrokeAssistance.obj
 0002:00000c60       ??_C@_0BB@NKMEAAFC@enc_norm2?3?$CF15?46f?$AA@ 10042c60     FingerStrokeAssistance.obj
 0002:00000c74       ??_C@_0BB@GFJCGJHB@pos_ref_2?3?$CF15?46f?$AA@ 10042c74     FingerStrokeAssistance.obj
 0002:00000c88       ??_C@_0BC@IDGACA@pos_meas_2?3?$CF15?46f?$AA@ 10042c88     FingerStrokeAssistance.obj
 0002:00000ca0       ??_C@_0BI@PEBACBDB@Error?5creating?5scope?53?6?$AA@ 10042ca0     FingerStrokeAssistance.obj
 0002:00000cbc       ??_C@_0BG@HAMKAPJK@MATLAB?5Function?1p2?1s1?$AA@ 10042cbc     FingerStrokeAssistance.obj
 0002:00000cd8       ??_C@_0DB@GGNMPEDP@Robot?1account?5for?5handedness1?1MA@ 10042cd8     FingerStrokeAssistance.obj
 0002:00000d14       ??_C@_0O@LNGALFC@Robot?1Gain?1s1?$AA@ 10042d14     FingerStrokeAssistance.obj
 0002:00000d24       ??_C@_0BG@LICKIAOK@MATLAB?5Function?1p7?1s1?$AA@ 10042d24     FingerStrokeAssistance.obj
 0002:00000d40       ??_C@_0N@CGBNOIGO@Robot?1Sum?1s1?$AA@ 10042d40     FingerStrokeAssistance.obj
 0002:00000d50       ??_C@_0O@ECDBCCK@f_ref1?3?$CF15?46f?$AA@ 10042d50     FingerStrokeAssistance.obj
 0002:00000d60       ??_C@_0P@JDGPLDCK@enc_raw?3?$CF15?46f?$AA@ 10042d60     FingerStrokeAssistance.obj
 0002:00000d74       ??_C@_0BA@ELCINL@enc_norm?3?$CF15?46f?$AA@ 10042d74     FingerStrokeAssistance.obj
 0002:00000d88       ??_C@_0BB@FMBPFFLE@pos_ref_1?3?$CF15?46f?$AA@ 10042d88     FingerStrokeAssistance.obj
 0002:00000d9c       ??_C@_0BC@DJAOFMOF@pos_meas_1?3?$CF15?46f?$AA@ 10042d9c     FingerStrokeAssistance.obj
 0002:00000db4       ??_C@_0BI@PHJEPFFP@Error?5creating?5scope?51?6?$AA@ 10042db4     FingerStrokeAssistance.obj
 0002:00000dd0       ??_C@_0BD@KDGDPNDI@MATLAB?5Function?1p1?$AA@ 10042dd0     FingerStrokeAssistance.obj
 0002:00000de8       ??_C@_0CE@NBOHAOJD@Robot?1Saturation?5Dynamic?1Switch2@ 10042de8     FingerStrokeAssistance.obj
 0002:00000e14       ??_C@_0CE@PKMKFNFA@Robot?1Saturation?5Dynamic?1Switch2@ 10042e14     FingerStrokeAssistance.obj
 0002:00000e40       ??_C@_0CC@PAFJJGHN@Robot?1Discrete?5Derivative?1Diff?1s@ 10042e40     FingerStrokeAssistance.obj
 0002:00000e68       ??_C@_0CC@NLHEMFLO@Robot?1Discrete?5Derivative?1Diff?1s@ 10042e68     FingerStrokeAssistance.obj
 0002:00000e90       ??_C@_0N@NEDGIMDD@state?3?$CF15?46f?$AA@ 10042e90     FingerStrokeAssistance.obj
 0002:00000ea0       ??_C@_0BH@DNEEKCDA@f_ref_limited_1?3?$CF15?46f?$AA@ 10042ea0     FingerStrokeAssistance.obj
 0002:00000ebc       ??_C@_0BH@EMJJOPF@f_ref_limited_2?3?$CF15?46f?$AA@ 10042ebc     FingerStrokeAssistance.obj
 0002:00000ed8       ??_C@_06KFNFIEK@?$CF15?46f?$AA@ 10042ed8     FingerStrokeAssistance.obj
 0002:00000ee0       ??_C@_0BI@PFNCELAG@Error?5creating?5scope?52?6?$AA@ 10042ee0     FingerStrokeAssistance.obj
 0002:00000efc       ??_C@_0BD@JGAMGINO@LL?5Controller?1Gain?$AA@ 10042efc     FingerStrokeAssistance.obj
 0002:00000f14       ??_C@_0CN@JEIJKAGG@LL?5Controller?1Discrete?5PID?5Contr@ 10042f14     FingerStrokeAssistance.obj
 0002:00000f4c       ??_C@_0CH@PENCCFNF@HL?5Controller?1Discrete?9Time?5Inte@ 10042f4c     FingerStrokeAssistance.obj
 0002:00000f7c       ??_C@_0BC@OJJPBDHH@FixedStepDiscrete?$AA@ 10042f7c     FingerStrokeAssistance.obj
 0002:00000f94       ??_C@_04EPKDLPPB@tout?$AA@ 10042f94     FingerStrokeAssistance.obj
 0002:00000f9a       ??_C@_00CNPNBAHC@?$AA@     10042f9a     FingerStrokeAssistance.obj
 0002:00000f9c       ??_C@_03HBFGMJOD@rt_?$AA@  10042f9c     FingerStrokeAssistance.obj
 0002:00000fa0       ??_C@_0O@IFKELIIB@PCI?56221?5ENC?5?$AA@ 10042fa0     FingerStrokeAssistance.obj
 0002:00000fb0       ??_C@_0CL@FGFCPCFH@FingerStrokeAssistance?1Robot?1PCI@ 10042fb0     FingerStrokeAssistance.obj
 0002:00000fe4       ??_C@_0P@FMGHBALM@PCI?56221?5ENC?51?$AA@ 10042fe4     FingerStrokeAssistance.obj
 0002:00000ff8       ??_C@_0CM@DDAEJBBH@FingerStrokeAssistance?1Robot?1PCI@ 10042ff8     FingerStrokeAssistance.obj
 0002:0000102c       ??_C@_0M@HBIEHIJL@PCI?96221?5DA?$AA@ 1004302c     FingerStrokeAssistance.obj
 0002:0000103c       ??_C@_0CJ@KACMKMOO@FingerStrokeAssistance?1Robot?1PCI@ 1004303c     FingerStrokeAssistance.obj
 0002:00001070       ??_C@_0N@JAOEPLNP@PCI?96221?5AD1?$AA@ 10043070     FingerStrokeAssistance.obj
 0002:00001080       ??_C@_0CK@LAFKNGLI@FingerStrokeAssistance?1Robot?1PCI@ 10043080     FingerStrokeAssistance.obj
 0002:000010b8       __real@0000000000000000    100430b8     FingerStrokeAssistance.obj
 0002:000010c8       __real@3f50624dd2f1a9fc    100430c8     FingerStrokeAssistance.obj
 0002:000010d8       __real@3f9eb851eb851eb8    100430d8     FingerStrokeAssistance.obj
 0002:000010e8       __real@3fb999999999999a    100430e8     FingerStrokeAssistance.obj
 0002:000010f8       __real@3fe0000000000000    100430f8     FingerStrokeAssistance.obj
 0002:00001108       __real@3feccccccccccccd    10043108     FingerStrokeAssistance.obj
 0002:00001118       __real@3ff0000000000000    10043118     FingerStrokeAssistance.obj
 0002:00001128       __real@4000000000000000    10043128     FingerStrokeAssistance.obj
 0002:00001138       __real@4004000000000000    10043138     FingerStrokeAssistance.obj
 0002:00001148       __real@4008000000000000    10043148     FingerStrokeAssistance.obj
 0002:00001158       __real@4010000000000000    10043158     FingerStrokeAssistance.obj
 0002:00001168       __real@4014000000000000    10043168     FingerStrokeAssistance.obj
 0002:00001178       __real@4018000000000000    10043178     FingerStrokeAssistance.obj
 0002:00001188       __real@401c000000000000    10043188     FingerStrokeAssistance.obj
 0002:00001198       __real@4024000000000000    10043198     FingerStrokeAssistance.obj
 0002:000011a8       __real@402e000000000000    100431a8     FingerStrokeAssistance.obj
 0002:000011b8       __real@409f400000000000    100431b8     FingerStrokeAssistance.obj
 0002:000011c8       __real@41f0000000000000    100431c8     FingerStrokeAssistance.obj
 0002:000011d8       __real@4330000000000000    100431d8     FingerStrokeAssistance.obj
 0002:000011e8       __real@8000000000000000    100431e8     FingerStrokeAssistance.obj
 0002:000011f8       __real@bfe0000000000000    100431f8     FingerStrokeAssistance.obj
 0002:00001208       __real@bff0000000000000    10043208     FingerStrokeAssistance.obj
 0002:00001220       __xmm@00000000000000003f50624dd2f1a9fc 10043220     FingerStrokeAssistance.obj
 0002:00001240       __xmm@00000000000000003ff0000000000000 10043240     FingerStrokeAssistance.obj
 0002:00001260       __xmm@00000001000000010000000100000001 10043260     FingerStrokeAssistance.obj
 0002:00001280       __xmm@000000f1000000800000007f00000001 10043280     FingerStrokeAssistance.obj
 0002:000012a0       __xmm@41f00000000000000000000000000000 100432a0     FingerStrokeAssistance.obj
 0002:000012c0       __xmm@7fffffffffffffff7fffffffffffffff 100432c0     FingerStrokeAssistance.obj
 0002:0000308c       ??_C@_0BD@IIEOKOPL@MATLAB?5Function?1p2?$AA@ 1004508c     FingerStrokeAssistance_capi.obj
 0002:000030a4       ??_C@_0BD@JBFFJPLK@MATLAB?5Function?1p3?$AA@ 100450a4     FingerStrokeAssistance_capi.obj
 0002:000030bc       ??_C@_0BD@NOBEAJHN@MATLAB?5Function?1p4?$AA@ 100450bc     FingerStrokeAssistance_capi.obj
 0002:000030d4       ??_C@_0BD@MHAPDIDM@MATLAB?5Function?1p5?$AA@ 100450d4     FingerStrokeAssistance_capi.obj
 0002:000030ec       ??_C@_0BD@OMCCGLPP@MATLAB?5Function?1p6?$AA@ 100450ec     FingerStrokeAssistance_capi.obj
 0002:00003104       ??_C@_0BD@PFDJFKLO@MATLAB?5Function?1p7?$AA@ 10045104     FingerStrokeAssistance_capi.obj
 0002:0000311c       ??_C@_0BD@HCKBEGHB@MATLAB?5Function?1p8?$AA@ 1004511c     FingerStrokeAssistance_capi.obj
 0002:00003134       ??_C@_0BD@GLLKHHDA@MATLAB?5Function?1p9?$AA@ 10045134     FingerStrokeAssistance_capi.obj
 0002:0000314c       ??_C@_0BF@GGMNNFDC@Data?5Type?5Conversion?$AA@ 1004514c     FingerStrokeAssistance_capi.obj
 0002:00003168       ??_C@_0L@EGNLABOL@Unit?5Delay?$AA@ 10045168     FingerStrokeAssistance_capi.obj
 0002:00003178       ??_C@_0M@PBMDOHED@Unit?5Delay1?$AA@ 10045178     FingerStrokeAssistance_capi.obj
 0002:00003188       ??_C@_0M@MDPFIFMB@Unit?5Delay3?$AA@ 10045188     FingerStrokeAssistance_capi.obj
 0002:00003198       ??_C@_0CD@GLAMPGEM@HL?5Controller?1Data?5Type?5Conversi@ 10045198     FingerStrokeAssistance_capi.obj
 0002:000031c4       ??_C@_0BG@JLDBOJPN@HL?5Controller?1Damping?$AA@ 100451c4     FingerStrokeAssistance_capi.obj
 0002:000031e0       ??_C@_0BE@OJENBPFA@HL?5Controller?1Gain1?$AA@ 100451e0     FingerStrokeAssistance_capi.obj
 0002:000031f8       ??_C@_0BE@JOHLLJDM@HL?5Controller?1Delay?$AA@ 100451f8     FingerStrokeAssistance_capi.obj
 0002:00003210       ??_C@_0BF@OJKMAAIM@HL?5Controller?1Delay1?$AA@ 10045210     FingerStrokeAssistance_capi.obj
 0002:0000322c       ??_C@_0BP@PNFNPGMG@HL?5Controller?1Discrete?5Filter1?$AA@ 1004522c     FingerStrokeAssistance_capi.obj
 0002:00003254       ??_C@_0CD@ODJGKFOO@LL?5Controller?1Data?5Type?5Conversi@ 10045254     FingerStrokeAssistance_capi.obj
 0002:00003280       ??_C@_0BC@PPCBCHF@LL?5Controller?1Sum?$AA@ 10045280     FingerStrokeAssistance_capi.obj
 0002:00003298       ??_C@_0BF@MCNNONIB@LL?5Controller?1Switch?$AA@ 10045298     FingerStrokeAssistance_capi.obj
 0002:000032b4       ??_C@_0BE@NAJGFCGF@LL?5Controller?1Delay?$AA@ 100452b4     FingerStrokeAssistance_capi.obj
 0002:000032cc       ??_C@_0L@NEPEIPFM@Robot?1Gain?$AA@ 100452cc     FingerStrokeAssistance_capi.obj
 0002:000032dc       ??_C@_0M@KEFEOOOC@Robot?1Gain1?$AA@ 100452dc     FingerStrokeAssistance_capi.obj
 0002:000032ec       ??_C@_0BE@OMELOOBD@Robot?1PCI?56221?5ENC?5?$AA@ 100452ec     FingerStrokeAssistance_capi.obj
 0002:00003304       ??_C@_0BF@ECAPANIC@Robot?1PCI?56221?5ENC?51?$AA@ 10045304     FingerStrokeAssistance_capi.obj
 0002:00003320       ??_C@_0BG@HNHIMJLG@Robot?1PCI?96221?5AD1?1p1?$AA@ 10045320     FingerStrokeAssistance_capi.obj
 0002:0000333c       ??_C@_0BG@FGFFJKHF@Robot?1PCI?96221?5AD1?1p2?$AA@ 1004533c     FingerStrokeAssistance_capi.obj
 0002:00003358       ??_C@_0BG@EPEOKLDE@Robot?1PCI?96221?5AD1?1p3?$AA@ 10045358     FingerStrokeAssistance_capi.obj
 0002:00003374       ??_C@_0BG@PDNPD@Robot?1PCI?96221?5AD1?1p4?$AA@ 10045374     FingerStrokeAssistance_capi.obj
 0002:00003390       ??_C@_0BG@BJBEAMLC@Robot?1PCI?96221?5AD1?1p5?$AA@ 10045390     FingerStrokeAssistance_capi.obj
 0002:000033ac       ??_C@_0BG@DCDJFPHB@Robot?1PCI?96221?5AD1?1p6?$AA@ 100453ac     FingerStrokeAssistance_capi.obj
 0002:000033c8       ??_C@_0BG@CLCCGODA@Robot?1PCI?96221?5AD1?1p7?$AA@ 100453c8     FingerStrokeAssistance_capi.obj
 0002:000033e4       ??_C@_0BG@KMLKHCPP@Robot?1PCI?96221?5AD1?1p8?$AA@ 100453e4     FingerStrokeAssistance_capi.obj
 0002:00003400       ??_C@_09EFINPMFM@Robot?1Sum?$AA@ 10045400     FingerStrokeAssistance_capi.obj
 0002:0000340c       ??_C@_0BB@ONCKFKHP@Robot?1Unit?5Delay?$AA@ 1004540c     FingerStrokeAssistance_capi.obj
 0002:00003420       ??_C@_0BP@HDIBGFHC@Subsystem?1Data?5Type?5Conversion?$AA@ 10045420     FingerStrokeAssistance_capi.obj
 0002:00003448       ??_C@_0CD@IGDCNCLO@Subsystem?1Discrete?9Time?5Integrat@ 10045448     FingerStrokeAssistance_capi.obj
 0002:00003474       ??_C@_0BG@DAMAHEPC@Subsystem?1Unit?5Delay1?$AA@ 10045474     FingerStrokeAssistance_capi.obj
 0002:00003490       ??_C@_0BG@BLONCHDB@Subsystem?1Unit?5Delay2?$AA@ 10045490     FingerStrokeAssistance_capi.obj
 0002:000034ac       ??_C@_0CA@EBCNJBOK@Subsystem1?1Data?5Type?5Conversion?$AA@ 100454ac     FingerStrokeAssistance_capi.obj
 0002:000034d4       ??_C@_0CE@IGGOGCJM@Subsystem1?1Discrete?9Time?5Integra@ 100454d4     FingerStrokeAssistance_capi.obj
 0002:00003500       ??_C@_0BH@OCBAAL@Subsystem1?1Unit?5Delay1?$AA@ 10045500     FingerStrokeAssistance_capi.obj
 0002:0000351c       ??_C@_0BH@CLMPEDMI@Subsystem1?1Unit?5Delay2?$AA@ 1004551c     FingerStrokeAssistance_capi.obj
 0002:00003538       ??_C@_0BJ@LDIJMIN@parameters?1parChangeRate?$AA@ 10045538     FingerStrokeAssistance_capi.obj
 0002:00003558       ??_C@_0BG@MANKCMPG@parameters?1parFThresh?$AA@ 10045558     FingerStrokeAssistance_capi.obj
 0002:00003574       ??_C@_0BH@GKLAKHLL@parameters?1parFixedDur?$AA@ 10045574     FingerStrokeAssistance_capi.obj
 0002:00003590       ??_C@_0BL@EGOKLGEF@parameters?1parForceTrigger?$AA@ 10045590     FingerStrokeAssistance_capi.obj
 0002:000035b0       ??_C@_0BC@FKHIPIEO@parameters?1parKd1?$AA@ 100455b0     FingerStrokeAssistance_capi.obj
 0002:000035c8       ??_C@_0BC@HBFFKLIN@parameters?1parKd2?$AA@ 100455c8     FingerStrokeAssistance_capi.obj
 0002:000035e0       ??_C@_0BD@BKPLMOHI@parameters?1parKdV1?$AA@ 100455e0     FingerStrokeAssistance_capi.obj
 0002:000035f8       ??_C@_0BD@DBNGJNLL@parameters?1parKdV2?$AA@ 100455f8     FingerStrokeAssistance_capi.obj
 0002:00003610       ??_C@_0BC@EBFHPDOC@parameters?1parKp1?$AA@ 10045610     FingerStrokeAssistance_capi.obj
 0002:00003628       ??_C@_0BC@GKHKKACB@parameters?1parKp2?$AA@ 10045628     FingerStrokeAssistance_capi.obj
 0002:00003640       ??_C@_0BH@PENPCGFM@parameters?1parLeftMode?$AA@ 10045640     FingerStrokeAssistance_capi.obj
 0002:0000365c       ??_C@_0BF@GLMDNGIG@parameters?1parMarker?$AA@ 1004565c     FingerStrokeAssistance_capi.obj
 0002:00003678       ??_C@_0BJ@BNLOJEEL@parameters?1parMaxTrajDur?$AA@ 10045678     FingerStrokeAssistance_capi.obj
 0002:00003698       ??_C@_0BE@GHPCIJPH@parameters?1parPStop?$AA@ 10045698     FingerStrokeAssistance_capi.obj
 0002:000036b0       ??_C@_0BH@GJMCKDGC@parameters?1parTrajMode?$AA@ 100456b0     FingerStrokeAssistance_capi.obj
 0002:000036cc       ??_C@_0BG@LMGBBNNN@parameters?1parVThresh?$AA@ 100456cc     FingerStrokeAssistance_capi.obj
 0002:000036e8       ??_C@_0BI@PBEPHEEP@parameters?1parWiggleAmp?$AA@ 100456e8     FingerStrokeAssistance_capi.obj
 0002:00003704       ??_C@_0BN@BNDFGDOE@parameters?1Rounding?5Function?$AA@ 10045704     FingerStrokeAssistance_capi.obj
 0002:00003728       ??_C@_0BG@KKGOACNA@parameters?1Saturation?$AA@ 10045728     FingerStrokeAssistance_capi.obj
 0002:00003744       ??_C@_0BH@EACELLGE@parameters?1Saturation1?$AA@ 10045744     FingerStrokeAssistance_capi.obj
 0002:00003760       ??_C@_0BH@GLAJOIKH@parameters?1Saturation2?$AA@ 10045760     FingerStrokeAssistance_capi.obj
 0002:0000377c       ??_C@_0DG@IOBGNGCJ@HL?5Controller?1Detect?5Change?1FixP@ 1004577c     FingerStrokeAssistance_capi.obj
 0002:000037bc       ??_C@_0CJ@CLPCMDPG@HL?5Controller?1Detect?5Change?1Dela@ 100457bc     FingerStrokeAssistance_capi.obj
 0002:000037f0       ??_C@_06CFNEEADJ@U?$CIk?91?$CJ?$AA@ 100457f0     FingerStrokeAssistance_capi.obj
 0002:000037f8       ??_C@_0CK@BMIIBNHB@LL?5Controller?1Compare?5To?5Constan@ 100457f8     FingerStrokeAssistance_capi.obj
 0002:0000382c       ??_C@_0CN@BMMFOADL@LL?5Controller?1Discrete?5PID?5Contr@ 1004582c     FingerStrokeAssistance_capi.obj
 0002:00003864       ??_C@_0DB@HDHLABFB@LL?5Controller?1Discrete?5PID?5Contr@ 10045864     FingerStrokeAssistance_capi.obj
 0002:000038a0       ??_C@_0DG@HLAOPJGM@LL?5Controller?1Discrete?5PID?5Contr@ 100458a0     FingerStrokeAssistance_capi.obj
 0002:000038e0       ??_C@_0DJ@KOPOKLBH@LL?5Controller?1Discrete?5PID?5Contr@ 100458e0     FingerStrokeAssistance_capi.obj
 0002:00003924       ??_C@_0DE@EPKOKGAH@LL?5Controller?1Discrete?5PID?5Contr@ 10045924     FingerStrokeAssistance_capi.obj
 0002:00003964       ??_C@_0DI@CMDIPDHM@LL?5Controller?1Discrete?5PID?5Contr@ 10045964     FingerStrokeAssistance_capi.obj
 0002:000039a8       ??_C@_0CK@BDBPDANN@LL?5Controller?1Discrete?5PID?5Contr@ 100459a8     FingerStrokeAssistance_capi.obj
 0002:000039dc       ??_C@_0CL@GMGEDLFI@LL?5Controller?1Discrete?5PID?5Contr@ 100459dc     FingerStrokeAssistance_capi.obj
 0002:00003a10       ??_C@_0CO@BJKFCIOJ@LL?5Controller?1Saturation?5Dynamic@ 10045a10     FingerStrokeAssistance_capi.obj
 0002:00003a48       ??_C@_0CN@PPLPNFEO@LL?5Controller?1Saturation?5Dynamic@ 10045a48     FingerStrokeAssistance_capi.obj
 0002:00003a80       ??_C@_0CJ@BODBLONB@LL?5Controller?1Saturation?5Dynamic@ 10045a80     FingerStrokeAssistance_capi.obj
 0002:00003ab4       ??_C@_0CK@BMLKIHIN@LL?5Controller?1Saturation?5Dynamic@ 10045ab4     FingerStrokeAssistance_capi.obj
 0002:00003ae8       ??_C@_0BP@DAEPAEBF@Robot?1Discrete?5Derivative?1Diff?$AA@ 10045ae8     FingerStrokeAssistance_capi.obj
 0002:00003b10       ??_C@_0CA@DLBHKHPN@Robot?1Discrete?5Derivative?1TSamp?$AA@ 10045b10     FingerStrokeAssistance_capi.obj
 0002:00003b38       ??_C@_0BN@GNNONLLN@Robot?1Discrete?5Derivative?1UD?$AA@ 10045b38     FingerStrokeAssistance_capi.obj
 0002:00003b5c       ??_C@_0CF@JOKCEMIH@Robot?1Saturation?5Dynamic?1LowerRe@ 10045b5c     FingerStrokeAssistance_capi.obj
 0002:00003b88       ??_C@_0CE@PAHIGJNP@Robot?1Saturation?5Dynamic?1UpperRe@ 10045b88     FingerStrokeAssistance_capi.obj
 0002:00003bb4       ??_C@_0CA@NDOLBHN@Robot?1Saturation?5Dynamic?1Switch?$AA@ 10045bb4     FingerStrokeAssistance_capi.obj
 0002:00003bdc       ??_C@_0CB@MDMJGHEB@Robot?1Saturation?5Dynamic?1Switch2@ 10045bdc     FingerStrokeAssistance_capi.obj
 0002:00003c04       ??_C@_0BO@KMPBMPBM@Robot?1Triggered?5Subsystem?1In1?$AA@ 10045c04     FingerStrokeAssistance_capi.obj
 0002:00003c28       ??_C@_0DA@IHGHECDK@Robot?1account?5for?5handedness?1MAT@ 10045c28     FingerStrokeAssistance_capi.obj
 0002:00003c64       ??_C@_0DA@KMEKBBPJ@Robot?1account?5for?5handedness?1MAT@ 10045c64     FingerStrokeAssistance_capi.obj
 0002:00003ca0       ??_C@_0DD@LGPLBJIP@Robot?1account?5for?5handedness?5for@ 10045ca0     FingerStrokeAssistance_capi.obj
 0002:00003ce0       ??_C@_0DB@BNMCHGNM@Robot?1account?5for?5handedness2?1MA@ 10045ce0     FingerStrokeAssistance_capi.obj
 0002:00003d1c       ??_C@_0DB@DGOPCFBP@Robot?1account?5for?5handedness2?1MA@ 10045d1c     FingerStrokeAssistance_capi.obj
 0002:00003d58       ??_C@_0CM@LEIBMJGE@Robot?1filtered?5force?5output?1Low?5@ 10045d58     FingerStrokeAssistance_capi.obj
 0002:00003d8c       ??_C@_0CN@IMDGCDDK@Robot?1filtered?5force?5output?1Low?5@ 10045d8c     FingerStrokeAssistance_capi.obj
 0002:00003dc4       ??_C@_0CD@NAELEMPL@Robot?1filtered?5force?5output?1Memo@ 10045dc4     FingerStrokeAssistance_capi.obj
 0002:00003df0       ??_C@_0CE@OMOCGHGK@Robot?1filtered?5force?5output?1Memo@ 10045df0     FingerStrokeAssistance_capi.obj
 0002:00003e1c       ??_C@_0BD@BNMELIGD@Robot?1gravDir?1gain?$AA@ 10045e1c     FingerStrokeAssistance_capi.obj
 0002:00003e34       ??_C@_0BC@NJKIOKBB@Robot?1gravDir?1Sum?$AA@ 10045e34     FingerStrokeAssistance_capi.obj
 0002:00003e4c       ??_C@_0DC@HIOFCDHB@Subsystem?1Detect?5Change?1FixPt?5Re@ 10045e4c     FingerStrokeAssistance_capi.obj
 0002:00003e88       ??_C@_0CF@IOCCGEMF@Subsystem?1Detect?5Change?1Delay?5In@ 10045e88     FingerStrokeAssistance_capi.obj
 0002:00003eb4       ??_C@_0DD@ODDDIJKC@Subsystem1?1Detect?5Change?1FixPt?5R@ 10045eb4     FingerStrokeAssistance_capi.obj
 0002:00003ef4       ??_C@_0CG@OCPBJBDF@Subsystem1?1Detect?5Change?1Delay?5I@ 10045ef4     FingerStrokeAssistance_capi.obj
 0002:00003f24       ??_C@_0CH@KJDMLLPO@parameters?1gain?5transition?1gainr@ 10045f24     FingerStrokeAssistance_capi.obj
 0002:00003f54       ??_C@_0CH@ICBBOIDN@parameters?1gain?5transition?1gainr@ 10045f54     FingerStrokeAssistance_capi.obj
 0002:00003f84       ??_C@_0CC@BDCPHDEE@parameters?1gain?5transition?1Memor@ 10045f84     FingerStrokeAssistance_capi.obj
 0002:00003fac       ??_C@_0CI@PJCJMMGB@parameters?1gain?5transition1?1gain@ 10045fac     FingerStrokeAssistance_capi.obj
 0002:00003fdc       ??_C@_0CI@NCAEJPKC@parameters?1gain?5transition1?1gain@ 10045fdc     FingerStrokeAssistance_capi.obj
 0002:0000400c       ??_C@_0CD@LNHEJADF@parameters?1gain?5transition1?1Memo@ 1004600c     FingerStrokeAssistance_capi.obj
 0002:00004038       ??_C@_0CI@IFEIOJLK@parameters?1gain?5transition2?1gain@ 10046038     FingerStrokeAssistance_capi.obj
 0002:00004068       ??_C@_0CI@KOGFLKHJ@parameters?1gain?5transition2?1gain@ 10046068     FingerStrokeAssistance_capi.obj
 0002:00004098       ??_C@_0CD@IEPJKMPA@parameters?1gain?5transition2?1Memo@ 10046098     FingerStrokeAssistance_capi.obj
 0002:000040c4       ??_C@_0CI@BIEHAIMM@parameters?1gain?5transition3?1gain@ 100460c4     FingerStrokeAssistance_capi.obj
 0002:000040f4       ??_C@_0CI@DDGKFLAP@parameters?1gain?5transition3?1gain@ 100460f4     FingerStrokeAssistance_capi.obj
 0002:00004124       ??_C@_0CD@JDICLILD@parameters?1gain?5transition3?1Memo@ 10046124     FingerStrokeAssistance_capi.obj
 0002:00004150       ??_C@_0CI@HNIKKCAM@parameters?1gain?5transition4?1gain@ 10046150     FingerStrokeAssistance_capi.obj
 0002:00004180       ??_C@_0CI@FGKHPBMP@parameters?1gain?5transition4?1gain@ 10046180     FingerStrokeAssistance_capi.obj
 0002:000041b0       ??_C@_0CD@PHODNFHK@parameters?1gain?5transition4?1Memo@ 100461b0     FingerStrokeAssistance_capi.obj
 0002:000041dc       ??_C@_0CI@OAIFEDHK@parameters?1gain?5transition5?1gain@ 100461dc     FingerStrokeAssistance_capi.obj
 0002:0000420c       ??_C@_0CI@MLKIBALJ@parameters?1gain?5transition5?1gain@ 1004620c     FingerStrokeAssistance_capi.obj
 0002:0000423c       ??_C@_0CD@OAJIMBDJ@parameters?1gain?5transition5?1Memo@ 1004623c     FingerStrokeAssistance_capi.obj
 0002:00004268       ??_C@_09IIHOELEE@Constant1?$AA@ 10046268     FingerStrokeAssistance_capi.obj
 0002:00004274       ??_C@_05LPIJGKJ@Value?$AA@ 10046274     FingerStrokeAssistance_capi.obj
 0002:0000427c       ??_C@_09LKEICJMG@Constant3?$AA@ 1004627c     FingerStrokeAssistance_capi.obj
 0002:00004288       ??_C@_0BB@CFEOEMDC@InitialCondition?$AA@ 10046288     FingerStrokeAssistance_capi.obj
 0002:0000429c       ??_C@_0BM@NNJFPEF@HL?5Controller?1Detect?5Change?$AA@ 1004629c     FingerStrokeAssistance_capi.obj
 0002:000042c0       ??_C@_05NAMIGJNB@vinit?$AA@ 100462c0     FingerStrokeAssistance_capi.obj
 0002:000042c8       ??_C@_07KKMCCDCH@gainval?$AA@ 100462c8     FingerStrokeAssistance_capi.obj
 0002:000042d4       ??_C@_0BF@GLIOIDJM@UpperSaturationLimit?$AA@ 100462d4     FingerStrokeAssistance_capi.obj
 0002:000042f0       ??_C@_0BF@EMCFELNH@LowerSaturationLimit?$AA@ 100462f0     FingerStrokeAssistance_capi.obj
 0002:0000430c       ??_C@_04OMOMKKFL@Gain?$AA@ 1004630c     FingerStrokeAssistance_capi.obj
 0002:00004314       ??_C@_0M@KNNCJG@DelayLength?$AA@ 10046314     FingerStrokeAssistance_capi.obj
 0002:00004324       ??_C@_09OMDFKCLN@Numerator?$AA@ 10046324     FingerStrokeAssistance_capi.obj
 0002:00004330       ??_C@_0M@KDILNJPK@Denominator?$AA@ 10046330     FingerStrokeAssistance_capi.obj
 0002:00004340       ??_C@_0O@KHJPNGBD@InitialStates?$AA@ 10046340     FingerStrokeAssistance_capi.obj
 0002:00004350       ??_C@_0CC@DDKNMLC@LL?5Controller?1Compare?5To?5Constan@ 10046350     FingerStrokeAssistance_capi.obj
 0002:00004378       ??_C@_05BNCCCJPP@const?$AA@ 10046378     FingerStrokeAssistance_capi.obj
 0002:00004380       ??_C@_0CG@DLDPEALE@LL?5Controller?1Discrete?5PID?5Contr@ 10046380     FingerStrokeAssistance_capi.obj
 0002:000043b0       ??_C@_01EJNLAFE@P?$AA@     100463b0     FingerStrokeAssistance_capi.obj
 0002:000043b4       ??_C@_01JPJNBJEM@I?$AA@    100463b4     FingerStrokeAssistance_capi.obj
 0002:000043b8       ??_C@_01CKDDGHAB@D?$AA@    100463b8     FingerStrokeAssistance_capi.obj
 0002:000043bc       ??_C@_01NANMIPIL@N?$AA@    100463bc     FingerStrokeAssistance_capi.obj
 0002:000043c0       ??_C@_0BH@IBMNMNAL@LL?5Controller?1Constant?$AA@ 100463c0     FingerStrokeAssistance_capi.obj
 0002:000043dc       ??_C@_0BB@BPKEPNND@ON?1?1OFF?1Constant?$AA@ 100463dc     FingerStrokeAssistance_capi.obj
 0002:000043f0       ??_C@_0BK@MMODBLJF@Robot?1Discrete?5Derivative?$AA@ 100463f0     FingerStrokeAssistance_capi.obj
 0002:00004410       ??_C@_0BC@DNAKAAEE@ICPrevScaledInput?$AA@ 10046410     FingerStrokeAssistance_capi.obj
 0002:00004428       ??_C@_02KKFPAPOP@P1?$AA@   10046428     FingerStrokeAssistance_capi.obj
 0002:0000442c       ??_C@_02IBHCFMCM@P2?$AA@   1004642c     FingerStrokeAssistance_capi.obj
 0002:00004430       ??_C@_02JIGJGNGN@P3?$AA@   10046430     FingerStrokeAssistance_capi.obj
 0002:00004434       ??_C@_02NHCIPLKK@P4?$AA@   10046434     FingerStrokeAssistance_capi.obj
 0002:00004438       ??_C@_02MODDMKOL@P5?$AA@   10046438     FingerStrokeAssistance_capi.obj
 0002:0000443c       ??_C@_02OFBOJJCI@P6?$AA@   1004643c     FingerStrokeAssistance_capi.obj
 0002:00004440       ??_C@_02PMAFKIGJ@P7?$AA@   10046440     FingerStrokeAssistance_capi.obj
 0002:00004444       ??_C@_02HLJNLEKG@P8?$AA@   10046444     FingerStrokeAssistance_capi.obj
 0002:00004448       ??_C@_02GCIGIFOH@P9?$AA@   10046448     FingerStrokeAssistance_capi.obj
 0002:0000444c       ??_C@_03OPFJJGBF@P10?$AA@  1004644c     FingerStrokeAssistance_capi.obj
 0002:00004450       ??_C@_0BD@HJHAJHEM@Robot?1PCI?96221?5AD1?$AA@ 10046450     FingerStrokeAssistance_capi.obj
 0002:00004468       ??_C@_0BC@IGENNOJN@Robot?1PCI?96221?5DA?$AA@ 10046468     FingerStrokeAssistance_capi.obj
 0002:00004480       ??_C@_0BI@CCIOLKMP@Subsystem?1Detect?5Change?$AA@ 10046480     FingerStrokeAssistance_capi.obj
 0002:0000449c       ??_C@_0BJ@KNCPHFFI@Subsystem1?1Detect?5Change?$AA@ 1004649c     FingerStrokeAssistance_capi.obj
 0002:000044bc       ??_C@_0CD@NBHNHEJB@parameters?1paremeters_?5must_be_o@ 100464bc     FingerStrokeAssistance_capi.obj
 0002:000044e8       ??_C@_0L@FBCGKKEN@UpperLimit?$AA@ 100464e8     FingerStrokeAssistance_capi.obj
 0002:000044f8       ??_C@_0L@DGFJOHKP@LowerLimit?$AA@ 100464f8     FingerStrokeAssistance_capi.obj
 0002:00004508       ??_C@_04GKLBNPCL@WtEt?$AA@ 10046508     FingerStrokeAssistance_capi.obj
 0002:00004510       ??_C@_0BP@KMPJMACH@Robot?1Triggered?5Subsystem?1Out1?$AA@ 10046510     FingerStrokeAssistance_capi.obj
 0002:00004538       ??_C@_0O@LILIEJBO@InitialOutput?$AA@ 10046538     FingerStrokeAssistance_capi.obj
 0002:00004548       ??_C@_02LNFHGPBG@X0?$AA@   10046548     FingerStrokeAssistance_capi.obj
 0002:0000454c       ??_C@_0BH@BIOEOLDB@Robot?1gravDir?1Constant?$AA@ 1004654c     FingerStrokeAssistance_capi.obj
 0002:00004568       ??_C@_04OELFCIM@Alow?$AA@  10046568     FingerStrokeAssistance_capi.obj
 0002:00004570       ??_C@_04EJOLCIFM@Blow?$AA@ 10046570     FingerStrokeAssistance_capi.obj
 0002:00004578       ??_C@_04HEILABOM@Clow?$AA@ 10046578     FingerStrokeAssistance_capi.obj
 0002:00004580       ??_C@_04MGKLNNPM@Dlow?$AA@ 10046580     FingerStrokeAssistance_capi.obj
 0002:00004588       ??_C@_05FKGIECOB@x0low?$AA@ 10046588     FingerStrokeAssistance_capi.obj
 0002:00004590       ??_C@_06BNJCAIGJ@double?$AA@ 10046590     FingerStrokeAssistance_capi.obj
 0002:00004598       ??_C@_06CNMIJIPB@real_T?$AA@ 10046598     FingerStrokeAssistance_capi.obj
 0002:000045a0       ??_C@_0O@PPAIJIHF@unsigned?5char?$AA@ 100465a0     FingerStrokeAssistance_capi.obj
 0002:000045b0       ??_C@_09JBMFCIMO@boolean_T?$AA@ 100465b0     FingerStrokeAssistance_capi.obj
 0002:000045bc       ??_C@_0N@OFHMGPAL@unsigned?5int?$AA@ 100465bc     FingerStrokeAssistance_capi.obj
 0002:000045cc       ??_C@_08CCMIKNJF@uint32_T?$AA@ 100465cc     FingerStrokeAssistance_capi.obj
 0002:000045d8       ??_C@_05KNFBNCOH@float?$AA@ 100465d8     FingerStrokeAssistance_capi.obj
 0002:000045e0       ??_C@_0CJ@GGPBKPNK@Could?5not?5start?5ToAsyncQueue?5app@ 100465e0     FingerStrokeAssistance_tgtconn.obj
 0002:00004e78       ??_C@_0DJ@FHKINPLE@Unexpected?5itemKind?5?$DN?5DATA_ITEM?5@ 10046e78     rt_logging.obj
 0002:00004ebc       ??_C@_0DA@IEHFPFCJ@Unexpected?5itemKind?$DN?$CFd?5in?5rt_Pro@ 10046ebc     rt_logging.obj
 0002:00004ef8       ??_C@_0DA@IFLHJPBO@Unexpected?5itemKind?$DN?$CFd?5in?5rt_Pro@ 10046ef8     rt_logging.obj
 0002:00004f34       ??_C@_0DA@IAPIIJJL@Unexpected?5itemKind?$DN?$CFd?5in?5rt_Pro@ 10046f34     rt_logging.obj
 0002:00004f70       ??_C@_0BE@LCIGPJIG@MATLAB?55?40?5MAT?9file?$AA@ 10046f70     rt_logging.obj
 0002:00004f88       ??_C@_0FB@PCJEAJIB@?$CK?$CK?$CK?5Log?5variable?5?$CFs?5has?5wrapped?5@ 10046f88     rt_logging.obj
 0002:00004ff0       ??_C@_0MG@NKMLMOGF@?$CK?$CK?$CK?5To?5avoid?5wrapping?0?5explicitl@ 10046ff0     rt_logging.obj
 0002:000050e0       ??_C@_0N@IPAEOLLP@_rtw_tmw?4tmw?$AA@ 100470e0     rt_logging.obj
 0002:000050f0       ??_C@_04HDOCAJNK@?$CFs?$CFs?$AA@ 100470f0     rt_logging.obj
 0002:000050f8       ??_C@_03ELIABIOC@w?$CLb?$AA@ 100470f8     rt_logging.obj
 0002:000050fc       ??_C@_0BF@JPILDDFA@?$CK?$CK?$CK?5Error?5opening?5?$CFs?$AA@ 100470fc     rt_logging.obj
 0002:00005118       ??_C@_0BK@EEMDELA@unable?5to?5open?5data?5file?6?$AA@ 10047118     rt_logging.obj
 0002:00005138       ??_C@_04CGFJFPFD@none?$AA@ 10047138     rt_logging.obj
 0002:00005140       ??_C@_0EE@LCGFPNON@?$CK?$CK?$CK?5Error?5creating?5signals?5struc@ 10047140     rt_logging.obj
 0002:00005194       ??_C@_0CE@NHECEDMK@?$CK?$CK?$CK?5Error?5creating?5log?5variable?5@ 10047194     rt_logging.obj
 0002:000051c0       ??_C@_0DB@IOCGKAGH@?$CK?$CK?$CK?5Errors?5occurred?5when?5startin@ 100471c0     rt_logging.obj
 0002:000051fc       ??_C@_0BO@BBLOGEBK@?$CK?$CK?$CK?5Memory?5allocation?5error?4?6?$AA@ 100471fc     rt_logging.obj
 0002:00005220       ??_C@_0N@LGFBAGEL@?5?$CIreal?5part?$CJ?$AA@ 10047220     rt_logging.obj
 0002:00005230       ??_C@_0KH@CGNMHNFE@?5?5?5?5varName?5?5?5?5?5?5?5?5?5?5?$DN?5?$CFs?$CFs?6?5?5?5?5@ 10047230     rt_logging.obj
 0002:000052f8       ??_C@_0LE@OALKKEFM@?5?5?5?5varName?5?5?5?5?5?5?5?5?5?5?$DN?5?$CFs?5?$CIcompl@ 100472f8     rt_logging.obj
 0002:000053d0       ??_C@_0KF@JDDLEOKO@?5?5?5?5varName?5?5?5?5?5?5?5?5?5?5?$DN?5?$CFs?6?5?5?5?5nR@ 100473d0     rt_logging.obj
 0002:00005498       ??_C@_0DP@HPDMIOFM@?$CK?$CK?$CK?5Using?5a?5default?5buffer?5of?5si@ 10047498     rt_logging.obj
 0002:000054e8       ??_C@_0KE@JEFOLKNF@?6?$CK?$CK?$CK?5Memory?5required?5to?5log?5vari@ 100474e8     rt_logging.obj
 0002:000055b0       ??_C@_0JP@DKLMHCBI@?$CK?$CK?$CK?5Details?3?6?5?5?5?5?5?5?5varName?5?5?5?5?5@ 100475b0     rt_logging.obj
 0002:00005670       ??_C@_0CM@CAMILBED@?$CK?$CK?$CK?5Error?5allocating?5memory?5for?5@ 10047670     rt_logging.obj
 0002:000056a4       ??_C@_0DF@BBCNMOPM@?$CK?$CK?$CK?5Error?5allocating?5memory?5for?5@ 100476a4     rt_logging.obj
 0002:000056e8       ??_C@_0JP@DBCLPCCI@?$CK?$CK?$CK?5Details?3?6?5?5?5?5?5?5?5varName?5?5?5?5?5@ 100476e8     rt_logging.obj
 0002:000057a8       ??_C@_0FK@DPGAOBGA@?$CK?$CK?$CK?5Error?5allocating?5memory?5for?5@ 100477a8     rt_logging.obj
 0002:00005814       ??_C@_0BI@GGDNPHLJ@?$CK?$CK?$CK?5Error?5writing?5to?5?$CFs?$AA@ 10047814     rt_logging.obj
 0002:00005830       ??_C@_0CB@IBGJGELG@?$CK?$CK?$CK?5Error?5writing?5?$CFs?5due?5to?3?5?$CFs?6@ 10047830     rt_logging.obj
 0002:00005858       ??_C@_0CN@FLMCHCPB@?$CK?$CK?$CK?5Error?5writing?5log?5variable?5?$CF@ 10047858     rt_logging.obj
 0002:00005890       ??_C@_0DH@GAJCNOJP@?$CK?$CK?$CK?5Error?5writing?5structure?5log?5@ 10047890     rt_logging.obj
 0002:000058d4       ??_C@_0BD@POEALECL@?$CK?$CK?5created?5?$CFs?5?$CK?$CK?6?6?$AA@ 100478d4     rt_logging.obj
 0002:000058f0       __real@4020000000000000    100478f0     rt_logging.obj
 0002:00005900       __real@41dfffffffc00000    10047900     rt_logging.obj
 0002:00005910       __real@41efffffffe00000    10047910     rt_logging.obj
 0002:00005920       __real@bfbf9add3afd2773    10047920     rt_logging.obj
 0002:00005930       __real@c000000000000000    10047930     rt_logging.obj
 0002:00005940       __xmm@20202020202020202020202020202020 10047940     rt_logging.obj
 0002:00005970       __real@3cb0000000000000    10047970     rt_matrx.obj
 0002:00005990       ??_C@_0BI@INNPNFJN@Memory?5Allocation?5Error?$AA@ 10047990     rtw_modelmap_utils.obj
 0002:000059b0       ??_C@_1HC@OAPLBLFC@?$AAC?$AA?3?$AA?2?$AAP?$AAR?$AAO?$AAG?$AAR?$AAA?$AA?$HO?$AA1?$AA?2?$AAM?$AAA?$AAT?$AAL?$AAA?$AAB?$AA?2?$AAR?$AA2?$AA0?$AA1?$AA6?$AAa?$AA?2?$AAr?$AAt?$AAw?$AA?2?$AAc?$AA?2@ 100479b0     rtw_modelmap_utils.obj
 0002:00005a38       ??_C@_1CI@OEAJCJND@?$AAj?$AA?5?$AA?$DN?$AA?$DN?$AA?5?$AAe?$AAn?$AAc?$AAo?$AAd?$AAe?$AAd?$AAP?$AAa?$AAt?$AAh?$AAL?$AAe?$AAn?$AA?$AA@ 10047a38     rtw_modelmap_utils.obj
 0002:00005a68       ??_C@_1DC@NFAOIFKB@?$AAe?$AAn?$AAc?$AAo?$AAd?$AAe?$AAd?$AAP?$AAa?$AAt?$AAh?$AA?$FL?$AAj?$AA?9?$AA1?$AA?$FN?$AA?5?$AA?$DN?$AA?$DN?$AA?5?$AA?8?$AA?2?$AA0?$AA?8?$AA?$AA@ 10047a68     rtw_modelmap_utils.obj
 0002:00005aa4       ??_C@_1DI@FLNJGPEE@?$AAs?$AAi?$AAg?$AAC?$AAo?$AAm?$AAp?$AAl?$AAe?$AAx?$AAi?$AAt?$AAy?$AA?$FL?$AA?$CK?$AAs?$AAi?$AAg?$AAI?$AAd?$AAx?$AA?$FN?$AA?5?$AA?$CB?$AA?$DN?$AA?5?$AA1?$AA?$AA@ 10047aa4     rtw_modelmap_utils.obj
 0002:00005ae8       ??_C@_1KI@OFELMGBG@?$AA?$CI?$AA?$CI?$AA?$CI?$AAd?$AAa?$AAt?$AAa?$AAT?$AAy?$AAp?$AAe?$AAM?$AAa?$AAp?$AA?$CJ?$AA?$FL?$AA?$CI?$AA?$CI?$AA?$CI?$AAs?$AAt?$AAa?$AAt?$AAe?$AAs?$AA?$CJ?$AA?$FL?$AA?$CI?$AAi?$AA?$CJ?$AA?$FN?$AA?4@ 10047ae8     rtw_modelmap_utils.obj
 0002:00005bb4       ??_C@_1DA@ILCMPHNE@?$AAf?$AAu?$AAl?$AAl?$AAP?$AAa?$AAt?$AAh?$AA?5?$AA?$CB?$AA?$DN?$AA?5?$AA?$CI?$AA?$CI?$AAv?$AAo?$AAi?$AAd?$AA?5?$AA?$CK?$AA?$CJ?$AA0?$AA?$CJ?$AA?$AA@ 10047bb4     rtw_modelmap_utils.obj
 0002:00005bf0       ??_C@_1CI@OEPPFCCA@?$AAp?$AAa?$AAt?$AAh?$AA?5?$AA?$CB?$AA?$DN?$AA?5?$AA?$CI?$AA?$CI?$AAv?$AAo?$AAi?$AAd?$AA?5?$AA?$CK?$AA?$CJ?$AA0?$AA?$CJ?$AA?$AA@ 10047bf0     rtw_modelmap_utils.obj
 0002:00005c20       ??_C@_1FK@GLJIMFHB@?$AA?$CI?$AA?$CI?$AAm?$AAm?$AAi?$AA?$CJ?$AA?9?$AA?$DO?$AAI?$AAn?$AAs?$AAt?$AAa?$AAn?$AAc?$AAe?$AAM?$AAa?$AAp?$AA?4?$AAf?$AAu?$AAl?$AAl?$AAP?$AAa?$AAt?$AAh?$AA?$CJ?$AA?5?$AA?$DN?$AA?$DN@ 10047c20     rtw_modelmap_utils.obj
 0002:00005c8c       ??_C@_1DG@HPCJGNCE@?$AAm?$AAm?$AAi?$AAP?$AAa?$AAt?$AAh?$AA?$FL?$AAp?$AAa?$AAt?$AAh?$AAL?$AAe?$AAn?$AA?9?$AA1?$AA?$FN?$AA?5?$AA?$DN?$AA?$DN?$AA?5?$AA?8?$AA?2?$AA0?$AA?8?$AA?$AA@ 10047c8c     rtw_modelmap_utils.obj
 0002:00005ccc       ??_C@_1DM@DBAOGGOO@?$AAm?$AAm?$AAi?$AAP?$AAa?$AAt?$AAh?$AA?$FL?$AAm?$AAm?$AAi?$AAP?$AAa?$AAt?$AAh?$AAL?$AAe?$AAn?$AA?9?$AA1?$AA?$FN?$AA?5?$AA?$DN?$AA?$DN?$AA?5?$AA?8?$AA?2?$AA0?$AA?8?$AA?$AA@ 10047ccc     rtw_modelmap_utils.obj
 0002:00005d14       ??_C@_1DC@LHIAKAFE@?$AAb?$AAl?$AAo?$AAc?$AAk?$AAP?$AAa?$AAt?$AAh?$AA?5?$AA?$CB?$AA?$DN?$AA?5?$AA?$CI?$AA?$CI?$AAv?$AAo?$AAi?$AAd?$AA?5?$AA?$CK?$AA?$CJ?$AA0?$AA?$CJ?$AA?$AA@ 10047d14     rtw_modelmap_utils.obj
 0002:00005d50       ??_C@_1GI@KIEJKPGC@?$AAf?$AAu?$AAl?$AAl?$AAS?$AAt?$AAa?$AAt?$AAe?$AAB?$AAl?$AAo?$AAc?$AAk?$AAP?$AAa?$AAt?$AAh?$AA?$FL?$AAf?$AAu?$AAl?$AAl?$AAS?$AAt?$AAa?$AAt?$AAe?$AAB?$AAl?$AAo?$AAc@ 10047d50     rtw_modelmap_utils.obj
 0002:00005dd0       ??_C@_1EE@DNPIBJHC@?$AA?$CI?$AA?$CI?$AAd?$AAi?$AAm?$AAM?$AAa?$AAp?$AA?$CJ?$AA?$FL?$AA?$CI?$AAm?$AAa?$AAp?$AAI?$AAd?$AAx?$AA?$CJ?$AA?$FN?$AA?4?$AAn?$AAu?$AAm?$AAD?$AAi?$AAm?$AAs?$AA?$CJ?$AA?5?$AA?$DN?$AA?$DN?$AA?5@ 10047dd0     rtw_modelmap_utils.obj
 0002:00005e24       ??_C@_06JFOKFOED@CSTATE?$AA@ 10047e24     rtw_modelmap_utils.obj
 0002:00005e2c       ??_C@_06FAENGAMN@DSTATE?$AA@ 10047e2c     rtw_modelmap_utils.obj
 0002:00005e34       ??_C@_1BI@LEBJNOGG@?$AAc?$AAs?$AAv?$AAI?$AAd?$AAx?$AA?5?$AA?$DO?$AA?$DN?$AA?5?$AA0?$AA?$AA@ 10047e34     rtw_modelmap_utils.obj
 0002:00005e50       ??_C@_1BA@KDMGHCHP@?$AAT?$AAI?$AAD?$AA?$DN?$AA?$DN?$AA?9?$AA1?$AA?$AA@ 10047e50     rtw_modelmap_utils.obj
 0002:00005e64       ??_C@_1DM@DHGKBPCE@?$AAs?$AAi?$AAg?$AAP?$AAa?$AAt?$AAh?$AA?$FL?$AAs?$AAi?$AAg?$AAP?$AAa?$AAt?$AAh?$AAL?$AAe?$AAn?$AA?9?$AA1?$AA?$FN?$AA?5?$AA?$DN?$AA?$DN?$AA?5?$AA?8?$AA?2?$AA0?$AA?8?$AA?$AA@ 10047e64     rtw_modelmap_utils.obj
 0002:00005eac       _serialfifoground          10047eac     xpc_datatype_ground.obj
 0002:00005eb8       _bcmsg1553ground           10047eb8     xpc_datatype_ground.obj
 0002:00005ec8       _bcstatground              10047ec8     xpc_datatype_ground.obj
 0002:00005ee0       _bmmsg1553ground           10047ee0     xpc_datatype_ground.obj
 0002:00005f00       _ptsetfilename             10047f00     xpctarget.obj
 0002:00005f04       _xmlfile                   10047f04     xpctarget.obj
 0002:00005f0c       ??_C@_0BH@DNMKOCPI@FingerStrokeAssistance?$AA@ 10047f0c     xpctarget.obj
 0002:00005f28       ??_C@_0L@CHBJKKFC@xpceSetVar?$AA@ 10047f28     xpctarget.obj
 0002:00005f38       ??_C@_03ICACBPID@6?44?$AA@ 10047f38     xpctarget.obj
 0002:00005f40       __real@408f400000000000    10047f40     xpctarget.obj
 0002:00005f50       _FingerStrokeAssistance_BIOMAP 10047f50     appmappingData.obj
 0002:00006544       _FingerStrokeAssistance_dtmap 10048544     appmappingData.obj
 0002:00006568       _FingerStrokeAssistance_LBLMAP 10048568     appmappingData.obj
 0002:00006b60       _FingerStrokeAssistance_SIDMAP 10048b60     appmappingData.obj
 0002:00007158       _FingerStrokeAssistance_SBIO 10049158     appmappingData.obj
 0002:00007358       _FingerStrokeAssistance_SLBL 10049358     appmappingData.obj
 0002:00007558       _FingerStrokeAssistance_PTIDSMAP 10049558     appmappingData.obj
 0002:00007930       _FingerStrokeAssistance_PTNAMESMAP 10049930     appmappingData.obj
 0002:00007d08       _FingerStrokeAssistance_SPTMAP 10049d08     appmappingData.obj
 0002:00007ef8       _appInfo                   10049ef8     appmappingData.obj
 0002:000085a8       ??_C@_0CC@FIFFDAB@?$CFd?5input?5args?5expected?0?5?$CFd?5passe@ 1004a5a8     encnipcim.obj
 0002:000085d0       ??_C@_0BN@JIEFLHEB@?$CFs?3?5Too?5many?5M?5series?5boards?$AA@ 1004a5d0     encnipcim.obj
 0002:000085f8       ??_C@_0ED@LKHIFFLC@Wrong?5number?5of?5input?5arguments?5@ 1004a5f8     danipcim.obj
 0002:00008648       ??_C@_0DB@HFHLNKLE@Channel?5?$CFd?5exceeds?5the?5max?5DA?5ch@ 1004a648     danipcim.obj
 0002:00008684       ??_C@_0CL@GCJHHCMG@Output?5range?5?$CFd?5is?5not?5supported@ 1004a684     danipcim.obj
 0002:000086b8       ??_C@_0CI@FOFDKLAN@NI?5?$CFs?3?5Can?8t?5allocate?5temporary?5@ 1004a6b8     adnipcim.obj
 0002:000086e8       ??_C@_0CK@PIIIKEIH@NI?5M?5series?3?5Channel?5?$CFf?5out?5of?5r@ 1004a6e8     adnipcim.obj
 0002:0000871c       ??_C@_0CF@LKNEFAOG@NI?5M?5series?3?5Timeout?5waiting?5for@ 1004a71c     adnipcim.obj
 0002:00008748       __real@417312d000000000    1004a748     adnipcim.obj
 0002:00008754       ??_C@_0M@IMCLKBPP@NI?5PCI?96220?$AA@ 1004a754     xpcionim.obj
 0002:00008764       ??_C@_0M@JFDAJALO@NI?5PCI?96221?$AA@ 1004a764     xpcionim.obj
 0002:00008774       ??_C@_0P@NGCDCNKM@NI?5PCI?96221?137?$AA@ 1004a774     xpcionim.obj
 0002:00008788       ??_C@_0M@OIEHGEPL@NI?5PCI?96224?$AA@ 1004a788     xpcionim.obj
 0002:00008798       ??_C@_0M@PBFMFFLK@NI?5PCI?96225?$AA@ 1004a798     xpcionim.obj
 0002:000087a8       ??_C@_0M@FNOJBKLG@NI?5PCI?96229?$AA@ 1004a7a8     xpcionim.obj
 0002:000087b8       ??_C@_0M@INOJMLMI@NI?5PCI?96230?$AA@ 1004a7b8     xpcionim.obj
 0002:000087c8       ??_C@_0M@LPNPKJEK@NI?5PCI?96232?$AA@ 1004a7c8     xpcionim.obj
 0002:000087d8       ??_C@_0M@KGMEJIAL@NI?5PCI?96233?$AA@ 1004a7d8     xpcionim.obj
 0002:000087e8       ??_C@_0M@NLLDGMEO@NI?5PCI?96236?$AA@ 1004a7e8     xpcionim.obj
 0002:000087f8       ??_C@_0M@EFDAEBMA@NI?5PCI?96238?$AA@ 1004a7f8     xpcionim.obj
 0002:00008808       ??_C@_0M@FMCLHAIB@NI?5PCI?96239?$AA@ 1004a808     xpcionim.obj
 0002:00008818       ??_C@_0M@IJGELHHK@NI?5PCI?96250?$AA@ 1004a818     xpcionim.obj
 0002:00008828       ??_C@_0M@JAHPIGDL@NI?5PCI?96251?$AA@ 1004a828     xpcionim.obj
 0002:00008838       ??_C@_0M@ONAIHCHO@NI?5PCI?96254?$AA@ 1004a838     xpcionim.obj
 0002:00008848       ??_C@_0M@PEBDEDDP@NI?5PCI?96255?$AA@ 1004a848     xpcionim.obj
 0002:00008858       ??_C@_0M@FIKGAMDD@NI?5PCI?96259?$AA@ 1004a858     xpcionim.obj
 0002:00008868       ??_C@_0M@IBLMCECJ@NI?5PCI?96280?$AA@ 1004a868     xpcionim.obj
 0002:00008878       ??_C@_0M@JIKHBFGI@NI?5PCI?96281?$AA@ 1004a878     xpcionim.obj
 0002:00008888       ??_C@_0M@OFNAOBCN@NI?5PCI?96284?$AA@ 1004a888     xpcionim.obj
 0002:00008898       ??_C@_0M@FAHOJPGA@NI?5PCI?96289?$AA@ 1004a898     xpcionim.obj
 0002:000088a8       ??_C@_0CI@NFFNBHJA@?$CFs?5?$CIbus?5?$CFd?0?5slot?5?$CFd?$CJ?3?5board?5not?5@ 1004a8a8     xpcionim.obj
 0002:000088d8       ??_C@_0CD@MBDNCLAI@NI?5M?5series?3?5Unknown?5board?5type?5@ 1004a8d8     xpcionim.obj
 0002:00008904       ??_C@_0CC@DMFKNLL@VendorId?5?$DN?50x?$CFx?0?5DeviceId?5?$DN?50x?$CFx@ 1004a904     xpcruntime:xpcimports.obj
 0002:00008928       ??_C@_0DH@OHCBLNMG@Subsystem?5Device?5ID?5?$DN?50x?$CFx?6Subsy@ 1004a928     xpcruntime:xpcimports.obj
 0002:00008960       ??_C@_0BD@MMMMEFCM@Class?5Code?5?$DN?50x?$CFx?6?$AA@ 1004a960     xpcruntime:xpcimports.obj
 0002:00008974       ??_C@_0BE@OLDDDNHM@InterruptLine?5?$DN?5?$CFd?6?$AA@ 1004a974     xpcruntime:xpcimports.obj
 0002:00008988       ??_C@_0BF@OLKLEKBD@bus?5?$DN?5?$CFd?0?5slot?5?$DN?5?$CFd?6?$AA@ 1004a988     xpcruntime:xpcimports.obj
 0002:000089a0       ??_C@_0CE@DGLLGDFH@?5?5?5?5Phys?5?5?5Virtual?5?5?5Length?5IO?1M@ 1004a9a0     xpcruntime:xpcimports.obj
 0002:000089c4       ??_C@_0BI@FEOPLEMG@?$CF08x?5?$CF08x?5?$CF08x?5?5?5?5?5?5?$CFc?6?$AA@ 1004a9c4     xpcruntime:xpcimports.obj
 0002:000089dc       ??_C@_0BB@BNNCEDPC@rl32eScopeExists?$AA@ 1004a9dc     xpcruntime:xpcimports.obj
 0002:000089f0       ??_C@_0BM@FJBFEGFG@rl32eScopeExists?5not?5found?6?$AA@ 1004a9f0     xpcruntime:xpcimports.obj
 0002:00008a0c       ??_C@_0O@BNNGKJEA@rl32eDefScope?$AA@ 1004aa0c     xpcruntime:xpcimports.obj
 0002:00008a1c       ??_C@_0BJ@CDNOENKA@rl32eDefScope?5not?5found?6?$AA@ 1004aa1c     xpcruntime:xpcimports.obj
 0002:00008a38       ??_C@_0P@CKNKILDP@rl32eAddSignal?$AA@ 1004aa38     xpcruntime:xpcimports.obj
 0002:00008a48       ??_C@_0BK@GMJAJBAI@rl32eAddSignal?5not?5found?6?$AA@ 1004aa48     xpcruntime:xpcimports.obj
 0002:00008a64       ??_C@_0BB@LDMIHGCE@rl32eGetSignalNo?$AA@ 1004aa64     xpcruntime:xpcimports.obj
 0002:00008a78       ??_C@_0BM@LGAMBAID@rl32eGetSignalNo?5not?5found?6?$AA@ 1004aa78     xpcruntime:xpcimports.obj
 0002:00008a94       ??_C@_0O@CFDGALBP@rl32eSetScope?$AA@ 1004aa94     xpcruntime:xpcimports.obj
 0002:00008aa4       ??_C@_0BJ@JCLHHIN@rl32eSetScope?5not?5found?6?$AA@ 1004aaa4     xpcruntime:xpcimports.obj
 0002:00008ac0       ??_C@_0P@IKMCBMHH@xpceFSScopeSet?$AA@ 1004aac0     xpcruntime:xpcimports.obj
 0002:00008ad0       ??_C@_0BK@JODJPNNH@xpceFSScopeSet?5not?5found?6?$AA@ 1004aad0     xpcruntime:xpcimports.obj
 0002:00008aec       ??_C@_0BE@DLACEEJM@rl32eSetTargetScope?$AA@ 1004aaec     xpcruntime:xpcimports.obj
 0002:00008b00       ??_C@_0BP@JCHFMKPJ@rl32eSetTargetScope?5not?5found?6?$AA@ 1004ab00     xpcruntime:xpcimports.obj
 0002:00008b20       ??_C@_0BJ@LIDLNDHC@rl32eSetTargetScopeSigFt?$AA@ 1004ab20     xpcruntime:xpcimports.obj
 0002:00008b3c       ??_C@_0CE@JLGHCFHI@rl32eSetTargetScopeSigFt?5not?5fou@ 1004ab3c     xpcruntime:xpcimports.obj
 0002:00008b60       ??_C@_0BI@JAPOIDNG@rl32eRestartAcquisition?$AA@ 1004ab60     xpcruntime:xpcimports.obj
 0002:00008b78       ??_C@_0CD@LLBEFFBO@rl32eRestartAcquisition?5not?5foun@ 1004ab78     xpcruntime:xpcimports.obj
 0002:00008b9c       ??_C@_0P@IEIIADJB@xpceScopeAcqOK?$AA@ 1004ab9c     xpcruntime:xpcimports.obj
 0002:00008bac       ??_C@_0BK@NJCKNFPN@xpceScopeAcqOK?5not?5found?6?$AA@ 1004abac     xpcruntime:xpcimports.obj
 0002:00008bc8       ??_C@_0BA@IJINKAHF@xpceRegisterISR?$AA@ 1004abc8     xpcruntime:xpcimports.obj
 0002:00008bd8       ??_C@_0BL@NNDLOEJE@xpceRegisterISR?5not?5found?6?$AA@ 1004abd8     xpcruntime:xpcimports.obj
 0002:00008bf4       ??_C@_0BC@NLBADGKF@xpceDeRegisterISR?$AA@ 1004abf4     xpcruntime:xpcimports.obj
 0002:00008c08       ??_C@_0BN@DCAIKFFD@xpceDeRegisterISR?5not?5found?6?$AA@ 1004ac08     xpcruntime:xpcimports.obj
 0002:00008c28       ??_C@_0P@CPGPNKEB@xpceFTReadTime?$AA@ 1004ac28     xpcruntime:xpcimports.obj
 0002:00008c38       ??_C@_0BK@NMABIODN@xpceFTReadTime?5not?5found?6?$AA@ 1004ac38     xpcruntime:xpcimports.obj
 0002:00008c54       ??_C@_09PHNHCHFH@xpceFTAdd?$AA@ 1004ac54     xpcruntime:xpcimports.obj
 0002:00008c60       ??_C@_0BF@FJLEIILA@xpceFTAdd?5not?5found?6?$AA@ 1004ac60     xpcruntime:xpcimports.obj
 0002:00008c78       ??_C@_0P@KEODBLHO@xpceFTSubtract?$AA@ 1004ac78     xpcruntime:xpcimports.obj
 0002:00008c88       ??_C@_0BK@HONODOKP@xpceFTSubtract?5not?5found?6?$AA@ 1004ac88     xpcruntime:xpcimports.obj
 0002:00008ca4       ??_C@_07JPMEPILD@xpcInpB?$AA@ 1004aca4     xpcruntime:xpcimports.obj
 0002:00008cac       ??_C@_0BD@PGABEJOL@xpcInpB?5not?5found?6?$AA@ 1004acac     xpcruntime:xpcimports.obj
 0002:00008cc0       ??_C@_07KIHBBOKH@xpcInpW?$AA@ 1004acc0     xpcruntime:xpcimports.obj
 0002:00008cc8       ??_C@_0BD@FPCJFMCC@xpcInpW?5not?5found?6?$AA@ 1004acc8     xpcruntime:xpcimports.obj
 0002:00008cdc       ??_C@_08KDIAJBOP@xpcInpDW?$AA@ 1004acdc     xpcruntime:xpcimports.obj
 0002:00008ce8       ??_C@_0BE@PIELDNIL@xpcInpDW?5not?5found?6?$AA@ 1004ace8     xpcruntime:xpcimports.obj
 0002:00008cfc       ??_C@_08PJFMOIGO@xpcOutpB?$AA@ 1004acfc     xpcruntime:xpcimports.obj
 0002:00008d08       ??_C@_0BE@HCKNCEKF@xpcOutpB?5not?5found?6?$AA@ 1004ad08     xpcruntime:xpcimports.obj
 0002:00008d1c       ??_C@_08MOOJAOHK@xpcOutpW?$AA@ 1004ad1c     xpcruntime:xpcimports.obj
 0002:00008d28       ??_C@_0BE@NLIFDBGM@xpcOutpW?5not?5found?6?$AA@ 1004ad28     xpcruntime:xpcimports.obj
 0002:00008d3c       ??_C@_09FLIEKHJG@xpcOutpDW?$AA@ 1004ad3c     xpcruntime:xpcimports.obj
 0002:00008d48       ??_C@_0BF@GJKLPNHB@xpcOutpDW?5not?5found?6?$AA@ 1004ad48     xpcruntime:xpcimports.obj
 0002:00008d60       ??_C@_0BH@EHOLELHH@xpcReserveMemoryRegion?$AA@ 1004ad60     xpcruntime:xpcimports.obj
 0002:00008d78       ??_C@_0CC@KAAAGPI@xpcReserveMemoryRegion?5not?5found@ 1004ad78     xpcruntime:xpcimports.obj
 0002:00008d9c       ??_C@_0BA@JGPMHGAF@rl32eShowPCIDev?$AA@ 1004ad9c     xpcruntime:xpcimports.obj
 0002:00008dac       ??_C@_0BL@DDFFLNHI@rl32eShowPCIDev?5not?5found?6?$AA@ 1004adac     xpcruntime:xpcimports.obj
 0002:00008dc8       ??_C@_0BB@KBCOJPFB@rl32eShowPCIInfo?$AA@ 1004adc8     xpcruntime:xpcimports.obj
 0002:00008ddc       ??_C@_0BM@IFDMAGLO@rl32eShowPCIInfo?5not?5found?6?$AA@ 1004addc     xpcruntime:xpcimports.obj
 0002:00008df8       ??_C@_0BA@BGPAADB@rl32eGetPCIInfo?$AA@ 1004adf8     xpcruntime:xpcimports.obj
 0002:00008e08       ??_C@_0BL@IGOMLDCK@rl32eGetPCIInfo?5not?5found?6?$AA@ 1004ae08     xpcruntime:xpcimports.obj
 0002:00008e24       ??_C@_0BG@NJPFKFDP@rl32eGetPCIInfoAtSlot?$AA@ 1004ae24     xpcruntime:xpcimports.obj
 0002:00008e3c       ??_C@_0CB@BBKIPMLA@rl32eGetPCIInfoAtSlot?5not?5found?6@ 1004ae3c     xpcruntime:xpcimports.obj
 0002:00008e60       ??_C@_0BH@OKBOPNFG@xpceAssignPCIInterrupt?$AA@ 1004ae60     xpcruntime:xpcimports.obj
 0002:00008e78       ??_C@_0CC@CDNDNJBJ@xpceAssignPCIInterrupt?5not?5found@ 1004ae78     xpcruntime:xpcimports.obj
 0002:00008e9c       ??_C@_0BB@FCHHFAAH@rl32eInitCOMPort?$AA@ 1004ae9c     xpcruntime:xpcimports.obj
 0002:00008eb0       ??_C@_0BM@DDJGKAHB@rl32eInitCOMPort?5not?5found?6?$AA@ 1004aeb0     xpcruntime:xpcimports.obj
 0002:00008ecc       ??_C@_0BC@CHEEFCP@rl32eCloseCOMPort?$AA@ 1004aecc     xpcruntime:xpcimports.obj
 0002:00008ee0       ??_C@_0BN@KCOFELEM@rl32eCloseCOMPort?5not?5found?6?$AA@ 1004aee0     xpcruntime:xpcimports.obj
 0002:00008f00       ??_C@_0O@LLJGKFOG@rl32eSendChar?$AA@ 1004af00     xpcruntime:xpcimports.obj
 0002:00008f10       ??_C@_0BJ@JCJKDACJ@rl32eSendChar?5not?5found?6?$AA@ 1004af10     xpcruntime:xpcimports.obj
 0002:00008f2c       ??_C@_0BB@OMFKCOEK@rl32eReceiveChar?$AA@ 1004af2c     xpcruntime:xpcimports.obj
 0002:00008f40       ??_C@_0BM@HGAIOAND@rl32eReceiveChar?5not?5found?6?$AA@ 1004af40     xpcruntime:xpcimports.obj
 0002:00008f5c       ??_C@_0BI@PKEJFHMJ@rl32eReceiveBufferCount?$AA@ 1004af5c     xpcruntime:xpcimports.obj
 0002:00008f74       ??_C@_0CD@LNMOFLAH@rl32eReceiveBufferCount?5not?5foun@ 1004af74     xpcruntime:xpcimports.obj
 0002:00008f98       ??_C@_0BA@CFIJOJPK@rl32eLineStatus?$AA@ 1004af98     xpcruntime:xpcimports.obj
 0002:00008fa8       ??_C@_0BL@PLIDKKGI@rl32eLineStatus?5not?5found?6?$AA@ 1004afa8     xpcruntime:xpcimports.obj
 0002:00008fc4       ??_C@_0P@MDMKIJF@rl32eSendBlock?$AA@ 1004afc4     xpcruntime:xpcimports.obj
 0002:00008fd4       ??_C@_0BK@KNBNFIKH@rl32eSendBlock?5not?5found?6?$AA@ 1004afd4     xpcruntime:xpcimports.obj
 0002:00008ff0       ??_C@_0BD@PCKOKHO@xpceGetSignalValue?$AA@ 1004aff0     xpcruntime:xpcimports.obj
 0002:00009004       ??_C@_0BO@GCBDJHMB@xpceGetSignalValue?5not?5found?6?$AA@ 1004b004     xpcruntime:xpcimports.obj
 0002:00009024       ??_C@_0BB@BJONJAGA@xpceSetParameter?$AA@ 1004b024     xpcruntime:xpcimports.obj
 0002:00009038       ??_C@_0BM@BJIKDLHA@xpceSetParameter?5not?5found?6?$AA@ 1004b038     xpcruntime:xpcimports.obj
 0002:00009054       ??_C@_0BB@GNFDFMCM@xpceGetParameter?$AA@ 1004b054     xpcruntime:xpcimports.obj
 0002:00009068       ??_C@_0BM@POHNKBC@xpceGetParameter?5not?5found?6?$AA@ 1004b068     xpcruntime:xpcimports.obj
 0002:00009084       ??_C@_0BB@CEIJLFCD@xpceGetParamDims?$AA@ 1004b084     xpcruntime:xpcimports.obj
 0002:00009098       ??_C@_0BM@OABDBKAO@xpceGetParamDims?5not?5found?6?$AA@ 1004b098     xpcruntime:xpcimports.obj
 0002:000090b4       ??_C@_0L@OCBLLHBM@xpceGetTET?$AA@ 1004b0b4     xpcruntime:xpcimports.obj
 0002:000090c0       ??_C@_0BG@HNOFBOB@xpceGetTET?5not?5found?6?$AA@ 1004b0c0     xpcruntime:xpcimports.obj
 0002:000090d8       ??_C@_0BA@FHMIOKFL@xpceUDPOpenSend?$AA@ 1004b0d8     xpcruntime:xpcimports.obj
 0002:000090e8       ??_C@_0BL@HNLPFEK@xpceUDPOpenSend?5not?5found?6?$AA@ 1004b0e8     xpcruntime:xpcimports.obj
 0002:00009104       ??_C@_0BD@BCELJJJL@xpceUDPOpenReceive?$AA@ 1004b104     xpcruntime:xpcimports.obj
 0002:00009118       ??_C@_0BO@IFKJBHKC@xpceUDPOpenReceive?5not?5found?6?$AA@ 1004b118     xpcruntime:xpcimports.obj
 0002:00009138       ??_C@_0M@OFPFLJGN@xpceUDPSend?$AA@ 1004b138     xpcruntime:xpcimports.obj
 0002:00009144       ??_C@_0BH@NOIKLPAB@xpceUDPSend?5not?5found?6?$AA@ 1004b144     xpcruntime:xpcimports.obj
 0002:0000915c       ??_C@_0P@PLFDECIN@xpceUDPReceive?$AA@ 1004b15c     xpcruntime:xpcimports.obj
 0002:0000916c       ??_C@_0BK@OPJMLDLH@xpceUDPReceive?5not?5found?6?$AA@ 1004b16c     xpcruntime:xpcimports.obj
 0002:00009188       ??_C@_0N@IEHPMFME@xpceUDPClose?$AA@ 1004b188     xpcruntime:xpcimports.obj
 0002:00009198       ??_C@_0BI@FHPFHECO@xpceUDPClose?5not?5found?6?$AA@ 1004b198     xpcruntime:xpcimports.obj
 0002:000091b0       ??_C@_0P@OKGNGAGH@xpcIsModelInit?$AA@ 1004b1b0     xpcruntime:xpcimports.obj
 0002:000091c0       ??_C@_0BK@DHEMLBIM@xpcIsModelInit?5not?5found?6?$AA@ 1004b1c0     xpcruntime:xpcimports.obj
 0002:000091dc       ??_C@_0BH@KJJLCAOJ@xpcAllocPhysicalMemory?$AA@ 1004b1dc     xpcruntime:xpcimports.obj
 0002:000091f4       ??_C@_0CC@MOJPNHKL@xpcAllocPhysicalMemory?5not?5found@ 1004b1f4     xpcruntime:xpcimports.obj
 0002:00009218       ??_C@_0BG@CBNPGAEL@xpcFreePhysicalMemory?$AA@ 1004b218     xpcruntime:xpcimports.obj
 0002:00009230       ??_C@_0CB@PKJEBPOG@xpcFreePhysicalMemory?5not?5found?6@ 1004b230     xpcruntime:xpcimports.obj
 0002:00009254       ??_C@_0BC@JGKNLICL@xpcGetElapsedTime?$AA@ 1004b254     xpcruntime:xpcimports.obj
 0002:00009268       ??_C@_0BN@OEOAHCIO@xpcGetElapsedTime?5not?5found?6?$AA@ 1004b268     xpcruntime:xpcimports.obj
 0002:00009288       ??_C@_0M@ICBLMODA@xpcBusyWait?$AA@ 1004b288     xpcruntime:xpcimports.obj
 0002:00009294       ??_C@_0BH@FBOPECBI@xpcBusyWait?5not?5found?6?$AA@ 1004b294     xpcruntime:xpcimports.obj
 0002:000092ac       ??_C@_0N@LKKJEKKA@TBCreateSpin?$AA@ 1004b2ac     xpcruntime:xpcimports.obj
 0002:000092bc       ??_C@_0BI@FHKMLKOE@TBCreateSpin?5not?5found?6?$AA@ 1004b2bc     xpcruntime:xpcimports.obj
 0002:000092d4       ??_C@_0N@HOAJHNBD@TBDeleteSpin?$AA@ 1004b2d4     xpcruntime:xpcimports.obj
 0002:000092e4       ??_C@_0BI@BKCPAAG@TBDeleteSpin?5not?5found?6?$AA@ 1004b2e4     xpcruntime:xpcimports.obj
 0002:000092fc       ??_C@_0P@DAHDDBJG@TBTakeSpinFast?$AA@ 1004b2fc     xpcruntime:xpcimports.obj
 0002:0000930c       ??_C@_0BK@NKAIBHGB@TBTakeSpinFast?5not?5found?6?$AA@ 1004b30c     xpcruntime:xpcimports.obj
 0002:00009328       ??_C@_0P@FKNAAELA@TBGiveSpinFast?$AA@ 1004b328     xpcruntime:xpcimports.obj
 0002:00009338       ??_C@_0BK@KGPJBJND@TBGiveSpinFast?5not?5found?6?$AA@ 1004b338     xpcruntime:xpcimports.obj
 0002:00009354       ??_C@_0BE@IIGBFDHK@xpceCreateSemaphore?$AA@ 1004b354     xpcruntime:xpcimports.obj
 0002:00009368       ??_C@_0BP@KFBAFFKJ@xpceCreateSemaphore?5not?5found?6?$AA@ 1004b368     xpcruntime:xpcimports.obj
 0002:00009388       ??_C@_0BC@IFNIONKJ@xpceWaitSemaphore?$AA@ 1004b388     xpcruntime:xpcimports.obj
 0002:0000939c       ??_C@_0BN@NMFAADIO@xpceWaitSemaphore?5not?5found?6?$AA@ 1004b39c     xpcruntime:xpcimports.obj
 0002:000093bc       ??_C@_0BE@NNDIOBKE@xpceSignalSemaphore?$AA@ 1004b3bc     xpcruntime:xpcimports.obj
 0002:000093d0       ??_C@_0BP@LBANMHJP@xpceSignalSemaphore?5not?5found?6?$AA@ 1004b3d0     xpcruntime:xpcimports.obj
 0002:000093f0       ??_C@_0BE@MEBEKOIM@xpceDeleteSemaphore?$AA@ 1004b3f0     xpcruntime:xpcimports.obj
 0002:00009404       ??_C@_0BP@OFNCKOJH@xpceDeleteSemaphore?5not?5found?6?$AA@ 1004b404     xpcruntime:xpcimports.obj
 0002:00009424       ??_C@_0BD@MFNDMBOF@FindUsbVideoDevice?$AA@ 1004b424     xpcruntime:xpcimports.obj
 0002:00009438       ??_C@_0BO@POKLDHMI@FindUsbVideoDevice?5not?5found?6?$AA@ 1004b438     xpcruntime:xpcimports.obj
 0002:00009458       ??_C@_0BA@PLPAPNAB@GetVideoConfigs?$AA@ 1004b458     xpcruntime:xpcimports.obj
 0002:00009468       ??_C@_0BL@DALDHKHC@GetVideoConfigs?5not?5found?6?$AA@ 1004b468     xpcruntime:xpcimports.obj
 0002:00009484       ??_C@_0L@GBAEMHMH@StartVideo?$AA@ 1004b484     xpcruntime:xpcimports.obj
 0002:00009490       ??_C@_0BG@HDCELEBP@StartVideo?5not?5found?6?$AA@ 1004b490     xpcruntime:xpcimports.obj
 0002:000094a8       ??_C@_0BA@FDNPOCLN@ReadFrameBuffer?$AA@ 1004b4a8     xpcruntime:xpcimports.obj
 0002:000094b8       ??_C@_0BL@JHGHPNBI@ReadFrameBuffer?5not?5found?6?$AA@ 1004b4b8     xpcruntime:xpcimports.obj
 0002:000094d4       ??_C@_09FAHCLKAG@StopVideo?$AA@ 1004b4d4     xpcruntime:xpcimports.obj
 0002:000094e0       ??_C@_0BF@NKGKKADL@StopVideo?5not?5found?6?$AA@ 1004b4e0     xpcruntime:xpcimports.obj
 0002:000094f8       ??_C@_0O@MCPKDLLL@ConvertUImage?$AA@ 1004b4f8     xpcruntime:xpcimports.obj
 0002:00009508       ??_C@_0BJ@PHJKOAFL@ConvertUImage?5not?5found?6?$AA@ 1004b508     xpcruntime:xpcimports.obj
 0002:00009524       ??_C@_0BD@NKCBPBJJ@CreateVideoDisplay?$AA@ 1004b524     xpcruntime:xpcimports.obj
 0002:00009538       ??_C@_0BO@HPPLLNFP@CreateVideoDisplay?5not?5found?6?$AA@ 1004b538     xpcruntime:xpcimports.obj
 0002:00009558       ??_C@_0BE@KJCKGPHA@DestroyVideoDisplay?$AA@ 1004b558     xpcruntime:xpcimports.obj
 0002:0000956c       ??_C@_0BP@FMGLJAIJ@DestroyVideoDisplay?5not?5found?6?$AA@ 1004b56c     xpcruntime:xpcimports.obj
 0002:0000958c       ??_C@_0BC@HCMIMIDN@StartVideoDisplay?$AA@ 1004b58c     xpcruntime:xpcimports.obj
 0002:000095a0       ??_C@_0BN@EFIEBGOO@StartVideoDisplay?5not?5found?6?$AA@ 1004b5a0     xpcruntime:xpcimports.obj
 0002:000095c0       ??_C@_0BB@JBBLMILG@StopVideoDisplay?$AA@ 1004b5c0     xpcruntime:xpcimports.obj
 0002:000095d4       ??_C@_0BM@DBJBPLEL@StopVideoDisplay?5not?5found?6?$AA@ 1004b5d4     xpcruntime:xpcimports.obj
 0002:000095f0       ??_C@_0M@MFJEGMHC@StreamVideo?$AA@ 1004b5f0     xpcruntime:xpcimports.obj
 0002:000095fc       ??_C@_0BH@OINCDMLA@StreamVideo?5not?5found?6?$AA@ 1004b5fc     xpcruntime:xpcimports.obj
 0002:00009614       ??_C@_0N@IGGLCIGE@xpceaddEvent?$AA@ 1004b614     xpcruntime:xpcimports.obj
 0002:00009624       ??_C@_0BI@NHJNFMKH@xpceaddEvent?5not?5found?6?$AA@ 1004b624     xpcruntime:xpcimports.obj
 0002:0000963c       ??_C@_0BB@LCMHHHFN@getMemoryService?$AA@ 1004b63c     xpcruntime:xpcimports.obj
 0002:00009650       ??_C@_0BM@MPLCNIIE@getMemoryService?5not?5found?6?$AA@ 1004b650     xpcruntime:xpcimports.obj
 0002:0000966c       ??_C@_0P@KIKONDKK@getCommService?$AA@ 1004b66c     xpcruntime:xpcimports.obj
 0002:0000967c       ??_C@_0BK@NCECBKNM@getCommService?5not?5found?6?$AA@ 1004b67c     xpcruntime:xpcimports.obj
 0002:00009698       ??_C@_0P@GDLHFECE@getStatusFlags?$AA@ 1004b698     xpcruntime:xpcimports.obj
 0002:000096a8       ??_C@_0BK@NEKDLJHG@getStatusFlags?5not?5found?6?$AA@ 1004b6a8     xpcruntime:xpcimports.obj
 0002:000096c4       ??_C@_0BL@CDFCLKOL@startToAsyncQueueTgtAppSvc?$AA@ 1004b6c4     xpcruntime:xpcimports.obj
 0002:000096e0       ??_C@_0CG@JGOFFKEL@startToAsyncQueueTgtAppSvc?5not?5f@ 1004b6e0     xpcruntime:xpcimports.obj
 0002:00009708       ??_C@_0BP@IJNGPPPE@terminateToAsyncQueueTgtAppSvc?$AA@ 1004b708     xpcruntime:xpcimports.obj
 0002:00009728       ??_C@_0CK@NDEMAMKF@terminateToAsyncQueueTgtAppSvc?5n@ 1004b728     xpcruntime:xpcimports.obj
 0002:00009754       ??_C@_0BK@IDACEHAO@sendToAsyncQueueTgtAppSvc?$AA@ 1004b754     xpcruntime:xpcimports.obj
 0002:00009770       ??_C@_0CF@PNCKPEHN@sendToAsyncQueueTgtAppSvc?5not?5fo@ 1004b770     xpcruntime:xpcimports.obj
 0002:00009798       ??_C@_0BN@HJOHIFOM@xpceGetIntTimerGranularityNS?$AA@ 1004b798     xpcruntime:xpcimports.obj
 0002:000097b8       ??_C@_0CI@OADDPMKB@xpceGetIntTimerGranularityNS?5not@ 1004b7b8     xpcruntime:xpcimports.obj
 0002:000097e0       ??_C@_0BG@CCHICKPN@slrteSetStepSizeDelta?$AA@ 1004b7e0     xpcruntime:xpcimports.obj
 0002:000097f8       ??_C@_0CB@MKHINEIJ@slrteSetStepSizeDelta?5not?5found?6@ 1004b7f8     xpcruntime:xpcimports.obj
 0002:0000981c       ??_C@_0BI@CLNBLDKJ@slrteGetCurrentStepSize?$AA@ 1004b81c     xpcruntime:xpcimports.obj
 0002:00009834       ??_C@_0CD@GIOJPGJA@slrteGetCurrentStepSize?5not?5foun@ 1004b834     xpcruntime:xpcimports.obj
 0002:00009858       ??_C@_0BE@FCLCBOC@registerPTPTimeRead?$AA@ 1004b858     xpcruntime:xpcimports.obj
 0002:0000986c       ??_C@_0BP@LHPKAJIP@registerPTPTimeRead?5not?5found?6?$AA@ 1004b86c     xpcruntime:xpcimports.obj
 0002:0000988c       ??_C@_0BG@KIGCDDJI@unRegisterPTPTimeRead?$AA@ 1004b88c     xpcruntime:xpcimports.obj
 0002:000098a4       ??_C@_0CB@MLFFBFCM@unRegisterPTPTimeRead?5not?5found?6@ 1004b8a4     xpcruntime:xpcimports.obj
 0002:000098c8       ??_C@_0BB@IPMDDBHK@slTestInitialize?$AA@ 1004b8c8     xpcruntime:xpcimports.obj
 0002:000098dc       ??_C@_0BM@LAJFCCJH@slTestInitialize?5not?5found?6?$AA@ 1004b8dc     xpcruntime:xpcimports.obj
 0002:000098f8       ??_C@_0BF@OOMPMEBC@slTestLogAssessments?$AA@ 1004b8f8     xpcruntime:xpcimports.obj
 0002:00009910       ??_C@_0CA@FGJCEBAG@slTestLogAssessments?5not?5found?6?$AA@ 1004b910     xpcruntime:xpcimports.obj
 0002:00009930       ??_C@_0BB@HJHKONHO@slTestEvalOnFail?$AA@ 1004b930     xpcruntime:xpcimports.obj
 0002:00009944       ??_C@_0BM@JIKCFFNJ@slTestEvalOnFail?5not?5found?6?$AA@ 1004b944     xpcruntime:xpcimports.obj
 0002:00009960       ??_C@_0BA@LBHLABFP@slTestTerminate?$AA@ 1004b960     xpcruntime:xpcimports.obj
 0002:00009970       ??_C@_0BL@EMFGKAPA@slTestTerminate?5not?5found?6?$AA@ 1004b970     xpcruntime:xpcimports.obj
 0002:0000998c       ??_C@_0BE@JPNPBBEO@slTestRegAssessment?$AA@ 1004b98c     xpcruntime:xpcimports.obj
 0002:000099a0       ??_C@_0BP@FBDEJJJH@slTestRegAssessment?5not?5found?6?$AA@ 1004b9a0     xpcruntime:xpcimports.obj
 0002:0000d328       __FPinit                   1004f328     LIBCMT:fpinit.obj
 0002:0000d334       ??_C@_1BI@BGOHAHKC@?$AAm?$AAs?$AAc?$AAo?$AAr?$AAe?$AAe?$AA?4?$AAd?$AAl?$AAl?$AA?$AA@ 1004f334     LIBCMT:crt0dat.obj
 0002:0000d34c       ??_C@_0P@MIGLKIOC@CorExitProcess?$AA@ 1004f34c     LIBCMT:crt0dat.obj
 0002:0000d3e4       ??_C@_17LGKOMLJ@?$AA?4?$AA?4?$AA?4?$AA?$AA@ 1004f3e4     LIBCMT:wassert.obj
 0002:0000d3ec       ??_C@_13LBAGMAIH@?$AA?6?$AA?$AA@ 1004f3ec     LIBCMT:wassert.obj
 0002:0000d3f0       ??_C@_15IABLJNFO@?$AA?6?$AA?6?$AA?$AA@ 1004f3f0     LIBCMT:wassert.obj
 0002:0000d3f8       ??_C@_1CE@OJBNHDMO@?$AAA?$AAs?$AAs?$AAe?$AAr?$AAt?$AAi?$AAo?$AAn?$AA?5?$AAf?$AAa?$AAi?$AAl?$AAe?$AAd?$AA?$CB?$AA?$AA@ 1004f3f8     LIBCMT:wassert.obj
 0002:0000d41c       ??_C@_1BE@PHKBBGE@?$AAP?$AAr?$AAo?$AAg?$AAr?$AAa?$AAm?$AA?3?$AA?5?$AA?$AA@ 1004f41c     LIBCMT:wassert.obj
 0002:0000d430       ??_C@_1CO@EAEJAADC@?$AA?$DM?$AAp?$AAr?$AAo?$AAg?$AAr?$AAa?$AAm?$AA?5?$AAn?$AAa?$AAm?$AAe?$AA?5?$AAu?$AAn?$AAk?$AAn?$AAo?$AAw?$AAn?$AA?$DO?$AA?$AA@ 1004f430     LIBCMT:wassert.obj
 0002:0000d460       ??_C@_1O@HEMHKNDC@?$AAF?$AAi?$AAl?$AAe?$AA?3?$AA?5?$AA?$AA@ 1004f460     LIBCMT:wassert.obj
 0002:0000d470       ??_C@_1O@KCAFKHJE@?$AAL?$AAi?$AAn?$AAe?$AA?3?$AA?5?$AA?$AA@ 1004f470     LIBCMT:wassert.obj
 0002:0000d480       ??_C@_1BK@PEDCIPMA@?$AAE?$AAx?$AAp?$AAr?$AAe?$AAs?$AAs?$AAi?$AAo?$AAn?$AA?3?$AA?5?$AA?$AA@ 1004f480     LIBCMT:wassert.obj
 0002:0000d4a0       ??_C@_1OA@EGMLFBHJ@?$AAF?$AAo?$AAr?$AA?5?$AAi?$AAn?$AAf?$AAo?$AAr?$AAm?$AAa?$AAt?$AAi?$AAo?$AAn?$AA?5?$AAo?$AAn?$AA?5?$AAh?$AAo?$AAw?$AA?5?$AAy?$AAo?$AAu?$AAr?$AA?5?$AAp?$AAr?$AAo?$AAg@ 1004f4a0     LIBCMT:wassert.obj
 0002:0000d580       ??_C@_1HK@POCJMFGK@?$AA?$CI?$AAP?$AAr?$AAe?$AAs?$AAs?$AA?5?$AAR?$AAe?$AAt?$AAr?$AAy?$AA?5?$AAt?$AAo?$AA?5?$AAd?$AAe?$AAb?$AAu?$AAg?$AA?5?$AAt?$AAh?$AAe?$AA?5?$AAa?$AAp?$AAp?$AAl?$AAi?$AAc@ 1004f580     LIBCMT:wassert.obj
 0002:0000d600       ??_C@_1EK@MBDPDCGA@?$AAM?$AAi?$AAc?$AAr?$AAo?$AAs?$AAo?$AAf?$AAt?$AA?5?$AAV?$AAi?$AAs?$AAu?$AAa?$AAl?$AA?5?$AAC?$AA?$CL?$AA?$CL?$AA?5?$AAR?$AAu?$AAn?$AAt?$AAi?$AAm?$AAe?$AA?5?$AAL?$AAi?$AAb@ 1004f600     LIBCMT:wassert.obj
 0002:0000d64c       __pDefaultRawDllMain       1004f64c     LIBCMT:dllcrt0.obj
 0002:0000d64c       __pRawDllMain              1004f64c     LIBCMT:dllcrt0.obj
 0002:0000d650       ?ProcessDetach@NativeDll@<CrtImplementationDetails>@@0IB 1004f650     LIBCMT:handler.obj
 0002:0000d654       ?ProcessAttach@NativeDll@<CrtImplementationDetails>@@0IB 1004f654     LIBCMT:handler.obj
 0002:0000d658       ?ThreadAttach@NativeDll@<CrtImplementationDetails>@@0IB 1004f658     LIBCMT:handler.obj
 0002:0000d65c       ?ThreadDetach@NativeDll@<CrtImplementationDetails>@@0IB 1004f65c     LIBCMT:handler.obj
 0002:0000d660       ?ProcessVerifier@NativeDll@<CrtImplementationDetails>@@0IB 1004f660     LIBCMT:handler.obj
 0002:0000d720       ??_C@_1FK@PGACCAFB@?$AAR?$AA6?$AA0?$AA0?$AA2?$AA?$AN?$AA?6?$AA?9?$AA?5?$AAf?$AAl?$AAo?$AAa?$AAt?$AAi?$AAn?$AAg?$AA?5?$AAp?$AAo?$AAi?$AAn?$AAt?$AA?5?$AAs?$AAu?$AAp?$AAp?$AAo?$AAr?$AAt?$AA?5@ 1004f720     LIBCMT:crt0msg.obj
 0002:0000d780       ??_C@_1FE@LLNEDJMD@?$AAR?$AA6?$AA0?$AA0?$AA8?$AA?$AN?$AA?6?$AA?9?$AA?5?$AAn?$AAo?$AAt?$AA?5?$AAe?$AAn?$AAo?$AAu?$AAg?$AAh?$AA?5?$AAs?$AAp?$AAa?$AAc?$AAe?$AA?5?$AAf?$AAo?$AAr?$AA?5?$AAa?$AAr@ 1004f780     LIBCMT:crt0msg.obj
 0002:0000d7d8       ??_C@_1FI@HONFMGBI@?$AAR?$AA6?$AA0?$AA0?$AA9?$AA?$AN?$AA?6?$AA?9?$AA?5?$AAn?$AAo?$AAt?$AA?5?$AAe?$AAn?$AAo?$AAu?$AAg?$AAh?$AA?5?$AAs?$AAp?$AAa?$AAc?$AAe?$AA?5?$AAf?$AAo?$AAr?$AA?5?$AAe?$AAn@ 1004f7d8     LIBCMT:crt0msg.obj
 0002:0000d830       ??_C@_1EG@BEHAGFJD@?$AAR?$AA6?$AA0?$AA1?$AA0?$AA?$AN?$AA?6?$AA?9?$AA?5?$AAa?$AAb?$AAo?$AAr?$AAt?$AA?$CI?$AA?$CJ?$AA?5?$AAh?$AAa?$AAs?$AA?5?$AAb?$AAe?$AAe?$AAn?$AA?5?$AAc?$AAa?$AAl?$AAl?$AAe?$AAd@ 1004f830     LIBCMT:crt0msg.obj
 0002:0000d878       ??_C@_1FI@LOGNIKDM@?$AAR?$AA6?$AA0?$AA1?$AA6?$AA?$AN?$AA?6?$AA?9?$AA?5?$AAn?$AAo?$AAt?$AA?5?$AAe?$AAn?$AAo?$AAu?$AAg?$AAh?$AA?5?$AAs?$AAp?$AAa?$AAc?$AAe?$AA?5?$AAf?$AAo?$AAr?$AA?5?$AAt?$AAh@ 1004f878     LIBCMT:crt0msg.obj
 0002:0000d8d0       ??_C@_1FK@BEOGODMC@?$AAR?$AA6?$AA0?$AA1?$AA7?$AA?$AN?$AA?6?$AA?9?$AA?5?$AAu?$AAn?$AAe?$AAx?$AAp?$AAe?$AAc?$AAt?$AAe?$AAd?$AA?5?$AAm?$AAu?$AAl?$AAt?$AAi?$AAt?$AAh?$AAr?$AAe?$AAa?$AAd?$AA?5@ 1004f8d0     LIBCMT:crt0msg.obj
 0002:0000d930       ??_C@_1EC@JIBHAOPH@?$AAR?$AA6?$AA0?$AA1?$AA8?$AA?$AN?$AA?6?$AA?9?$AA?5?$AAu?$AAn?$AAe?$AAx?$AAp?$AAe?$AAc?$AAt?$AAe?$AAd?$AA?5?$AAh?$AAe?$AAa?$AAp?$AA?5?$AAe?$AAr?$AAr?$AAo?$AAr?$AA?$AN?$AA?6@ 1004f930     LIBCMT:crt0msg.obj
 0002:0000d978       ??_C@_1FC@ECHBIFBC@?$AAR?$AA6?$AA0?$AA1?$AA9?$AA?$AN?$AA?6?$AA?9?$AA?5?$AAu?$AAn?$AAa?$AAb?$AAl?$AAe?$AA?5?$AAt?$AAo?$AA?5?$AAo?$AAp?$AAe?$AAn?$AA?5?$AAc?$AAo?$AAn?$AAs?$AAo?$AAl?$AAe?$AA?5@ 1004f978     LIBCMT:crt0msg.obj
 0002:0000d9d0       ??_C@_1GK@FHCKBEFA@?$AAR?$AA6?$AA0?$AA2?$AA4?$AA?$AN?$AA?6?$AA?9?$AA?5?$AAn?$AAo?$AAt?$AA?5?$AAe?$AAn?$AAo?$AAu?$AAg?$AAh?$AA?5?$AAs?$AAp?$AAa?$AAc?$AAe?$AA?5?$AAf?$AAo?$AAr?$AA?5?$AA_?$AAo@ 1004f9d0     LIBCMT:crt0msg.obj
 0002:0000da40       ??_C@_1EM@MAADIHMB@?$AAR?$AA6?$AA0?$AA2?$AA5?$AA?$AN?$AA?6?$AA?9?$AA?5?$AAp?$AAu?$AAr?$AAe?$AA?5?$AAv?$AAi?$AAr?$AAt?$AAu?$AAa?$AAl?$AA?5?$AAf?$AAu?$AAn?$AAc?$AAt?$AAi?$AAo?$AAn?$AA?5?$AAc@ 1004fa40     LIBCMT:crt0msg.obj
 0002:0000da90       ??_C@_1GK@MCAAGJMO@?$AAR?$AA6?$AA0?$AA2?$AA6?$AA?$AN?$AA?6?$AA?9?$AA?5?$AAn?$AAo?$AAt?$AA?5?$AAe?$AAn?$AAo?$AAu?$AAg?$AAh?$AA?5?$AAs?$AAp?$AAa?$AAc?$AAe?$AA?5?$AAf?$AAo?$AAr?$AA?5?$AAs?$AAt@ 1004fa90     LIBCMT:crt0msg.obj
 0002:0000db00       ??_C@_1GK@MFGOKLAG@?$AAR?$AA6?$AA0?$AA2?$AA7?$AA?$AN?$AA?6?$AA?9?$AA?5?$AAn?$AAo?$AAt?$AA?5?$AAe?$AAn?$AAo?$AAu?$AAg?$AAh?$AA?5?$AAs?$AAp?$AAa?$AAc?$AAe?$AA?5?$AAf?$AAo?$AAr?$AA?5?$AAl?$AAo@ 1004fb00     LIBCMT:crt0msg.obj
 0002:0000db70       ??_C@_1EK@HHFLMAOL@?$AAR?$AA6?$AA0?$AA2?$AA8?$AA?$AN?$AA?6?$AA?9?$AA?5?$AAu?$AAn?$AAa?$AAb?$AAl?$AAe?$AA?5?$AAt?$AAo?$AA?5?$AAi?$AAn?$AAi?$AAt?$AAi?$AAa?$AAl?$AAi?$AAz?$AAe?$AA?5?$AAh?$AAe@ 1004fb70     LIBCMT:crt0msg.obj
 0002:0000dbbc       ??_C@_1DO@BMFCDCD@?$AAR?$AA6?$AA0?$AA3?$AA0?$AA?$AN?$AA?6?$AA?9?$AA?5?$AAC?$AAR?$AAT?$AA?5?$AAn?$AAo?$AAt?$AA?5?$AAi?$AAn?$AAi?$AAt?$AAi?$AAa?$AAl?$AAi?$AAz?$AAe?$AAd?$AA?$AN?$AA?6?$AA?$AA@ 1004fbbc     LIBCMT:crt0msg.obj
 0002:0000dc00       ??_C@_1MG@ENCOOIDF@?$AAR?$AA6?$AA0?$AA3?$AA1?$AA?$AN?$AA?6?$AA?9?$AA?5?$AAA?$AAt?$AAt?$AAe?$AAm?$AAp?$AAt?$AA?5?$AAt?$AAo?$AA?5?$AAi?$AAn?$AAi?$AAt?$AAi?$AAa?$AAl?$AAi?$AAz?$AAe?$AA?5?$AAt@ 1004fc00     LIBCMT:crt0msg.obj
 0002:0000dcc8       ??_C@_1GG@GOPILAJP@?$AAR?$AA6?$AA0?$AA3?$AA2?$AA?$AN?$AA?6?$AA?9?$AA?5?$AAn?$AAo?$AAt?$AA?5?$AAe?$AAn?$AAo?$AAu?$AAg?$AAh?$AA?5?$AAs?$AAp?$AAa?$AAc?$AAe?$AA?5?$AAf?$AAo?$AAr?$AA?5?$AAl?$AAo@ 1004fcc8     LIBCMT:crt0msg.obj
 0002:0000dd30       ??_C@_1BOO@KGEDBGAJ@?$AAR?$AA6?$AA0?$AA3?$AA3?$AA?$AN?$AA?6?$AA?9?$AA?5?$AAA?$AAt?$AAt?$AAe?$AAm?$AAp?$AAt?$AA?5?$AAt?$AAo?$AA?5?$AAu?$AAs?$AAe?$AA?5?$AAM?$AAS?$AAI?$AAL?$AA?5?$AAc?$AAo?$AAd@ 1004fd30     LIBCMT:crt0msg.obj
 0002:0000df20       ??_C@_1GG@MKFPEKFO@?$AAR?$AA6?$AA0?$AA3?$AA4?$AA?$AN?$AA?6?$AA?9?$AA?5?$AAi?$AAn?$AAc?$AAo?$AAn?$AAs?$AAi?$AAs?$AAt?$AAe?$AAn?$AAt?$AA?5?$AAo?$AAn?$AAe?$AAx?$AAi?$AAt?$AA?5?$AAb?$AAe?$AAg@ 1004ff20     LIBCMT:crt0msg.obj
 0002:0000df88       ??_C@_1BO@BFCDCGC@?$AAD?$AAO?$AAM?$AAA?$AAI?$AAN?$AA?5?$AAe?$AAr?$AAr?$AAo?$AAr?$AA?$AN?$AA?6?$AA?$AA@ 1004ff88     LIBCMT:crt0msg.obj
 0002:0000dfa8       ??_C@_1BK@KMOMNAAI@?$AAS?$AAI?$AAN?$AAG?$AA?5?$AAe?$AAr?$AAr?$AAo?$AAr?$AA?$AN?$AA?6?$AA?$AA@ 1004ffa8     LIBCMT:crt0msg.obj
 0002:0000dfc4       ??_C@_1BM@JBBEPPHI@?$AAT?$AAL?$AAO?$AAS?$AAS?$AA?5?$AAe?$AAr?$AAr?$AAo?$AAr?$AA?$AN?$AA?6?$AA?$AA@ 1004ffc4     LIBCMT:crt0msg.obj
 0002:0000dfe0       ??_C@_15JNBOKNOG@?$AA?$AN?$AA?6?$AA?$AA@ 1004ffe0     LIBCMT:crt0msg.obj
 0002:0000dfe8       ??_C@_1BO@BKOMIGKJ@?$AAr?$AAu?$AAn?$AAt?$AAi?$AAm?$AAe?$AA?5?$AAe?$AAr?$AAr?$AAo?$AAr?$AA?5?$AA?$AA@ 1004ffe8     LIBCMT:crt0msg.obj
 0002:0000e008       ??_C@_1DE@JNGNBFGO@?$AAR?$AAu?$AAn?$AAt?$AAi?$AAm?$AAe?$AA?5?$AAE?$AAr?$AAr?$AAo?$AAr?$AA?$CB?$AA?6?$AA?6?$AAP?$AAr?$AAo?$AAg?$AAr?$AAa?$AAm?$AA?3?$AA?5?$AA?$AA@ 10050008     LIBCMT:crt0msg.obj
 0002:0000e03c       ??_C@_06OJHGLDPL@?$CInull?$CJ?$AA@ 1005003c     LIBCMT:output.obj
 0002:0000e044       ??_C@_1O@CEDCILHN@?$AA?$CI?$AAn?$AAu?$AAl?$AAl?$AA?$CJ?$AA?$AA@ 10050044     LIBCMT:output.obj
 0002:0000e058       ___lookuptable             10050058     LIBCMT:output.obj
 0002:0000e120       ??_C@_03MGHMBJCF@log?$AA@  10050120     LIBCMT:libm_error.obj
 0002:0000e124       ??_C@_05HGHHAHAP@log10?$AA@ 10050124     LIBCMT:libm_error.obj
 0002:0000e12c       ??_C@_03KHJOGHMM@exp?$AA@  1005012c     LIBCMT:libm_error.obj
 0002:0000e130       ??_C@_03JGHBODFD@pow?$AA@  10050130     LIBCMT:libm_error.obj
 0002:0000e134       ??_C@_04FIHNOPOL@asin?$AA@ 10050134     LIBCMT:libm_error.obj
 0002:0000e13c       ??_C@_04PDIFKINK@acos?$AA@ 1005013c     LIBCMT:libm_error.obj
 0002:0000e144       ??_C@_05EOHGHCHD@exp10?$AA@ 10050144     LIBCMT:libm_error.obj
 0002:0000e14c       ??_C@_04MLLJIGOK@atan?$AA@ 1005014c     LIBCMT:libm_error.obj
 0002:0000e154       ??_C@_04GFPJNGEK@ceil?$AA@ 10050154     LIBCMT:libm_error.obj
 0002:0000e15c       ??_C@_05PBJFFIGL@floor?$AA@ 1005015c     LIBCMT:libm_error.obj
 0002:0000e164       ??_C@_04EHEDPDJG@modf?$AA@ 10050164     LIBCMT:libm_error.obj
 0002:0000e16c       ??_C@_03BLEJJJBH@sin?$AA@  1005016c     LIBCMT:libm_error.obj
 0002:0000e170       ??_C@_03LALBNOCG@cos?$AA@  10050170     LIBCMT:libm_error.obj
 0002:0000e174       ??_C@_03IIINPABG@tan?$AA@  10050174     LIBCMT:libm_error.obj
 0002:0000e178       ??_C@_04EIAKFFMI@sqrt?$AA@ 10050178     LIBCMT:libm_error.obj
 0002:0000e180       ??_C@_05KLBDPFGC@e?$CL000?$AA@ 10050180     LIBCMT:cvt.obj
 0002:0000e188       ??_C@_1BK@MGMFAEKH@?$AAk?$AAe?$AAr?$AAn?$AAe?$AAl?$AA3?$AA2?$AA?4?$AAd?$AAl?$AAl?$AA?$AA@ 10050188     LIBCMT:winapisupp.obj
 0002:0000e1a4       ??_C@_08KNHFBNJ@FlsAlloc?$AA@ 100501a4     LIBCMT:winapisupp.obj
 0002:0000e1b0       ??_C@_07PEJMOBNF@FlsFree?$AA@ 100501b0     LIBCMT:winapisupp.obj
 0002:0000e1b8       ??_C@_0M@GDNOONDI@FlsGetValue?$AA@ 100501b8     LIBCMT:winapisupp.obj
 0002:0000e1c4       ??_C@_0M@JCPCPOEF@FlsSetValue?$AA@ 100501c4     LIBCMT:winapisupp.obj
 0002:0000e1d0       ??_C@_0BM@HCFOFFN@InitializeCriticalSectionEx?$AA@ 100501d0     LIBCMT:winapisupp.obj
 0002:0000e1ec       ??_C@_0P@DLHPPCNH@CreateEventExW?$AA@ 100501ec     LIBCMT:winapisupp.obj
 0002:0000e1fc       ??_C@_0BD@KIEEOEEH@CreateSemaphoreExW?$AA@ 100501fc     LIBCMT:winapisupp.obj
 0002:0000e210       ??_C@_0BI@BKLFFAPO@SetThreadStackGuarantee?$AA@ 10050210     LIBCMT:winapisupp.obj
 0002:0000e228       ??_C@_0BG@OGFAJCKC@CreateThreadpoolTimer?$AA@ 10050228     LIBCMT:winapisupp.obj
 0002:0000e240       ??_C@_0BD@LPLEMMDI@SetThreadpoolTimer?$AA@ 10050240     LIBCMT:winapisupp.obj
 0002:0000e254       ??_C@_0CA@FMNJENH@WaitForThreadpoolTimerCallbacks?$AA@ 10050254     LIBCMT:winapisupp.obj
 0002:0000e274       ??_C@_0BF@DCFCCNOC@CloseThreadpoolTimer?$AA@ 10050274     LIBCMT:winapisupp.obj
 0002:0000e28c       ??_C@_0BF@FLABGKKM@CreateThreadpoolWait?$AA@ 1005028c     LIBCMT:winapisupp.obj
 0002:0000e2a4       ??_C@_0BC@MGCOHNA@SetThreadpoolWait?$AA@ 100502a4     LIBCMT:winapisupp.obj
 0002:0000e2b8       ??_C@_0BE@OCIOMIMP@CloseThreadpoolWait?$AA@ 100502b8     LIBCMT:winapisupp.obj
 0002:0000e2cc       ??_C@_0BJ@LKGHFHBO@FlushProcessWriteBuffers?$AA@ 100502cc     LIBCMT:winapisupp.obj
 0002:0000e2e8       ??_C@_0BP@KALKKPMO@FreeLibraryWhenCallbackReturns?$AA@ 100502e8     LIBCMT:winapisupp.obj
 0002:0000e308       ??_C@_0BK@DFNBACLA@GetCurrentProcessorNumber?$AA@ 10050308     LIBCMT:winapisupp.obj
 0002:0000e324       ??_C@_0BP@KHGALBC@GetLogicalProcessorInformation?$AA@ 10050324     LIBCMT:winapisupp.obj
 0002:0000e344       ??_C@_0BE@FKKLLFLM@CreateSymbolicLinkW?$AA@ 10050344     LIBCMT:winapisupp.obj
 0002:0000e358       ??_C@_0BJ@OHNKDLIJ@SetDefaultDllDirectories?$AA@ 10050358     LIBCMT:winapisupp.obj
 0002:0000e374       ??_C@_0BE@LJANKFHF@EnumSystemLocalesEx?$AA@ 10050374     LIBCMT:winapisupp.obj
 0002:0000e388       ??_C@_0BA@IHGNDAEB@CompareStringEx?$AA@ 10050388     LIBCMT:winapisupp.obj
 0002:0000e398       ??_C@_0BA@EPCJIIPD@GetDateFormatEx?$AA@ 10050398     LIBCMT:winapisupp.obj
 0002:0000e3a8       ??_C@_0BA@ONOKGCMP@GetLocaleInfoEx?$AA@ 100503a8     LIBCMT:winapisupp.obj
 0002:0000e3b8       ??_C@_0BA@CIJJKCJJ@GetTimeFormatEx?$AA@ 100503b8     LIBCMT:winapisupp.obj
 0002:0000e3c8       ??_C@_0BJ@PBCCBIPI@GetUserDefaultLocaleName?$AA@ 100503c8     LIBCMT:winapisupp.obj
 0002:0000e3e4       ??_C@_0BC@CELBKLLA@IsValidLocaleName?$AA@ 100503e4     LIBCMT:winapisupp.obj
 0002:0000e3f8       ??_C@_0O@KKBNKAPF@LCMapStringEx?$AA@ 100503f8     LIBCMT:winapisupp.obj
 0002:0000e408       ??_C@_0BE@JOGNEJCI@GetCurrentPackageId?$AA@ 10050408     LIBCMT:winapisupp.obj
 0002:0000e41c       ??_C@_0P@CDHHOHKP@GetTickCount64?$AA@ 1005041c     LIBCMT:winapisupp.obj
 0002:0000e42c       ??_C@_0BO@KPCLFDJJ@GetFileInformationByHandleExW?$AA@ 1005042c     LIBCMT:winapisupp.obj
 0002:0000e44c       ??_C@_0BM@MHIDLABK@SetFileInformationByHandleW?$AA@ 1005044c     LIBCMT:winapisupp.obj
 0002:0000e468       ??_C@_1BK@GAEMIDIL@?$AAA?$AAD?$AAV?$AAA?$AAP?$AAI?$AA3?$AA2?$AA?4?$AAD?$AAL?$AAL?$AA?$AA@ 10050468     LIBCMT:rand_s.obj
 0002:0000e484       ??_C@_0BC@JEAENNKH@SystemFunction036?$AA@ 10050484     LIBCMT:rand_s.obj
 0002:0000e4a8       ??_C@_1M@HPNHIDJI@?$AAj?$AAa?$AA?9?$AAJ?$AAP?$AA?$AA@ 100504a8     LIBCMT:mbctype.obj
 0002:0000e4b4       ??_C@_1M@BIBDDEMK@?$AAz?$AAh?$AA?9?$AAC?$AAN?$AA?$AA@ 100504b4     LIBCMT:mbctype.obj
 0002:0000e4c0       ??_C@_1M@JLOOOEGK@?$AAk?$AAo?$AA?9?$AAK?$AAR?$AA?$AA@ 100504c0     LIBCMT:mbctype.obj
 0002:0000e4cc       ??_C@_1M@CLNBBOPM@?$AAz?$AAh?$AA?9?$AAT?$AAW?$AA?$AA@ 100504cc     LIBCMT:mbctype.obj
 0002:0000e4f8       ??_C@_04FJHINJAO@tanh?$AA@ 100504f8     LIBCMT:fpexcept.obj
 0002:0000e500       ??_C@_05KNGEOGJB@atan2?$AA@ 10050500     LIBCMT:fpexcept.obj
 0002:0000e508       ??_C@_04ODHECPBC@fabs?$AA@ 10050508     LIBCMT:fpexcept.obj
 0002:0000e510       ??_C@_05CEJMAHNP@ldexp?$AA@ 10050510     LIBCMT:fpexcept.obj
 0002:0000e518       ??_C@_05KBKMEMPO@_cabs?$AA@ 10050518     LIBCMT:fpexcept.obj
 0002:0000e520       ??_C@_06MEIMCGCF@_hypot?$AA@ 10050520     LIBCMT:fpexcept.obj
 0002:0000e528       ??_C@_04KEPJIHGP@fmod?$AA@ 10050528     LIBCMT:fpexcept.obj
 0002:0000e530       ??_C@_05GKKHEGJL@frexp?$AA@ 10050530     LIBCMT:fpexcept.obj
 0002:0000e538       ??_C@_03MJLDFKDL@_y0?$AA@  10050538     LIBCMT:fpexcept.obj
 0002:0000e53c       ??_C@_03NAKIGLHK@_y1?$AA@  1005053c     LIBCMT:fpexcept.obj
 0002:0000e540       ??_C@_03ONILCKOB@_yn?$AA@  10050540     LIBCMT:fpexcept.obj
 0002:0000e544       ??_C@_05JGDBENOH@_logb?$AA@ 10050544     LIBCMT:fpexcept.obj
 0002:0000e54c       ??_C@_0L@KDOEJCKC@_nextafter?$AA@ 1005054c     LIBCMT:fpexcept.obj
 0002:0000e558       ??_C@_04COOMCNPB@sinh?$AA@ 10050558     LIBCMT:fpexcept.obj
 0002:0000e560       ??_C@_04HPJJNFIM@cosh?$AA@ 10050560     LIBCMT:fpexcept.obj
 0002:0000e568       ??_C@_1BG@GOEBHBDC@?$AAU?$AAS?$AAE?$AAR?$AA3?$AA2?$AA?4?$AAD?$AAL?$AAL?$AA?$AA@ 10050568     LIBCMT:crtmboxw.obj
 0002:0000e580       ??_C@_0M@DLDCCGNP@MessageBoxW?$AA@ 10050580     LIBCMT:crtmboxw.obj
 0002:0000e58c       ??_C@_0BA@HNOPNCHB@GetActiveWindow?$AA@ 1005058c     LIBCMT:crtmboxw.obj
 0002:0000e59c       ??_C@_0BD@HHGDFDBJ@GetLastActivePopup?$AA@ 1005059c     LIBCMT:crtmboxw.obj
 0002:0000e5b0       ??_C@_0BK@DEKFELLI@GetUserObjectInformationW?$AA@ 100505b0     LIBCMT:crtmboxw.obj
 0002:0000e5cc       ??_C@_0BI@DFKBFLJE@GetProcessWindowStation?$AA@ 100505cc     LIBCMT:crtmboxw.obj
 0002:0000e5e8       __XcptActTab               100505e8     LIBCMT:winxfltr.obj
 0002:0000e678       __XcptActTabCount          10050678     LIBCMT:winxfltr.obj
 0002:0000e67c       __XcptActTabSize           1005067c     LIBCMT:winxfltr.obj
 0002:0000e680       __First_FPE_Indx           10050680     LIBCMT:winxfltr.obj
 0002:0000e684       __Num_FPE                  10050684     LIBCMT:winxfltr.obj
 0002:0000e688       ___lookuptable_s           10050688     LIBCMT:outputs.obj
 0002:0000e6e4       ??_C@_03KOEHGMDN@Sun?$AA@  100506e4     LIBCMT:nlsdata.obj
 0002:0000e6e8       ??_C@_03PDAGKDH@Mon?$AA@   100506e8     LIBCMT:nlsdata.obj
 0002:0000e6ec       ??_C@_03NAGEINEP@Tue?$AA@  100506ec     LIBCMT:nlsdata.obj
 0002:0000e6f0       ??_C@_03MHOMLAJA@Wed?$AA@  100506f0     LIBCMT:nlsdata.obj
 0002:0000e6f4       ??_C@_03IOFIKPDN@Thu?$AA@  100506f4     LIBCMT:nlsdata.obj
 0002:0000e6f8       ??_C@_03IDIOELNC@Fri?$AA@  100506f8     LIBCMT:nlsdata.obj
 0002:0000e6fc       ??_C@_03FEFJNEK@Sat?$AA@   100506fc     LIBCMT:nlsdata.obj
 0002:0000e700       ??_C@_06OOPIFAJ@Sunday?$AA@ 10050700     LIBCMT:nlsdata.obj
 0002:0000e708       ??_C@_06JLEDEDGH@Monday?$AA@ 10050708     LIBCMT:nlsdata.obj
 0002:0000e710       ??_C@_07BAAGCFCM@Tuesday?$AA@ 10050710     LIBCMT:nlsdata.obj
 0002:0000e718       ??_C@_09DLIGFAKA@Wednesday?$AA@ 10050718     LIBCMT:nlsdata.obj
 0002:0000e724       ??_C@_08HACCIKIA@Thursday?$AA@ 10050724     LIBCMT:nlsdata.obj
 0002:0000e730       ??_C@_06JECMNKMI@Friday?$AA@ 10050730     LIBCMT:nlsdata.obj
 0002:0000e738       ??_C@_08INBOOONO@Saturday?$AA@ 10050738     LIBCMT:nlsdata.obj
 0002:0000e744       ??_C@_03JIHJHPIE@Jan?$AA@  10050744     LIBCMT:nlsdata.obj
 0002:0000e748       ??_C@_03HJBDCHOM@Feb?$AA@  10050748     LIBCMT:nlsdata.obj
 0002:0000e74c       ??_C@_03ODNJBKGA@Mar?$AA@  1005074c     LIBCMT:nlsdata.obj
 0002:0000e750       ??_C@_03LEOLGMJP@Apr?$AA@  10050750     LIBCMT:nlsdata.obj
 0002:0000e754       ??_C@_03CNMDKL@May?$AA@    10050754     LIBCMT:nlsdata.obj
 0002:0000e758       ??_C@_03IDFGHECI@Jun?$AA@  10050758     LIBCMT:nlsdata.obj
 0002:0000e75c       ??_C@_03LBGABGKK@Jul?$AA@  1005075c     LIBCMT:nlsdata.obj
 0002:0000e760       ??_C@_03IFJFEIGA@Aug?$AA@  10050760     LIBCMT:nlsdata.obj
 0002:0000e764       ??_C@_03GGCAPAJC@Sep?$AA@  10050764     LIBCMT:nlsdata.obj
 0002:0000e768       ??_C@_03BMAOKBAD@Oct?$AA@  10050768     LIBCMT:nlsdata.obj
 0002:0000e76c       ??_C@_03JPJOFNIA@Nov?$AA@  1005076c     LIBCMT:nlsdata.obj
 0002:0000e770       ??_C@_03MKABNOCG@Dec?$AA@  10050770     LIBCMT:nlsdata.obj
 0002:0000e774       ??_C@_07CGJPFGJA@January?$AA@ 10050774     LIBCMT:nlsdata.obj
 0002:0000e77c       ??_C@_08GNJGEPFN@February?$AA@ 1005077c     LIBCMT:nlsdata.obj
 0002:0000e788       ??_C@_05HPCKOFNC@March?$AA@ 10050788     LIBCMT:nlsdata.obj
 0002:0000e790       ??_C@_05DMJDNLEJ@April?$AA@ 10050790     LIBCMT:nlsdata.obj
 0002:0000e798       ??_C@_04CNLMGBGM@June?$AA@ 10050798     LIBCMT:nlsdata.obj
 0002:0000e7a0       ??_C@_04MIEPOIFP@July?$AA@ 100507a0     LIBCMT:nlsdata.obj
 0002:0000e7a8       ??_C@_06LBBHFDDG@August?$AA@ 100507a8     LIBCMT:nlsdata.obj
 0002:0000e7b0       ??_C@_09BHHEALKD@September?$AA@ 100507b0     LIBCMT:nlsdata.obj
 0002:0000e7bc       ??_C@_07JJNFCEND@October?$AA@ 100507bc     LIBCMT:nlsdata.obj
 0002:0000e7c4       ??_C@_08HCHEGEOA@November?$AA@ 100507c4     LIBCMT:nlsdata.obj
 0002:0000e7d0       ??_C@_08EDHMEBNP@December?$AA@ 100507d0     LIBCMT:nlsdata.obj
 0002:0000e7dc       ??_C@_02DEDBPAFC@AM?$AA@   100507dc     LIBCMT:nlsdata.obj
 0002:0000e7e0       ??_C@_02CJNFDJBF@PM?$AA@   100507e0     LIBCMT:nlsdata.obj
 0002:0000e7e4       ??_C@_08BPBNCDIB@MM?1dd?1yy?$AA@ 100507e4     LIBCMT:nlsdata.obj
 0002:0000e7f0       ??_C@_0BE@CKGJFCPC@dddd?0?5MMMM?5dd?0?5yyyy?$AA@ 100507f0     LIBCMT:nlsdata.obj
 0002:0000e804       ??_C@_08JCCMCCIL@HH?3mm?3ss?$AA@ 10050804     LIBCMT:nlsdata.obj
 0002:0000e810       ??_C@_17MBGCMIPB@?$AAS?$AAu?$AAn?$AA?$AA@ 10050810     LIBCMT:nlsdata.obj
 0002:0000e818       ??_C@_17KBOMKBF@?$AAM?$AAo?$AAn?$AA?$AA@ 10050818     LIBCMT:nlsdata.obj
 0002:0000e820       ??_C@_17BMKGEGOJ@?$AAT?$AAu?$AAe?$AA?$AA@ 10050820     LIBCMT:nlsdata.obj
 0002:0000e828       ??_C@_17CJEDCEPE@?$AAW?$AAe?$AAd?$AA?$AA@ 10050828     LIBCMT:nlsdata.obj
 0002:0000e830       ??_C@_17PDPHAADD@?$AAT?$AAh?$AAu?$AA?$AA@ 10050830     LIBCMT:nlsdata.obj
 0002:0000e838       ??_C@_17HFOLPPLP@?$AAF?$AAr?$AAi?$AA?$AA@ 10050838     LIBCMT:nlsdata.obj
 0002:0000e840       ??_C@_17GGIBDPIH@?$AAS?$AAa?$AAt?$AA?$AA@ 10050840     LIBCMT:nlsdata.obj
 0002:0000e848       ??_C@_1O@IHNHDHPB@?$AAS?$AAu?$AAn?$AAd?$AAa?$AAy?$AA?$AA@ 10050848     LIBCMT:nlsdata.obj
 0002:0000e858       ??_C@_1O@MMNBFLIA@?$AAM?$AAo?$AAn?$AAd?$AAa?$AAy?$AA?$AA@ 10050858     LIBCMT:nlsdata.obj
 0002:0000e868       ??_C@_1BA@ENFBFFEK@?$AAT?$AAu?$AAe?$AAs?$AAd?$AAa?$AAy?$AA?$AA@ 10050868     LIBCMT:nlsdata.obj
 0002:0000e878       ??_C@_1BE@EBOGMDOH@?$AAW?$AAe?$AAd?$AAn?$AAe?$AAs?$AAd?$AAa?$AAy?$AA?$AA@ 10050878     LIBCMT:nlsdata.obj
 0002:0000e88c       ??_C@_1BC@HHMNLIHE@?$AAT?$AAh?$AAu?$AAr?$AAs?$AAd?$AAa?$AAy?$AA?$AA@ 1005088c     LIBCMT:nlsdata.obj
 0002:0000e8a0       ??_C@_1O@PDICJHAG@?$AAF?$AAr?$AAi?$AAd?$AAa?$AAy?$AA?$AA@ 100508a0     LIBCMT:nlsdata.obj
 0002:0000e8b0       ??_C@_1BC@ENMNNPAJ@?$AAS?$AAa?$AAt?$AAu?$AAr?$AAd?$AAa?$AAy?$AA?$AA@ 100508b0     LIBCMT:nlsdata.obj
 0002:0000e8c4       ??_C@_17DKNBKCHM@?$AAJ?$AAa?$AAn?$AA?$AA@ 100508c4     LIBCMT:nlsdata.obj
 0002:0000e8cc       ??_C@_17LMDJEKJN@?$AAF?$AAe?$AAb?$AA?$AA@ 100508cc     LIBCMT:nlsdata.obj
 0002:0000e8d4       ??_C@_17CKNLEDEC@?$AAM?$AAa?$AAr?$AA?$AA@ 100508d4     LIBCMT:nlsdata.obj
 0002:0000e8dc       ??_C@_17LFPOIHDD@?$AAA?$AAp?$AAr?$AA?$AA@ 100508dc     LIBCMT:nlsdata.obj
 0002:0000e8e4       ??_C@_17PNNKMEED@?$AAM?$AAa?$AAy?$AA?$AA@ 100508e4     LIBCMT:nlsdata.obj
 0002:0000e8ec       ??_C@_17KCJGOCPB@?$AAJ?$AAu?$AAn?$AA?$AA@ 100508ec     LIBCMT:nlsdata.obj
 0002:0000e8f4       ??_C@_17IJPCKHK@?$AAJ?$AAu?$AAl?$AA?$AA@ 100508f4     LIBCMT:nlsdata.obj
 0002:0000e8fc       ??_C@_17ICPELBCN@?$AAA?$AAu?$AAg?$AA?$AA@ 100508fc     LIBCMT:nlsdata.obj
 0002:0000e904       ??_C@_17HCHCOKMG@?$AAS?$AAe?$AAp?$AA?$AA@ 10050904     LIBCMT:nlsdata.obj
 0002:0000e90c       ??_C@_17FNLKOI@?$AAO?$AAc?$AAt?$AA?$AA@ 1005090c     LIBCMT:nlsdata.obj
 0002:0000e914       ??_C@_17BBDMLCIG@?$AAN?$AAo?$AAv?$AA?$AA@ 10050914     LIBCMT:nlsdata.obj
 0002:0000e91c       ??_C@_17EGKACKIF@?$AAD?$AAe?$AAc?$AA?$AA@ 1005091c     LIBCMT:nlsdata.obj
 0002:0000e924       ??_C@_1BA@EFMEIEBA@?$AAJ?$AAa?$AAn?$AAu?$AAa?$AAr?$AAy?$AA?$AA@ 10050924     LIBCMT:nlsdata.obj
 0002:0000e934       ??_C@_1BC@JGDDFFAM@?$AAF?$AAe?$AAb?$AAr?$AAu?$AAa?$AAr?$AAy?$AA?$AA@ 10050934     LIBCMT:nlsdata.obj
 0002:0000e948       ??_C@_1M@IKEENEDF@?$AAM?$AAa?$AAr?$AAc?$AAh?$AA?$AA@ 10050948     LIBCMT:nlsdata.obj
 0002:0000e954       ??_C@_1M@GJNLMHFD@?$AAA?$AAp?$AAr?$AAi?$AAl?$AA?$AA@ 10050954     LIBCMT:nlsdata.obj
 0002:0000e960       ??_C@_19EPFLPGAP@?$AAJ?$AAu?$AAn?$AAe?$AA?$AA@ 10050960     LIBCMT:nlsdata.obj
 0002:0000e96c       ??_C@_19BIFMLPCD@?$AAJ?$AAu?$AAl?$AAy?$AA?$AA@ 1005096c     LIBCMT:nlsdata.obj
 0002:0000e978       ??_C@_1O@PAHLKOAC@?$AAA?$AAu?$AAg?$AAu?$AAs?$AAt?$AA?$AA@ 10050978     LIBCMT:nlsdata.obj
 0002:0000e988       ??_C@_1BE@DKAAMBJL@?$AAS?$AAe?$AAp?$AAt?$AAe?$AAm?$AAb?$AAe?$AAr?$AA?$AA@ 10050988     LIBCMT:nlsdata.obj
 0002:0000e99c       ??_C@_1BA@EPANDLNG@?$AAO?$AAc?$AAt?$AAo?$AAb?$AAe?$AAr?$AA?$AA@ 1005099c     LIBCMT:nlsdata.obj
 0002:0000e9ac       ??_C@_1BC@BGLIFPF@?$AAN?$AAo?$AAv?$AAe?$AAm?$AAb?$AAe?$AAr?$AA?$AA@ 100509ac     LIBCMT:nlsdata.obj
 0002:0000e9c0       ??_C@_1BC@FEMKIFH@?$AAD?$AAe?$AAc?$AAe?$AAm?$AAb?$AAe?$AAr?$AA?$AA@ 100509c0     LIBCMT:nlsdata.obj
 0002:0000e9d4       ??_C@_15ODEHAHHF@?$AAA?$AAM?$AA?$AA@ 100509d4     LIBCMT:nlsdata.obj
 0002:0000e9dc       ??_C@_15CLMNNGEL@?$AAP?$AAM?$AA?$AA@ 100509dc     LIBCMT:nlsdata.obj
 0002:0000e9e4       ??_C@_1BC@IEBCMHCM@?$AAM?$AAM?$AA?1?$AAd?$AAd?$AA?1?$AAy?$AAy?$AA?$AA@ 100509e4     LIBCMT:nlsdata.obj
 0002:0000e9f8       ??_C@_1CI@KNAKOEBC@?$AAd?$AAd?$AAd?$AAd?$AA?0?$AA?5?$AAM?$AAM?$AAM?$AAM?$AA?5?$AAd?$AAd?$AA?0?$AA?5?$AAy?$AAy?$AAy?$AAy?$AA?$AA@ 100509f8     LIBCMT:nlsdata.obj
 0002:0000ea20       ??_C@_1BC@GDGBMEMK@?$AAH?$AAH?$AA?3?$AAm?$AAm?$AA?3?$AAs?$AAs?$AA?$AA@ 10050a20     LIBCMT:nlsdata.obj
 0002:0000ea34       ??_C@_1M@BMHNFIME@?$AAe?$AAn?$AA?9?$AAU?$AAS?$AA?$AA@ 10050a34     LIBCMT:nlsdata.obj
 0002:0000ea40       _LcidToLocaleNameTable     10050a40     LIBCMT:winapinls.obj
 0002:0000f160       _LocaleNameToIndexTable    10051160     LIBCMT:winapinls.obj
 0002:0000f880       ??_C@_15EMKDOKLE@?$AAa?$AAr?$AA?$AA@ 10051880     LIBCMT:winapinls.obj
 0002:0000f888       ??_C@_15KNPADPLH@?$AAb?$AAg?$AA?$AA@ 10051888     LIBCMT:winapinls.obj
 0002:0000f890       ??_C@_15EDMHLDMO@?$AAc?$AAa?$AA?$AA@ 10051890     LIBCMT:winapinls.obj
 0002:0000f898       ??_C@_1O@BPEAJADD@?$AAz?$AAh?$AA?9?$AAC?$AAH?$AAS?$AA?$AA@ 10051898     LIBCMT:winapinls.obj
 0002:0000f8a8       ??_C@_15LJNHCMNK@?$AAc?$AAs?$AA?$AA@ 100518a8     LIBCMT:winapinls.obj
 0002:0000f8b0       ??_C@_15FOMCIDHG@?$AAd?$AAa?$AA?$AA@ 100518b0     LIBCMT:winapinls.obj
 0002:0000f8b8       ??_C@_15NBKABECB@?$AAd?$AAe?$AA?$AA@ 100518b8     LIBCMT:winapinls.obj
 0002:0000f8c0       ??_C@_15GHPEIIAO@?$AAe?$AAl?$AA?$AA@ 100518c0     LIBCMT:winapinls.obj
 0002:0000f8c8       ??_C@_15MNPNEAIF@?$AAe?$AAn?$AA?$AA@ 100518c8     LIBCMT:winapinls.obj
 0002:0000f8d0       ??_C@_15GPIOMPMH@?$AAe?$AAs?$AA?$AA@ 100518d0     LIBCMT:winapinls.obj
 0002:0000f8d8       ??_C@_15NGLOAKJC@?$AAf?$AAi?$AA?$AA@ 100518d8     LIBCMT:winapinls.obj
 0002:0000f8e0       ??_C@_15FBKGNKAM@?$AAf?$AAr?$AA?$AA@ 100518e0     LIBCMT:winapinls.obj
 0002:0000f8e8       ??_C@_15KGGCNEFK@?$AAh?$AAe?$AA?$AA@ 100518e8     LIBCMT:winapinls.obj
 0002:0000f8f0       ??_C@_15PGHLIDMF@?$AAh?$AAu?$AA?$AA@ 100518f0     LIBCMT:winapinls.obj
 0002:0000f8f8       ??_C@_15BIEMAPLM@?$AAi?$AAs?$AA?$AA@ 100518f8     LIBCMT:winapinls.obj
 0002:0000f900       ??_C@_15IFJLDHAF@?$AAi?$AAt?$AA?$AA@ 10051900     LIBCMT:winapinls.obj
 0002:0000f908       ??_C@_15GEMIOCAG@?$AAj?$AAa?$AA?$AA@ 10051908     LIBCMT:winapinls.obj
 0002:0000f910       ??_C@_15EPELEGJA@?$AAk?$AAo?$AA?$AA@ 10051910     LIBCMT:winapinls.obj
 0002:0000f918       ??_C@_15NDDHIMN@?$AAn?$AAl?$AA?$AA@ 10051918     LIBCMT:winapinls.obj
 0002:0000f920       ??_C@_15BPIGNHCD@?$AAn?$AAo?$AA?$AA@ 10051920     LIBCMT:winapinls.obj
 0002:0000f928       ??_C@_15DEOPBLCG@?$AAp?$AAl?$AA?$AA@ 10051928     LIBCMT:winapinls.obj
 0002:0000f930       ??_C@_15KBECGEFG@?$AAp?$AAt?$AA?$AA@ 10051930     LIBCMT:winapinls.obj
 0002:0000f938       ??_C@_15GLJCBFMD@?$AAr?$AAo?$AA?$AA@ 10051938     LIBCMT:winapinls.obj
 0002:0000f940       ??_C@_15FEDGKCDI@?$AAr?$AAu?$AA?$AA@ 10051940     LIBCMT:winapinls.obj
 0002:0000f948       ??_C@_15GLKMLLHM@?$AAh?$AAr?$AA?$AA@ 10051948     LIBCMT:winapinls.obj
 0002:0000f950       ??_C@_15CPKMFBDB@?$AAs?$AAk?$AA?$AA@ 10051950     LIBCMT:winapinls.obj
 0002:0000f958       ??_C@_15BAAIOGMK@?$AAs?$AAq?$AA?$AA@ 10051958     LIBCMT:winapinls.obj
 0002:0000f960       ??_C@_15INNPNOHD@?$AAs?$AAv?$AA?$AA@ 10051960     LIBCMT:winapinls.obj
 0002:0000f968       ??_C@_15CABMMOGH@?$AAt?$AAh?$AA?$AA@ 10051968     LIBCMT:winapinls.obj
 0002:0000f970       ??_C@_15BPLIHJJM@?$AAt?$AAr?$AA?$AA@ 10051970     LIBCMT:winapinls.obj
 0002:0000f978       ??_C@_15NEOEKKDJ@?$AAu?$AAr?$AA?$AA@ 10051978     LIBCMT:winapinls.obj
 0002:0000f980       ??_C@_15NFICGAJK@?$AAi?$AAd?$AA?$AA@ 10051980     LIBCMT:winapinls.obj
 0002:0000f988       ??_C@_15PJPFLCCM@?$AAu?$AAk?$AA?$AA@ 10051988     LIBCMT:winapinls.obj
 0002:0000f990       ??_C@_15HPJPHDM@?$AAb?$AAe?$AA?$AA@ 10051990     LIBCMT:winapinls.obj
 0002:0000f998       ??_C@_15LCHLGJII@?$AAs?$AAl?$AA?$AA@ 10051998     LIBCMT:winapinls.obj
 0002:0000f9a0       ??_C@_15PCFJPHHO@?$AAe?$AAt?$AA?$AA@ 100519a0     LIBCMT:winapinls.obj
 0002:0000f9a8       ??_C@_15HPFPGODN@?$AAl?$AAv?$AA?$AA@ 100519a8     LIBCMT:winapinls.obj
 0002:0000f9b0       ??_C@_15NFFGKGLG@?$AAl?$AAt?$AA?$AA@ 100519b0     LIBCMT:winapinls.obj
 0002:0000f9b8       ??_C@_15BDAKCCHN@?$AAf?$AAa?$AA?$AA@ 100519b8     LIBCMT:winapinls.obj
 0002:0000f9c0       ??_C@_15NFGIAIAJ@?$AAv?$AAi?$AA?$AA@ 100519c0     LIBCMT:winapinls.obj
 0002:0000f9c8       ??_C@_15LMKNDMHN@?$AAh?$AAy?$AA?$AA@ 100519c8     LIBCMT:winapinls.obj
 0002:0000f9d0       ??_C@_15IJBHMCFL@?$AAa?$AAz?$AA?$AA@ 100519d0     LIBCMT:winapinls.obj
 0002:0000f9d8       ??_C@_15EKOFJABL@?$AAe?$AAu?$AA?$AA@ 100519d8     LIBCMT:winapinls.obj
 0002:0000f9e0       ??_C@_15BGHADCNK@?$AAm?$AAk?$AA?$AA@ 100519e0     LIBCMT:winapinls.obj
 0002:0000f9e8       ??_C@_15JDNICKHM@?$AAa?$AAf?$AA?$AA@ 100519e8     LIBCMT:winapinls.obj
 0002:0000f9f0       ??_C@_15KPJEDBKD@?$AAk?$AAa?$AA?$AA@ 100519f0     LIBCMT:winapinls.obj
 0002:0000f9f8       ??_C@_15PDNFFFEO@?$AAf?$AAo?$AA?$AA@ 100519f8     LIBCMT:winapinls.obj
 0002:0000fa00       ??_C@_15OMLEGLOC@?$AAh?$AAi?$AA?$AA@ 10051a00     LIBCMT:winapinls.obj
 0002:0000fa08       ??_C@_15IDNNENKK@?$AAm?$AAs?$AA?$AA@ 10051a08     LIBCMT:winapinls.obj
 0002:0000fa10       ??_C@_15MACJNBMH@?$AAk?$AAk?$AA?$AA@ 10051a10     LIBCMT:winapinls.obj
 0002:0000fa18       ??_C@_15DKDJEOND@?$AAk?$AAy?$AA?$AA@ 10051a18     LIBCMT:winapinls.obj
 0002:0000fa20       ??_C@_15DFGDLJBG@?$AAs?$AAw?$AA?$AA@ 10051a20     LIBCMT:winapinls.obj
 0002:0000fa28       ??_C@_15BBFAICNG@?$AAu?$AAz?$AA?$AA@ 10051a28     LIBCMT:winapinls.obj
 0002:0000fa30       ??_C@_15DKNDCGEA@?$AAt?$AAt?$AA?$AA@ 10051a30     LIBCMT:winapinls.obj
 0002:0000fa38       ??_C@_15MGIFMDPL@?$AAp?$AAa?$AA?$AA@ 10051a38     LIBCMT:winapinls.obj
 0002:0000fa40       ??_C@_15HCNDBBA@?$AAg?$AAu?$AA?$AA@ 10051a40     LIBCMT:winapinls.obj
 0002:0000fa48       ??_C@_15FNBEIBON@?$AAt?$AAa?$AA?$AA@ 10051a48     LIBCMT:winapinls.obj
 0002:0000fa50       ??_C@_15NCHGBGLK@?$AAt?$AAe?$AA?$AA@ 10051a50     LIBCMT:winapinls.obj
 0002:0000fa58       ??_C@_15PHPHCBPF@?$AAk?$AAn?$AA?$AA@ 10051a58     LIBCMT:winapinls.obj
 0002:0000fa60       ??_C@_15DLGBCKMP@?$AAm?$AAr?$AA?$AA@ 10051a60     LIBCMT:winapinls.obj
 0002:0000fa68       ??_C@_15EABBLBFF@?$AAs?$AAa?$AA?$AA@ 10051a68     LIBCMT:winapinls.obj
 0002:0000fa70       ??_C@_15CBKOMCOI@?$AAm?$AAn?$AA?$AA@ 10051a70     LIBCMT:winapinls.obj
 0002:0000fa78       ??_C@_15CKDMCJAF@?$AAg?$AAl?$AA?$AA@ 10051a78     LIBCMT:winapinls.obj
 0002:0000fa80       ??_C@_17CNJFBPG@?$AAk?$AAo?$AAk?$AA?$AA@ 10051a80     LIBCMT:winapinls.obj
 0002:0000fa88       ??_C@_17FFBJICPL@?$AAs?$AAy?$AAr?$AA?$AA@ 10051a88     LIBCMT:winapinls.obj
 0002:0000fa90       ??_C@_17KPNDCPAF@?$AAd?$AAi?$AAv?$AA?$AA@ 10051a90     LIBCMT:winapinls.obj
 0002:0000fa98       ??_C@_11LOCGONAA@?$AA?$AA@ 10051a98     LIBCMT:winapinls.obj
 0002:0000fa9c       ??_C@_1M@OKAHONE@?$AAa?$AAr?$AA?9?$AAS?$AAA?$AA?$AA@ 10051a9c     LIBCMT:winapinls.obj
 0002:0000faa8       ??_C@_1M@FFFIGIGK@?$AAb?$AAg?$AA?9?$AAB?$AAG?$AA?$AA@ 10051aa8     LIBCMT:winapinls.obj
 0002:0000fab4       ??_C@_1M@BJNKEDC@?$AAc?$AAa?$AA?9?$AAE?$AAS?$AA?$AA@ 10051ab4     LIBCMT:winapinls.obj
 0002:0000fac0       ??_C@_1M@IJJHFJHA@?$AAc?$AAs?$AA?9?$AAC?$AAZ?$AA?$AA@ 10051ac0     LIBCMT:winapinls.obj
 0002:0000facc       ??_C@_1M@CLPEOBGI@?$AAd?$AAa?$AA?9?$AAD?$AAK?$AA?$AA@ 10051acc     LIBCMT:winapinls.obj
 0002:0000fad8       ??_C@_1M@MCMADGCB@?$AAd?$AAe?$AA?9?$AAD?$AAE?$AA?$AA@ 10051ad8     LIBCMT:winapinls.obj
 0002:0000fae4       ??_C@_1M@OOCKEMAM@?$AAe?$AAl?$AA?9?$AAG?$AAR?$AA?$AA@ 10051ae4     LIBCMT:winapinls.obj
 0002:0000faf0       ??_C@_1M@DDNJFGID@?$AAf?$AAi?$AA?9?$AAF?$AAI?$AA?$AA@ 10051af0     LIBCMT:winapinls.obj
 0002:0000fafc       ??_C@_1M@GLIPPMAC@?$AAf?$AAr?$AA?9?$AAF?$AAR?$AA?$AA@ 10051afc     LIBCMT:winapinls.obj
 0002:0000fb08       ??_C@_1M@GFMCHPE@?$AAh?$AAe?$AA?9?$AAI?$AAL?$AA?$AA@ 10051b08     LIBCMT:winapinls.obj
 0002:0000fb14       ??_C@_1M@MHLPGNKM@?$AAh?$AAu?$AA?9?$AAH?$AAU?$AA?$AA@ 10051b14     LIBCMT:winapinls.obj
 0002:0000fb20       ??_C@_1M@LPDDNNPN@?$AAi?$AAs?$AA?9?$AAI?$AAS?$AA?$AA@ 10051b20     LIBCMT:winapinls.obj
 0002:0000fb2c       ??_C@_1M@MADIPODN@?$AAi?$AAt?$AA?9?$AAI?$AAT?$AA?$AA@ 10051b2c     LIBCMT:winapinls.obj
 0002:0000fb38       ??_C@_1M@IHBJJGG@?$AAn?$AAl?$AA?9?$AAN?$AAL?$AA?$AA@ 10051b38     LIBCMT:winapinls.obj
 0002:0000fb44       ??_C@_1M@EANAGDL@?$AAn?$AAb?$AA?9?$AAN?$AAO?$AA?$AA@ 10051b44     LIBCMT:winapinls.obj
 0002:0000fb50       ??_C@_1M@NEIEMEGP@?$AAp?$AAl?$AA?9?$AAP?$AAL?$AA?$AA@ 10051b50     LIBCMT:winapinls.obj
 0002:0000fb5c       ??_C@_1M@BOCFIGEP@?$AAp?$AAt?$AA?9?$AAB?$AAR?$AA?$AA@ 10051b5c     LIBCMT:winapinls.obj
 0002:0000fb68       ??_C@_1M@IMPFOPBG@?$AAr?$AAo?$AA?9?$AAR?$AAO?$AA?$AA@ 10051b68     LIBCMT:winapinls.obj
 0002:0000fb74       ??_C@_1M@IDNNEJMM@?$AAr?$AAu?$AA?9?$AAR?$AAU?$AA?$AA@ 10051b74     LIBCMT:winapinls.obj
 0002:0000fb80       ??_C@_1M@LILEEOGM@?$AAh?$AAr?$AA?9?$AAH?$AAR?$AA?$AA@ 10051b80     LIBCMT:winapinls.obj
 0002:0000fb8c       ??_C@_1M@FKIFEHPB@?$AAs?$AAk?$AA?9?$AAS?$AAK?$AA?$AA@ 10051b8c     LIBCMT:winapinls.obj
 0002:0000fb98       ??_C@_1M@LJMAMNPJ@?$AAs?$AAq?$AA?9?$AAA?$AAL?$AA?$AA@ 10051b98     LIBCMT:winapinls.obj
 0002:0000fba4       ??_C@_1M@GIAKDKJK@?$AAs?$AAv?$AA?9?$AAS?$AAE?$AA?$AA@ 10051ba4     LIBCMT:winapinls.obj
 0002:0000fbb0       ??_C@_1M@MKJKIKCL@?$AAt?$AAh?$AA?9?$AAT?$AAH?$AA?$AA@ 10051bb0     LIBCMT:winapinls.obj
 0002:0000fbbc       ??_C@_1M@MFLCCMPB@?$AAt?$AAr?$AA?9?$AAT?$AAR?$AA?$AA@ 10051bbc     LIBCMT:winapinls.obj
 0002:0000fbc8       ??_C@_1M@OIJHDKJN@?$AAu?$AAr?$AA?9?$AAP?$AAK?$AA?$AA@ 10051bc8     LIBCMT:winapinls.obj
 0002:0000fbd4       ??_C@_1M@LHIPCIEK@?$AAi?$AAd?$AA?9?$AAI?$AAD?$AA?$AA@ 10051bd4     LIBCMT:winapinls.obj
 0002:0000fbe0       ??_C@_1M@MFMOBGI@?$AAu?$AAk?$AA?9?$AAU?$AAA?$AA?$AA@ 10051be0     LIBCMT:winapinls.obj
 0002:0000fbec       ??_C@_1M@OBGLJIPL@?$AAb?$AAe?$AA?9?$AAB?$AAY?$AA?$AA@ 10051bec     LIBCMT:winapinls.obj
 0002:0000fbf8       ??_C@_1M@BCFAJEAD@?$AAs?$AAl?$AA?9?$AAS?$AAI?$AA?$AA@ 10051bf8     LIBCMT:winapinls.obj
 0002:0000fc04       ??_C@_1M@FKFFEDDN@?$AAe?$AAt?$AA?9?$AAE?$AAE?$AA?$AA@ 10051c04     LIBCMT:winapinls.obj
 0002:0000fc10       ??_C@_1M@KGKKAACI@?$AAl?$AAv?$AA?9?$AAL?$AAV?$AA?$AA@ 10051c10     LIBCMT:winapinls.obj
 0002:0000fc1c       ??_C@_1M@IFGBIJO@?$AAl?$AAt?$AA?9?$AAL?$AAT?$AA?$AA@ 10051c1c     LIBCMT:winapinls.obj
 0002:0000fc28       ??_C@_1M@FGEAHEDM@?$AAf?$AAa?$AA?9?$AAI?$AAR?$AA?$AA@ 10051c28     LIBCMT:winapinls.obj
 0002:0000fc34       ??_C@_1M@KBMAIBFN@?$AAv?$AAi?$AA?9?$AAV?$AAN?$AA?$AA@ 10051c34     LIBCMT:winapinls.obj
 0002:0000fc40       ??_C@_1M@GPCBKDJK@?$AAh?$AAy?$AA?9?$AAA?$AAM?$AA?$AA@ 10051c40     LIBCMT:winapinls.obj
 0002:0000fc4c       ??_C@_1BG@BECMDDJB@?$AAa?$AAz?$AA?9?$AAA?$AAZ?$AA?9?$AAL?$AAa?$AAt?$AAn?$AA?$AA@ 10051c4c     LIBCMT:winapinls.obj
 0002:0000fc64       ??_C@_1M@MAOFCAEA@?$AAe?$AAu?$AA?9?$AAE?$AAS?$AA?$AA@ 10051c64     LIBCMT:winapinls.obj
 0002:0000fc70       ??_C@_1M@IGHABKPI@?$AAm?$AAk?$AA?9?$AAM?$AAK?$AA?$AA@ 10051c70     LIBCMT:winapinls.obj
 0002:0000fc7c       ??_C@_1M@IAIGNEJG@?$AAt?$AAn?$AA?9?$AAZ?$AAA?$AA?$AA@ 10051c7c     LIBCMT:winapinls.obj
 0002:0000fc88       ??_C@_1M@IIJCOJFA@?$AAx?$AAh?$AA?9?$AAZ?$AAA?$AA?$AA@ 10051c88     LIBCMT:winapinls.obj
 0002:0000fc94       ??_C@_1M@LGPJHNJH@?$AAz?$AAu?$AA?9?$AAZ?$AAA?$AA?$AA@ 10051c94     LIBCMT:winapinls.obj
 0002:0000fca0       ??_C@_1M@HOKAOIO@?$AAa?$AAf?$AA?9?$AAZ?$AAA?$AA?$AA@ 10051ca0     LIBCMT:winapinls.obj
 0002:0000fcac       ??_C@_1M@DPCLHLIE@?$AAk?$AAa?$AA?9?$AAG?$AAE?$AA?$AA@ 10051cac     LIBCMT:winapinls.obj
 0002:0000fcb8       ??_C@_1M@BLKMHJBI@?$AAf?$AAo?$AA?9?$AAF?$AAO?$AA?$AA@ 10051cb8     LIBCMT:winapinls.obj
 0002:0000fcc4       ??_C@_1M@LGGJAPPB@?$AAh?$AAi?$AA?9?$AAI?$AAN?$AA?$AA@ 10051cc4     LIBCMT:winapinls.obj
 0002:0000fcd0       ??_C@_1M@FIKPIHFE@?$AAm?$AAt?$AA?9?$AAM?$AAT?$AA?$AA@ 10051cd0     LIBCMT:winapinls.obj
 0002:0000fcdc       ??_C@_1M@HEGGPBFA@?$AAs?$AAe?$AA?9?$AAN?$AAO?$AA?$AA@ 10051cdc     LIBCMT:winapinls.obj
 0002:0000fce8       ??_C@_1M@EIBJEEPA@?$AAm?$AAs?$AA?9?$AAM?$AAY?$AA?$AA@ 10051ce8     LIBCMT:winapinls.obj
 0002:0000fcf4       ??_C@_1M@FHLBGMPP@?$AAk?$AAk?$AA?9?$AAK?$AAZ?$AA?$AA@ 10051cf4     LIBCMT:winapinls.obj
 0002:0000fd00       ??_C@_1M@NGJJLCGI@?$AAk?$AAy?$AA?9?$AAK?$AAG?$AA?$AA@ 10051d00     LIBCMT:winapinls.obj
 0002:0000fd0c       ??_C@_1M@GIENNBFC@?$AAs?$AAw?$AA?9?$AAK?$AAE?$AA?$AA@ 10051d0c     LIBCMT:winapinls.obj
 0002:0000fd18       ??_C@_1BG@NDGMJIMJ@?$AAu?$AAz?$AA?9?$AAU?$AAZ?$AA?9?$AAL?$AAa?$AAt?$AAn?$AA?$AA@ 10051d18     LIBCMT:winapinls.obj
 0002:0000fd30       ??_C@_1M@IDCCIHBC@?$AAt?$AAt?$AA?9?$AAR?$AAU?$AA?$AA@ 10051d30     LIBCMT:winapinls.obj
 0002:0000fd3c       ??_C@_1M@LOICPMOJ@?$AAb?$AAn?$AA?9?$AAI?$AAN?$AA?$AA@ 10051d3c     LIBCMT:winapinls.obj
 0002:0000fd48       ??_C@_1M@KPKKNEAH@?$AAp?$AAa?$AA?9?$AAI?$AAN?$AA?$AA@ 10051d48     LIBCMT:winapinls.obj
 0002:0000fd54       ??_C@_1M@PJGPPBOG@?$AAg?$AAu?$AA?9?$AAI?$AAN?$AA?$AA@ 10051d54     LIBCMT:winapinls.obj
 0002:0000fd60       ??_C@_1M@KMKMOPHI@?$AAt?$AAa?$AA?9?$AAI?$AAN?$AA?$AA@ 10051d60     LIBCMT:winapinls.obj
 0002:0000fd6c       ??_C@_1M@KFEHEPAC@?$AAt?$AAe?$AA?9?$AAI?$AAN?$AA?$AA@ 10051d6c     LIBCMT:winapinls.obj
 0002:0000fd78       ??_C@_1M@CDCLMGHI@?$AAk?$AAn?$AA?9?$AAI?$AAN?$AA?$AA@ 10051d78     LIBCMT:winapinls.obj
 0002:0000fd84       ??_C@_1M@MIODLDKF@?$AAm?$AAl?$AA?9?$AAI?$AAN?$AA?$AA@ 10051d84     LIBCMT:winapinls.obj
 0002:0000fd90       ??_C@_1M@PBIEACPO@?$AAm?$AAr?$AA?9?$AAI?$AAN?$AA?$AA@ 10051d90     LIBCMT:winapinls.obj
 0002:0000fd9c       ??_C@_1M@NIDEAGPH@?$AAs?$AAa?$AA?9?$AAI?$AAN?$AA?$AA@ 10051d9c     LIBCMT:winapinls.obj
 0002:0000fda8       ??_C@_1M@FHIHCBIO@?$AAm?$AAn?$AA?9?$AAM?$AAN?$AA?$AA@ 10051da8     LIBCMT:winapinls.obj
 0002:0000fdb4       ??_C@_1M@JAIJPENP@?$AAc?$AAy?$AA?9?$AAG?$AAB?$AA?$AA@ 10051db4     LIBCMT:winapinls.obj
 0002:0000fdc0       ??_C@_1M@PHGFBEPN@?$AAg?$AAl?$AA?9?$AAE?$AAS?$AA?$AA@ 10051dc0     LIBCMT:winapinls.obj
 0002:0000fdcc       ??_C@_1O@KPIPDNCP@?$AAk?$AAo?$AAk?$AA?9?$AAI?$AAN?$AA?$AA@ 10051dcc     LIBCMT:winapinls.obj
 0002:0000fddc       ??_C@_1O@KNHJLDJA@?$AAs?$AAy?$AAr?$AA?9?$AAS?$AAY?$AA?$AA@ 10051ddc     LIBCMT:winapinls.obj
 0002:0000fdec       ??_C@_1O@MKEKBLAH@?$AAd?$AAi?$AAv?$AA?9?$AAM?$AAV?$AA?$AA@ 10051dec     LIBCMT:winapinls.obj
 0002:0000fdfc       ??_C@_1O@OHDCKDDF@?$AAq?$AAu?$AAz?$AA?9?$AAB?$AAO?$AA?$AA@ 10051dfc     LIBCMT:winapinls.obj
 0002:0000fe0c       ??_C@_1M@LEPJNLFD@?$AAn?$AAs?$AA?9?$AAZ?$AAA?$AA?$AA@ 10051e0c     LIBCMT:winapinls.obj
 0002:0000fe18       ??_C@_1M@OMLEIIJB@?$AAm?$AAi?$AA?9?$AAN?$AAZ?$AA?$AA@ 10051e18     LIBCMT:winapinls.obj
 0002:0000fe24       ??_C@_1M@PMPEAILG@?$AAa?$AAr?$AA?9?$AAI?$AAQ?$AA?$AA@ 10051e24     LIBCMT:winapinls.obj
 0002:0000fe30       ??_C@_1M@CNKPNOEE@?$AAd?$AAe?$AA?9?$AAC?$AAH?$AA?$AA@ 10051e30     LIBCMT:winapinls.obj
 0002:0000fe3c       ??_C@_1M@LKMGMLKO@?$AAe?$AAn?$AA?9?$AAG?$AAB?$AA?$AA@ 10051e3c     LIBCMT:winapinls.obj
 0002:0000fe48       ??_C@_1M@PGKJFFGL@?$AAe?$AAs?$AA?9?$AAM?$AAX?$AA?$AA@ 10051e48     LIBCMT:winapinls.obj
 0002:0000fe54       ??_C@_1M@DNNANBDC@?$AAf?$AAr?$AA?9?$AAB?$AAE?$AA?$AA@ 10051e54     LIBCMT:winapinls.obj
 0002:0000fe60       ??_C@_1M@HLGMDFHM@?$AAi?$AAt?$AA?9?$AAC?$AAH?$AA?$AA@ 10051e60     LIBCMT:winapinls.obj
 0002:0000fe6c       ??_C@_1M@CLLBGJH@?$AAn?$AAl?$AA?9?$AAB?$AAE?$AA?$AA@ 10051e6c     LIBCMT:winapinls.obj
 0002:0000fe78       ??_C@_1M@BODBOGLF@?$AAn?$AAn?$AA?9?$AAN?$AAO?$AA?$AA@ 10051e78     LIBCMT:winapinls.obj
 0002:0000fe84       ??_C@_1M@HFFAHKAD@?$AAp?$AAt?$AA?9?$AAP?$AAT?$AA?$AA@ 10051e84     LIBCMT:winapinls.obj
 0002:0000fe90       ??_C@_1BG@LNOAKHIE@?$AAs?$AAr?$AA?9?$AAS?$AAP?$AA?9?$AAL?$AAa?$AAt?$AAn?$AA?$AA@ 10051e90     LIBCMT:winapinls.obj
 0002:0000fea8       ??_C@_1M@HBMHBGAK@?$AAs?$AAv?$AA?9?$AAF?$AAI?$AA?$AA@ 10051ea8     LIBCMT:winapinls.obj
 0002:0000feb4       ??_C@_1BG@DGCJGJBE@?$AAa?$AAz?$AA?9?$AAA?$AAZ?$AA?9?$AAC?$AAy?$AAr?$AAl?$AA?$AA@ 10051eb4     LIBCMT:winapinls.obj
 0002:0000fecc       ??_C@_1M@KEJDAAHB@?$AAs?$AAe?$AA?9?$AAS?$AAE?$AA?$AA@ 10051ecc     LIBCMT:winapinls.obj
 0002:0000fed8       ??_C@_1M@HEIBJJAD@?$AAm?$AAs?$AA?9?$AAB?$AAN?$AA?$AA@ 10051ed8     LIBCMT:winapinls.obj
 0002:0000fee4       ??_C@_1BG@PBGJMCEM@?$AAu?$AAz?$AA?9?$AAU?$AAZ?$AA?9?$AAC?$AAy?$AAr?$AAl?$AA?$AA@ 10051ee4     LIBCMT:winapinls.obj
 0002:0000fefc       ??_C@_1O@LAOBCMDF@?$AAq?$AAu?$AAz?$AA?9?$AAE?$AAC?$AA?$AA@ 10051efc     LIBCMT:winapinls.obj
 0002:0000ff0c       ??_C@_1M@POEEMAIO@?$AAa?$AAr?$AA?9?$AAE?$AAG?$AA?$AA@ 10051f0c     LIBCMT:winapinls.obj
 0002:0000ff18       ??_C@_1M@EFAKDEDL@?$AAz?$AAh?$AA?9?$AAH?$AAK?$AA?$AA@ 10051f18     LIBCMT:winapinls.obj
 0002:0000ff24       ??_C@_1M@HKKIJHGI@?$AAd?$AAe?$AA?9?$AAA?$AAT?$AA?$AA@ 10051f24     LIBCMT:winapinls.obj
 0002:0000ff30       ??_C@_1M@KBFBEHJF@?$AAe?$AAn?$AA?9?$AAA?$AAU?$AA?$AA@ 10051f30     LIBCMT:winapinls.obj
 0002:0000ff3c       ??_C@_1M@MNPLFAAH@?$AAe?$AAs?$AA?9?$AAE?$AAS?$AA?$AA@ 10051f3c     LIBCMT:winapinls.obj
 0002:0000ff48       ??_C@_1M@HJOOJFMA@?$AAf?$AAr?$AA?9?$AAC?$AAA?$AA?$AA@ 10051f48     LIBCMT:winapinls.obj
 0002:0000ff54       ??_C@_1BG@JPOFPNAB@?$AAs?$AAr?$AA?9?$AAS?$AAP?$AA?9?$AAC?$AAy?$AAr?$AAl?$AA?$AA@ 10051f54     LIBCMT:winapinls.obj
 0002:0000ff6c       ??_C@_1M@LNFOCMOB@?$AAs?$AAe?$AA?9?$AAF?$AAI?$AA?$AA@ 10051f6c     LIBCMT:winapinls.obj
 0002:0000ff78       ??_C@_1O@MGJBOAMB@?$AAq?$AAu?$AAz?$AA?9?$AAP?$AAE?$AA?$AA@ 10051f78     LIBCMT:winapinls.obj
 0002:0000ff88       ??_C@_1M@GJINLBOK@?$AAa?$AAr?$AA?9?$AAL?$AAY?$AA?$AA@ 10051f88     LIBCMT:winapinls.obj
 0002:0000ff94       ??_C@_1M@GGMNHJNL@?$AAz?$AAh?$AA?9?$AAS?$AAG?$AA?$AA@ 10051f94     LIBCMT:winapinls.obj
 0002:0000ffa0       ??_C@_1M@HOIKODND@?$AAd?$AAe?$AA?9?$AAL?$AAU?$AA?$AA@ 10051fa0     LIBCMT:winapinls.obj
 0002:0000ffac       ??_C@_1M@DDOCCGFG@?$AAe?$AAn?$AA?9?$AAC?$AAA?$AA?$AA@ 10051fac     LIBCMT:winapinls.obj
 0002:0000ffb8       ??_C@_1M@BNOEMJLF@?$AAe?$AAs?$AA?9?$AAG?$AAT?$AA?$AA@ 10051fb8     LIBCMT:winapinls.obj
 0002:0000ffc4       ??_C@_1M@EOGNKEK@?$AAf?$AAr?$AA?9?$AAC?$AAH?$AA?$AA@ 10051fc4     LIBCMT:winapinls.obj
 0002:0000ffd0       ??_C@_1M@FLIDJFHL@?$AAh?$AAr?$AA?9?$AAB?$AAA?$AA?$AA@ 10051fd0     LIBCMT:winapinls.obj
 0002:0000ffdc       ??_C@_1O@FMCELNAJ@?$AAs?$AAm?$AAj?$AA?9?$AAN?$AAO?$AA?$AA@ 10051fdc     LIBCMT:winapinls.obj
 0002:0000ffec       ??_C@_1M@JHGLJMGJ@?$AAa?$AAr?$AA?9?$AAD?$AAZ?$AA?$AA@ 10051fec     LIBCMT:winapinls.obj
 0002:0000fff8       ??_C@_1M@JKKFDCNP@?$AAz?$AAh?$AA?9?$AAM?$AAO?$AA?$AA@ 10051ff8     LIBCMT:winapinls.obj
 0002:00010004       ??_C@_1M@GEEFALPE@?$AAd?$AAe?$AA?9?$AAL?$AAI?$AA?$AA@ 10052004     LIBCMT:winapinls.obj
 0002:00010010       ??_C@_1M@IGEOFBG@?$AAe?$AAn?$AA?9?$AAN?$AAZ?$AA?$AA@ 10052010     LIBCMT:winapinls.obj
 0002:0001001c       ??_C@_1M@KDBONEHP@?$AAe?$AAs?$AA?9?$AAC?$AAR?$AA?$AA@ 1005201c     LIBCMT:winapinls.obj
 0002:00010028       ??_C@_1M@FHMDOHNN@?$AAf?$AAr?$AA?9?$AAL?$AAU?$AA?$AA@ 10052028     LIBCMT:winapinls.obj
 0002:00010034       ??_C@_1BG@NFKKMAFG@?$AAb?$AAs?$AA?9?$AAB?$AAA?$AA?9?$AAL?$AAa?$AAt?$AAn?$AA?$AA@ 10052034     LIBCMT:winapinls.obj
 0002:0001004c       ??_C@_1O@IMNBEMCI@?$AAs?$AAm?$AAj?$AA?9?$AAS?$AAE?$AA?$AA@ 1005204c     LIBCMT:winapinls.obj
 0002:0001005c       ??_C@_1M@DHHMBNDP@?$AAa?$AAr?$AA?9?$AAM?$AAA?$AA?$AA@ 1005205c     LIBCMT:winapinls.obj
 0002:00010068       ??_C@_1M@BNBLJCGH@?$AAe?$AAn?$AA?9?$AAI?$AAE?$AA?$AA@ 10052068     LIBCMT:winapinls.obj
 0002:00010074       ??_C@_1M@GEPAFMDL@?$AAe?$AAs?$AA?9?$AAP?$AAA?$AA?$AA@ 10052074     LIBCMT:winapinls.obj
 0002:00010080       ??_C@_1M@OJONDMDL@?$AAf?$AAr?$AA?9?$AAM?$AAC?$AA?$AA@ 10052080     LIBCMT:winapinls.obj
 0002:0001008c       ??_C@_1BG@OBCNFJB@?$AAs?$AAr?$AA?9?$AAB?$AAA?$AA?9?$AAL?$AAa?$AAt?$AAn?$AA?$AA@ 1005208c     LIBCMT:winapinls.obj
 0002:000100a4       ??_C@_1O@KEMEEGPO@?$AAs?$AAm?$AAa?$AA?9?$AAN?$AAO?$AA?$AA@ 100520a4     LIBCMT:winapinls.obj
 0002:000100b4       ??_C@_1M@ELMGFODK@?$AAa?$AAr?$AA?9?$AAT?$AAN?$AA?$AA@ 100520b4     LIBCMT:winapinls.obj
 0002:000100c0       ??_C@_1M@BHDLHFAF@?$AAe?$AAn?$AA?9?$AAZ?$AAA?$AA?$AA@ 100520c0     LIBCMT:winapinls.obj
 0002:000100cc       ??_C@_1M@BMGIGLIF@?$AAe?$AAs?$AA?9?$AAD?$AAO?$AA?$AA@ 100520cc     LIBCMT:winapinls.obj
 0002:000100d8       ??_C@_1BG@CMBHIPBE@?$AAs?$AAr?$AA?9?$AAB?$AAA?$AA?9?$AAC?$AAy?$AAr?$AAl?$AA?$AA@ 100520d8     LIBCMT:winapinls.obj
 0002:000100f0       ??_C@_1O@HEDBLHNP@?$AAs?$AAm?$AAa?$AA?9?$AAS?$AAE?$AA?$AA@ 100520f0     LIBCMT:winapinls.obj
 0002:00010100       ??_C@_1M@DAGCADIM@?$AAa?$AAr?$AA?9?$AAO?$AAM?$AA?$AA@ 10052100     LIBCMT:winapinls.obj
 0002:0001010c       ??_C@_1M@FODLMICG@?$AAe?$AAn?$AA?9?$AAJ?$AAM?$AA?$AA@ 1005210c     LIBCMT:winapinls.obj
 0002:00010118       ??_C@_1M@DNMLCIHB@?$AAe?$AAs?$AA?9?$AAV?$AAE?$AA?$AA@ 10052118     LIBCMT:winapinls.obj
 0002:00010124       ??_C@_1O@EOKHMKJK@?$AAs?$AAm?$AAs?$AA?9?$AAF?$AAI?$AA?$AA@ 10052124     LIBCMT:winapinls.obj
 0002:00010134       ??_C@_1M@CAFJMKOF@?$AAa?$AAr?$AA?9?$AAY?$AAE?$AA?$AA@ 10052134     LIBCMT:winapinls.obj
 0002:00010140       ??_C@_1M@CBFHIJLI@?$AAe?$AAn?$AA?9?$AAC?$AAB?$AA?$AA@ 10052140     LIBCMT:winapinls.obj
 0002:0001014c       ??_C@_1M@BGNFLDN@?$AAe?$AAs?$AA?9?$AAC?$AAO?$AA?$AA@ 1005214c     LIBCMT:winapinls.obj
 0002:00010158       ??_C@_1O@JMPHMAMC@?$AAs?$AAm?$AAn?$AA?9?$AAF?$AAI?$AA?$AA@ 10052158     LIBCMT:winapinls.obj
 0002:00010168       ??_C@_1M@JLANABKE@?$AAa?$AAr?$AA?9?$AAS?$AAY?$AA?$AA@ 10052168     LIBCMT:winapinls.obj
 0002:00010174       ??_C@_1M@HPKGCFGN@?$AAe?$AAn?$AA?9?$AAB?$AAZ?$AA?$AA@ 10052174     LIBCMT:winapinls.obj
 0002:00010180       ??_C@_1M@OLJCMLGM@?$AAe?$AAs?$AA?9?$AAP?$AAE?$AA?$AA@ 10052180     LIBCMT:winapinls.obj
 0002:0001018c       ??_C@_1M@MKKGFKLE@?$AAa?$AAr?$AA?9?$AAJ?$AAO?$AA?$AA@ 1005218c     LIBCMT:winapinls.obj
 0002:00010198       ??_C@_1M@EKPGLDNI@?$AAe?$AAn?$AA?9?$AAT?$AAT?$AA?$AA@ 10052198     LIBCMT:winapinls.obj
 0002:000101a4       ??_C@_1M@OONGHFHE@?$AAe?$AAs?$AA?9?$AAA?$AAR?$AA?$AA@ 100521a4     LIBCMT:winapinls.obj
 0002:000101b0       ??_C@_1M@OOJFGBHE@?$AAa?$AAr?$AA?9?$AAL?$AAB?$AA?$AA@ 100521b0     LIBCMT:winapinls.obj
 0002:000101bc       ??_C@_1M@GCEJHNEG@?$AAe?$AAn?$AA?9?$AAZ?$AAW?$AA?$AA@ 100521bc     LIBCMT:winapinls.obj
 0002:000101c8       ??_C@_1M@JNOCAHJI@?$AAe?$AAs?$AA?9?$AAE?$AAC?$AA?$AA@ 100521c8     LIBCMT:winapinls.obj
 0002:000101d4       ??_C@_1M@JEFHPGGB@?$AAa?$AAr?$AA?9?$AAK?$AAW?$AA?$AA@ 100521d4     LIBCMT:winapinls.obj
 0002:000101e0       ??_C@_1M@MLKIBJOJ@?$AAe?$AAn?$AA?9?$AAP?$AAH?$AA?$AA@ 100521e0     LIBCMT:winapinls.obj
 0002:000101ec       ??_C@_1M@BDNIPEND@?$AAe?$AAs?$AA?9?$AAC?$AAL?$AA?$AA@ 100521ec     LIBCMT:winapinls.obj
 0002:000101f8       ??_C@_1M@MPNMEKBD@?$AAa?$AAr?$AA?9?$AAA?$AAE?$AA?$AA@ 100521f8     LIBCMT:winapinls.obj
 0002:00010204       ??_C@_1M@KBJALCPI@?$AAe?$AAs?$AA?9?$AAU?$AAY?$AA?$AA@ 10052204     LIBCMT:winapinls.obj
 0002:00010210       ??_C@_1M@LLCCOAGA@?$AAa?$AAr?$AA?9?$AAB?$AAH?$AA?$AA@ 10052210     LIBCMT:winapinls.obj
 0002:0001021c       ??_C@_1M@PBFNCDEL@?$AAe?$AAs?$AA?9?$AAP?$AAY?$AA?$AA@ 1005221c     LIBCMT:winapinls.obj
 0002:00010228       ??_C@_1M@EDGINPNP@?$AAa?$AAr?$AA?9?$AAQ?$AAA?$AA?$AA@ 10052228     LIBCMT:winapinls.obj
 0002:00010234       ??_C@_1M@MKDBIIJI@?$AAe?$AAs?$AA?9?$AAB?$AAO?$AA?$AA@ 10052234     LIBCMT:winapinls.obj
 0002:00010240       ??_C@_1M@CPKKEBLD@?$AAe?$AAs?$AA?9?$AAS?$AAV?$AA?$AA@ 10052240     LIBCMT:winapinls.obj
 0002:0001024c       ??_C@_1M@NDBGMMJL@?$AAe?$AAs?$AA?9?$AAH?$AAN?$AA?$AA@ 1005224c     LIBCMT:winapinls.obj
 0002:00010258       ??_C@_1M@JIJIBHDP@?$AAe?$AAs?$AA?9?$AAN?$AAI?$AA?$AA@ 10052258     LIBCMT:winapinls.obj
 0002:00010264       ??_C@_1M@CGFMKEEK@?$AAe?$AAs?$AA?9?$AAP?$AAR?$AA?$AA@ 10052264     LIBCMT:winapinls.obj
 0002:00010270       ??_C@_1O@ICJHKIIK@?$AAz?$AAh?$AA?9?$AAC?$AAH?$AAT?$AA?$AA@ 10052270     LIBCMT:winapinls.obj
 0002:00010280       ??_C@_15CLNEJCE@?$AAs?$AAr?$AA?$AA@ 10052280     LIBCMT:winapinls.obj
 0002:00010288       ??_C@_1M@KAHEKEIG@?$AAa?$AAf?$AA?9?$AAz?$AAa?$AA?$AA@ 10052288     LIBCMT:winapinls.obj
 0002:00010294       ??_C@_1M@GIECOABL@?$AAa?$AAr?$AA?9?$AAa?$AAe?$AA?$AA@ 10052294     LIBCMT:winapinls.obj
 0002:000102a0       ??_C@_1M@BMLMEKGI@?$AAa?$AAr?$AA?9?$AAb?$AAh?$AA?$AA@ 100522a0     LIBCMT:winapinls.obj
 0002:000102ac       ??_C@_1M@DAPFDGGB@?$AAa?$AAr?$AA?9?$AAd?$AAz?$AA?$AA@ 100522ac     LIBCMT:winapinls.obj
 0002:000102b8       ??_C@_1M@FJNKGKIG@?$AAa?$AAr?$AA?9?$AAe?$AAg?$AA?$AA@ 100522b8     LIBCMT:winapinls.obj
 0002:000102c4       ??_C@_1M@FLGKKCLO@?$AAa?$AAr?$AA?9?$AAi?$AAq?$AA?$AA@ 100522c4     LIBCMT:winapinls.obj
 0002:000102d0       ??_C@_1M@GNDIPALM@?$AAa?$AAr?$AA?9?$AAj?$AAo?$AA?$AA@ 100522d0     LIBCMT:winapinls.obj
 0002:000102dc       ??_C@_1M@DDMJFMGJ@?$AAa?$AAr?$AA?9?$AAk?$AAw?$AA?$AA@ 100522dc     LIBCMT:winapinls.obj
 0002:000102e8       ??_C@_1M@EJALMLHM@?$AAa?$AAr?$AA?9?$AAl?$AAb?$AA?$AA@ 100522e8     LIBCMT:winapinls.obj
 0002:000102f4       ??_C@_1M@MOBDBLOC@?$AAa?$AAr?$AA?9?$AAl?$AAy?$AA?$AA@ 100522f4     LIBCMT:winapinls.obj
 0002:00010300       ??_C@_1M@JAOCLHDH@?$AAa?$AAr?$AA?9?$AAm?$AAa?$AA?$AA@ 10052300     LIBCMT:winapinls.obj
 0002:0001030c       ??_C@_1M@JHPMKJIE@?$AAa?$AAr?$AA?9?$AAo?$AAm?$AA?$AA@ 1005230c     LIBCMT:winapinls.obj
 0002:00010318       ??_C@_1M@OEPGHFNH@?$AAa?$AAr?$AA?9?$AAq?$AAa?$AA?$AA@ 10052318     LIBCMT:winapinls.obj
 0002:00010324       ??_C@_1M@KJDONENM@?$AAa?$AAr?$AA?9?$AAs?$AAa?$AA?$AA@ 10052324     LIBCMT:winapinls.obj
 0002:00010330       ??_C@_1M@DMJDKLKM@?$AAa?$AAr?$AA?9?$AAs?$AAy?$AA?$AA@ 10052330     LIBCMT:winapinls.obj
 0002:0001033c       ??_C@_1M@OMFIPEDC@?$AAa?$AAr?$AA?9?$AAt?$AAn?$AA?$AA@ 1005233c     LIBCMT:winapinls.obj
 0002:00010348       ??_C@_1M@IHMHGAON@?$AAa?$AAr?$AA?9?$AAy?$AAe?$AA?$AA@ 10052348     LIBCMT:winapinls.obj
 0002:00010354       ??_C@_1BG@KDCPGJGB@?$AAa?$AAz?$AA?9?$AAa?$AAz?$AA?9?$AAc?$AAy?$AAr?$AAl?$AA?$AA@ 10052354     LIBCMT:winapinls.obj
 0002:0001036c       ??_C@_1BG@IBCKDDOE@?$AAa?$AAz?$AA?9?$AAa?$AAz?$AA?9?$AAl?$AAa?$AAt?$AAn?$AA?$AA@ 1005236c     LIBCMT:winapinls.obj
 0002:00010384       ??_C@_1M@EGPFDCPD@?$AAb?$AAe?$AA?9?$AAb?$AAy?$AA?$AA@ 10052384     LIBCMT:winapinls.obj
 0002:00010390       ??_C@_1M@PCMGMCGC@?$AAb?$AAg?$AA?9?$AAb?$AAg?$AA?$AA@ 10052390     LIBCMT:winapinls.obj
 0002:0001039c       ??_C@_1M@BJBMFGOB@?$AAb?$AAn?$AA?9?$AAi?$AAn?$AA?$AA@ 1005239c     LIBCMT:winapinls.obj
 0002:000103a8       ??_C@_1BG@EAKMMACD@?$AAb?$AAs?$AA?9?$AAb?$AAa?$AA?9?$AAl?$AAa?$AAt?$AAn?$AA?$AA@ 100523a8     LIBCMT:winapinls.obj
 0002:000103c0       ??_C@_1M@KGADAODK@?$AAc?$AAa?$AA?9?$AAe?$AAs?$AA?$AA@ 100523c0     LIBCMT:winapinls.obj
 0002:000103cc       ??_C@_1M@COAJPDHI@?$AAc?$AAs?$AA?9?$AAc?$AAz?$AA?$AA@ 100523cc     LIBCMT:winapinls.obj
 0002:000103d8       ??_C@_1M@DHBHFONH@?$AAc?$AAy?$AA?9?$AAg?$AAb?$AA?$AA@ 100523d8     LIBCMT:winapinls.obj
 0002:000103e4       ??_C@_1M@IMGKELGA@?$AAd?$AAa?$AA?9?$AAd?$AAk?$AA?$AA@ 100523e4     LIBCMT:winapinls.obj
 0002:000103f0       ??_C@_1M@NNDGDNGA@?$AAd?$AAe?$AA?9?$AAa?$AAt?$AA?$AA@ 100523f0     LIBCMT:winapinls.obj
 0002:000103fc       ??_C@_1M@IKDBHEEM@?$AAd?$AAe?$AA?9?$AAc?$AAh?$AA?$AA@ 100523fc     LIBCMT:winapinls.obj
 0002:00010408       ??_C@_1M@GFFOJMCJ@?$AAd?$AAe?$AA?9?$AAd?$AAe?$AA?$AA@ 10052408     LIBCMT:winapinls.obj
 0002:00010414       ??_C@_1M@MDNLKBPM@?$AAd?$AAe?$AA?9?$AAl?$AAi?$AA?$AA@ 10052414     LIBCMT:winapinls.obj
 0002:00010420       ??_C@_1M@NJBEEJNL@?$AAd?$AAe?$AA?9?$AAl?$AAu?$AA?$AA@ 10052420     LIBCMT:winapinls.obj
 0002:0001042c       ??_C@_1O@GNNELBAP@?$AAd?$AAi?$AAv?$AA?9?$AAm?$AAv?$AA?$AA@ 1005242c     LIBCMT:winapinls.obj
 0002:0001043c       ??_C@_1M@EJLEOGAE@?$AAe?$AAl?$AA?9?$AAg?$AAr?$AA?$AA@ 1005243c     LIBCMT:winapinls.obj
 0002:00010448       ??_C@_1M@GMPONJN@?$AAe?$AAn?$AA?9?$AAa?$AAu?$AA?$AA@ 10052448     LIBCMT:winapinls.obj
 0002:00010454       ??_C@_1M@NIDIIPGF@?$AAe?$AAn?$AA?9?$AAb?$AAz?$AA?$AA@ 10052454     LIBCMT:winapinls.obj
 0002:00010460       ??_C@_1M@JEHMIMFO@?$AAe?$AAn?$AA?9?$AAc?$AAa?$AA?$AA@ 10052460     LIBCMT:winapinls.obj
 0002:0001046c       ??_C@_1M@IGMJCDLA@?$AAe?$AAn?$AA?9?$AAc?$AAb?$AA?$AA@ 1005246c     LIBCMT:winapinls.obj
 0002:00010478       ??_C@_1M@BNFIGBKG@?$AAe?$AAn?$AA?9?$AAg?$AAb?$AA?$AA@ 10052478     LIBCMT:winapinls.obj
 0002:00010484       ??_C@_1M@LKIFDIGP@?$AAe?$AAn?$AA?9?$AAi?$AAe?$AA?$AA@ 10052484     LIBCMT:winapinls.obj
 0002:00010490       ??_C@_1M@PJKFGCCO@?$AAe?$AAn?$AA?9?$AAj?$AAm?$AA?$AA@ 10052490     LIBCMT:winapinls.obj
 0002:0001049c       ??_C@_1M@KPPKEPBO@?$AAe?$AAn?$AA?9?$AAn?$AAz?$AA?$AA@ 1005249c     LIBCMT:winapinls.obj
 0002:000104a8       ??_C@_1M@GMDGLDOB@?$AAe?$AAn?$AA?9?$AAp?$AAh?$AA?$AA@ 100524a8     LIBCMT:winapinls.obj
 0002:000104b4       ??_C@_1M@ONGIBJNA@?$AAe?$AAn?$AA?9?$AAt?$AAt?$AA?$AA@ 100524b4     LIBCMT:winapinls.obj
 0002:000104c0       ??_C@_1M@LLODPCMM@?$AAe?$AAn?$AA?9?$AAu?$AAs?$AA?$AA@ 100524c0     LIBCMT:winapinls.obj
 0002:000104cc       ??_C@_1M@LAKFNPAN@?$AAe?$AAn?$AA?9?$AAz?$AAa?$AA?$AA@ 100524cc     LIBCMT:winapinls.obj
 0002:000104d8       ??_C@_1M@MFNHNHEO@?$AAe?$AAn?$AA?9?$AAz?$AAw?$AA?$AA@ 100524d8     LIBCMT:winapinls.obj
 0002:000104e4       ??_C@_1M@EJEINPHM@?$AAe?$AAs?$AA?9?$AAa?$AAr?$AA?$AA@ 100524e4     LIBCMT:winapinls.obj
 0002:000104f0       ??_C@_1M@GNKPCCJA@?$AAe?$AAs?$AA?9?$AAb?$AAo?$AA?$AA@ 100524f0     LIBCMT:winapinls.obj
 0002:000104fc       ??_C@_1M@LEEGFONL@?$AAe?$AAs?$AA?9?$AAc?$AAl?$AA?$AA@ 100524fc     LIBCMT:winapinls.obj
 0002:00010508       ??_C@_1M@KGPDPBDF@?$AAe?$AAs?$AA?9?$AAc?$AAo?$AA?$AA@ 10052508     LIBCMT:winapinls.obj
 0002:00010514       ??_C@_1M@EIAHOHH@?$AAe?$AAs?$AA?9?$AAc?$AAr?$AA?$AA@ 10052514     LIBCMT:winapinls.obj
 0002:00010520       ??_C@_1M@LLPGMBIN@?$AAe?$AAs?$AA?9?$AAd?$AAo?$AA?$AA@ 10052520     LIBCMT:winapinls.obj
 0002:0001052c       ??_C@_1M@DKHMKNJA@?$AAe?$AAs?$AA?9?$AAe?$AAc?$AA?$AA@ 1005252c     LIBCMT:winapinls.obj
 0002:00010538       ??_C@_1M@GKGFPKAP@?$AAe?$AAs?$AA?9?$AAe?$AAs?$AA?$AA@ 10052538     LIBCMT:winapinls.obj
 0002:00010544       ??_C@_1M@LKHKGDLN@?$AAe?$AAs?$AA?9?$AAg?$AAt?$AA?$AA@ 10052544     LIBCMT:winapinls.obj
 0002:00010550       ??_C@_1M@HEIIGGJD@?$AAe?$AAs?$AA?9?$AAh?$AAn?$AA?$AA@ 10052550     LIBCMT:winapinls.obj
 0002:0001055c       ??_C@_1M@FBDHPPGD@?$AAe?$AAs?$AA?9?$AAm?$AAx?$AA?$AA@ 1005255c     LIBCMT:winapinls.obj
 0002:00010568       ??_C@_1M@DPAGLNDH@?$AAe?$AAs?$AA?9?$AAn?$AAi?$AA?$AA@ 10052568     LIBCMT:winapinls.obj
 0002:00010574       ??_C@_1M@MDGOPGDD@?$AAe?$AAs?$AA?9?$AAp?$AAa?$AA?$AA@ 10052574     LIBCMT:winapinls.obj
 0002:00010580       ??_C@_1M@EMAMGBGE@?$AAe?$AAs?$AA?9?$AAp?$AAe?$AA?$AA@ 10052580     LIBCMT:winapinls.obj
 0002:0001058c       ??_C@_1M@IBMCAOEC@?$AAe?$AAs?$AA?9?$AAp?$AAr?$AA?$AA@ 1005258c     LIBCMT:winapinls.obj
 0002:00010598       ??_C@_1M@FGMDIJED@?$AAe?$AAs?$AA?9?$AAp?$AAy?$AA?$AA@ 10052598     LIBCMT:winapinls.obj
 0002:000105a4       ??_C@_1M@IIDEOLLL@?$AAe?$AAs?$AA?9?$AAs?$AAv?$AA?$AA@ 100525a4     LIBCMT:winapinls.obj
 0002:000105b0       ??_C@_1M@GAOBIPA@?$AAe?$AAs?$AA?9?$AAu?$AAy?$AA?$AA@ 100525b0     LIBCMT:winapinls.obj
 0002:000105bc       ??_C@_1M@JKFFICHJ@?$AAe?$AAs?$AA?9?$AAv?$AAe?$AA?$AA@ 100525bc     LIBCMT:winapinls.obj
 0002:000105c8       ??_C@_1M@PNMLOJDF@?$AAe?$AAt?$AA?9?$AAe?$AAe?$AA?$AA@ 100525c8     LIBCMT:winapinls.obj
 0002:000105d4       ??_C@_1M@GHHLIKEI@?$AAe?$AAu?$AA?9?$AAe?$AAs?$AA?$AA@ 100525d4     LIBCMT:winapinls.obj
 0002:000105e0       ??_C@_1M@PBNONODE@?$AAf?$AAa?$AA?9?$AAi?$AAr?$AA?$AA@ 100525e0     LIBCMT:winapinls.obj
 0002:000105ec       ??_C@_1M@JEEHPMIL@?$AAf?$AAi?$AA?9?$AAf?$AAi?$AA?$AA@ 100525ec     LIBCMT:winapinls.obj
 0002:000105f8       ??_C@_1M@LMDCNDBA@?$AAf?$AAo?$AA?9?$AAf?$AAo?$AA?$AA@ 100525f8     LIBCMT:winapinls.obj
 0002:00010604       ??_C@_1M@JKEOHLDK@?$AAf?$AAr?$AA?9?$AAb?$AAe?$AA?$AA@ 10052604     LIBCMT:winapinls.obj
 0002:00010610       ??_C@_1M@NOHADPMI@?$AAf?$AAr?$AA?9?$AAc?$AAa?$AA?$AA@ 10052610     LIBCMT:winapinls.obj
 0002:0001061c       ??_C@_1M@KDHIHAEC@?$AAf?$AAr?$AA?9?$AAc?$AAh?$AA?$AA@ 1005261c     LIBCMT:winapinls.obj
 0002:00010628       ??_C@_1M@MMBBFGAK@?$AAf?$AAr?$AA?9?$AAf?$AAr?$AA?$AA@ 10052628     LIBCMT:winapinls.obj
 0002:00010634       ??_C@_1M@PAFNENNF@?$AAf?$AAr?$AA?9?$AAl?$AAu?$AA?$AA@ 10052634     LIBCMT:winapinls.obj
 0002:00010640       ??_C@_1M@EOHDJGDD@?$AAf?$AAr?$AA?9?$AAm?$AAc?$AA?$AA@ 10052640     LIBCMT:winapinls.obj
 0002:0001064c       ??_C@_1M@FAPLLOPF@?$AAg?$AAl?$AA?9?$AAe?$AAs?$AA?$AA@ 1005264c     LIBCMT:winapinls.obj
 0002:00010658       ??_C@_1M@FOPBFLOO@?$AAg?$AAu?$AA?9?$AAi?$AAn?$AA?$AA@ 10052658     LIBCMT:winapinls.obj
 0002:00010664       ??_C@_1M@KBMCINPM@?$AAh?$AAe?$AA?9?$AAi?$AAl?$AA?$AA@ 10052664     LIBCMT:winapinls.obj
 0002:00010670       ??_C@_1M@BBPHKFPJ@?$AAh?$AAi?$AA?9?$AAi?$AAn?$AA?$AA@ 10052670     LIBCMT:winapinls.obj
 0002:0001067c       ??_C@_1M@PMBNDPHD@?$AAh?$AAr?$AA?9?$AAb?$AAa?$AA?$AA@ 1005267c     LIBCMT:winapinls.obj
 0002:00010688       ??_C@_1M@BPCKOEGE@?$AAh?$AAr?$AA?9?$AAh?$AAr?$AA?$AA@ 10052688     LIBCMT:winapinls.obj
 0002:00010694       ??_C@_1M@GACBMHKE@?$AAh?$AAu?$AA?9?$AAh?$AAu?$AA?$AA@ 10052694     LIBCMT:winapinls.obj
 0002:000106a0       ??_C@_1M@MILPAJJC@?$AAh?$AAy?$AA?9?$AAa?$AAm?$AA?$AA@ 100526a0     LIBCMT:winapinls.obj
 0002:000106ac       ??_C@_1M@BABBICEC@?$AAi?$AAd?$AA?9?$AAi?$AAd?$AA?$AA@ 100526ac     LIBCMT:winapinls.obj
 0002:000106b8       ??_C@_1M@BIKNHHPF@?$AAi?$AAs?$AA?9?$AAi?$AAs?$AA?$AA@ 100526b8     LIBCMT:winapinls.obj
 0002:000106c4       ??_C@_1M@NMPCJPHE@?$AAi?$AAt?$AA?9?$AAc?$AAh?$AA?$AA@ 100526c4     LIBCMT:winapinls.obj
 0002:000106d0       ??_C@_1M@GHKGFEDF@?$AAi?$AAt?$AA?9?$AAi?$AAt?$AA?$AA@ 100526d0     LIBCMT:winapinls.obj
 0002:000106dc       ??_C@_1M@NIEJCJJA@?$AAj?$AAa?$AA?9?$AAj?$AAp?$AA?$AA@ 100526dc     LIBCMT:winapinls.obj
 0002:000106e8       ??_C@_1M@JILFNBIM@?$AAk?$AAa?$AA?9?$AAg?$AAe?$AA?$AA@ 100526e8     LIBCMT:winapinls.obj
 0002:000106f4       ??_C@_1M@PACPMGPH@?$AAk?$AAk?$AA?9?$AAk?$AAz?$AA?$AA@ 100526f4     LIBCMT:winapinls.obj
 0002:00010700       ??_C@_1M@IELFGMHA@?$AAk?$AAn?$AA?9?$AAi?$AAn?$AA?$AA@ 10052700     LIBCMT:winapinls.obj
 0002:0001070c       ??_C@_1O@IBBJHCH@?$AAk?$AAo?$AAk?$AA?9?$AAi?$AAn?$AA?$AA@ 1005270c     LIBCMT:winapinls.obj
 0002:0001071c       ??_C@_1M@DMHAEOGC@?$AAk?$AAo?$AA?9?$AAk?$AAr?$AA?$AA@ 1005271c     LIBCMT:winapinls.obj
 0002:00010728       ??_C@_1M@HBAHBIGA@?$AAk?$AAy?$AA?9?$AAk?$AAg?$AA?$AA@ 10052728     LIBCMT:winapinls.obj
 0002:00010734       ??_C@_1M@KPMILCJG@?$AAl?$AAt?$AA?9?$AAl?$AAt?$AA?$AA@ 10052734     LIBCMT:winapinls.obj
 0002:00010740       ??_C@_1M@BDEKKCA@?$AAl?$AAv?$AA?9?$AAl?$AAv?$AA?$AA@ 10052740     LIBCMT:winapinls.obj
 0002:0001074c       ??_C@_1M@ELCKCCJJ@?$AAm?$AAi?$AA?9?$AAn?$AAz?$AA?$AA@ 1005274c     LIBCMT:winapinls.obj
 0002:00010758       ??_C@_1M@CBOOLAPA@?$AAm?$AAk?$AA?9?$AAm?$AAk?$AA?$AA@ 10052758     LIBCMT:winapinls.obj
 0002:00010764       ??_C@_1M@GPHNBJKN@?$AAm?$AAl?$AA?9?$AAi?$AAn?$AA?$AA@ 10052764     LIBCMT:winapinls.obj
 0002:00010770       ??_C@_1M@PABJILIG@?$AAm?$AAn?$AA?9?$AAm?$AAn?$AA?$AA@ 10052770     LIBCMT:winapinls.obj
 0002:0001077c       ??_C@_1M@FGBKKIPG@?$AAm?$AAr?$AA?9?$AAi?$AAn?$AA?$AA@ 1005277c     LIBCMT:winapinls.obj
 0002:00010788       ??_C@_1M@NDBPDDAL@?$AAm?$AAs?$AA?9?$AAb?$AAn?$AA?$AA@ 10052788     LIBCMT:winapinls.obj
 0002:00010794       ??_C@_1M@OPIHOOPI@?$AAm?$AAs?$AA?9?$AAm?$AAy?$AA?$AA@ 10052794     LIBCMT:winapinls.obj
 0002:000107a0       ??_C@_1M@PPDBCNFM@?$AAm?$AAt?$AA?9?$AAm?$AAt?$AA?$AA@ 100527a0     LIBCMT:winapinls.obj
 0002:000107ac       ??_C@_1M@KDJDKMDD@?$AAn?$AAb?$AA?9?$AAn?$AAo?$AA?$AA@ 100527ac     LIBCMT:winapinls.obj
 0002:000107b8       ??_C@_1M@KFCFLMJP@?$AAn?$AAl?$AA?9?$AAb?$AAe?$AA?$AA@ 100527b8     LIBCMT:winapinls.obj
 0002:000107c4       ??_C@_1M@KPOPDDGO@?$AAn?$AAl?$AA?9?$AAn?$AAl?$AA?$AA@ 100527c4     LIBCMT:winapinls.obj
 0002:000107d0       ??_C@_1M@LJKPEMLN@?$AAn?$AAn?$AA?9?$AAn?$AAo?$AA?$AA@ 100527d0     LIBCMT:winapinls.obj
 0002:000107dc       ??_C@_1M@BDGHHBFL@?$AAn?$AAs?$AA?9?$AAz?$AAa?$AA?$AA@ 100527dc     LIBCMT:winapinls.obj
 0002:000107e8       ??_C@_1M@IDEHOAP@?$AAp?$AAa?$AA?9?$AAi?$AAn?$AA?$AA@ 100527e8     LIBCMT:winapinls.obj
 0002:000107f4       ??_C@_1M@HDBKGOGH@?$AAp?$AAl?$AA?9?$AAp?$AAl?$AA?$AA@ 100527f4     LIBCMT:winapinls.obj
 0002:00010800       ??_C@_1M@LJLLCMEH@?$AAp?$AAt?$AA?9?$AAb?$AAr?$AA?$AA@ 10052800     LIBCMT:winapinls.obj
 0002:0001080c       ??_C@_1M@NCMONAAL@?$AAp?$AAt?$AA?9?$AAp?$AAt?$AA?$AA@ 1005280c     LIBCMT:winapinls.obj
 0002:00010818       ??_C@_1O@EAKMAJDN@?$AAq?$AAu?$AAz?$AA?9?$AAb?$AAo?$AA?$AA@ 10052818     LIBCMT:winapinls.obj
 0002:00010828       ??_C@_1O@BHHPIGDN@?$AAq?$AAu?$AAz?$AA?9?$AAe?$AAc?$AA?$AA@ 10052828     LIBCMT:winapinls.obj
 0002:00010838       ??_C@_1O@GBAPEKMJ@?$AAq?$AAu?$AAz?$AA?9?$AAp?$AAe?$AA?$AA@ 10052838     LIBCMT:winapinls.obj
 0002:00010848       ??_C@_1M@CLGLEFBO@?$AAr?$AAo?$AA?9?$AAr?$AAo?$AA?$AA@ 10052848     LIBCMT:winapinls.obj
 0002:00010854       ??_C@_1M@CEEDODME@?$AAr?$AAu?$AA?9?$AAr?$AAu?$AA?$AA@ 10052854     LIBCMT:winapinls.obj
 0002:00010860       ??_C@_1M@HPKKKMPP@?$AAs?$AAa?$AA?9?$AAi?$AAn?$AA?$AA@ 10052860     LIBCMT:winapinls.obj
 0002:0001086c       ??_C@_1M@BKMAIGOJ@?$AAs?$AAe?$AA?9?$AAf?$AAi?$AA?$AA@ 1005286c     LIBCMT:winapinls.obj
 0002:00010878       ??_C@_1M@NDPIFLFI@?$AAs?$AAe?$AA?9?$AAn?$AAo?$AA?$AA@ 10052878     LIBCMT:winapinls.obj
 0002:00010884       ??_C@_1M@DANKKHJ@?$AAs?$AAe?$AA?9?$AAs?$AAe?$AA?$AA@ 10052884     LIBCMT:winapinls.obj
 0002:00010890       ??_C@_1M@PNBLONPJ@?$AAs?$AAk?$AA?9?$AAs?$AAk?$AA?$AA@ 10052890     LIBCMT:winapinls.obj
 0002:0001089c       ??_C@_1M@LFMODOAL@?$AAs?$AAl?$AA?9?$AAs?$AAi?$AA?$AA@ 1005289c     LIBCMT:winapinls.obj
 0002:000108a8       ??_C@_1O@DFKOMPG@?$AAs?$AAm?$AAa?$AA?9?$AAn?$AAo?$AA?$AA@ 100528a8     LIBCMT:winapinls.obj
 0002:000108b8       ??_C@_1O@NDKPBNNH@?$AAs?$AAm?$AAa?$AA?9?$AAs?$AAe?$AA?$AA@ 100528b8     LIBCMT:winapinls.obj
 0002:000108c8       ??_C@_1O@PLLKBHAB@?$AAs?$AAm?$AAj?$AA?9?$AAn?$AAo?$AA?$AA@ 100528c8     LIBCMT:winapinls.obj
 0002:000108d8       ??_C@_1O@CLEPOGCA@?$AAs?$AAm?$AAj?$AA?9?$AAs?$AAe?$AA?$AA@ 100528d8     LIBCMT:winapinls.obj
 0002:000108e8       ??_C@_1O@DLGJGKMK@?$AAs?$AAm?$AAn?$AA?9?$AAf?$AAi?$AA?$AA@ 100528e8     LIBCMT:winapinls.obj
 0002:000108f8       ??_C@_1O@OJDJGAJC@?$AAs?$AAm?$AAs?$AA?9?$AAf?$AAi?$AA?$AA@ 100528f8     LIBCMT:winapinls.obj
 0002:00010908       ??_C@_1M@BOFOGHPB@?$AAs?$AAq?$AA?9?$AAa?$AAl?$AA?$AA@ 10052908     LIBCMT:winapinls.obj
 0002:00010914       ??_C@_1BG@LJBBIPGB@?$AAs?$AAr?$AA?9?$AAb?$AAa?$AA?9?$AAc?$AAy?$AAr?$AAl?$AA?$AA@ 10052914     LIBCMT:winapinls.obj
 0002:0001092c       ??_C@_1BG@JLBENFOE@?$AAs?$AAr?$AA?9?$AAb?$AAa?$AA?9?$AAl?$AAa?$AAt?$AAn?$AA?$AA@ 1005292c     LIBCMT:winapinls.obj
 0002:00010944       ??_C@_1BG@KODPNHE@?$AAs?$AAr?$AA?9?$AAs?$AAp?$AA?9?$AAc?$AAy?$AAr?$AAl?$AA?$AA@ 10052944     LIBCMT:winapinls.obj
 0002:0001095c       ??_C@_1BG@CIOGKHPB@?$AAs?$AAr?$AA?9?$AAs?$AAp?$AA?9?$AAl?$AAa?$AAt?$AAn?$AA?$AA@ 1005295c     LIBCMT:winapinls.obj
 0002:00010974       ??_C@_1M@NGFJLMAC@?$AAs?$AAv?$AA?9?$AAf?$AAi?$AA?$AA@ 10052974     LIBCMT:winapinls.obj
 0002:00010980       ??_C@_1M@MPJEJAJC@?$AAs?$AAv?$AA?9?$AAs?$AAe?$AA?$AA@ 10052980     LIBCMT:winapinls.obj
 0002:0001098c       ??_C@_1M@MPNDHLFK@?$AAs?$AAw?$AA?9?$AAk?$AAe?$AA?$AA@ 1005298c     LIBCMT:winapinls.obj
 0002:00010998       ??_C@_1O@KOHBJJI@?$AAs?$AAy?$AAr?$AA?9?$AAs?$AAy?$AA?$AA@ 10052998     LIBCMT:winapinls.obj
 0002:000109a8       ??_C@_1M@LDCEFHA@?$AAt?$AAa?$AA?9?$AAi?$AAn?$AA?$AA@ 100529a8     LIBCMT:winapinls.obj
 0002:000109b4       ??_C@_1M@CNJOFAK@?$AAt?$AAe?$AA?9?$AAi?$AAn?$AA?$AA@ 100529b4     LIBCMT:winapinls.obj
 0002:000109c0       ??_C@_1M@GNAECACD@?$AAt?$AAh?$AA?9?$AAt?$AAh?$AA?$AA@ 100529c0     LIBCMT:winapinls.obj
 0002:000109cc       ??_C@_1M@CHBIHOJO@?$AAt?$AAn?$AA?9?$AAz?$AAa?$AA?$AA@ 100529cc     LIBCMT:winapinls.obj
 0002:000109d8       ??_C@_1M@GCCMIGPJ@?$AAt?$AAr?$AA?9?$AAt?$AAr?$AA?$AA@ 100529d8     LIBCMT:winapinls.obj
 0002:000109e4       ??_C@_1M@CELMCNBK@?$AAt?$AAt?$AA?9?$AAr?$AAu?$AA?$AA@ 100529e4     LIBCMT:winapinls.obj
 0002:000109f0       ??_C@_1M@KLMCELGA@?$AAu?$AAk?$AA?9?$AAu?$AAa?$AA?$AA@ 100529f0     LIBCMT:winapinls.obj
 0002:000109fc       ??_C@_1M@EPAJJAJF@?$AAu?$AAr?$AA?9?$AAp?$AAk?$AA?$AA@ 100529fc     LIBCMT:winapinls.obj
 0002:00010a08       ??_C@_1BG@GEGPMCDJ@?$AAu?$AAz?$AA?9?$AAu?$AAz?$AA?9?$AAc?$AAy?$AAr?$AAl?$AA?$AA@ 10052a08     LIBCMT:winapinls.obj
 0002:00010a20       ??_C@_1BG@EGGKJILM@?$AAu?$AAz?$AA?9?$AAu?$AAz?$AA?9?$AAl?$AAa?$AAt?$AAn?$AA?$AA@ 10052a20     LIBCMT:winapinls.obj
 0002:00010a38       ??_C@_1M@GFOCLFF@?$AAv?$AAi?$AA?9?$AAv?$AAn?$AA?$AA@ 10052a38     LIBCMT:winapinls.obj
 0002:00010a44       ??_C@_1M@CPAMEDFI@?$AAx?$AAh?$AA?9?$AAz?$AAa?$AA?$AA@ 10052a44     LIBCMT:winapinls.obj
 0002:00010a50       ??_C@_1O@EBKIFIGN@?$AAz?$AAh?$AA?9?$AAc?$AAh?$AAs?$AA?$AA@ 10052a50     LIBCMT:winapinls.obj
 0002:00010a60       ??_C@_1O@NMHPGANE@?$AAz?$AAh?$AA?9?$AAc?$AAh?$AAt?$AA?$AA@ 10052a60     LIBCMT:winapinls.obj
 0002:00010a70       ??_C@_1M@LPINJOMC@?$AAz?$AAh?$AA?9?$AAc?$AAn?$AA?$AA@ 10052a70     LIBCMT:winapinls.obj
 0002:00010a7c       ??_C@_1M@OCJEJODD@?$AAz?$AAh?$AA?9?$AAh?$AAk?$AA?$AA@ 10052a7c     LIBCMT:winapinls.obj
 0002:00010a88       ??_C@_1M@DNDLJINH@?$AAz?$AAh?$AA?9?$AAm?$AAo?$AA?$AA@ 10052a88     LIBCMT:winapinls.obj
 0002:00010a94       ??_C@_1M@MBFDNDND@?$AAz?$AAh?$AA?9?$AAs?$AAg?$AA?$AA@ 10052a94     LIBCMT:winapinls.obj
 0002:00010aa0       ??_C@_1M@IMEPLEPE@?$AAz?$AAh?$AA?9?$AAt?$AAw?$AA?$AA@ 10052aa0     LIBCMT:winapinls.obj
 0002:00010aac       ??_C@_1M@BBGHNHJP@?$AAz?$AAu?$AA?9?$AAz?$AAa?$AA?$AA@ 10052aac     LIBCMT:winapinls.obj
 0002:00010ab8       ___newctype                10052ab8     LIBCMT:ctype.obj
 0002:00010db8       __wctype                   10052db8     LIBCMT:ctype.obj
 0002:00010fc0       ___newclmap                10052fc0     LIBCMT:ctype.obj
 0002:00011140       ___newcumap                10053140     LIBCMT:ctype.obj
 0002:000112c0       ___lc_category             100532c0     LIBCMT:wsetloca.obj
 0002:00011308       ??_C@_1O@GIFLHMA@?$AAL?$AAC?$AA_?$AAA?$AAL?$AAL?$AA?$AA@ 10053308     LIBCMT:wsetloca.obj
 0002:00011318       ??_C@_1BG@PPOMIBNJ@?$AAL?$AAC?$AA_?$AAC?$AAO?$AAL?$AAL?$AAA?$AAT?$AAE?$AA?$AA@ 10053318     LIBCMT:wsetloca.obj
 0002:00011330       ??_C@_1BC@FFJGAPJM@?$AAL?$AAC?$AA_?$AAC?$AAT?$AAY?$AAP?$AAE?$AA?$AA@ 10053330     LIBCMT:wsetloca.obj
 0002:00011344       ??_C@_1BI@PCKFNJFB@?$AAL?$AAC?$AA_?$AAM?$AAO?$AAN?$AAE?$AAT?$AAA?$AAR?$AAY?$AA?$AA@ 10053344     LIBCMT:wsetloca.obj
 0002:0001135c       ??_C@_1BG@ENIEDKID@?$AAL?$AAC?$AA_?$AAN?$AAU?$AAM?$AAE?$AAR?$AAI?$AAC?$AA?$AA@ 1005335c     LIBCMT:wsetloca.obj
 0002:00011374       ??_C@_1BA@HAAOMIIG@?$AAL?$AAC?$AA_?$AAT?$AAI?$AAM?$AAE?$AA?$AA@ 10053374     LIBCMT:wsetloca.obj
 0002:00011408       ??_C@_15NBPDDFIP@?$AA?$DN?$AA?$DL?$AA?$AA@ 10053408     LIBCMT:wsetloca.obj
 0002:00011410       ??_C@_13PJJBFPED@?$AA?$DL?$AA?$AA@ 10053410     LIBCMT:wsetloca.obj
 0002:00011414       ??_C@_13NMPKAAJP@?$AA?$DN?$AA?$AA@ 10053414     LIBCMT:wsetloca.obj
 0002:00011418       ??_C@_13FHBKNHDA@?$AAC?$AA?$AA@ 10053418     LIBCMT:wsetloca.obj
 0002:0001141c       ??_C@_17MBJJLFDM@?$AA_?$AA?4?$AA?0?$AA?$AA@ 1005341c     LIBCMT:wsetloca.obj
 0002:00011424       ??_C@_13ENNFDPBH@?$AA_?$AA?$AA@ 10053424     LIBCMT:wsetloca.obj
 0002:00011428       ??_C@_13JOFGPIOO@?$AA?4?$AA?$AA@ 10053428     LIBCMT:wsetloca.obj
 0002:0001142c       ??_C@_06PGGFOGJG@1?$CDSNAN?$AA@ 1005342c     LIBCMT:x10fout.obj
 0002:00011434       ??_C@_05PHHOCPM@1?$CDIND?$AA@ 10053434     LIBCMT:x10fout.obj
 0002:0001143c       ??_C@_05DNEBIAHO@1?$CDINF?$AA@ 1005343c     LIBCMT:x10fout.obj
 0002:00011444       ??_C@_06IMKFLFPG@1?$CDQNAN?$AA@ 10053444     LIBCMT:x10fout.obj
 0002:0001144c       ??_C@_0M@HHGEPIBF@CreateFile2?$AA@ 1005344c     LIBCMT:wopen.obj
 0002:00011458       ??_C@_1BA@BALFACEM@?$AAC?$AAO?$AAN?$AAO?$AAU?$AAT?$AA$?$AA?$AA@ 10053458     LIBCMT:initcon.obj
 0002:00011468       ___rg_language             10053468     LIBCMT:getqloc.obj
 0002:00011774       ??_C@_1BC@LLOKLNP@?$AAa?$AAm?$AAe?$AAr?$AAi?$AAc?$AAa?$AAn?$AA?$AA@ 10053774     LIBCMT:getqloc.obj
 0002:00011788       ??_C@_1CC@HEIGCDGG@?$AAa?$AAm?$AAe?$AAr?$AAi?$AAc?$AAa?$AAn?$AA?5?$AAe?$AAn?$AAg?$AAl?$AAi?$AAs?$AAh?$AA?$AA@ 10053788     LIBCMT:getqloc.obj
 0002:000117ac       ??_C@_1CC@IHCNOMIN@?$AAa?$AAm?$AAe?$AAr?$AAi?$AAc?$AAa?$AAn?$AA?9?$AAe?$AAn?$AAg?$AAl?$AAi?$AAs?$AAh?$AA?$AA@ 100537ac     LIBCMT:getqloc.obj
 0002:000117d0       ??_C@_1BG@GKAGPCGG@?$AAa?$AAu?$AAs?$AAt?$AAr?$AAa?$AAl?$AAi?$AAa?$AAn?$AA?$AA@ 100537d0     LIBCMT:getqloc.obj
 0002:000117e8       ??_C@_1BA@GMENCENF@?$AAb?$AAe?$AAl?$AAg?$AAi?$AAa?$AAn?$AA?$AA@ 100537e8     LIBCMT:getqloc.obj
 0002:000117f8       ??_C@_1BC@PJMIIAAN@?$AAc?$AAa?$AAn?$AAa?$AAd?$AAi?$AAa?$AAn?$AA?$AA@ 100537f8     LIBCMT:getqloc.obj
 0002:0001180c       ??_C@_17NOIMNFBF@?$AAc?$AAh?$AAh?$AA?$AA@ 1005380c     LIBCMT:getqloc.obj
 0002:00011814       ??_C@_17GGDALCHA@?$AAc?$AAh?$AAi?$AA?$AA@ 10053814     LIBCMT:getqloc.obj
 0002:0001181c       ??_C@_1BA@NPNJKIBL@?$AAc?$AAh?$AAi?$AAn?$AAe?$AAs?$AAe?$AA?$AA@ 1005381c     LIBCMT:getqloc.obj
 0002:0001182c       ??_C@_1CC@DINBAMMJ@?$AAc?$AAh?$AAi?$AAn?$AAe?$AAs?$AAe?$AA?9?$AAh?$AAo?$AAn?$AAg?$AAk?$AAo?$AAn?$AAg?$AA?$AA@ 1005382c     LIBCMT:getqloc.obj
 0002:00011850       ??_C@_1CG@IOBJPACO@?$AAc?$AAh?$AAi?$AAn?$AAe?$AAs?$AAe?$AA?9?$AAs?$AAi?$AAm?$AAp?$AAl?$AAi?$AAf?$AAi?$AAe?$AAd?$AA?$AA@ 10053850     LIBCMT:getqloc.obj
 0002:00011878       ??_C@_1CE@GAJNDCKG@?$AAc?$AAh?$AAi?$AAn?$AAe?$AAs?$AAe?$AA?9?$AAs?$AAi?$AAn?$AAg?$AAa?$AAp?$AAo?$AAr?$AAe?$AA?$AA@ 10053878     LIBCMT:getqloc.obj
 0002:0001189c       ??_C@_1CI@PAJPIOOD@?$AAc?$AAh?$AAi?$AAn?$AAe?$AAs?$AAe?$AA?9?$AAt?$AAr?$AAa?$AAd?$AAi?$AAt?$AAi?$AAo?$AAn?$AAa?$AAl?$AA?$AA@ 1005389c     LIBCMT:getqloc.obj
 0002:000118c4       ??_C@_1BM@NILJBMMD@?$AAd?$AAu?$AAt?$AAc?$AAh?$AA?9?$AAb?$AAe?$AAl?$AAg?$AAi?$AAa?$AAn?$AA?$AA@ 100538c4     LIBCMT:getqloc.obj
 0002:000118e0       ??_C@_1CC@OOJPJNEJ@?$AAe?$AAn?$AAg?$AAl?$AAi?$AAs?$AAh?$AA?9?$AAa?$AAm?$AAe?$AAr?$AAi?$AAc?$AAa?$AAn?$AA?$AA@ 100538e0     LIBCMT:getqloc.obj
 0002:00011904       ??_C@_1BI@IOLFEEM@?$AAe?$AAn?$AAg?$AAl?$AAi?$AAs?$AAh?$AA?9?$AAa?$AAu?$AAs?$AA?$AA@ 10053904     LIBCMT:getqloc.obj
 0002:0001191c       ??_C@_1BO@HFFNLENJ@?$AAe?$AAn?$AAg?$AAl?$AAi?$AAs?$AAh?$AA?9?$AAb?$AAe?$AAl?$AAi?$AAz?$AAe?$AA?$AA@ 1005391c     LIBCMT:getqloc.obj
 0002:0001193c       ??_C@_1BI@HAPKJMPO@?$AAe?$AAn?$AAg?$AAl?$AAi?$AAs?$AAh?$AA?9?$AAc?$AAa?$AAn?$AA?$AA@ 1005393c     LIBCMT:getqloc.obj
 0002:00011954       ??_C@_1CE@HLNDMIOJ@?$AAe?$AAn?$AAg?$AAl?$AAi?$AAs?$AAh?$AA?9?$AAc?$AAa?$AAr?$AAi?$AAb?$AAb?$AAe?$AAa?$AAn?$AA?$AA@ 10053954     LIBCMT:getqloc.obj
 0002:00011978       ??_C@_1BI@LDHJHHAC@?$AAe?$AAn?$AAg?$AAl?$AAi?$AAs?$AAh?$AA?9?$AAi?$AAr?$AAe?$AA?$AA@ 10053978     LIBCMT:getqloc.obj
 0002:00011990       ??_C@_1CA@NJMMCFOC@?$AAe?$AAn?$AAg?$AAl?$AAi?$AAs?$AAh?$AA?9?$AAj?$AAa?$AAm?$AAa?$AAi?$AAc?$AAa?$AA?$AA@ 10053990     LIBCMT:getqloc.obj
 0002:000119b0       ??_C@_1BG@BHJEBBGG@?$AAe?$AAn?$AAg?$AAl?$AAi?$AAs?$AAh?$AA?9?$AAn?$AAz?$AA?$AA@ 100539b0     LIBCMT:getqloc.obj
 0002:000119c8       ??_C@_1CK@FGOEJJCO@?$AAe?$AAn?$AAg?$AAl?$AAi?$AAs?$AAh?$AA?9?$AAs?$AAo?$AAu?$AAt?$AAh?$AA?5?$AAa?$AAf?$AAr?$AAi?$AAc?$AAa?$AA?$AA@ 100539c8     LIBCMT:getqloc.obj
 0002:000119f4       ??_C@_1DE@PDBJPCJ@?$AAe?$AAn?$AAg?$AAl?$AAi?$AAs?$AAh?$AA?9?$AAt?$AAr?$AAi?$AAn?$AAi?$AAd?$AAa?$AAd?$AA?5?$AAy?$AA?5?$AAt?$AAo?$AAb?$AAa?$AAg?$AAo?$AA?$AA@ 100539f4     LIBCMT:getqloc.obj
 0002:00011a28       ??_C@_1BG@JGCANDME@?$AAe?$AAn?$AAg?$AAl?$AAi?$AAs?$AAh?$AA?9?$AAu?$AAk?$AA?$AA@ 10053a28     LIBCMT:getqloc.obj
 0002:00011a40       ??_C@_1BG@DINKMLE@?$AAe?$AAn?$AAg?$AAl?$AAi?$AAs?$AAh?$AA?9?$AAu?$AAs?$AA?$AA@ 10053a40     LIBCMT:getqloc.obj
 0002:00011a58       ??_C@_1BI@NMFDBHJE@?$AAe?$AAn?$AAg?$AAl?$AAi?$AAs?$AAh?$AA?9?$AAu?$AAs?$AAa?$AA?$AA@ 10053a58     LIBCMT:getqloc.obj
 0002:00011a70       ??_C@_1BO@OIHKJKII@?$AAf?$AAr?$AAe?$AAn?$AAc?$AAh?$AA?9?$AAb?$AAe?$AAl?$AAg?$AAi?$AAa?$AAn?$AA?$AA@ 10053a70     LIBCMT:getqloc.obj
 0002:00011a90       ??_C@_1CA@NKAELJKI@?$AAf?$AAr?$AAe?$AAn?$AAc?$AAh?$AA?9?$AAc?$AAa?$AAn?$AAa?$AAd?$AAi?$AAa?$AAn?$AA?$AA@ 10053a90     LIBCMT:getqloc.obj
 0002:00011ab0       ??_C@_1CE@MGKCNLGN@?$AAf?$AAr?$AAe?$AAn?$AAc?$AAh?$AA?9?$AAl?$AAu?$AAx?$AAe?$AAm?$AAb?$AAo?$AAu?$AAr?$AAg?$AA?$AA@ 10053ab0     LIBCMT:getqloc.obj
 0002:00011ad4       ??_C@_1BK@CEGEAILM@?$AAf?$AAr?$AAe?$AAn?$AAc?$AAh?$AA?9?$AAs?$AAw?$AAi?$AAs?$AAs?$AA?$AA@ 10053ad4     LIBCMT:getqloc.obj
 0002:00011af0       ??_C@_1CA@PAFKEOCC@?$AAg?$AAe?$AAr?$AAm?$AAa?$AAn?$AA?9?$AAa?$AAu?$AAs?$AAt?$AAr?$AAi?$AAa?$AAn?$AA?$AA@ 10053af0     LIBCMT:getqloc.obj
 0002:00011b10       ??_C@_1CI@HCFHGOFD@?$AAg?$AAe?$AAr?$AAm?$AAa?$AAn?$AA?9?$AAl?$AAi?$AAc?$AAh?$AAt?$AAe?$AAn?$AAs?$AAt?$AAe?$AAi?$AAn?$AA?$AA@ 10053b10     LIBCMT:getqloc.obj
 0002:00011b38       ??_C@_1CE@FEDDNPDG@?$AAg?$AAe?$AAr?$AAm?$AAa?$AAn?$AA?9?$AAl?$AAu?$AAx?$AAe?$AAm?$AAb?$AAo?$AAu?$AAr?$AAg?$AA?$AA@ 10053b38     LIBCMT:getqloc.obj
 0002:00011b5c       ??_C@_1BK@LIMINNMN@?$AAg?$AAe?$AAr?$AAm?$AAa?$AAn?$AA?9?$AAs?$AAw?$AAi?$AAs?$AAs?$AA?$AA@ 10053b5c     LIBCMT:getqloc.obj
 0002:00011b78       ??_C@_1BM@LGMDBEPD@?$AAi?$AAr?$AAi?$AAs?$AAh?$AA?9?$AAe?$AAn?$AAg?$AAl?$AAi?$AAs?$AAh?$AA?$AA@ 10053b78     LIBCMT:getqloc.obj
 0002:00011b94       ??_C@_1BM@NNCFBAEE@?$AAi?$AAt?$AAa?$AAl?$AAi?$AAa?$AAn?$AA?9?$AAs?$AAw?$AAi?$AAs?$AAs?$AA?$AA@ 10053b94     LIBCMT:getqloc.obj
 0002:00011bb0       ??_C@_1BE@FEDJNPIB@?$AAn?$AAo?$AAr?$AAw?$AAe?$AAg?$AAi?$AAa?$AAn?$AA?$AA@ 10053bb0     LIBCMT:getqloc.obj
 0002:00011bc4       ??_C@_1CC@CILKDEIE@?$AAn?$AAo?$AAr?$AAw?$AAe?$AAg?$AAi?$AAa?$AAn?$AA?9?$AAb?$AAo?$AAk?$AAm?$AAa?$AAl?$AA?$AA@ 10053bc4     LIBCMT:getqloc.obj
 0002:00011be8       ??_C@_1CE@DHMMHEPL@?$AAn?$AAo?$AAr?$AAw?$AAe?$AAg?$AAi?$AAa?$AAn?$AA?9?$AAn?$AAy?$AAn?$AAo?$AAr?$AAs?$AAk?$AA?$AA@ 10053be8     LIBCMT:getqloc.obj
 0002:00011c0c       ??_C@_1CK@OPNMHECD@?$AAp?$AAo?$AAr?$AAt?$AAu?$AAg?$AAu?$AAe?$AAs?$AAe?$AA?9?$AAb?$AAr?$AAa?$AAz?$AAi?$AAl?$AAi?$AAa?$AAn?$AA?$AA@ 10053c0c     LIBCMT:getqloc.obj
 0002:00011c38       ??_C@_1CE@KEEHCDB@?$AAs?$AAp?$AAa?$AAn?$AAi?$AAs?$AAh?$AA?9?$AAa?$AAr?$AAg?$AAe?$AAn?$AAt?$AAi?$AAn?$AAa?$AA?$AA@ 10053c38     LIBCMT:getqloc.obj
 0002:00011c5c       ??_C@_1CA@GIAOLHJD@?$AAs?$AAp?$AAa?$AAn?$AAi?$AAs?$AAh?$AA?9?$AAb?$AAo?$AAl?$AAi?$AAv?$AAi?$AAa?$AA?$AA@ 10053c5c     LIBCMT:getqloc.obj
 0002:00011c7c       ??_C@_1BM@OJNDFNPD@?$AAs?$AAp?$AAa?$AAn?$AAi?$AAs?$AAh?$AA?9?$AAc?$AAh?$AAi?$AAl?$AAe?$AA?$AA@ 10053c7c     LIBCMT:getqloc.obj
 0002:00011c98       ??_C@_1CC@OCOLPALL@?$AAs?$AAp?$AAa?$AAn?$AAi?$AAs?$AAh?$AA?9?$AAc?$AAo?$AAl?$AAo?$AAm?$AAb?$AAi?$AAa?$AA?$AA@ 10053c98     LIBCMT:getqloc.obj
 0002:00011cbc       ??_C@_1CG@BPOFMKBB@?$AAs?$AAp?$AAa?$AAn?$AAi?$AAs?$AAh?$AA?9?$AAc?$AAo?$AAs?$AAt?$AAa?$AA?5?$AAr?$AAi?$AAc?$AAa?$AA?$AA@ 10053cbc     LIBCMT:getqloc.obj
 0002:00011ce4       ??_C@_1DG@IGOBAPBB@?$AAs?$AAp?$AAa?$AAn?$AAi?$AAs?$AAh?$AA?9?$AAd?$AAo?$AAm?$AAi?$AAn?$AAi?$AAc?$AAa?$AAn?$AA?5?$AAr?$AAe?$AAp?$AAu?$AAb?$AAl?$AAi?$AAc?$AA?$AA@ 10053ce4     LIBCMT:getqloc.obj
 0002:00011d1c       ??_C@_1CA@JHAPGEGI@?$AAs?$AAp?$AAa?$AAn?$AAi?$AAs?$AAh?$AA?9?$AAe?$AAc?$AAu?$AAa?$AAd?$AAo?$AAr?$AA?$AA@ 10053d1c     LIBCMT:getqloc.obj
 0002:00011d3c       ??_C@_1CI@LAPALJPP@?$AAs?$AAp?$AAa?$AAn?$AAi?$AAs?$AAh?$AA?9?$AAe?$AAl?$AA?5?$AAs?$AAa?$AAl?$AAv?$AAa?$AAd?$AAo?$AAr?$AA?$AA@ 10053d3c     LIBCMT:getqloc.obj
 0002:00011d64       ??_C@_1CE@PDGBOFOM@?$AAs?$AAp?$AAa?$AAn?$AAi?$AAs?$AAh?$AA?9?$AAg?$AAu?$AAa?$AAt?$AAe?$AAm?$AAa?$AAl?$AAa?$AA?$AA@ 10053d64     LIBCMT:getqloc.obj
 0002:00011d88       ??_C@_1CC@NBEBAODI@?$AAs?$AAp?$AAa?$AAn?$AAi?$AAs?$AAh?$AA?9?$AAh?$AAo?$AAn?$AAd?$AAu?$AAr?$AAa?$AAs?$AA?$AA@ 10053d88     LIBCMT:getqloc.obj
 0002:00011dac       ??_C@_1CA@LLKGHBMF@?$AAs?$AAp?$AAa?$AAn?$AAi?$AAs?$AAh?$AA?9?$AAm?$AAe?$AAx?$AAi?$AAc?$AAa?$AAn?$AA?$AA@ 10053dac     LIBCMT:getqloc.obj
 0002:00011dcc       ??_C@_1BO@LKNDOIGD@?$AAs?$AAp?$AAa?$AAn?$AAi?$AAs?$AAh?$AA?9?$AAm?$AAo?$AAd?$AAe?$AAr?$AAn?$AA?$AA@ 10053dcc     LIBCMT:getqloc.obj
 0002:00011dec       ??_C@_1CE@NMDMOEEB@?$AAs?$AAp?$AAa?$AAn?$AAi?$AAs?$AAh?$AA?9?$AAn?$AAi?$AAc?$AAa?$AAr?$AAa?$AAg?$AAu?$AAa?$AA?$AA@ 10053dec     LIBCMT:getqloc.obj
 0002:00011e10       ??_C@_1BO@LLCBEJGB@?$AAs?$AAp?$AAa?$AAn?$AAi?$AAs?$AAh?$AA?9?$AAp?$AAa?$AAn?$AAa?$AAm?$AAa?$AA?$AA@ 10053e10     LIBCMT:getqloc.obj
 0002:00011e30       ??_C@_1CC@FKPGGIHO@?$AAs?$AAp?$AAa?$AAn?$AAi?$AAs?$AAh?$AA?9?$AAp?$AAa?$AAr?$AAa?$AAg?$AAu?$AAa?$AAy?$AA?$AA@ 10053e30     LIBCMT:getqloc.obj
 0002:00011e54       ??_C@_1BK@CDEIHOOP@?$AAs?$AAp?$AAa?$AAn?$AAi?$AAs?$AAh?$AA?9?$AAp?$AAe?$AAr?$AAu?$AA?$AA@ 10053e54     LIBCMT:getqloc.obj
 0002:00011e70       ??_C@_1CI@GAHAKKGP@?$AAs?$AAp?$AAa?$AAn?$AAi?$AAs?$AAh?$AA?9?$AAp?$AAu?$AAe?$AAr?$AAt?$AAo?$AA?5?$AAr?$AAi?$AAc?$AAo?$AA?$AA@ 10053e70     LIBCMT:getqloc.obj
 0002:00011e98       ??_C@_1CA@NKJBCAGP@?$AAs?$AAp?$AAa?$AAn?$AAi?$AAs?$AAh?$AA?9?$AAu?$AAr?$AAu?$AAg?$AAu?$AAa?$AAy?$AA?$AA@ 10053e98     LIBCMT:getqloc.obj
 0002:00011eb8       ??_C@_1CE@ODILCONM@?$AAs?$AAp?$AAa?$AAn?$AAi?$AAs?$AAh?$AA?9?$AAv?$AAe?$AAn?$AAe?$AAz?$AAu?$AAe?$AAl?$AAa?$AA?$AA@ 10053eb8     LIBCMT:getqloc.obj
 0002:00011edc       ??_C@_1CA@OBNMCGFO@?$AAs?$AAw?$AAe?$AAd?$AAi?$AAs?$AAh?$AA?9?$AAf?$AAi?$AAn?$AAl?$AAa?$AAn?$AAd?$AA?$AA@ 10053edc     LIBCMT:getqloc.obj
 0002:00011efc       ??_C@_1M@PIPDDPPI@?$AAs?$AAw?$AAi?$AAs?$AAs?$AA?$AA@ 10053efc     LIBCMT:getqloc.obj
 0002:00011f08       ??_C@_15GMFIMNFM@?$AAu?$AAs?$AA?$AA@ 10053f08     LIBCMT:getqloc.obj
 0002:00011f10       ??_C@_17HAEBFAGL@?$AAu?$AAs?$AAa?$AA?$AA@ 10053f10     LIBCMT:getqloc.obj
 0002:00011f18       ___rg_country              10053f18     LIBCMT:getqloc.obj
 0002:0001202c       ??_C@_1BA@DPFJEPHB@?$AAa?$AAm?$AAe?$AAr?$AAi?$AAc?$AAa?$AA?$AA@ 1005402c     LIBCMT:getqloc.obj
 0002:0001203c       ??_C@_1BA@ELOGGFK@?$AAb?$AAr?$AAi?$AAt?$AAa?$AAi?$AAn?$AA?$AA@ 1005403c     LIBCMT:getqloc.obj
 0002:0001204c       ??_C@_1M@GHBGIGDA@?$AAc?$AAh?$AAi?$AAn?$AAa?$AA?$AA@ 1005404c     LIBCMT:getqloc.obj
 0002:00012058       ??_C@_1M@NCHEJOPO@?$AAc?$AAz?$AAe?$AAc?$AAh?$AA?$AA@ 10054058     LIBCMT:getqloc.obj
 0002:00012064       ??_C@_1BA@BKPAPBLA@?$AAe?$AAn?$AAg?$AAl?$AAa?$AAn?$AAd?$AA?$AA@ 10054064     LIBCMT:getqloc.obj
 0002:00012074       ??_C@_1BM@HKBCKIPC@?$AAg?$AAr?$AAe?$AAa?$AAt?$AA?5?$AAb?$AAr?$AAi?$AAt?$AAa?$AAi?$AAn?$AA?$AA@ 10054074     LIBCMT:getqloc.obj
 0002:00012090       ??_C@_1BA@PPCHPGJB@?$AAh?$AAo?$AAl?$AAl?$AAa?$AAn?$AAd?$AA?$AA@ 10054090     LIBCMT:getqloc.obj
 0002:000120a0       ??_C@_1BE@JBMPEGDG@?$AAh?$AAo?$AAn?$AAg?$AA?9?$AAk?$AAo?$AAn?$AAg?$AA?$AA@ 100540a0     LIBCMT:getqloc.obj
 0002:000120b4       ??_C@_1BI@KOELBBPJ@?$AAn?$AAe?$AAw?$AA?9?$AAz?$AAe?$AAa?$AAl?$AAa?$AAn?$AAd?$AA?$AA@ 100540b4     LIBCMT:getqloc.obj
 0002:000120cc       ??_C@_15HIEBHAIO@?$AAn?$AAz?$AA?$AA@ 100540cc     LIBCMT:getqloc.obj
 0002:000120d4       ??_C@_1BC@CHBCPFPI@?$AAp?$AAr?$AA?5?$AAc?$AAh?$AAi?$AAn?$AAa?$AA?$AA@ 100540d4     LIBCMT:getqloc.obj
 0002:000120e8       ??_C@_1BC@JAOIIFKD@?$AAp?$AAr?$AA?9?$AAc?$AAh?$AAi?$AAn?$AAa?$AA?$AA@ 100540e8     LIBCMT:getqloc.obj
 0002:000120fc       ??_C@_1BI@BEHPPHKC@?$AAp?$AAu?$AAe?$AAr?$AAt?$AAo?$AA?9?$AAr?$AAi?$AAc?$AAo?$AA?$AA@ 100540fc     LIBCMT:getqloc.obj
 0002:00012114       ??_C@_1O@PAEOFKDI@?$AAs?$AAl?$AAo?$AAv?$AAa?$AAk?$AA?$AA@ 10054114     LIBCMT:getqloc.obj
 0002:00012124       ??_C@_1BK@FIHMCKAM@?$AAs?$AAo?$AAu?$AAt?$AAh?$AA?5?$AAa?$AAf?$AAr?$AAi?$AAc?$AAa?$AA?$AA@ 10054124     LIBCMT:getqloc.obj
 0002:00012140       ??_C@_1BI@NAEOODKB@?$AAs?$AAo?$AAu?$AAt?$AAh?$AA?5?$AAk?$AAo?$AAr?$AAe?$AAa?$AA?$AA@ 10054140     LIBCMT:getqloc.obj
 0002:00012158       ??_C@_1BK@FBDGGIFF@?$AAs?$AAo?$AAu?$AAt?$AAh?$AA?9?$AAa?$AAf?$AAr?$AAi?$AAc?$AAa?$AA?$AA@ 10054158     LIBCMT:getqloc.obj
 0002:00012174       ??_C@_1BI@GHLEJDPK@?$AAs?$AAo?$AAu?$AAt?$AAh?$AA?9?$AAk?$AAo?$AAr?$AAe?$AAa?$AA?$AA@ 10054174     LIBCMT:getqloc.obj
 0002:0001218c       ??_C@_1CE@PLHLOMJF@?$AAt?$AAr?$AAi?$AAn?$AAi?$AAd?$AAa?$AAd?$AA?5?$AA?$CG?$AA?5?$AAt?$AAo?$AAb?$AAa?$AAg?$AAo?$AA?$AA@ 1005418c     LIBCMT:getqloc.obj
 0002:000121b0       ??_C@_1BO@MODIMHHI@?$AAu?$AAn?$AAi?$AAt?$AAe?$AAd?$AA?9?$AAk?$AAi?$AAn?$AAg?$AAd?$AAo?$AAm?$AA?$AA@ 100541b0     LIBCMT:getqloc.obj
 0002:000121d0       ??_C@_1BM@FFHJONBJ@?$AAu?$AAn?$AAi?$AAt?$AAe?$AAd?$AA?9?$AAs?$AAt?$AAa?$AAt?$AAe?$AAs?$AA?$AA@ 100541d0     LIBCMT:getqloc.obj
 0002:000121ec       ___rg_language_count       100541ec     LIBCMT:getqloc.obj
 0002:000121f0       ___rg_country_count        100541f0     LIBCMT:getqloc.obj
 0002:000121f4       ??_C@_17DNCLJFIF@?$AAA?$AAC?$AAP?$AA?$AA@ 100541f4     LIBCMT:getqloc.obj
 0002:000121fc       ??_C@_17CIKBIHLH@?$AAO?$AAC?$AAP?$AA?$AA@ 100541fc     LIBCMT:getqloc.obj
 0002:00012204       ___rglangidNotDefault      10054204     LIBCMT:getqloc_downlevel.obj
 0002:00012218       __real@00000000            10054218     LIBCMT:wcstoq.obj
 0002:00012220       __load_config_used         10054220     LIBCMT:loadcfg.obj
 0002:00014520       ___safe_se_handler_table   10056520     <linker-defined>
 0002:00014630       ___rtc_iaa                 10056630     LIBCMT:initsect.obj
 0002:00014734       ___rtc_izz                 10056734     LIBCMT:initsect.obj
 0002:00014838       ___rtc_taa                 10056838     LIBCMT:initsect.obj
 0002:0001493c       ___rtc_tzz                 1005693c     LIBCMT:initsect.obj
 0003:00000528       _FingerStrokeAssistance_P  10058528     FingerStrokeAssistance_data.obj
 0003:00000e28       _pci20041digout            10058e28     xpctarget.obj
 0003:00000e2c       _nipcdio24cnfg             10058e2c     xpctarget.obj
 0003:00000e30       _rtddm6604cnfg             10058e30     xpctarget.obj
 0003:00001558       _DefaultCOMIOBase          10059558     xpcruntime:xpcimports.obj
 0003:00001568       _DefaultCOMIRQ             10059568     xpcruntime:xpcimports.obj
 0003:00001580       __fltused                  10059580     LIBCMT:fpinit.obj
 0003:00001584       __ldused                   10059584     LIBCMT:fpinit.obj
 0003:00001590       __iob                      10059590     LIBCMT:_file.obj
 0003:00001810       ___isa_enabled             10059810     LIBCMT:cpu_disp.obj
 0003:00001814       ___security_cookie         10059814     LIBCMT:gs_cookie.obj
 0003:00001818       ___security_cookie_complement 10059818     LIBCMT:gs_cookie.obj
 0003:000019f0       ___nullstring              100599f0     LIBCMT:output.obj
 0003:000019f4       ___wnullstring             100599f4     LIBCMT:output.obj
 0003:00001a04       __cfltcvt_tab              10059a04     LIBCMT:cmiscdat.obj
 0003:00001b50       __mbctype                  10059b50     LIBCMT:mbctype.obj
 0003:00001c58       __mbcasemap                10059c58     LIBCMT:mbctype.obj
 0003:00001d58       ___initialmbcinfo          10059d58     LIBCMT:mbctype.obj
 0003:00001f7c       ___ptmbcinfo               10059f7c     LIBCMT:mbctype.obj
 0003:00002070       ___badioinfo               1005a070     LIBCMT:ioinit.obj
 0003:000020b0       __lookuptrailbytes         1005a0b0     LIBCMT:read.obj
 0003:000021b0       __d_inf                    1005a1b0     LIBCMT:util.obj
 0003:000021b8       __d_ind                    1005a1b8     LIBCMT:util.obj
 0003:000021c0       __d_max                    1005a1c0     LIBCMT:util.obj
 0003:000021c8       __d_min                    1005a1c8     LIBCMT:util.obj
 0003:000021d0       __d_mzero                  1005a1d0     LIBCMT:util.obj
 0003:000022dc       ___abort_behavior          1005a2dc     LIBCMT:abort.obj
 0003:000022e0       ___flsindex                1005a2e0     LIBCMT:tidtable.obj
 0003:000022f0       ___mb_cur_max              1005a2f0     LIBCMT:nlsdata.obj
 0003:000022f4       ___wclocalestr             1005a2f4     LIBCMT:nlsdata.obj
 0003:000022f8       ___lc_time_c               1005a2f8     LIBCMT:nlsdata.obj
 0003:0000245c       ___ptlocinfo               1005a45c     LIBCMT:nlsdata.obj
 0003:00002460       ___initiallocinfo          1005a460     LIBCMT:nlsdata.obj
 0003:00002518       ___initiallocalestructinfo 1005a518     LIBCMT:nlsdata.obj
 0003:00002520       ___globallocalestatus      1005a520     LIBCMT:glstatus.obj
 0003:00002524       __matherr_flag             1005a524     LIBCMT:matherr.obj
 0003:00002530       __NLG_Destination          1005a530     LIBCMT:exsup.obj
 0003:00002540       ___lconv                   1005a540     LIBCMT:lconv.obj
 0003:00002544       ___lconv_static_decimal    1005a544     LIBCMT:lconv.obj
 0003:00002548       ___lconv_c                 1005a548     LIBCMT:lconv.obj
 0003:00002598       ___lconv_static_W_decimal  1005a598     LIBCMT:lconv.obj
 0003:0000259c       __pctype                   1005a59c     LIBCMT:ctype.obj
 0003:000025a0       __pwctype                  1005a5a0     LIBCMT:ctype.obj
 0003:000025e0       __confh                    1005a5e0     LIBCMT:initcon.obj
 0003:000025e8       __pow10pos                 1005a5e8     LIBCMT:constpow.obj
 0003:00002748       __pow10neg                 1005a748     LIBCMT:constpow.obj
 0003:000028b0       __HUGE                     1005a8b0     LIBCMT:huge.obj
 0003:00002dfc       ___isa_available_default   1005adfc     rt_logging.obj
 0003:00002e0c       _pci20098PortA             1005ae0c     xpctarget.obj
 0003:00002e10       _pci20098PortB             1005ae10     xpctarget.obj
 0003:00002e14       _siepowercan_firmware_initialized 1005ae14     xpctarget.obj
 0003:00002e18       _siepowercan_port1_configured 1005ae18     xpctarget.obj
 0003:00002e1c       _siepowercan_port2_configured 1005ae1c     xpctarget.obj
 0003:00002e20       _CANAC2_FIRMWARE_LOADED    1005ae20     xpctarget.obj
 0003:00002e24       _rs232ports                1005ae24     xpctarget.obj
 0003:00002e34       _NI_AT_MIO_16F_5_commreg2  1005ae34     xpctarget.obj
 0003:00002e38       _RTD_DM6430_init           1005ae38     xpctarget.obj
 0003:00002e3c       _RTD_DM6420_init           1005ae3c     xpctarget.obj
 0003:00002e40       _CANAC2_FIRMWARE_LOADED_mb1 1005ae40     xpctarget.obj
 0003:00002e44       _CANAC2_FIRMWARE_LOADED_mb2 1005ae44     xpctarget.obj
 0003:00002e48       _CANAC2_FIRMWARE_LOADED_mb3 1005ae48     xpctarget.obj
 0003:00002e4c       _xmlsize                   1005ae4c     xpctarget.obj
 0003:00003558       ___fastflag                1005b558     LIBCMT:fpinit.obj
 0003:00003880       __C_Exit_Done              1005b880     LIBCMT:crt0dat.obj
 0003:00003884       ___argc                    1005b884     LIBCMT:crt0dat.obj
 0003:00003888       ___argv                    1005b888     LIBCMT:crt0dat.obj
 0003:0000388c       ___wargv                   1005b88c     LIBCMT:crt0dat.obj
 0003:00003890       __environ                  1005b890     LIBCMT:crt0dat.obj
 0003:00003894       __wenviron                 1005b894     LIBCMT:crt0dat.obj
 0003:00003898       __pgmptr                   1005b898     LIBCMT:crt0dat.obj
 0003:0000389c       __wpgmptr                  1005b89c     LIBCMT:crt0dat.obj
 0003:000038a0       __umaskval                 1005b8a0     LIBCMT:crt0dat.obj
 0003:000038a4       __exitflag                 1005b8a4     LIBCMT:crt0dat.obj
 0003:000038a8       __C_Termination_Done       1005b8a8     LIBCMT:crt0dat.obj
 0003:000038ac       ___winitenv                1005b8ac     LIBCMT:crt0dat.obj
 0003:000038b0       ___initenv                 1005b8b0     LIBCMT:crt0dat.obj
 0003:000038b4       __cflush                   1005b8b4     LIBCMT:_file.obj
 0003:000038b8       ___isa_available           1005b8b8     LIBCMT:cpu_disp.obj
 0003:000038bc       ___favor                   1005b8bc     LIBCMT:cpu_disp.obj
 0003:000038c4       __aenvptr                  1005b8c4     LIBCMT:dllcrt0.obj
 0003:000038c8       __wenvptr                  1005b8c8     LIBCMT:dllcrt0.obj
 0003:000038cc       ?_pnhHeap@@3P6AHI@ZA       1005b8cc     LIBCMT:handler.obj
 0003:000038d0       ___app_type                1005b8d0     LIBCMT:crt0msg.obj
 0003:00003f00       __newmode                  1005bf00     LIBCMT:_newmode.obj
 0003:00003f04       __crtheap                  1005bf04     LIBCMT:heapinit.obj
 0003:00003f08       ___pInvalidArgHandler      1005bf08     LIBCMT:invarg.obj
 0003:00003f0c       __stdbuf                   1005bf0c     LIBCMT:_sftbuf.obj
 0003:00004068       __maxwait                  1005c068     LIBCMT:crtheap.obj
 0003:0000406c       ?__pInconsistency@@3P6AXXZA 1005c06c     LIBCMT:hooks.obj
 0003:00004070       ___pPurecall               1005c070     LIBCMT:inithelp.obj
 0003:0000408c       ___mbcodepage              1005c08c     LIBCMT:mbctype.obj
 0003:00004090       ___ismbcodepage            1005c090     LIBCMT:mbctype.obj
 0003:00004094       ___mbulinfo                1005c094     LIBCMT:mbctype.obj
 0003:000040a0       ___mblocalename            1005c0a0     LIBCMT:mbctype.obj
 0003:000040a8       ___pioinfo                 1005c0a8     LIBCMT:ioinit.obj
 0003:000041a8       ___error_mode              1005c1a8     LIBCMT:errmode.obj
 0003:000042c8       __outputformat             1005c2c8     LIBCMT:outputformat.obj
 0003:000042d0       __commode                  1005c2d0     LIBCMT:ncommode.obj
 0003:000042d4       ___lconv_static_null       1005c2d4     LIBCMT:lconv.obj
 0003:000042d8       ___lconv_static_W_null     1005c2d8     LIBCMT:lconv.obj
 0003:000042dc       ___locale_changed          1005c2dc     LIBCMT:wsetloca.obj
 0003:000042e0       __fmode                    1005c2e0     LIBCMT:txtmode.obj
 0003:00004300       _CANAC2_2_receiveindex_mb3 1005c300     <common>
 0003:000073d4       _CANAC2_2_receivemaxindex_mb3 1005f3d4     <common>
 0003:000073e0       _CANAC2_2_sendindex_mb3    1005f3e0     <common>
 0003:00007700       _CANAC2_2_sendmaxindex_mb3 1005f700     <common>
 0003:00007720       _CANAC2_1_receiveindex_mb3 1005f720     <common>
 0003:00007a40       _CANAC2_1_receivemaxindex_mb3 1005fa40     <common>
 0003:00007a60       _CANAC2_1_sendindex_mb3    1005fa60     <common>
 0003:00007d80       _CANAC2_1_sendmaxindex_mb3 1005fd80     <common>
 0003:00007da0       _CANAC2_2_receive_mb3      1005fda0     <common>
 0003:000080c0       _CANAC2_2_send_mb3         100600c0     <common>
 0003:000083e0       _CANAC2_1_receive_mb3      100603e0     <common>
 0003:00008700       _CANAC2_1_send_mb3         10060700     <common>
 0003:00008a20       _CANAC2_2_receiveindex_mb2 10060a20     <common>
 0003:00008d40       _CANAC2_2_receivemaxindex_mb2 10060d40     <common>
 0003:00008d60       _CANAC2_2_sendindex_mb2    10060d60     <common>
 0003:00009080       _CANAC2_2_sendmaxindex_mb2 10061080     <common>
 0003:000090a0       _CANAC2_1_receiveindex_mb2 100610a0     <common>
 0003:000093c0       _CANAC2_1_receivemaxindex_mb2 100613c0     <common>
 0003:000093e0       _CANAC2_1_sendindex_mb2    100613e0     <common>
 0003:00009700       _CANAC2_1_sendmaxindex_mb2 10061700     <common>
 0003:00009720       _CANAC2_2_receive_mb2      10061720     <common>
 0003:00009a40       _CANAC2_2_send_mb2         10061a40     <common>
 0003:00009d60       _CANAC2_1_receive_mb2      10061d60     <common>
 0003:0000a080       _CANAC2_1_send_mb2         10062080     <common>
 0003:0000a3a0       _CANAC2_2_receiveindex_mb1 100623a0     <common>
 0003:0000a6c0       _CANAC2_2_receivemaxindex_mb1 100626c0     <common>
 0003:0000a6e0       _CANAC2_2_sendindex_mb1    100626e0     <common>
 0003:0000aa00       _CANAC2_2_sendmaxindex_mb1 10062a00     <common>
 0003:0000aa20       _CANAC2_1_receiveindex_mb1 10062a20     <common>
 0003:0000ad40       _CANAC2_1_receivemaxindex_mb1 10062d40     <common>
 0003:0000ad60       _CANAC2_1_sendindex_mb1    10062d60     <common>
 0003:0000b080       _CANAC2_1_sendmaxindex_mb1 10063080     <common>
 0003:0000b0a0       _CANAC2_2_receive_mb1      100630a0     <common>
 0003:0000b3c0       _CANAC2_2_send_mb1         100633c0     <common>
 0003:0000b6e0       _CANAC2_1_receive_mb1      100636e0     <common>
 0003:0000ba00       _CANAC2_1_send_mb1         10063a00     <common>
 0003:0000bd20       _CANAC2_2_receiveindex     10063d20     <common>
 0003:0000c040       _CANAC2_2_receivemaxindex  10064040     <common>
 0003:0000c060       _CANAC2_2_sendindex        10064060     <common>
 0003:0000c380       _CANAC2_2_sendmaxindex     10064380     <common>
 0003:0000c3a0       _CANAC2_1_receiveindex     100643a0     <common>
 0003:0000c6c0       _CANAC2_1_receivemaxindex  100646c0     <common>
 0003:0000c6e0       _CANAC2_1_sendindex        100646e0     <common>
 0003:0000ca00       _CANAC2_1_sendmaxindex     10064a00     <common>
 0003:0000ca20       _CANAC2_2_receive          10064a20     <common>
 0003:0000cd40       _CANAC2_2_send             10064d40     <common>
 0003:0000d060       _CANAC2_1_receive          10065060     <common>
 0003:0000d380       _CANAC2_1_send             10065380     <common>
 0003:0000d6a0       _siepowercan_can_object_buffer_port2 100656a0     <common>
 0003:000116c0       _siepowercan_can_object_buffer_port1 100696c0     <common>
 0003:000156c0       _rtNaNF                    1006d6c0     <common>
 0003:000156d4       _rtMinusInfF               1006d6d4     <common>
 0003:000156d8       _rtInfF                    1006d6d8     <common>
 0003:000156e0       _rtNaN                     1006d6e0     <common>
 0003:000156e8       _rtMinusInf                1006d6e8     <common>
 0003:000156f0       _rtInf                     1006d6f0     <common>
 0003:00015700       _FingerStrokeAssistance_M_ 1006d700     <common>
 0003:000172f8       _FingerStrokeAssistance_PrevZCX 1006f2f8     <common>
 0003:00017300       _FingerStrokeAssistance_DW 1006f300     <common>
 0003:00017680       _FingerStrokeAssistance_B  1006f680     <common>
 0003:00017c78       _xpceaddEvent              1006fc78     <common>
 0003:00017cc8       _xpceDeRegisterISR         1006fcc8     <common>
 0003:00017ccc       _xpceRegisterISR           1006fccc     <common>
 0003:00017cd0       _xpcIsModelInit            1006fcd0     <common>
 0003:00017cd4       _xpcGetElapsedTime         1006fcd4     <common>
 0003:00017cd8       _xpcBusyWait               1006fcd8     <common>
 0003:00017cdc       _xpcFreePhysicalMemory     1006fcdc     <common>
 0003:00017ce0       _xpcAllocPhysicalMemory    1006fce0     <common>
 0003:00017ce4       _xpcReserveMemoryRegion    1006fce4     <common>
 0003:00017ce8       _xpcOutpB                  1006fce8     <common>
 0003:00017cec       _xpcOutpW                  1006fcec     <common>
 0003:00017cf0       _xpcOutpDW                 1006fcf0     <common>
 0003:00017cf4       _xpcInpB                   1006fcf4     <common>
 0003:00017cf8       _xpcInpW                   1006fcf8     <common>
 0003:00017cfc       _xpcInpDW                  1006fcfc     <common>
 0003:00017d00       _slTestRegAssessment       1006fd00     <common>
 0003:00017d04       _slTestTerminate           1006fd04     <common>
 0003:00017d08       _slTestEvalOnFail          1006fd08     <common>
 0003:00017d0c       _slTestLogAssessments      1006fd0c     <common>
 0003:00017d10       _slTestInitialize          1006fd10     <common>
 0003:00017d14       _unRegisterPTPTimeRead     1006fd14     <common>
 0003:00017d18       _registerPTPTimeRead       1006fd18     <common>
 0003:00017d1c       _slrteGetCurrentStepSize   1006fd1c     <common>
 0003:00017d20       _slrteSetStepSizeDelta     1006fd20     <common>
 0003:00017d24       _xpceGetIntTimerGranularityNS 1006fd24     <common>
 0003:00017d28       _sendToAsyncQueueTgtAppSvc 1006fd28     <common>
 0003:00017d2c       _terminateToAsyncQueueTgtAppSvc 1006fd2c     <common>
 0003:00017d30       _startToAsyncQueueTgtAppSvc 1006fd30     <common>
 0003:00017d34       _getStatusFlags            1006fd34     <common>
 0003:00017d38       _getCommService            1006fd38     <common>
 0003:00017d3c       _getMemoryService          1006fd3c     <common>
 0003:00017d40       _StreamVideo               1006fd40     <common>
 0003:00017d44       _StopVideoDisplay          1006fd44     <common>
 0003:00017d48       _StartVideoDisplay         1006fd48     <common>
 0003:00017d4c       _DestroyVideoDisplay       1006fd4c     <common>
 0003:00017d50       _CreateVideoDisplay        1006fd50     <common>
 0003:00017d54       _ConvertUImage             1006fd54     <common>
 0003:00017d58       _StopVideo                 1006fd58     <common>
 0003:00017d5c       _ReadFrameBuffer           1006fd5c     <common>
 0003:00017d60       _StartVideo                1006fd60     <common>
 0003:00017d64       _GetVideoConfigs           1006fd64     <common>
 0003:00017d68       _FindUsbVideoDevice        1006fd68     <common>
 0003:00017d6c       _xpceDeleteSemaphore       1006fd6c     <common>
 0003:00017d70       _xpceSignalSemaphore       1006fd70     <common>
 0003:00017d74       _xpceWaitSemaphore         1006fd74     <common>
 0003:00017d78       _xpceCreateSemaphore       1006fd78     <common>
 0003:00017d7c       _TBGiveSpinFast            1006fd7c     <common>
 0003:00017d80       _TBTakeSpinFast            1006fd80     <common>
 0003:00017d84       _TBDeleteSpin              1006fd84     <common>
 0003:00017d88       _TBCreateSpin              1006fd88     <common>
 0003:00017d8c       _xpceScopeAcqOK            1006fd8c     <common>
 0003:00017d90       _rl32eRestartAcquisition   1006fd90     <common>
 0003:00017d94       _rl32eSetTargetScopeSigFt  1006fd94     <common>
 0003:00017d98       _rl32eSetTargetScope       1006fd98     <common>
 0003:00017d9c       _xpceFSScopeSet            1006fd9c     <common>
 0003:00017da0       _rl32eSetScope             1006fda0     <common>
 0003:00017da4       _rl32eAddSignal            1006fda4     <common>
 0003:00017da8       _rl32eGetSignalNo          1006fda8     <common>
 0003:00017dac       _rl32eDefScope             1006fdac     <common>
 0003:00017db0       _rl32eScopeExists          1006fdb0     <common>
 0003:00017db4       _xpceUDPClose              1006fdb4     <common>
 0003:00017db8       _xpceUDPReceive            1006fdb8     <common>
 0003:00017dbc       _xpceUDPSend               1006fdbc     <common>
 0003:00017dc0       _xpceUDPOpenReceive        1006fdc0     <common>
 0003:00017dc4       _xpceUDPOpenSend           1006fdc4     <common>
 0003:00017dc8       _rl32eSendBlock            1006fdc8     <common>
 0003:00017dcc       _rl32eLineStatus           1006fdcc     <common>
 0003:00017dd0       _rl32eReceiveBufferCount   1006fdd0     <common>
 0003:00017dd4       _rl32eReceiveChar          1006fdd4     <common>
 0003:00017dd8       _rl32eSendChar             1006fdd8     <common>
 0003:00017ddc       _rl32eCloseCOMPort         1006fddc     <common>
 0003:00017de0       _rl32eInitCOMPort          1006fde0     <common>
 0003:00017de4       _xpceGetParamDims          1006fde4     <common>
 0003:00017de8       _xpceGetParameter          1006fde8     <common>
 0003:00017dec       _xpceSetParameter          1006fdec     <common>
 0003:00017df0       _xpceGetSignalValue        1006fdf0     <common>
 0003:00017df4       _xpceAssignPCIInterrupt    1006fdf4     <common>
 0003:00017df8       _rl32eGetPCIInfoAtSlot     1006fdf8     <common>
 0003:00017dfc       _rl32eGetPCIInfo           1006fdfc     <common>
 0003:00017e00       _rl32eShowPCIInfo          1006fe00     <common>
 0003:00017e04       _rl32eShowPCIDev           1006fe04     <common>
 0003:00017e08       _xpceGetTET                1006fe08     <common>
 0003:00017e0c       _xpceFTSubtract            1006fe0c     <common>
 0003:00017e10       _xpceFTAdd                 1006fe10     <common>
 0003:00017e14       _xpceFTReadTime            1006fe14     <common>
 0003:00017e18       ___unguarded_readlc_active 1006fe18     <common>
 0003:00017e28       ___setlc_active            1006fe28     <common>
 0003:00017e2c       __nhandle                  1006fe2c     <common>
 0003:00017e40       _encodedKERNEL32Functions  1006fe40     <common>
 0003:00017ee8       __debugger_hook_dummy      1006fee8     <common>
 0003:00017ef4       ___use_sse2_mathfcns       1006fef4     <common>
 0003:00017f00       __pmatherr                 1006ff00     <common>
 0003:00017f0c       __pDestructExceptionObject 1006ff0c     <common>
 0003:00017f18       __acmdln                   1006ff18     <common>
 0003:00017f40       __bufin                    1006ff40     <common>
 0003:0001927c       ___piob                    1007127c     <common>
 0003:00019280       __nstream                  10071280     <common>
 0003:00019284       ___dyn_tls_init_callback   10071284     <common>
 0003:00019294       ___onexitend               10071294     <common>
 0003:00019298       ___onexitbegin             10071298     <common>
 0003:0001929c       ___mbctype_initialized     1007129c     <common>
 0003:000192a0       ___env_initialized         100712a0     <common>
 0004:00000000       __imp__GetModuleHandleA@4  10072000     kernel32:KERNEL32.dll
 0004:00000004       __imp__GetProcAddress@8    10072004     kernel32:KERNEL32.dll
 0004:00000008       __imp__HeapAlloc@12        10072008     kernel32:KERNEL32.dll
 0004:0000000c       __imp__IsDebuggerPresent@0 1007200c     kernel32:KERNEL32.dll
 0004:00000010       __imp__IsProcessorFeaturePresent@4 10072010     kernel32:KERNEL32.dll
 0004:00000014       __imp__EncodePointer@4     10072014     kernel32:KERNEL32.dll
 0004:00000018       __imp__DecodePointer@4     10072018     kernel32:KERNEL32.dll
 0004:0000001c       __imp__GetLastError@0      1007201c     kernel32:KERNEL32.dll
 0004:00000020       __imp__ExitProcess@4       10072020     kernel32:KERNEL32.dll
 0004:00000024       __imp__GetModuleHandleExW@12 10072024     kernel32:KERNEL32.dll
 0004:00000028       __imp__AreFileApisANSI@0   10072028     kernel32:KERNEL32.dll
 0004:0000002c       __imp__MultiByteToWideChar@24 1007202c     kernel32:KERNEL32.dll
 0004:00000030       __imp__WideCharToMultiByte@32 10072030     kernel32:KERNEL32.dll
 0004:00000034       __imp__HeapFree@12         10072034     kernel32:KERNEL32.dll
 0004:00000038       __imp__HeapReAlloc@16      10072038     kernel32:KERNEL32.dll
 0004:0000003c       __imp__EnterCriticalSection@4 1007203c     kernel32:KERNEL32.dll
 0004:00000040       __imp__LeaveCriticalSection@4 10072040     kernel32:KERNEL32.dll
 0004:00000044       __imp__GetStdHandle@4      10072044     kernel32:KERNEL32.dll
 0004:00000048       __imp__GetFileType@4       10072048     kernel32:KERNEL32.dll
 0004:0000004c       __imp__GetModuleFileNameW@12 1007204c     kernel32:KERNEL32.dll
 0004:00000050       __imp__WriteConsoleW@20    10072050     kernel32:KERNEL32.dll
 0004:00000054       __imp__GetCommandLineA@0   10072054     kernel32:KERNEL32.dll
 0004:00000058       __imp__GetCurrentThreadId@0 10072058     kernel32:KERNEL32.dll
 0004:0000005c       __imp__WriteFile@20        1007205c     kernel32:KERNEL32.dll
 0004:00000060       __imp__GetProcessHeap@0    10072060     kernel32:KERNEL32.dll
 0004:00000064       __imp__UnhandledExceptionFilter@4 10072064     kernel32:KERNEL32.dll
 0004:00000068       __imp__SetUnhandledExceptionFilter@4 10072068     kernel32:KERNEL32.dll
 0004:0000006c       __imp__SetLastError@4      1007206c     kernel32:KERNEL32.dll
 0004:00000070       __imp__InitializeCriticalSectionAndSpinCount@8 10072070     kernel32:KERNEL32.dll
 0004:00000074       __imp__CreateEventW@16     10072074     kernel32:KERNEL32.dll
 0004:00000078       __imp__Sleep@4             10072078     kernel32:KERNEL32.dll
 0004:0000007c       __imp__GetCurrentProcess@0 1007207c     kernel32:KERNEL32.dll
 0004:00000080       __imp__TerminateProcess@8  10072080     kernel32:KERNEL32.dll
 0004:00000084       __imp__TlsAlloc@0          10072084     kernel32:KERNEL32.dll
 0004:00000088       __imp__TlsGetValue@4       10072088     kernel32:KERNEL32.dll
 0004:0000008c       __imp__TlsSetValue@8       1007208c     kernel32:KERNEL32.dll
 0004:00000090       __imp__TlsFree@4           10072090     kernel32:KERNEL32.dll
 0004:00000094       __imp__GetStartupInfoW@4   10072094     kernel32:KERNEL32.dll
 0004:00000098       __imp__GetTickCount@0      10072098     kernel32:KERNEL32.dll
 0004:0000009c       __imp__GetModuleHandleW@4  1007209c     kernel32:KERNEL32.dll
 0004:000000a0       __imp__CreateSemaphoreW@16 100720a0     kernel32:KERNEL32.dll
 0004:000000a4       __imp__DeleteCriticalSection@4 100720a4     kernel32:KERNEL32.dll
 0004:000000a8       __imp__FatalAppExitA@8     100720a8     kernel32:KERNEL32.dll
 0004:000000ac       __imp__SetConsoleCtrlHandler@8 100720ac     kernel32:KERNEL32.dll
 0004:000000b0       __imp__FreeLibrary@4       100720b0     kernel32:KERNEL32.dll
 0004:000000b4       __imp__LoadLibraryExW@12   100720b4     kernel32:KERNEL32.dll
 0004:000000b8       __imp__IsValidCodePage@4   100720b8     kernel32:KERNEL32.dll
 0004:000000bc       __imp__GetACP@0            100720bc     kernel32:KERNEL32.dll
 0004:000000c0       __imp__GetOEMCP@0          100720c0     kernel32:KERNEL32.dll
 0004:000000c4       __imp__GetCPInfo@8         100720c4     kernel32:KERNEL32.dll
 0004:000000c8       __imp__CloseHandle@4       100720c8     kernel32:KERNEL32.dll
 0004:000000cc       __imp__RtlUnwind@16        100720cc     kernel32:KERNEL32.dll
 0004:000000d0       __imp__ReadFile@20         100720d0     kernel32:KERNEL32.dll
 0004:000000d4       __imp__GetConsoleMode@8    100720d4     kernel32:KERNEL32.dll
 0004:000000d8       __imp__ReadConsoleW@20     100720d8     kernel32:KERNEL32.dll
 0004:000000dc       __imp__GetConsoleCP@0      100720dc     kernel32:KERNEL32.dll
 0004:000000e0       __imp__DeleteFileW@4       100720e0     kernel32:KERNEL32.dll
 0004:000000e4       __imp__SetFilePointerEx@20 100720e4     kernel32:KERNEL32.dll
 0004:000000e8       __imp__RaiseException@16   100720e8     kernel32:KERNEL32.dll
 0004:000000ec       __imp__OutputDebugStringW@4 100720ec     kernel32:KERNEL32.dll
 0004:000000f0       __imp__GetCurrentThread@0  100720f0     kernel32:KERNEL32.dll
 0004:000000f4       __imp__GetModuleFileNameA@12 100720f4     kernel32:KERNEL32.dll
 0004:000000f8       __imp__QueryPerformanceCounter@4 100720f8     kernel32:KERNEL32.dll
 0004:000000fc       __imp__GetCurrentProcessId@0 100720fc     kernel32:KERNEL32.dll
 0004:00000100       __imp__GetSystemTimeAsFileTime@4 10072100     kernel32:KERNEL32.dll
 0004:00000104       __imp__GetEnvironmentStringsW@0 10072104     kernel32:KERNEL32.dll
 0004:00000108       __imp__FreeEnvironmentStringsW@4 10072108     kernel32:KERNEL32.dll
 0004:0000010c       __imp__HeapSize@12         1007210c     kernel32:KERNEL32.dll
 0004:00000110       __imp__GetDateFormatW@24   10072110     kernel32:KERNEL32.dll
 0004:00000114       __imp__GetTimeFormatW@24   10072114     kernel32:KERNEL32.dll
 0004:00000118       __imp__CompareStringW@24   10072118     kernel32:KERNEL32.dll
 0004:0000011c       __imp__LCMapStringW@24     1007211c     kernel32:KERNEL32.dll
 0004:00000120       __imp__GetLocaleInfoW@16   10072120     kernel32:KERNEL32.dll
 0004:00000124       __imp__IsValidLocale@8     10072124     kernel32:KERNEL32.dll
 0004:00000128       __imp__GetUserDefaultLCID@0 10072128     kernel32:KERNEL32.dll
 0004:0000012c       __imp__EnumSystemLocalesW@8 1007212c     kernel32:KERNEL32.dll
 0004:00000130       __imp__GetStringTypeW@16   10072130     kernel32:KERNEL32.dll
 0004:00000134       __imp__FlushFileBuffers@4  10072134     kernel32:KERNEL32.dll
 0004:00000138       __imp__SetStdHandle@8      10072138     kernel32:KERNEL32.dll
 0004:0000013c       __imp__CreateFileW@28      1007213c     kernel32:KERNEL32.dll
 0004:00000140       __imp__SetEndOfFile@4      10072140     kernel32:KERNEL32.dll
 0004:00000144       \177KERNEL32_NULL_THUNK_DATA 10072144     kernel32:KERNEL32.dll
 0004:000001b0       __IMPORT_DESCRIPTOR_KERNEL32 100721b0     kernel32:KERNEL32.dll
 0004:000001c4       __NULL_IMPORT_DESCRIPTOR   100721c4     kernel32:KERNEL32.dll

 entry point at        0001:00016be3

