 FingerStrokeAssistance_xpc

 Timestamp is 58a65ad0 (Thu Feb 16 18:07:12 2017)

 Preferred load address is 10000000

 Start         Length     Name                   Class
 0001:00000000 0004075cH .text$mn                CODE
 0002:00000000 00000104H .CRT$XCA                DATA
 0002:00000104 00000104H .CRT$XCZ                DATA
 0002:00000208 00000104H .CRT$XIA                DATA
 0002:0000030c 00000118H .CRT$XIC                DATA
 0002:00000424 00000104H .CRT$XIZ                DATA
 0002:00000528 00000104H .CRT$XPA                DATA
 0002:0000062c 00000109H .CRT$XPX                DATA
 0002:00000738 00000104H .CRT$XPXA               DATA
 0002:0000083c 00000104H .CRT$XPZ                DATA
 0002:00000940 00000104H .CRT$XTA                DATA
 0002:00000a44 00000104H .CRT$XTZ                DATA
 0002:00000b50 0001304eH .rdata                  DATA
 0002:00013ba0 000001c4H .rdata$debug            DATA
 0002:00013d70 0000010eH .rdata$sxdata           DATA
 0002:00013e80 00000104H .rtc$IAA                DATA
 0002:00013f84 00000104H .rtc$IZZ                DATA
 0002:00014088 00000104H .rtc$TAA                DATA
 0002:0001418c 00000104H .rtc$TZZ                DATA
 0002:00014290 00000991H .xdata$x                DATA
 0002:00014c30 00000226H .edata                  DATA
 0003:00000000 00002d2eH .data                   DATA
 0003:00002d40 00016464H .bss                    DATA
 0004:00000000 000001b0H .idata$5                DATA
 0004:000001b0 00000014H .idata$2                DATA
 0004:000001c4 00000014H .idata$3                DATA
 0004:000001d8 000001b0H .idata$4                DATA
 0004:00000388 0000076bH .idata$6                DATA

  Address         Publics by Value              Rva+Base       Lib:Object

 0000:00000000       ___guard_fids_table        00000000     <absolute>
 0000:00000000       __except_list              00000000     <absolute>
 0000:00000000       ___guard_flags             00000000     <absolute>
 0000:00000000       ___guard_fids_count        00000000     <absolute>
 0000:00000003       ___safe_se_handler_count   00000003     <absolute>
 0000:00000000       ___ImageBase               10000000     <linker-defined>
 0001:00000460       _FingerStrokeAssi_MATLABFunction 10001460 f   FingerStrokeAssistance.obj
 0001:000004c0       _FingerStrokeAssistance    100014c0 f   FingerStrokeAssistance.obj
 0001:00001680       _FingerStrokeAssistance_gainramp 10002680 f   FingerStrokeAssistance.obj
 0001:00003e90       _MdlInitialize             10004e90 f   FingerStrokeAssistance.obj
 0001:00003ea0       _MdlInitializeSampleTimes  10004ea0 f   FingerStrokeAssistance.obj
 0001:00003eb0       _MdlInitializeSizes        10004eb0 f   FingerStrokeAssistance.obj
 0001:00003ec0       _MdlOutputs                10004ec0 f   FingerStrokeAssistance.obj
 0001:00003ed0       _MdlStart                  10004ed0 f   FingerStrokeAssistance.obj
 0001:00003ee0       _MdlTerminate              10004ee0 f   FingerStrokeAssistance.obj
 0001:00003f40       _MdlUpdate                 10004f40 f   FingerStrokeAssistance.obj
 0001:00003f50       _rt_powd_snf               10004f50 f   FingerStrokeAssistance.obj
 0001:000041e0       _rt_roundd_snf             100051e0 f   FingerStrokeAssistance.obj
 0001:000042e0       _FingerStrokeAssistance_GetCAPIStaticMap 100052e0 f   FingerStrokeAssistance_capi.obj
 0001:000042f0       _FingerStrokeAssistance_InitializeDataMapInfo 100052f0 f   FingerStrokeAssistance_capi.obj
 0001:00004380       _TgtConnBackgroundTask     10005380 f   FingerStrokeAssistance_tgtconn.obj
 0001:00004390       _TgtConnInit               10005390 f   FingerStrokeAssistance_tgtconn.obj
 0001:000043b0       _TgtConnPostStep           100053b0 f   FingerStrokeAssistance_tgtconn.obj
 0001:000043c0       _TgtConnPreStep            100053c0 f   FingerStrokeAssistance_tgtconn.obj
 0001:000043d0       _TgtConnTerm               100053d0 f   FingerStrokeAssistance_tgtconn.obj
 0001:000043e0       _rtGetInf                  100053e0 f   rtGetInf.obj
 0001:00004410       _rtGetInfF                 10005410 f   rtGetInf.obj
 0001:00004430       _rtGetMinusInf             10005430 f   rtGetInf.obj
 0001:00004460       _rtGetMinusInfF            10005460 f   rtGetInf.obj
 0001:00004480       _rtGetNaN                  10005480 f   rtGetNaN.obj
 0001:000044b0       _rtGetNaNF                 100054b0 f   rtGetNaN.obj
 0001:00004de0       _rt_CreateLogVar           10005de0 f   rt_logging.obj
 0001:00004e70       _rt_CreateLogVarWithConvert 10005e70 f   rt_logging.obj
 0001:000057f0       _rt_CreateStructLogVar     100067f0 f   rt_logging.obj
 0001:00006560       _rt_GetMxIdFromDTypeId     10007560 f   rt_logging.obj
 0001:00006590       _rt_GetMxIdFromDTypeIdForRSim 10007590 f   rt_logging.obj
 0001:00008ed0       _rt_StartDataLogging       10009ed0 f   rt_logging.obj
 0001:00009390       _rt_StartDataLoggingWithStartTime 1000a390 f   rt_logging.obj
 0001:00009cf0       _rt_StopDataLogging        1000acf0 f   rt_logging.obj
 0001:00009d10       _rt_StopDataLoggingImpl    1000ad10 f   rt_logging.obj
 0001:0000a030       _rt_UpdateLogVar           1000b030 f   rt_logging.obj
 0001:0000b3f0       _rt_UpdateStructLogVar     1000c3f0 f   rt_logging.obj
 0001:0000b480       _rt_UpdateTXXFYLogVars     1000c480 f   rt_logging.obj
 0001:0000b7c0       _rt_UpdateTXYLogVars       1000c7c0 f   rt_logging.obj
 0001:0000ba10       _rt_CleanUpForStateLogWithMMI 1000ca10 f   rt_logging_mmi.obj
 0001:0000bb20       _rt_FillStateSigInfoFromMMI 1000cb20 f   rt_logging_mmi.obj
 0001:0000bed0       _rt_mxCreateCharMatrixFromStrings 1000ced0 f   rt_matrx.obj
 0001:0000c020       _rt_mxCreateDoubleMatrix   1000d020 f   rt_matrx.obj
 0001:0000c080       _rt_mxCreateNumericArray   1000d080 f   rt_matrx.obj
 0001:0000c100       _rt_mxCreateString         1000d100 f   rt_matrx.obj
 0001:0000c190       _rt_mxDuplicateArray       1000d190 f   rt_matrx.obj
 0001:0000c1f0       _rt_mxGetDimensions        1000d1f0 f   rt_matrx.obj
 0001:0000c230       _rt_mxGetEps               1000d230 f   rt_matrx.obj
 0001:0000c240       _rt_mxGetString            1000d240 f   rt_matrx.obj
 0001:0000c2c0       _rtIsInf                   1000d2c0 f   rt_nonfinite.obj
 0001:0000c300       _rtIsInfF                  1000d300 f   rt_nonfinite.obj
 0001:0000c340       _rtIsNaN                   1000d340 f   rt_nonfinite.obj
 0001:0000c360       _rtIsNaNF                  1000d360 f   rt_nonfinite.obj
 0001:0000c380       _rt_InitInfAndNaN          1000d380 f   rt_nonfinite.obj
 0001:0000c3e0       _rtPrintfNoOp              1000d3e0 f   rt_printf.obj
 0001:0000c3f0       _rt_ZCFcn                  1000d3f0 f   rt_zcfcn.obj
 0001:0000c4b0       _rtwCAPI_CountSysRan       1000d4b0 f   rtw_modelmap_utils.obj
 0001:0000c550       _rtwCAPI_EncodePath        1000d550 f   rtw_modelmap_utils.obj
 0001:0000c640       _rtwCAPI_FillSysRan        1000d640 f   rtw_modelmap_utils.obj
 0001:0000c730       _rtwCAPI_FreeFullPaths     1000d730 f   rtw_modelmap_utils.obj
 0001:0000c7c0       _rtwCAPI_GetFullStateBlockPath 1000d7c0 f   rtw_modelmap_utils.obj
 0001:0000c970       _rtwCAPI_GetNumContStateRecords 1000d970 f   rtw_modelmap_utils.obj
 0001:0000ca30       _rtwCAPI_GetNumSigLogRecords 1000da30 f   rtw_modelmap_utils.obj
 0001:0000ca80       _rtwCAPI_GetNumSigLogRecordsForRTWLogging 1000da80 f   rtw_modelmap_utils.obj
 0001:0000cb10       _rtwCAPI_GetNumStateRecords 1000db10 f   rtw_modelmap_utils.obj
 0001:0000cb60       _rtwCAPI_GetNumStateRecordsForRTWLogging 1000db60 f   rtw_modelmap_utils.obj
 0001:0000cbf0       _rtwCAPI_GetSigAddrFromMap 1000dbf0 f   rtw_modelmap_utils.obj
 0001:0000ccb0       _rtwCAPI_GetSigLogRecordInfo 1000dcb0 f   rtw_modelmap_utils.obj
 0001:0000d0e0       _rtwCAPI_GetStateRecordInfo 1000e0e0 f   rtw_modelmap_utils.obj
 0001:0000d590       _rtwCAPI_GetStateWidth     1000e590 f   rtw_modelmap_utils.obj
 0001:0000d5f0       _rtwCAPI_HasStates         1000e5f0 f   rtw_modelmap_utils.obj
 0001:0000d660       _rtwCAPI_UpdateFullPaths   1000e660 f   rtw_modelmap_utils.obj
 0001:0000d840       _DllMain@12                1000e840 f   xpctarget.obj
 0001:0000d850       _FingerStrokeAssistance_ChangeStepSize 1000e850 f   xpctarget.obj
 0001:0000d8a0       _SLRTSetErrorStatus        1000e8a0 f   xpctarget.obj
 0001:0000d8c0       _changeStepSize            1000e8c0 f   xpctarget.obj
 0001:0000d910       _getDLMVersion             1000e910 f   xpctarget.obj
 0001:0000d920       _getRefMdlPath             1000e920 f   xpctarget.obj
 0001:0000d9a0       _getRefMdlSignalNumber     1000e9a0 f   xpctarget.obj
 0001:0000da50       _getrlmdlinfo              1000ea50 f   xpctarget.obj
 0001:0000dc30       _updateDiscreteEvents      1000ec30 f   xpctarget.obj
 0001:0000dc40       _getNumRef                 1000ec40 f   appmappingData.obj
 0001:0000dc50       _encnipcim                 1000ec50 f   encnipcim.obj
 0001:0000e280       _danipcim                  1000f280 f   danipcim.obj
 0001:0000ea20       _adnipcim                  1000fa20 f   adnipcim.obj
 0001:0000f450       _niMIdentify               10010450 f   xpcionim.obj
 0001:0000f5d0       _niM_AISetup               100105d0 f   xpcionim.obj
 0001:0000f9e0       _niM_AO_Setup              100109e0 f   xpcionim.obj
 0001:0000fb70       _niM_Cont_Pulse_Train_Generation 10010b70 f   xpcionim.obj
 0001:0000fcb0       _niM_Counter_Reset_All     10010cb0 f   xpcionim.obj
 0001:0000fd60       _niM_CtrArm                10010d60 f   xpcionim.obj
 0001:0000fd80       _niM_CtrDisarm             10010d80 f   xpcionim.obj
 0001:0000fda0       _niM_CtrReadArm            10010da0 f   xpcionim.obj
 0001:0000fdc0       _niM_CtrReadDisarm         10010dc0 f   xpcionim.obj
 0001:0000fde0       _niM_PeriodConfigure       10010de0 f   xpcionim.obj
 0001:0000ff50       _niM_Private_Data          10010f50 f   xpcionim.obj
 0001:00010530       _niM_SetPFIFilter          10011530 f   xpcionim.obj
 0001:000105b0       _niM_SetPFI_DO             100115b0 f   xpcionim.obj
 0001:00010600       _niM_SetPFI_Select         10011600 f   xpcionim.obj
 0001:00010680       _niM_aiConfigureChannel    10011680 f   xpcionim.obj
 0001:000106f0       _niM_aiGetScalingCoefficients 100116f0 f   xpcionim.obj
 0001:000108d0       _niM_aiPolynomialScaler    100118d0 f   xpcionim.obj
 0001:000109f0       _niM_analogTriggerReset    100119f0 f   xpcionim.obj
 0001:00010a40       _niM_aoConfigureDAC        10011a40 f   xpcionim.obj
 0001:00010a90       _niM_aoGetScalingCoefficients 10011a90 f   xpcionim.obj
 0001:00010b40       _niM_aoLinearScaler        10011b40 f   xpcionim.obj
 0001:00010b70       _niM_configureTimebase     10011b70 f   xpcionim.obj
 0001:00010b90       _niM_eepromReadMSeries     10011b90 f   xpcionim.obj
 0001:00010c60       _niM_pllReset              10011c60 f   xpcionim.obj
 0001:00010c90       _niM_resetCtr              10011c90 f   xpcionim.obj
 0001:00010cb0       _niM_whichBank             10011cb0 f   xpcionim.obj
 0001:00010cf0       _niMconfig                 10011cf0 f   xpcionim.obj
 0001:00010d90       _GetPCIDeviceFull          10011d90 f   xpcruntime:xpcimports.obj
 0001:00010dc0       _ShowPCIDevice             10011dc0 f   xpcruntime:xpcimports.obj
 0001:00011430       _xpcGetPciConfigAtSlot     10012430 f   xpcruntime:xpcimports.obj
 0001:000116b0       _xpcInitProcs              100126b0 f   xpcruntime:xpcimports.obj
 0001:00012210       _xpceuploadevent           10013210 f   xpcruntime:xpcimports.obj
 0001:00012211       __heap_alloc               10013211 f i LIBCMT:malloc.obj
 0001:0001224e       _malloc                    1001324e f   LIBCMT:malloc.obj
 0001:000122e0       __get_printf_count_output  100132e0 f   LIBCMT:printf.obj
 0001:000122f5       __printf_l                 100132f5 f   LIBCMT:printf.obj
 0001:0001230c       __printf_p                 1001330c f   LIBCMT:printf.obj
 0001:00012322       __printf_p_l               10013322 f   LIBCMT:printf.obj
 0001:00012339       __printf_s_l               10013339 f   LIBCMT:printf.obj
 0001:00012350       __set_printf_count_output  10013350 f   LIBCMT:printf.obj
 0001:00012378       _printf                    10013378 f   LIBCMT:printf.obj
 0001:00012427       _printf_s                  10013427 f   LIBCMT:printf.obj
 0001:0001243d       ___libm_sse2_pow           1001343d f   LIBCMT:pow_sse2.obj
 0001:00012ec0       _ceil                      10013ec0 f   LIBCMT:ceil_pentium4.obj
 0001:00012f00       __ceil_pentium4            10013f00 f   LIBCMT:ceil_pentium4.obj
 0001:00012fe0       _memset                    10013fe0 f   LIBCMT:memset.obj
 0001:00013070       __fpmath                   10014070 f   LIBCMT:fpinit.obj
 0001:00013087       ___setfflag                10014087 f   LIBCMT:fpinit.obj
 0001:0001309a       __cfltcvt_init             1001409a f   LIBCMT:fpinit.obj
 0001:000130fa       ___raise_securityfailure   100140fa f   LIBCMT:gs_report.obj
 0001:00013137       ___report_gsfailure        10014137 f   LIBCMT:gs_report.obj
 0001:00013232       ___report_rangecheckfailure 10014232 f   LIBCMT:gs_report.obj
 0001:0001323e       ___report_securityfailure  1001423e f   LIBCMT:gs_report.obj
 0001:0001330e       ___report_securityfailureEx 1001430e f   LIBCMT:gs_report.obj
 0001:00013424       ___copy_path_to_wide_string 10014424 f   LIBCMT:crt0dat.obj
 0001:000134d6       ___copy_to_char            100144d6 f   LIBCMT:crt0dat.obj
 0001:0001358b       ___crtCorExitProcess       1001458b f   LIBCMT:crt0dat.obj
 0001:000135bf       ___crtExitProcess          100145bf f   LIBCMT:crt0dat.obj
 0001:000135d5       ___freeCrtMemory           100145d5 f   LIBCMT:crt0dat.obj
 0001:000136e2       __amsg_exit                100146e2 f   LIBCMT:crt0dat.obj
 0001:000136fe       __c_exit                   100146fe f   LIBCMT:crt0dat.obj
 0001:0001370d       __cexit                    1001470d f   LIBCMT:crt0dat.obj
 0001:0001371c       __cinit                    1001471c f   LIBCMT:crt0dat.obj
 0001:000137a0       __exit                     100147a0 f   LIBCMT:crt0dat.obj
 0001:000137b4       __exit_app                 100147b4 f   LIBCMT:crt0dat.obj
 0001:000137c2       __get_pgmptr               100147c2 f   LIBCMT:crt0dat.obj
 0001:000137f1       __get_wpgmptr              100147f1 f   LIBCMT:crt0dat.obj
 0001:00013820       __init_pointers            10014820 f   LIBCMT:crt0dat.obj
 0001:0001388e       __initterm_e               1001488e f   LIBCMT:crt0dat.obj
 0001:000138b0       __lockexit                 100148b0 f   LIBCMT:crt0dat.obj
 0001:000138b9       __unlockexit               100148b9 f   LIBCMT:crt0dat.obj
 0001:000139f1       _exit                      100149f1 f   LIBCMT:crt0dat.obj
 0001:00013a05       _calloc                    10014a05 f   LIBCMT:calloc.obj
 0001:00013a45       _free                      10014a45 f   LIBCMT:free.obj
 0001:00013a7d       _realloc                   10014a7d f   LIBCMT:realloc.obj
 0001:00013b30       _memmove                   10014b30 f   LIBCMT:memmove.obj
 0001:00014180       _strchr                    10015180 f   LIBCMT:strchr.obj
 0001:000141ee       ___from_strstr_to_strchr   100151ee     LIBCMT:strchr.obj
 0001:000142b0       _strncat                   100152b0 f   LIBCMT:strncat.obj
 0001:000143f0       _strncpy                   100153f0 f   LIBCMT:strncpy.obj
 0001:00014514       ___initstdio               10015514 f   LIBCMT:_file.obj
 0001:00014587       ___endstdio                10015587 f   LIBCMT:_file.obj
 0001:000145ae       ___iob_func                100155ae f   LIBCMT:_file.obj
 0001:000145b4       __lock_file                100155b4 f   LIBCMT:_file.obj
 0001:000145f3       __lock_file2               100155f3 f   LIBCMT:_file.obj
 0001:00014623       __unlock_file              10015623 f   LIBCMT:_file.obj
 0001:0001465d       __unlock_file2             1001565d f   LIBCMT:_file.obj
 0001:0001468a       __fclose_nolock            1001568a f   LIBCMT:fclose.obj
 0001:000146f6       _fclose                    100156f6 f   LIBCMT:fclose.obj
 0001:0001476d       __fsopen                   1001576d f   LIBCMT:fopen.obj
 0001:00014831       _fopen                     10015831 f   LIBCMT:fopen.obj
 0001:00014846       _fopen_s                   10015846 f   LIBCMT:fopen.obj
 0001:0001488b       __fprintf_l                1001588b f   LIBCMT:fprintf.obj
 0001:000148a5       __fprintf_p                100158a5 f   LIBCMT:fprintf.obj
 0001:000148be       __fprintf_p_l              100158be f   LIBCMT:fprintf.obj
 0001:000148d8       __fprintf_s_l              100158d8 f   LIBCMT:fprintf.obj
 0001:000148f2       _fprintf                   100158f2 f   LIBCMT:fprintf.obj
 0001:00014a04       _fprintf_s                 10015a04 f   LIBCMT:fprintf.obj
 0001:00014a1d       __fread_nolock             10015a1d f   LIBCMT:fread.obj
 0001:00014a38       __fread_nolock_s           10015a38 f   LIBCMT:fread.obj
 0001:00014bfd       _fread                     10015bfd f   LIBCMT:fread.obj
 0001:00014c18       _fread_s                   10015c18 f   LIBCMT:fread.obj
 0001:00014ca9       __fwrite_nolock            10015ca9 f   LIBCMT:fwrite.obj
 0001:00014e02       _fwrite                    10015e02 f   LIBCMT:fwrite.obj
 0001:00014e84       __unlink                   10015e84 f   LIBCMT:unlink.obj
 0001:00014e8d       _remove                    10015e8d f   LIBCMT:unlink.obj
 0001:00014ecf       _rewind                    10015ecf f   LIBCMT:rewind.obj
 0001:00014f8e       __scprintf                 10015f8e f   LIBCMT:sprintf.obj
 0001:00014fa1       __scprintf_l               10015fa1 f   LIBCMT:sprintf.obj
 0001:00014fb8       __scprintf_p               10015fb8 f   LIBCMT:sprintf.obj
 0001:00014fcb       __scprintf_p_l             10015fcb f   LIBCMT:sprintf.obj
 0001:00014fe2       __snprintf_s               10015fe2 f   LIBCMT:sprintf.obj
 0001:00015001       __snprintf_s_l             10016001 f   LIBCMT:sprintf.obj
 0001:00015021       __sprintf_l                10016021 f   LIBCMT:sprintf.obj
 0001:0001503b       __sprintf_p                1001603b f   LIBCMT:sprintf.obj
 0001:00015057       __sprintf_p_l              10016057 f   LIBCMT:sprintf.obj
 0001:00015074       __sprintf_s_l              10016074 f   LIBCMT:sprintf.obj
 0001:00015091       _sprintf                   10016091 f   LIBCMT:sprintf.obj
 0001:00015115       _sprintf_s                 10016115 f   LIBCMT:sprintf.obj
 0001:00015131       _ldexp                     10016131 f   LIBCMT:ldexp.obj
 0001:0001531d       @__security_check_cookie@4 1001631d f   LIBCMT:secchk.obj
 0001:00015330       __ftoui3                   10016330 f   LIBCMT:ftol3.obj
 0001:0001533f       __ftoul3                   1001633f f   LIBCMT:ftol3.obj
 0001:0001534e       __ftol3                    1001634e f   LIBCMT:ftol3.obj
 0001:0001535b       __ftol3_NaN                1001635b f   LIBCMT:ftol3.obj
 0001:00015373       __ftol3_work               10016373 f   LIBCMT:ftol3.obj
 0001:000153f9       __ftol3_common             100163f9 f   LIBCMT:ftol3.obj
 0001:000154bb       __ftol3_arg_error          100164bb f   LIBCMT:ftol3.obj
 0001:000154cd       __ftol3_except             100164cd f   LIBCMT:ftol3.obj
 0001:0001550f       __dtoui3                   1001650f f   LIBCMT:ftol3.obj
 0001:0001551e       __dtoul3                   1001651e f   LIBCMT:ftol3.obj
 0001:0001552d       __dtol3                    1001652d f   LIBCMT:ftol3.obj
 0001:0001553a       __dtol3_NaN                1001653a f   LIBCMT:ftol3.obj
 0001:00015557       __dtol3_work               10016557 f   LIBCMT:ftol3.obj
 0001:0001563c       __ultod3                   1001663c f   LIBCMT:ftol3.obj
 0001:000156cd       __ltod3                    100166cd f   LIBCMT:ftol3.obj
 0001:00015700       _memcpy                    10016700 f   LIBCMT:memcpy.obj
 0001:00015d44       ___isa_available_init      10016d44 f   LIBCMT:cpu_disp.obj
 0001:00015ebd       __invoke_watson_if_error   10016ebd f i LIBCMT:wassert.obj
 0001:00015edd       __wassert                  10016edd f   LIBCMT:wassert.obj
 0001:00016581       __CRT_INIT@12              10017581 f   LIBCMT:dllcrt0.obj
 0001:000166f3       __DllMainCRTStartup@12     100176f3 f   LIBCMT:dllcrt0.obj
 0001:00016824       ___DllXcptFilter           10017824 f   LIBCMT:dllcrt0.obj
 0001:00016849       ?_query_new_handler@@YAP6AHI@ZXZ 10017849 f   LIBCMT:handler.obj
 0001:00016856       ?_set_new_handler@@YAP6AHI@ZH@Z 10017856 f   LIBCMT:handler.obj
 0001:0001685f       ?_set_new_handler@@YAP6AHI@ZP6AHI@Z@Z 1001785f f   LIBCMT:handler.obj
 0001:00016894       __callnewh                 10017894 f   LIBCMT:handler.obj
 0001:000168ba       __initp_heap_handler       100178ba f   LIBCMT:handler.obj
 0001:000168c7       __FF_MSGBANNER             100178c7 f   LIBCMT:crt0msg.obj
 0001:00016900       __GET_RTERRMSG             10017900 f   LIBCMT:crt0msg.obj
 0001:00016924       __NMSG_WRITE               10017924 f   LIBCMT:crt0msg.obj
 0001:00016ae1       ___doserrno                10017ae1 f   LIBCMT:dosmap.obj
 0001:00016af4       __dosmaperr                10017af4 f   LIBCMT:dosmap.obj
 0001:00016b15       __errno                    10017b15 f   LIBCMT:dosmap.obj
 0001:00016b28       __get_doserrno             10017b28 f   LIBCMT:dosmap.obj
 0001:00016b4b       __get_errno                10017b4b f   LIBCMT:dosmap.obj
 0001:00016b6e       __get_errno_from_oserr     10017b6e f   LIBCMT:dosmap.obj
 0001:00016baf       __set_doserrno             10017baf f   LIBCMT:dosmap.obj
 0001:00016bce       __set_errno                10017bce f   LIBCMT:dosmap.obj
 0001:00016bed       __get_heap_handle          10017bed f   LIBCMT:heapinit.obj
 0001:00016bf3       __heap_init                10017bf3 f   LIBCMT:heapinit.obj
 0001:00016c08       __heap_term                10017c08 f   LIBCMT:heapinit.obj
 0001:00016c10       ?_invalid_parameter@@YAXPBG00II@Z 10017c10 f   LIBCMT:invarg.obj
 0001:00016c15       ?_invoke_watson@@YAXPBG00II@Z 10017c15 f   LIBCMT:invarg.obj
 0001:00016c2d       __call_reportfault         10017c2d f   LIBCMT:invarg.obj
 0001:00016d52       __get_invalid_parameter_handler 10017d52 f   LIBCMT:invarg.obj
 0001:00016d5f       __initp_misc_invarg        10017d5f f   LIBCMT:invarg.obj
 0001:00016d6c       __invalid_parameter        10017d6c f   LIBCMT:invarg.obj
 0001:00016d97       __invalid_parameter_noinfo 10017d97 f   LIBCMT:invarg.obj
 0001:00016da7       __invalid_parameter_noinfo_noreturn 10017da7 f   LIBCMT:invarg.obj
 0001:00016dc2       __invoke_watson            10017dc2 f   LIBCMT:invarg.obj
 0001:00016ded       __set_invalid_parameter_handler 10017ded f   LIBCMT:invarg.obj
 0001:00016e12       __vprintf_l                10017e12 f   LIBCMT:vprintf.obj
 0001:00016e2d       __vprintf_p                10017e2d f   LIBCMT:vprintf.obj
 0001:00016e47       __vprintf_p_l              10017e47 f   LIBCMT:vprintf.obj
 0001:00016e62       __vprintf_s_l              10017e62 f   LIBCMT:vprintf.obj
 0001:00016e7d       _vprintf                   10017e7d f   LIBCMT:vprintf.obj
 0001:00016e97       _vprintf_helper            10017e97 f   LIBCMT:vprintf.obj
 0001:00016f24       _vprintf_s                 10017f24 f   LIBCMT:vprintf.obj
 0001:00016f3e       __ftbuf                    10017f3e f   LIBCMT:_sftbuf.obj
 0001:00016f6f       __stbuf                    10017f6f f   LIBCMT:_sftbuf.obj
 0001:00017015       ??0_LocaleUpdate@@QAE@PAUlocaleinfo_struct@@@Z 10018015 f i LIBCMT:output.obj
 0001:0001709d       ??1_LocaleUpdate@@QAE@XZ   1001809d f i LIBCMT:output.obj
 0001:000170ab       ?GetLocaleT@_LocaleUpdate@@QAEPAUlocaleinfo_struct@@XZ 100180ab f i LIBCMT:output.obj
 0001:000170ae       __output_l                 100180ae f   LIBCMT:output.obj
 0001:00017c2e       _get_int64_arg             10018c2e f i LIBCMT:output.obj
 0001:00017c41       _get_int_arg               10018c41 f i LIBCMT:output.obj
 0001:00017c51       _get_short_arg             10018c51 f i LIBCMT:output.obj
 0001:00017d50       __SEH_prolog4              10018d50 f   LIBCMT:sehprolg4.obj
 0001:00017d95       __SEH_epilog4              10018d95 f   LIBCMT:sehprolg4.obj
 0001:00017df0       __except_handler4          10018df0 f   LIBCMT:chandler4.obj
 0001:00017f84       ___libm_error_support      10018f84 f   LIBCMT:libm_error.obj
 0001:0001826c       ___libm_setusermatherr     1001926c f   LIBCMT:libm_error.obj
 0001:00018298       __sse2_mathfcns_init       10019298 f   LIBCMT:mathfcns.obj
 0001:000182a7       __set_SSE2_enable          100192a7 f   LIBCMT:mathfcns.obj
 0001:000182c6       __ceil_default             100192c6 f   LIBCMT:ceil.obj
 0001:0001839d       __VEC_memset               1001939d f   LIBCMT:p4_memset.obj
 0001:00018465       ?strrchr@@YAPADPADH@Z      10019465 f i LIBCMT:cvt.obj
 0001:0001846e       __cfltcvt                  1001946e f   LIBCMT:cvt.obj
 0001:0001848f       __cfltcvt_l                1001948f f   LIBCMT:cvt.obj
 0001:00018515       __cftoa                    10019515 f   LIBCMT:cvt.obj
 0001:00018533       __cftoa_l                  10019533 f   LIBCMT:cvt.obj
 0001:0001888f       __cftoe                    1001988f f   LIBCMT:cvt.obj
 0001:000189fe       __cftoe_l                  100199fe f   LIBCMT:cvt.obj
 0001:00018acc       __cftof                    10019acc f   LIBCMT:cvt.obj
 0001:00018bd3       __cftof_l                  10019bd3 f   LIBCMT:cvt.obj
 0001:00018c94       __cftog                    10019c94 f   LIBCMT:cvt.obj
 0001:00018cb2       __cftog_l                  10019cb2 f   LIBCMT:cvt.obj
 0001:00018db1       __cropzeros                10019db1 f   LIBCMT:cvt.obj
 0001:00018dc2       __cropzeros_l              10019dc2 f   LIBCMT:cvt.obj
 0001:00018e42       __fassign                  10019e42 f   LIBCMT:cvt.obj
 0001:00018e5a       __fassign_l                10019e5a f   LIBCMT:cvt.obj
 0001:00018e9c       __forcdecpt                10019e9c f   LIBCMT:cvt.obj
 0001:00018ead       __forcdecpt_l              10019ead f   LIBCMT:cvt.obj
 0001:00018f21       __positive                 10019f21 f   LIBCMT:cvt.obj
 0001:00018f63       __setdefaultprecision      10019f63 f   LIBCMT:fp8.obj
 0001:00018f8a       __initp_misc_cfltcvt_tab   10019f8a f   LIBCMT:cmiscdat.obj
 0001:00018fa9       __crt_debugger_hook        10019fa9 f   LIBCMT:dbghook.obj
 0001:00018fde       ___crtCloseThreadpoolTimer 10019fde f   LIBCMT:winapisupp.obj
 0001:00018ff5       ___crtCloseThreadpoolWait  10019ff5 f   LIBCMT:winapisupp.obj
 0001:0001900c       ___crtCreateEventExW       1001a00c f   LIBCMT:winapisupp.obj
 0001:00019047       ___crtCreateSemaphoreExW   1001a047 f   LIBCMT:winapisupp.obj
 0001:00019081       ___crtCreateSymbolicLinkW  1001a081 f   LIBCMT:winapisupp.obj
 0001:000190aa       ___crtCreateThreadpoolTimer 1001a0aa f   LIBCMT:winapisupp.obj
 0001:000190cb       ___crtCreateThreadpoolWait 1001a0cb f   LIBCMT:winapisupp.obj
 0001:000190ec       ___crtFlsAlloc             1001a0ec f   LIBCMT:winapisupp.obj
 0001:0001910a       ___crtFlsFree              1001a10a f   LIBCMT:winapisupp.obj
 0001:00019129       ___crtFlsGetValue          1001a129 f   LIBCMT:winapisupp.obj
 0001:00019148       ___crtFlsSetValue          1001a148 f   LIBCMT:winapisupp.obj
 0001:0001916a       ___crtFlushProcessWriteBuffers 1001a16a f   LIBCMT:winapisupp.obj
 0001:0001917a       ___crtFreeLibraryWhenCallbackReturns 1001a17a f   LIBCMT:winapisupp.obj
 0001:00019194       ___crtGetCurrentProcessorNumber 1001a194 f   LIBCMT:winapisupp.obj
 0001:000191a6       ___crtGetFileInformationByHandleEx 1001a1a6 f   LIBCMT:winapisupp.obj
 0001:000191d2       ___crtGetLogicalProcessorInformation 1001a1d2 f   LIBCMT:winapisupp.obj
 0001:000191f8       ___crtGetShowWindowMode    1001a1f8 f   LIBCMT:winapisupp.obj
 0001:0001921b       ___crtGetTickCount64       1001a21b f   LIBCMT:winapisupp.obj
 0001:00019233       ___crtInitializeCriticalSectionEx 1001a233 f   LIBCMT:winapisupp.obj
 0001:00019261       ___crtIsPackagedApp        1001a261 f   LIBCMT:winapisupp.obj
 0001:000192a1       ___crtLoadWinApiPointers   1001a2a1 f   LIBCMT:winapisupp.obj
 0001:0001952c       ___crtSetFileInformationByHandle 1001a52c f   LIBCMT:winapisupp.obj
 0001:00019558       ___crtSetThreadStackGuarantee 1001a558 f   LIBCMT:winapisupp.obj
 0001:00019573       ___crtSetThreadpoolTimer   1001a573 f   LIBCMT:winapisupp.obj
 0001:00019593       ___crtSetThreadpoolWait    1001a593 f   LIBCMT:winapisupp.obj
 0001:000195b0       ___crtSetUnhandledExceptionFilter 1001a5b0 f   LIBCMT:winapisupp.obj
 0001:000195be       ___crtSleep                1001a5be f   LIBCMT:winapisupp.obj
 0001:000195cc       ___crtTerminateProcess     1001a5cc f   LIBCMT:winapisupp.obj
 0001:000195e1       ___crtUnhandledException   1001a5e1 f   LIBCMT:winapisupp.obj
 0001:000195f7       ___crtWaitForThreadpoolTimerCallbacks 1001a5f7 f   LIBCMT:winapisupp.obj
 0001:00019611       __RTC_Initialize           1001a611 f   LIBCMT:initsect.obj
 0001:00019631       __RTC_Terminate            1001a631 f   LIBCMT:initsect.obj
 0001:00019651       __lock                     1001a651 f   LIBCMT:mlock.obj
 0001:00019685       __lockerr_exit             1001a685 f   LIBCMT:mlock.obj
 0001:000196a5       __mtdeletelocks            1001a6a5 f   LIBCMT:mlock.obj
 0001:000196f9       __mtinitlocknum            1001a6f9 f   LIBCMT:mlock.obj
 0001:000197a2       __mtinitlocks              1001a7a2 f   LIBCMT:mlock.obj
 0001:000197db       __unlock                   1001a7db f   LIBCMT:mlock.obj
 0001:000197f0       __FindPESection            1001a7f0 f   LIBCMT:pesect.obj
 0001:00019840       __IsNonwritableInCurrentImage 1001a840 f   LIBCMT:pesect.obj
 0001:00019900       __ValidateImageBase        1001a900 f   LIBCMT:pesect.obj
 0001:00019931       ___onexitinit              1001a931 f   LIBCMT:onexit.obj
 0001:00019960       __onexit                   1001a960 f   LIBCMT:onexit.obj
 0001:00019a5c       _atexit                    1001aa5c f   LIBCMT:onexit.obj
 0001:00019a71       __calloc_crt               1001aa71 f   LIBCMT:crtheap.obj
 0001:00019ab9       __malloc_crt               1001aab9 f   LIBCMT:crtheap.obj
 0001:00019b00       __realloc_crt              1001ab00 f   LIBCMT:crtheap.obj
 0001:00019b4a       __recalloc_crt             1001ab4a f   LIBCMT:crtheap.obj
 0001:00019b98       __set_malloc_crt_max_wait  1001ab98 f   LIBCMT:crtheap.obj
 0001:00019bab       _wait_a_bit                1001abab f i LIBCMT:crtheap.obj
 0001:00019bcf       ?_inconsistency@@YAXXZ     1001abcf f   LIBCMT:hooks.obj
 0001:00019c07       ?terminate@@YAXXZ          1001ac07 f   LIBCMT:hooks.obj
 0001:00019c3b       ?unexpected@@YAXXZ         1001ac3b f   LIBCMT:hooks.obj
 0001:00019c4e       __initp_eh_hooks           1001ac4e f   LIBCMT:hooks.obj
 0001:00019c5f       ___getlocaleinfo           1001ac5f f   LIBCMT:inithelp.obj
 0001:00019e38       __initp_misc_purevirt      1001ae38 f   LIBCMT:inithelp.obj
 0001:00019e45       ___fpecode                 1001ae45 f   LIBCMT:winsig.obj
 0001:00019e4e       ___get_sigabrt             1001ae4e f   LIBCMT:winsig.obj
 0001:00019e5b       ___pxcptinfoptrs           1001ae5b f   LIBCMT:winsig.obj
 0001:00019e64       __initp_misc_winsig        1001ae64 f   LIBCMT:winsig.obj
 0001:00019f25       _raise                     1001af25 f   LIBCMT:winsig.obj
 0001:0001a11a       _signal                    1001b11a f   LIBCMT:winsig.obj
 0001:0001a371       __initp_misc_rand_s        1001b371 f   LIBCMT:rand_s.obj
 0001:0001a37e       _rand_s                    1001b37e f   LIBCMT:rand_s.obj
 0001:0001a484       ___initmbctable            1001b484 f   LIBCMT:mbctype.obj
 0001:0001a73b       ___updatetmbcinfo          1001b73b f   LIBCMT:mbctype.obj
 0001:0001a7e1       __getmbcp                  1001b7e1 f   LIBCMT:mbctype.obj
 0001:0001a812       __setmbcp                  1001b812 f   LIBCMT:mbctype.obj
 0001:0001a9ba       __setmbcp_nolock           1001b9ba f   LIBCMT:mbctype.obj
 0001:0001aba5       __calloc_impl              1001bba5 f   LIBCMT:calloc_impl.obj
 0001:0001ac1f       __fcloseall                1001bc1f f   LIBCMT:closeall.obj
 0001:0001acbc       __fflush_nolock            1001bcbc f   LIBCMT:fflush.obj
 0001:0001ad02       __flush                    1001bd02 f   LIBCMT:fflush.obj
 0001:0001ad66       __flushall                 1001bd66 f   LIBCMT:fflush.obj
 0001:0001ad6f       _fflush                    1001bd6f f   LIBCMT:fflush.obj
 0001:0001aeac       __fileno                   1001beac f   LIBCMT:fileno.obj
 0001:0001aed0       __close                    1001bed0 f   LIBCMT:close.obj
 0001:0001afab       __close_nolock             1001bfab f   LIBCMT:close.obj
 0001:0001b045       __freebuf                  1001c045 f   LIBCMT:_freebuf.obj
 0001:0001b075       __getstream                1001c075 f   LIBCMT:stream.obj
 0001:0001b194       __openfile                 1001c194 f   LIBCMT:_open.obj
 0001:0001b410       __local_unwind4            1001c410 f   LIBCMT:exsup4.obj
 0001:0001b4e6       __seh_longjmp_unwind4@4    1001c4e6 f   LIBCMT:exsup4.obj
 0001:0001b502       @_EH4_CallFilterFunc@8     1001c502 f   LIBCMT:exsup4.obj
 0001:0001b519       @_EH4_TransferToHandler@8  1001c519 f   LIBCMT:exsup4.obj
 0001:0001b532       @_EH4_GlobalUnwind2@8      1001c532 f   LIBCMT:exsup4.obj
 0001:0001b54b       @_EH4_LocalUnwind@16       1001c54b f   LIBCMT:exsup4.obj
 0001:0001b562       __vfprintf_l               1001c562 f   LIBCMT:vfprintf.obj
 0001:0001b580       __vfprintf_p               1001c580 f   LIBCMT:vfprintf.obj
 0001:0001b59d       __vfprintf_p_l             1001c59d f   LIBCMT:vfprintf.obj
 0001:0001b5bb       __vfprintf_s_l             1001c5bb f   LIBCMT:vfprintf.obj
 0001:0001b5d9       _vfprintf                  1001c5d9 f   LIBCMT:vfprintf.obj
 0001:0001b5f6       _vfprintf_helper           1001c5f6 f   LIBCMT:vfprintf.obj
 0001:0001b707       _vfprintf_s                1001c707 f   LIBCMT:vfprintf.obj
 0001:0001b724       __ioinit                   1001c724 f   LIBCMT:ioinit.obj
 0001:0001b9d8       __ioterm                   1001c9d8 f   LIBCMT:ioinit.obj
 0001:0001ba2a       __filbuf                   1001ca2a f   LIBCMT:_filbuf.obj
 0001:0001bb4b       _memcpy_s                  1001cb4b f   LIBCMT:memcpy_s.obj
 0001:0001bbca       __read                     1001cbca f   LIBCMT:read.obj
 0001:0001bcde       __read_nolock              1001ccde f   LIBCMT:read.obj
 0001:0001c46f       __flsbuf                   1001d46f f   LIBCMT:_flsbuf.obj
 0001:0001c5be       __write                    1001d5be f   LIBCMT:write.obj
 0001:0001c6ad       __write_nolock             1001d6ad f   LIBCMT:write.obj
 0001:0001cf12       __wremove                  1001df12 f   LIBCMT:wunlink.obj
 0001:0001cf40       __wunlink                  1001df40 f   LIBCMT:wunlink.obj
 0001:0001cf49       __lseek                    1001df49 f   LIBCMT:lseek.obj
 0001:0001d038       __lseek_nolock             1001e038 f   LIBCMT:lseek.obj
 0001:0001d0df       __vscprintf                1001e0df f   LIBCMT:vsprintf.obj
 0001:0001d0f9       __vscprintf_helper         1001e0f9 f   LIBCMT:vsprintf.obj
 0001:0001d155       __vscprintf_l              1001e155 f   LIBCMT:vsprintf.obj
 0001:0001d170       __vscprintf_p              1001e170 f   LIBCMT:vsprintf.obj
 0001:0001d18a       __vscprintf_p_l            1001e18a f   LIBCMT:vsprintf.obj
 0001:0001d1a5       __vsprintf_l               1001e1a5 f   LIBCMT:vsprintf.obj
 0001:0001d229       _vsprintf                  1001e229 f   LIBCMT:vsprintf.obj
 0001:0001d241       __vsnprintf_c              1001e241 f   LIBCMT:vsnprnc.obj
 0001:0001d268       __vsnprintf_c_l            1001e268 f   LIBCMT:vsnprnc.obj
 0001:0001d290       __vsnprintf_helper         1001e290 f   LIBCMT:vsnprnc.obj
 0001:0001d35a       __vsnprintf_s              1001e35a f   LIBCMT:vsnprnc.obj
 0001:0001d378       __vsnprintf_s_l            1001e378 f   LIBCMT:vsnprnc.obj
 0001:0001d478       __vsprintf_p               1001e478 f   LIBCMT:vsnprnc.obj
 0001:0001d49f       __vsprintf_p_l             1001e49f f   LIBCMT:vsnprnc.obj
 0001:0001d4c7       __vsprintf_s_l             1001e4c7 f   LIBCMT:vsnprnc.obj
 0001:0001d53c       _vsprintf_s                1001e53c f   LIBCMT:vsnprnc.obj
 0001:0001d557       __chgsign                  1001e557 f   LIBCMT:ieeemisc.obj
 0001:0001d584       __chgsignf                 1001e584 f   LIBCMT:ieeemisc.obj
 0001:0001d5a5       __copysign                 1001e5a5 f   LIBCMT:ieeemisc.obj
 0001:0001d5cd       __copysignf                1001e5cd f   LIBCMT:ieeemisc.obj
 0001:0001d5e9       __finite                   1001e5e9 f   LIBCMT:ieeemisc.obj
 0001:0001d601       __fpclass                  1001e601 f   LIBCMT:ieeemisc.obj
 0001:0001d69d       __isnan                    1001e69d f   LIBCMT:ieeemisc.obj
 0001:0001d6d0       __logb                     1001e6d0 f   LIBCMT:ieeemisc.obj
 0001:0001d7b1       __nextafter                1001e7b1 f   LIBCMT:ieeemisc.obj
 0001:0001da51       __scalb                    1001ea51 f   LIBCMT:ieeemisc.obj
 0001:0001da69       __add_exp                  1001ea69 f   LIBCMT:util.obj
 0001:0001da98       __decomp                   1001ea98 f   LIBCMT:util.obj
 0001:0001db6a       __get_exp                  1001eb6a f   LIBCMT:util.obj
 0001:0001db83       __set_bexp                 1001eb83 f   LIBCMT:util.obj
 0001:0001dbac       __set_exp                  1001ebac f   LIBCMT:util.obj
 0001:0001dbdb       __sptype                   1001ebdb f   LIBCMT:util.obj
 0001:0001dc36       __errcode                  1001ec36 f   LIBCMT:fpexcept.obj
 0001:0001dc68       __except1                  1001ec68 f   LIBCMT:fpexcept.obj
 0001:0001dd30       __except2                  1001ed30 f   LIBCMT:fpexcept.obj
 0001:0001de30       __handle_exc               1001ee30 f   LIBCMT:fpexcept.obj
 0001:0001e00e       __handle_qnan1             1001f00e f   LIBCMT:fpexcept.obj
 0001:0001e05e       __handle_qnan2             1001f05e f   LIBCMT:fpexcept.obj
 0001:0001e0be       __raise_exc                1001f0be f   LIBCMT:fpexcept.obj
 0001:0001e0df       __raise_exc_ex             1001f0df f   LIBCMT:fpexcept.obj
 0001:0001e3c4       __raise_excf               1001f3c4 f   LIBCMT:fpexcept.obj
 0001:0001e3e5       __set_errno_from_matherr   1001f3e5 f   LIBCMT:fpexcept.obj
 0001:0001e412       __umatherr                 1001f412 f   LIBCMT:fpexcept.obj
 0001:0001e4b2       ___clrfp_sse2              1001f4b2 f   LIBCMT:fpctrl.obj
 0001:0001e4d3       ___ctrlfp_sse2             1001f4d3 f   LIBCMT:fpctrl.obj
 0001:0001e50c       ___fclrf_sse2              1001f50c f   LIBCMT:fpctrl.obj
 0001:0001e529       ___get_fpsr_sse2           1001f529 f   LIBCMT:fpctrl.obj
 0001:0001e545       ___set_fpsr_sse2           1001f545 f   LIBCMT:fpctrl.obj
 0001:0001e5bb       ___set_statfp_sse2         1001f5bb f   LIBCMT:fpctrl.obj
 0001:0001e5d4       ___statfp_sse2             1001f5d4 f   LIBCMT:fpctrl.obj
 0001:0001e5e9       __clrfp                    1001f5e9 f   LIBCMT:fpctrl.obj
 0001:0001e5fa       __ctrlfp                   1001f5fa f   LIBCMT:fpctrl.obj
 0001:0001e625       __set_statfp               1001f625 f   LIBCMT:fpctrl.obj
 0001:0001e67d       __statfp                   1001f67d f   LIBCMT:fpctrl.obj
 0001:0001e68d       _wcscat_s                  1001f68d f   LIBCMT:wcscat_s.obj
 0001:0001e6f9       _wcscpy_s                  1001f6f9 f   LIBCMT:wcscpy_s.obj
 0001:0001e755       _wcslen                    1001f755 f   LIBCMT:wcslen.obj
 0001:0001e76e       _wcsncat_s                 1001f76e f   LIBCMT:wcsncat_s.obj
 0001:0001e83c       __set_abort_behavior       1001f83c f   LIBCMT:abort.obj
 0001:0001e85b       _abort                     1001f85b f   LIBCMT:abort.obj
 0001:0001e89e       ___set_app_type            1001f89e f   LIBCMT:errmode.obj
 0001:0001e8ab       __set_error_mode           1001f8ab f   LIBCMT:errmode.obj
 0001:0001ea07       __i64tow_s                 1001fa07 f   LIBCMT:xtows.obj
 0001:0001ea38       __itow_s                   1001fa38 f   LIBCMT:xtows.obj
 0001:0001ea61       __ltow_s                   1001fa61 f   LIBCMT:xtows.obj
 0001:0001ea8b       __ui64tow_s                1001fa8b f   LIBCMT:xtows.obj
 0001:0001eaa6       __ultow_s                  1001faa6 f   LIBCMT:xtows.obj
 0001:0001ebb1       _setvbuf                   1001fbb1 f   LIBCMT:setvbuf.obj
 0001:0001ecb7       __fwprintf_l               1001fcb7 f   LIBCMT:fwprintf.obj
 0001:0001ecd1       __fwprintf_p               1001fcd1 f   LIBCMT:fwprintf.obj
 0001:0001ecea       __fwprintf_p_l             1001fcea f   LIBCMT:fwprintf.obj
 0001:0001ed04       __fwprintf_s_l             1001fd04 f   LIBCMT:fwprintf.obj
 0001:0001ed1e       _fwprintf                  1001fd1e f   LIBCMT:fwprintf.obj
 0001:0001edb2       _fwprintf_s                1001fdb2 f   LIBCMT:fwprintf.obj
 0001:0001edcb       __vsnwprintf_s             1001fdcb f   LIBCMT:vswprnc.obj
 0001:0001ede9       __vsnwprintf_s_l           1001fde9 f   LIBCMT:vswprnc.obj
 0001:0001eeed       __vswprintf_c              1001feed f   LIBCMT:vswprnc.obj
 0001:0001ef14       __vswprintf_c_l            1001ff14 f   LIBCMT:vswprnc.obj
 0001:0001ef3c       __vswprintf_helper         1001ff3c f   LIBCMT:vswprnc.obj
 0001:0001f037       __vswprintf_p              10020037 f   LIBCMT:vswprnc.obj
 0001:0001f05e       __vswprintf_p_l            1002005e f   LIBCMT:vswprnc.obj
 0001:0001f086       __vswprintf_s_l            10020086 f   LIBCMT:vswprnc.obj
 0001:0001f0fd       _vswprintf_s               100200fd f   LIBCMT:vswprnc.obj
 0001:0001f118       ___crtMessageBoxW          10020118 f   LIBCMT:crtmboxw.obj
 0001:0001f2fe       ___crtMessageBoxWaitThreadW@4 100202fe f   LIBCMT:crtmboxw.obj
 0001:0001f31c       __XcptFilter               1002031c f   LIBCMT:winxfltr.obj
 0001:0001f477       ___CppXcptFilter           10020477 f   LIBCMT:winxfltr.obj
 0001:0001f4c9       ___get_flsindex            100204c9 f   LIBCMT:tidtable.obj
 0001:0001f4cf       ___threadhandle            100204cf f   LIBCMT:tidtable.obj
 0001:0001f4d5       ___threadid                100204d5 f   LIBCMT:tidtable.obj
 0001:0001f4db       __freefls@4                100204db f   LIBCMT:tidtable.obj
 0001:0001f610       __freeptd                  10020610 f   LIBCMT:tidtable.obj
 0001:0001f646       __getptd                   10020646 f   LIBCMT:tidtable.obj
 0001:0001f65e       __getptd_noexit            1002065e f   LIBCMT:tidtable.obj
 0001:0001f6cd       __initptd                  100206cd f   LIBCMT:tidtable.obj
 0001:0001f780       __mtinit                   10020780 f   LIBCMT:tidtable.obj
 0001:0001f7f6       __mtterm                   100207f6 f   LIBCMT:tidtable.obj
 0001:0001f813       __set_pgmptr               10020813 f i LIBCMT:stdargv.obj
 0001:0001f820       __setargv                  10020820 f   LIBCMT:stdargv.obj
 0001:0001fa4f       __setenvp                  10020a4f f   LIBCMT:stdenvp.obj
 0001:0001fb30       ___security_init_cookie    10020b30 f   LIBCMT:gs_support.obj
 0001:0001fbcc       ___crtGetEnvironmentStringsA 10020bcc f   LIBCMT:a_env.obj
 0001:0001fc60       _strlen                    10020c60 f   LIBCMT:strlen.obj
 0001:0001fceb       _wcsncpy_s                 10020ceb f   LIBCMT:wcsncpy_s.obj
 0001:0001fda9       __output_s_l               10020da9 f   LIBCMT:outputs.obj
 0001:00020a31       __output_p_l               10021a31 f   LIBCMT:outputp.obj
 0001:00021d69       __validate_param_reuseA    10022d69 f   LIBCMT:outputp.obj
 0001:00021e9f       _get_crtdouble_arg         10022e9f f i LIBCMT:outputp.obj
 0001:00021f9e       __isatty                   10022f9e f   LIBCMT:isatty.obj
 0001:00021ff2       ___addlocaleref            10022ff2 f   LIBCMT:localref.obj
 0001:00022087       ___freetlocinfo            10023087 f   LIBCMT:localref.obj
 0001:000221e1       ___removelocaleref         100231e1 f   LIBCMT:localref.obj
 0001:00022281       ___updatetlocinfo          10023281 f   LIBCMT:localref.obj
 0001:00022301       __updatetlocinfoEx_nolock  10023301 f   LIBCMT:localref.obj
 0001:0002234c       ___iswcsym                 1002334c f i LIBCMT:_wctype.obj
 0001:00022370       ___iswcsymf                10023370 f i LIBCMT:_wctype.obj
 0001:00022394       __isleadbyte_l             10023394 f i LIBCMT:_wctype.obj
 0001:000223ce       __iswalnum_l               100233ce f i LIBCMT:_wctype.obj
 0001:000223e2       __iswalpha_l               100233e2 f i LIBCMT:_wctype.obj
 0001:000223f6       __iswblank_l               100233f6 f i LIBCMT:_wctype.obj
 0001:00022411       __iswcntrl_l               10023411 f i LIBCMT:_wctype.obj
 0001:00022422       __iswcsym_l                10023422 f i LIBCMT:_wctype.obj
 0001:00022446       __iswcsymf_l               10023446 f i LIBCMT:_wctype.obj
 0001:0002246a       __iswdigit_l               1002346a f i LIBCMT:_wctype.obj
 0001:0002247b       __iswgraph_l               1002347b f i LIBCMT:_wctype.obj
 0001:0002248f       __iswlower_l               1002348f f i LIBCMT:_wctype.obj
 0001:000224a0       __iswprint_l               100234a0 f i LIBCMT:_wctype.obj
 0001:000224b4       __iswpunct_l               100234b4 f i LIBCMT:_wctype.obj
 0001:000224c5       __iswspace_l               100234c5 f i LIBCMT:_wctype.obj
 0001:000224d6       __iswupper_l               100234d6 f i LIBCMT:_wctype.obj
 0001:000224e7       __iswxdigit_l              100234e7 f i LIBCMT:_wctype.obj
 0001:000224fb       _isleadbyte                100234fb f i LIBCMT:_wctype.obj
 0001:0002250c       _iswalnum                  1002350c f i LIBCMT:_wctype.obj
 0001:00022520       _iswalpha                  10023520 f i LIBCMT:_wctype.obj
 0001:00022534       _iswascii                  10023534 f i LIBCMT:_wctype.obj
 0001:00022546       _iswblank                  10023546 f i LIBCMT:_wctype.obj
 0001:00022561       _iswcntrl                  10023561 f i LIBCMT:_wctype.obj
 0001:00022572       _iswdigit                  10023572 f i LIBCMT:_wctype.obj
 0001:00022583       _iswgraph                  10023583 f i LIBCMT:_wctype.obj
 0001:00022597       _iswlower                  10023597 f i LIBCMT:_wctype.obj
 0001:000225a8       _iswprint                  100235a8 f i LIBCMT:_wctype.obj
 0001:000225bc       _iswpunct                  100235bc f i LIBCMT:_wctype.obj
 0001:000225cd       _iswspace                  100235cd f i LIBCMT:_wctype.obj
 0001:000225de       _iswupper                  100235de f i LIBCMT:_wctype.obj
 0001:000225ef       _iswxdigit                 100235ef f i LIBCMT:_wctype.obj
 0001:00022603       __wctomb_l                 10023603 f   LIBCMT:wctomb.obj
 0001:00022652       __wctomb_s_l               10023652 f   LIBCMT:wctomb.obj
 0001:00022776       _wctomb                    10023776 f   LIBCMT:wctomb.obj
 0001:000227a9       _wctomb_s                  100237a9 f   LIBCMT:wctomb.obj
 0001:000227d0       __aulldvrm                 100237d0 f   LIBCMT:ulldvrm.obj
 0001:00022865       __matherr                  10023865 f   LIBCMT:matherr.obj
 0001:00022868       __frnd                     10023868 f   LIBCMT:frnd.obj
 0001:0002287c       ___isascii                 1002387c f i LIBCMT:_ctype.obj
 0001:0002288c       ___iscsym                  1002388c f i LIBCMT:_ctype.obj
 0001:000228ac       ___iscsymf                 100238ac f i LIBCMT:_ctype.obj
 0001:000228c9       ___toascii                 100238c9 f i LIBCMT:_ctype.obj
 0001:000228d4       __isalnum_l                100238d4 f i LIBCMT:_ctype.obj
 0001:0002292c       __isalpha_l                1002392c f i LIBCMT:_ctype.obj
 0001:00022984       __isblank_l                10023984 f i LIBCMT:_ctype.obj
 0001:000229de       __iscntrl_l                100239de f i LIBCMT:_ctype.obj
 0001:00022a30       __iscsym_l                 10023a30 f i LIBCMT:_ctype.obj
 0001:00022a51       __iscsymf_l                10023a51 f i LIBCMT:_ctype.obj
 0001:00022a72       __isdigit_l                10023a72 f i LIBCMT:_ctype.obj
 0001:00022ac4       __isgraph_l                10023ac4 f i LIBCMT:_ctype.obj
 0001:00022b1c       __islower_l                10023b1c f i LIBCMT:_ctype.obj
 0001:00022b6e       __isprint_l                10023b6e f i LIBCMT:_ctype.obj
 0001:00022bc6       __ispunct_l                10023bc6 f i LIBCMT:_ctype.obj
 0001:00022c18       __isspace_l                10023c18 f i LIBCMT:_ctype.obj
 0001:00022c6a       __isupper_l                10023c6a f i LIBCMT:_ctype.obj
 0001:00022cbc       __isxdigit_l               10023cbc f i LIBCMT:_ctype.obj
 0001:00022d14       _isalnum                   10023d14 f i LIBCMT:_ctype.obj
 0001:00022d41       _isalpha                   10023d41 f i LIBCMT:_ctype.obj
 0001:00022d6e       _isblank                   10023d6e f i LIBCMT:_ctype.obj
 0001:00022da3       _iscntrl                   10023da3 f i LIBCMT:_ctype.obj
 0001:00022dce       _isdigit                   10023dce f i LIBCMT:_ctype.obj
 0001:00022df9       _isgraph                   10023df9 f i LIBCMT:_ctype.obj
 0001:00022e26       _islower                   10023e26 f i LIBCMT:_ctype.obj
 0001:00022e51       _isprint                   10023e51 f i LIBCMT:_ctype.obj
 0001:00022e7e       _ispunct                   10023e7e f i LIBCMT:_ctype.obj
 0001:00022ea9       _isspace                   10023ea9 f i LIBCMT:_ctype.obj
 0001:00022ed4       _isupper                   10023ed4 f i LIBCMT:_ctype.obj
 0001:00022eff       _isxdigit                  10023eff f i LIBCMT:_ctype.obj
 0001:00022f2c       __tolower                  10023f2c f   LIBCMT:tolower.obj
 0001:00022f37       __tolower_l                10023f37 f   LIBCMT:tolower.obj
 0001:0002307a       _tolower                   1002407a f   LIBCMT:tolower.obj
 0001:000230a6       _strcpy_s                  100240a6 f   LIBCMT:strcpy_s.obj
 0001:00023100       _strrchr                   10024100 f   LIBCMT:strrchr.obj
 0001:00023237       __fptostr                  10024237 f   LIBCMT:_fptostr.obj
 0001:000232e7       ___crt_atoflt_l            100242e7 f   LIBCMT:atodbl.obj
 0001:0002338b       __atodbl                   1002438b f   LIBCMT:atodbl.obj
 0001:000233a0       __atodbl_l                 100243a0 f   LIBCMT:atodbl.obj
 0001:0002342e       __atoflt                   1002442e f   LIBCMT:atodbl.obj
 0001:00023443       __atoflt_l                 10024443 f   LIBCMT:atodbl.obj
 0001:0002345b       __atoldbl                  1002445b f   LIBCMT:atodbl.obj
 0001:00023470       __atoldbl_l                10024470 f   LIBCMT:atodbl.obj
 0001:000234ff       ___dtold                   100244ff f   LIBCMT:cfout.obj
 0001:000235c7       __fltout2                  100245c7 f   LIBCMT:cfout.obj
 0001:00023660       __alldvrm                  10024660 f   LIBCMT:lldvrm.obj
 0001:00023740       __aullshr                  10024740 f   LIBCMT:ullshr.obj
 0001:0002375f       __get_output_format        1002475f f   LIBCMT:outputformat.obj
 0001:00023765       __set_output_format        10024765 f   LIBCMT:outputformat.obj
 0001:00023797       __controlfp_s              10024797 f   LIBCMT:contrlfp.obj
 0001:000237f4       __fptrap                   100247f4 f   LIBCMT:crt0fp.obj
 0001:000237fd       __msize                    100247fd f   LIBCMT:msize.obj
 0001:0002382e       __recalloc                 1002482e f   LIBCMT:recalloc.obj
 0001:00023897       _strncpy_s                 10024897 f   LIBCMT:strncpy_s.obj
 0001:00023a1f       __MallocaIsSizeInRange     10024a1f f i LIBCMT:a_loc.obj
 0001:00023a30       __MarkAllocaS              10024a30 f i LIBCMT:a_loc.obj
 0001:00023a44       ___crtGetLocaleInfoA       10024a44 f   LIBCMT:a_loc.obj
 0001:00023a7e       __freea                    10024a7e f i LIBCMT:a_loc.obj
 0001:00023a9c       _GetTableIndexFromLcid     10024a9c f   LIBCMT:winapinls.obj
 0001:00023ad1       _GetTableIndexFromLocaleName 10024ad1 f   LIBCMT:winapinls.obj
 0001:00023b1f       ___crtCompareStringEx      10024b1f f   LIBCMT:winapinls.obj
 0001:00023b6b       ___crtDownlevelLCIDToLocaleName 10024b6b f   LIBCMT:winapinls.obj
 0001:00023be7       ___crtDownlevelLocaleNameToLCID 10024be7 f   LIBCMT:winapinls.obj
 0001:00023c25       ___crtEnumSystemLocalesEx  10024c25 f   LIBCMT:winapinls.obj
 0001:00023c62       ___crtGetDateFormatEx      10024c62 f   LIBCMT:winapinls.obj
 0001:00023cab       ___crtGetLocaleInfoEx      10024cab f   LIBCMT:winapinls.obj
 0001:00023cda       ___crtGetTimeFormatEx      10024cda f   LIBCMT:winapinls.obj
 0001:00023d0f       ___crtGetUserDefaultLocaleName 10024d0f f   LIBCMT:winapinls.obj
 0001:00023d3a       ___crtIsValidLocaleName    10024d3a f   LIBCMT:winapinls.obj
 0001:00023d65       ___crtLCMapStringEx        10024d65 f   LIBCMT:winapinls.obj
 0001:00023db1       ___wcsnicmp_ascii          10024db1 f   LIBCMT:winapinls.obj
 0001:00024043       ___crtLCMapStringA         10025043 f   LIBCMT:a_map.obj
 0001:00024181       ___crtGetStringTypeA       10025181 f   LIBCMT:a_str.obj
 0001:000241c1       __commit                   100251c1 f   LIBCMT:commit.obj
 0001:000242aa       ___lock_fhandle            100252aa f   LIBCMT:osfinfo.obj
 0001:00024338       __alloc_osfhnd             10025338 f   LIBCMT:osfinfo.obj
 0001:000244e1       __free_osfhnd              100254e1 f   LIBCMT:osfinfo.obj
 0001:00024567       __get_osfhandle            10025567 f   LIBCMT:osfinfo.obj
 0001:000245ce       __open_osfhandle           100255ce f   LIBCMT:osfinfo.obj
 0001:000246e4       __set_osfhnd               100256e4 f   LIBCMT:osfinfo.obj
 0001:00024766       __unlock_fhandle           10025766 f   LIBCMT:osfinfo.obj
 0001:0002478c       __open                     1002578c f   LIBCMT:open.obj
 0001:0002483c       __sopen                    1002583c f   LIBCMT:open.obj
 0001:0002486f       __sopen_helper             1002586f f   LIBCMT:open.obj
 0001:00024938       __sopen_nolock             10025938 f   LIBCMT:open.obj
 0001:00024986       __sopen_s                  10025986 f   LIBCMT:open.obj
 0001:000249a4       __mbsnbcmp                 100259a4 f   LIBCMT:mbsnbcmp.obj
 0001:000249bc       __mbsnbcmp_l               100259bc f   LIBCMT:mbsnbcmp.obj
 0001:00024ad3       __mbsnbicmp                10025ad3 f   LIBCMT:mbsnbicm.obj
 0001:00024aeb       __mbsnbicmp_l              10025aeb f   LIBCMT:mbsnbicm.obj
 0001:00024cb0       __global_unwind2           10025cb0 f   LIBCMT:exsup.obj
 0001:00024d15       __local_unwind2            10025d15 f   LIBCMT:exsup.obj
 0001:00024d99       __abnormal_termination     10025d99 f   LIBCMT:exsup.obj
 0001:00024dbc       __NLG_Notify1              10025dbc f   LIBCMT:exsup.obj
 0001:00024dc5       __NLG_Notify               10025dc5 f   LIBCMT:exsup.obj
 0001:00024ddc       __NLG_Dispatch2            10025ddc     LIBCMT:exsup.obj
 0001:00024ddc       __NLG_Dispatch             10025ddc     LIBCMT:exsup.obj
 0001:00024de4       __NLG_Call                 10025de4 f   LIBCMT:exsup.obj
 0001:00024de6       __NLG_Return2              10025de6     LIBCMT:exsup.obj
 0001:00024de7       __getbuf                   10025de7 f   LIBCMT:_getbuf.obj
 0001:00024e2d       __lseeki64                 10025e2d f   LIBCMT:lseeki64.obj
 0001:00024f29       __lseeki64_nolock          10025f29 f   LIBCMT:lseeki64.obj
 0001:00024f9c       __mbtowc_l                 10025f9c f   LIBCMT:mbtowc.obj
 0001:00025091       _mbtowc                    10026091 f   LIBCMT:mbtowc.obj
 0001:000250a9       __putwch                   100260a9 f   LIBCMT:putwch.obj
 0001:000250f5       __putwch_nolock            100260f5 f   LIBCMT:putwch.obj
 0001:00025140       __chkstk                   10026140 f   LIBCMT:chkstk.obj
 0001:00025140       __alloca_probe             10026140 f   LIBCMT:chkstk.obj
 0001:0002516b       __vfwprintf_l              1002616b f   LIBCMT:vfwprint.obj
 0001:00025189       __vfwprintf_p              10026189 f   LIBCMT:vfwprint.obj
 0001:000251a6       __vfwprintf_p_l            100261a6 f   LIBCMT:vfwprint.obj
 0001:000251c4       __vfwprintf_s_l            100261c4 f   LIBCMT:vfwprint.obj
 0001:000251e2       _vfwprintf                 100261e2 f   LIBCMT:vfwprint.obj
 0001:000251ff       _vfwprintf_helper          100261ff f   LIBCMT:vfwprint.obj
 0001:00025292       _vfwprintf_s               10026292 f   LIBCMT:vfwprint.obj
 0001:000252af       __woutput_l                100262af f   LIBCMT:woutput.obj
 0001:00025f8e       __woutput_s_l              10026f8e f   LIBCMT:woutputs.obj
 0001:00026ca5       __validate_param_reuseW    10027ca5 f   LIBCMT:woutputp.obj
 0001:00026e1d       __woutput_p_l              10027e1d f   LIBCMT:woutputp.obj
 0001:00028246       __ismbbalnum               10029246 f   LIBCMT:ismbbyte.obj
 0001:0002825f       __ismbbalnum_l             1002925f f   LIBCMT:ismbbyte.obj
 0001:00028279       __ismbbalpha               10029279 f   LIBCMT:ismbbyte.obj
 0001:00028292       __ismbbalpha_l             10029292 f   LIBCMT:ismbbyte.obj
 0001:000282ac       __ismbbblank               100292ac f   LIBCMT:ismbbyte.obj
 0001:000282cd       __ismbbblank_l             100292cd f   LIBCMT:ismbbyte.obj
 0001:000282ef       __ismbbgraph               100292ef f   LIBCMT:ismbbyte.obj
 0001:00028308       __ismbbgraph_l             10029308 f   LIBCMT:ismbbyte.obj
 0001:00028322       __ismbbkalnum              10029322 f   LIBCMT:ismbbyte.obj
 0001:00028338       __ismbbkalnum_l            10029338 f   LIBCMT:ismbbyte.obj
 0001:0002834f       __ismbbkana                1002934f f   LIBCMT:ismbbyte.obj
 0001:00028360       __ismbbkana_l              10029360 f   LIBCMT:ismbbyte.obj
 0001:000283ac       __ismbbkprint              100293ac f   LIBCMT:ismbbyte.obj
 0001:000283c2       __ismbbkprint_l            100293c2 f   LIBCMT:ismbbyte.obj
 0001:000283d9       __ismbbkpunct              100293d9 f   LIBCMT:ismbbyte.obj
 0001:000283ef       __ismbbkpunct_l            100293ef f   LIBCMT:ismbbyte.obj
 0001:00028406       __ismbblead                10029406 f   LIBCMT:ismbbyte.obj
 0001:0002841c       __ismbblead_l              1002941c f   LIBCMT:ismbbyte.obj
 0001:00028433       __ismbbprint               10029433 f   LIBCMT:ismbbyte.obj
 0001:0002844c       __ismbbprint_l             1002944c f   LIBCMT:ismbbyte.obj
 0001:00028466       __ismbbpunct               10029466 f   LIBCMT:ismbbyte.obj
 0001:0002847c       __ismbbpunct_l             1002947c f   LIBCMT:ismbbyte.obj
 0001:00028493       __ismbbtrail               10029493 f   LIBCMT:ismbbyte.obj
 0001:000284a9       __ismbbtrail_l             100294a9 f   LIBCMT:ismbbyte.obj
 0001:000286e6       __strtol_l                 100296e6 f   LIBCMT:strtol.obj
 0001:00028701       __strtoul_l                10029701 f   LIBCMT:strtol.obj
 0001:0002871c       _strtol                    1002971c f   LIBCMT:strtol.obj
 0001:00028746       _strtoul                   10029746 f   LIBCMT:strtol.obj
 0001:00028770       ___free_lconv_mon          10029770 f   LIBCMT:initmon.obj
 0001:0002886c       ___init_monetary           1002986c f   LIBCMT:initmon.obj
 0001:00028c45       ___free_lconv_num          10029c45 f   LIBCMT:initnum.obj
 0001:00028cac       ___init_numeric            10029cac f   LIBCMT:initnum.obj
 0001:00028eea       ___free_lc_time            10029eea f   LIBCMT:inittime.obj
 0001:0002926a       ___init_time               1002a26a f   LIBCMT:inittime.obj
 0001:00029ad9       _localeconv                1002aad9 f   LIBCMT:lconv.obj
 0001:00029aff       __iswctype_l               1002aaff f   LIBCMT:iswctype.obj
 0001:00029b11       _is_wctype                 1002ab11 f   LIBCMT:iswctype.obj
 0001:00029b1a       _iswctype                  1002ab1a f   LIBCMT:iswctype.obj
 0001:00029b70       ____lc_codepage_func       1002ab70 f   LIBCMT:initctyp.obj
 0001:00029b96       ____lc_collate_cp_func     1002ab96 f   LIBCMT:initctyp.obj
 0001:00029bbc       ____lc_locale_name_func    1002abbc f   LIBCMT:initctyp.obj
 0001:00029be4       ____mb_cur_max_func        1002abe4 f   LIBCMT:initctyp.obj
 0001:00029c0a       ____mb_cur_max_l_func      1002ac0a f   LIBCMT:initctyp.obj
 0001:00029c21       ___init_ctype              1002ac21 f   LIBCMT:initctyp.obj
 0001:00029fb9       ___pctype_func             1002afb9 f   LIBCMT:ctype.obj
 0001:00029fe2       ___pwctype_func            1002afe2 f   LIBCMT:ctype.obj
 0001:00029fe8       __isctype                  1002afe8 f   LIBCMT:isctype.obj
 0001:0002a017       __isctype_l                1002b017 f   LIBCMT:isctype.obj
 0001:0002a0c8       ___init_dummy              1002b0c8 f   LIBCMT:wsetloca.obj
 0001:0002a0cb       __locterm                  1002b0cb f   LIBCMT:wsetloca.obj
 0001:0002a11d       ____setlc_active_func      1002b11d f   LIBCMT:wsetloca.obj
 0001:0002a123       ____unguarded_readlc_active_add_func 1002b123 f   LIBCMT:wsetloca.obj
 0001:0002a129       ___copy_locale_name        1002b129 f   LIBCMT:wsetloca.obj
 0001:0002a18d       ___create_locale           1002b18d f   LIBCMT:wsetloca.obj
 0001:0002a196       ___free_locale             1002b196 f   LIBCMT:wsetloca.obj
 0001:0002a19b       ___get_current_locale      1002b19b f   LIBCMT:wsetloca.obj
 0001:0002a1a0       ___lc_lctowcs              1002b1a0 f   LIBCMT:wsetloca.obj
 0001:0002a20e       ___lc_wcstolc              1002b20e f   LIBCMT:wsetloca.obj
 0001:0002a33a       __configthreadlocale       1002b33a f   LIBCMT:wsetloca.obj
 0001:0002a3c0       __create_locale            1002b3c0 f   LIBCMT:wsetloca.obj
 0001:0002a422       __expandlocale             1002b422 f   LIBCMT:wsetloca.obj
 0001:0002a719       __free_locale              1002b719 f   LIBCMT:wsetloca.obj
 0001:0002a7d0       __get_current_locale       1002b7d0 f   LIBCMT:wsetloca.obj
 0001:0002a87f       __wcreate_locale           1002b87f f   LIBCMT:wsetloca.obj
 0001:0002a956       __wcscats                  1002b956 f   LIBCMT:wsetloca.obj
 0001:0002a995       __wsetlocale               1002b995 f   LIBCMT:wsetloca.obj
 0001:0002b2d7       __CopyMan                  1002c2d7 f i LIBCMT:intrncvt.obj
 0001:0002b2f4       __FillZeroMan              1002c2f4 f i LIBCMT:intrncvt.obj
 0001:0002b303       __IncMan                   1002c303 f i LIBCMT:intrncvt.obj
 0001:0002b365       __IsZeroMan                1002c365 f i LIBCMT:intrncvt.obj
 0001:0002b382       __RoundMan                 1002c382 f i LIBCMT:intrncvt.obj
 0001:0002b483       __ShrMan                   1002c483 f i LIBCMT:intrncvt.obj
 0001:0002b511       __ZeroTail                 1002c511 f i LIBCMT:intrncvt.obj
 0001:0002b559       ___addl                    1002c559 f i LIBCMT:intrncvt.obj
 0001:0002b57d       __ld12cvt                  1002c57d f i LIBCMT:intrncvt.obj
 0001:0002bae8       __ld12tod                  1002cae8 f   LIBCMT:intrncvt.obj
 0001:0002c05a       __ld12tof                  1002d05a f   LIBCMT:intrncvt.obj
 0001:0002c5cc       __ld12told                 1002d5cc f   LIBCMT:intrncvt.obj
 0001:0002c69b       ___STRINGTOLD_L            1002d69b f   LIBCMT:strgtold.obj
 0001:0002c6f6       ___ld12mul                 1002d6f6 f i LIBCMT:strgtold.obj
 0001:0002c9c2       ___multtenpow12            1002d9c2 f i LIBCMT:strgtold.obj
 0001:0002cd15       ___shl_12                  1002dd15 f i LIBCMT:strgtold.obj
 0001:0002cd46       ___shr_12                  1002dd46 f i LIBCMT:strgtold.obj
 0001:0002cd76       ___strgtold12_l            1002dd76 f   LIBCMT:strgtold.obj
 0001:0002d51e       _$I10_OUTPUT               1002e51e f   LIBCMT:x10fout.obj
 0001:0002def2       ___add_12                  1002eef2 f i LIBCMT:x10fout.obj
 0001:0002e09e       ___control87_2             1002f09e f   LIBCMT:ieee87.obj
 0001:0002e712       __clearfp                  1002f712 f   LIBCMT:ieee87.obj
 0001:0002e7f2       __control87                1002f7f2 f i LIBCMT:ieee87.obj
 0001:0002eaf4       __controlfp                1002faf4 f   LIBCMT:ieee87.obj
 0001:0002edff       __fpreset                  1002fdff f   LIBCMT:ieee87.obj
 0001:0002eecc       __set_controlfp            1002fecc f   LIBCMT:ieee87.obj
 0001:0002ef3f       __statusfp                 1002ff3f f   LIBCMT:ieee87.obj
 0001:0002efd9       __statusfp2                1002ffd9 f   LIBCMT:ieee87.obj
 0001:0002f040       __alloca_probe_16          10030040 f   LIBCMT:alloca16.obj
 0001:0002f056       __alloca_probe_8           10030056     LIBCMT:alloca16.obj
 0001:0002f06c       _wcsnlen                   1003006c f   LIBCMT:wcslen_s.obj
 0001:0002f113       __wopen                    10030113 f   LIBCMT:wopen.obj
 0001:0002f1c3       __wsopen                   100301c3 f   LIBCMT:wopen.obj
 0001:0002f1f6       __wsopen_helper            100301f6 f   LIBCMT:wopen.obj
 0001:0002f2bf       __wsopen_nolock            100302bf f   LIBCMT:wopen.obj
 0001:0002fa12       __wsopen_s                 10030a12 f   LIBCMT:wopen.obj
 0001:0002fa30       _strncmp                   10030a30 f   LIBCMT:strncmp.obj
 0001:0002faa8       __strnicmp                 10030aa8 f   LIBCMT:strnicmp.obj
 0001:0002fb13       __strnicmp_l               10030b13 f   LIBCMT:strnicmp.obj
 0001:0002fbc4       ___termconout              10030bc4 f   LIBCMT:initcon.obj
 0001:0002fbdb       ___initconout              10030bdb f   LIBCMT:initcon.obj
 0001:0002fbfa       __fputwc_nolock            10030bfa f   LIBCMT:fputwc.obj
 0001:0002fd80       _fputwc                    10030d80 f   LIBCMT:fputwc.obj
 0001:0002fdf7       _putwc                     10030df7 f   LIBCMT:fputwc.obj
 0001:0002ffe1       __wcstol_l                 10030fe1 f   LIBCMT:wcstol.obj
 0001:0002fff9       __wcstoul_l                10030ff9 f   LIBCMT:wcstol.obj
 0001:00030011       _wcstol                    10031011 f   LIBCMT:wcstol.obj
 0001:00030029       _wcstoul                   10031029 f   LIBCMT:wcstol.obj
 0001:00030041       ___init_collate            10031041 f   LIBCMT:initcoll.obj
 0001:00030161       _memcmp                    10031161 f   LIBCMT:memcmp.obj
 0001:00033075       _wcscmp                    10034075 f   LIBCMT:wcscmp.obj
 0001:000330b3       _wcscspn                   100340b3 f   LIBCMT:wcscspn.obj
 0001:000330fe       _wcsncmp                   100340fe f   LIBCMT:wcsncmp.obj
 0001:00033134       _wcspbrk                   10034134 f   LIBCMT:wcspbrk.obj
 0001:00033738       ___get_qualified_locale    10034738 f   LIBCMT:getqloc.obj
 0001:00033fa8       ___get_qualified_locale_downlevel 10034fa8 f   LIBCMT:getqloc_downlevel.obj
 0001:000341c4       ___mtold12                 100351c4 f   LIBCMT:mantold.obj
 0001:000343a4       __chsize                   100353a4 f   LIBCMT:chsize.obj
 0001:000343be       __chsize_nolock            100353be f   LIBCMT:chsize.obj
 0001:00034574       __chsize_s                 10035574 f   LIBCMT:chsize.obj
 0001:00034662       __get_fmode                10035662 f   LIBCMT:setmode.obj
 0001:0003468c       __set_fmode                1003568c f   LIBCMT:setmode.obj
 0001:000346c7       __setmode                  100356c7 f   LIBCMT:setmode.obj
 0001:000347cc       __setmode_nolock           100357cc f   LIBCMT:setmode.obj
 0001:000348a0       ___ascii_strnicmp          100358a0 f   LIBCMT:_strnicm.obj
 0001:00034901       __flswbuf                  10035901 f   LIBCMT:_flswbuf.obj
 0001:00034a63       __wchartodigit             10035a63 f   LIBCMT:wchtodig.obj
 0001:00034c02       __wtoi                     10035c02 f   LIBCMT:wtox.obj
 0001:00034c0b       __wtoi64                   10035c0b f   LIBCMT:wtox.obj
 0001:00034c1f       __wtoi64_l                 10035c1f f   LIBCMT:wtox.obj
 0001:00034c36       __wtoi_l                   10035c36 f   LIBCMT:wtox.obj
 0001:00034c3f       __wtol                     10035c3f f   LIBCMT:wtox.obj
 0001:00034c53       __wtol_l                   10035c53 f   LIBCMT:wtox.obj
 0001:00034c6a       __wtoll                    10035c6a f   LIBCMT:wtox.obj
 0001:00034c7e       __wtoll_l                  10035c7e f   LIBCMT:wtox.obj
 0001:00034c95       _wcschr                    10035c95 f   LIBCMT:wcschr.obj
 0001:00034d43       __wcsicmp                  10035d43 f   LIBCMT:wcsicmp.obj
 0001:00034dd6       __wcsicmp_l                10035dd6 f   LIBCMT:wcsicmp.obj
 0001:00034eb1       __wcsnicmp                 10035eb1 f   LIBCMT:wcsnicmp.obj
 0001:00034f67       __wcsnicmp_l               10035f67 f   LIBCMT:wcsnicmp.obj
 0001:00035330       __wcstof_l                 10036330 f   LIBCMT:wcstoq.obj
 0001:000353e3       __wcstoi64                 100363e3 f   LIBCMT:wcstoq.obj
 0001:0003540d       __wcstoi64_l               1003640d f   LIBCMT:wcstoq.obj
 0001:00035428       __wcstoimax_l              10036428 f   LIBCMT:wcstoq.obj
 0001:00035431       __wcstold_l                10036431 f   LIBCMT:wcstoq.obj
 0001:0003543a       __wcstoll_l                1003643a f   LIBCMT:wcstoq.obj
 0001:00035443       __wcstoui64                10036443 f   LIBCMT:wcstoq.obj
 0001:0003546d       __wcstoui64_l              1003646d f   LIBCMT:wcstoq.obj
 0001:00035488       __wcstoull_l               10036488 f   LIBCMT:wcstoq.obj
 0001:00035491       __wcstoumax_l              10036491 f   LIBCMT:wcstoq.obj
 0001:0003549a       _wcstof                    1003649a f   LIBCMT:wcstoq.obj
 0001:000354af       _wcstoimax                 100364af f   LIBCMT:wcstoq.obj
 0001:000354b8       _wcstold                   100364b8 f   LIBCMT:wcstoq.obj
 0001:000354c1       _wcstoll                   100364c1 f   LIBCMT:wcstoq.obj
 0001:000354ca       _wcstoull                  100364ca f   LIBCMT:wcstoq.obj
 0001:000354d3       _wcstoumax                 100364d3 f   LIBCMT:wcstoq.obj
 0001:000354dc       __towlower_l               100364dc f   LIBCMT:towlower.obj
 0001:0003558d       _towlower                  1003658d f   LIBCMT:towlower.obj
 0001:0003559e       __wcstod_l                 1003659e f   LIBCMT:wcstod.obj
 0001:00035699       _wcstod                    10036699 f   LIBCMT:wcstod.obj
 0001:000356b0       __allmul                   100366b0 f   LIBCMT:llmul.obj
 0001:000356e4       ___crtLCMapStringW         100366e4 f   LIBCMT:w_map.obj
 0001:00035713       __wfltin2                  10036713 f   LIBCMT:wcfin.obj
 0001:000357c0       ___WSTRINGTOLD_L           100367c0 f   LIBCMT:wstrgtold.obj
 0001:0003581b       ___wstrgtold12_l           1003681b f   LIBCMT:wstrgtold.obj
 0001:0003606c       _GetModuleHandleA@4        1003706c f   kernel32:KERNEL32.dll
 0001:00036072       _GetProcAddress@8          10037072 f   kernel32:KERNEL32.dll
 0001:00036078       _HeapAlloc@12              10037078 f   kernel32:KERNEL32.dll
 0001:0003607e       _IsDebuggerPresent@0       1003707e f   kernel32:KERNEL32.dll
 0001:00036084       _IsProcessorFeaturePresent@4 10037084 f   kernel32:KERNEL32.dll
 0001:0003608a       _EncodePointer@4           1003708a f   kernel32:KERNEL32.dll
 0001:00036090       _DecodePointer@4           10037090 f   kernel32:KERNEL32.dll
 0001:00036096       _GetLastError@0            10037096 f   kernel32:KERNEL32.dll
 0001:0003609c       _ExitProcess@4             1003709c f   kernel32:KERNEL32.dll
 0001:000360a2       _GetModuleHandleExW@12     100370a2 f   kernel32:KERNEL32.dll
 0001:000360a8       _AreFileApisANSI@0         100370a8 f   kernel32:KERNEL32.dll
 0001:000360ae       _MultiByteToWideChar@24    100370ae f   kernel32:KERNEL32.dll
 0001:000360b4       _WideCharToMultiByte@32    100370b4 f   kernel32:KERNEL32.dll
 0001:000360ba       _HeapFree@12               100370ba f   kernel32:KERNEL32.dll
 0001:000360c0       _HeapReAlloc@16            100370c0 f   kernel32:KERNEL32.dll
 0001:000360c6       _EnterCriticalSection@4    100370c6 f   kernel32:KERNEL32.dll
 0001:000360cc       _LeaveCriticalSection@4    100370cc f   kernel32:KERNEL32.dll
 0001:000360d2       _GetStdHandle@4            100370d2 f   kernel32:KERNEL32.dll
 0001:000360d8       _GetFileType@4             100370d8 f   kernel32:KERNEL32.dll
 0001:000360de       _GetModuleFileNameW@12     100370de f   kernel32:KERNEL32.dll
 0001:000360e4       _WriteConsoleW@20          100370e4 f   kernel32:KERNEL32.dll
 0001:000360ea       _GetCommandLineA@0         100370ea f   kernel32:KERNEL32.dll
 0001:000360f0       _GetCurrentThreadId@0      100370f0 f   kernel32:KERNEL32.dll
 0001:000360f6       _WriteFile@20              100370f6 f   kernel32:KERNEL32.dll
 0001:000360fc       _GetProcessHeap@0          100370fc f   kernel32:KERNEL32.dll
 0001:00036102       _UnhandledExceptionFilter@4 10037102 f   kernel32:KERNEL32.dll
 0001:00036108       _SetUnhandledExceptionFilter@4 10037108 f   kernel32:KERNEL32.dll
 0001:0003610e       _SetLastError@4            1003710e f   kernel32:KERNEL32.dll
 0001:00036114       _InitializeCriticalSectionAndSpinCount@8 10037114 f   kernel32:KERNEL32.dll
 0001:0003611a       _CreateEventW@16           1003711a f   kernel32:KERNEL32.dll
 0001:00036120       _Sleep@4                   10037120 f   kernel32:KERNEL32.dll
 0001:00036126       _GetCurrentProcess@0       10037126 f   kernel32:KERNEL32.dll
 0001:0003612c       _TerminateProcess@8        1003712c f   kernel32:KERNEL32.dll
 0001:00036132       _TlsAlloc@0                10037132 f   kernel32:KERNEL32.dll
 0001:00036138       _TlsGetValue@4             10037138 f   kernel32:KERNEL32.dll
 0001:0003613e       _TlsSetValue@8             1003713e f   kernel32:KERNEL32.dll
 0001:00036144       _TlsFree@4                 10037144 f   kernel32:KERNEL32.dll
 0001:0003614a       _GetStartupInfoW@4         1003714a f   kernel32:KERNEL32.dll
 0001:00036150       _GetTickCount@0            10037150 f   kernel32:KERNEL32.dll
 0001:00036156       _GetModuleHandleW@4        10037156 f   kernel32:KERNEL32.dll
 0001:0003615c       _CreateSemaphoreW@16       1003715c f   kernel32:KERNEL32.dll
 0001:00036162       _DeleteCriticalSection@4   10037162 f   kernel32:KERNEL32.dll
 0001:00036168       _FatalAppExitA@8           10037168 f   kernel32:KERNEL32.dll
 0001:0003616e       _SetConsoleCtrlHandler@8   1003716e f   kernel32:KERNEL32.dll
 0001:00036174       _FreeLibrary@4             10037174 f   kernel32:KERNEL32.dll
 0001:0003617a       _LoadLibraryExW@12         1003717a f   kernel32:KERNEL32.dll
 0001:00036180       _IsValidCodePage@4         10037180 f   kernel32:KERNEL32.dll
 0001:00036186       _GetACP@0                  10037186 f   kernel32:KERNEL32.dll
 0001:0003618c       _GetOEMCP@0                1003718c f   kernel32:KERNEL32.dll
 0001:00036192       _GetCPInfo@8               10037192 f   kernel32:KERNEL32.dll
 0001:00036198       _CloseHandle@4             10037198 f   kernel32:KERNEL32.dll
 0001:0003619e       _RtlUnwind@16              1003719e f   kernel32:KERNEL32.dll
 0001:000361a4       _ReadFile@20               100371a4 f   kernel32:KERNEL32.dll
 0001:000361aa       _GetConsoleMode@8          100371aa f   kernel32:KERNEL32.dll
 0001:000361b0       _ReadConsoleW@20           100371b0 f   kernel32:KERNEL32.dll
 0001:000361b6       _GetConsoleCP@0            100371b6 f   kernel32:KERNEL32.dll
 0001:000361bc       _DeleteFileW@4             100371bc f   kernel32:KERNEL32.dll
 0001:000361c2       _SetFilePointerEx@20       100371c2 f   kernel32:KERNEL32.dll
 0001:000361c8       _RaiseException@16         100371c8 f   kernel32:KERNEL32.dll
 0001:000361ce       _OutputDebugStringW@4      100371ce f   kernel32:KERNEL32.dll
 0001:000361d4       _GetCurrentThread@0        100371d4 f   kernel32:KERNEL32.dll
 0001:000361da       _GetModuleFileNameA@12     100371da f   kernel32:KERNEL32.dll
 0001:000361e0       _QueryPerformanceCounter@4 100371e0 f   kernel32:KERNEL32.dll
 0001:000361e6       _GetCurrentProcessId@0     100371e6 f   kernel32:KERNEL32.dll
 0001:000361ec       _GetSystemTimeAsFileTime@4 100371ec f   kernel32:KERNEL32.dll
 0001:000361f2       _GetEnvironmentStringsW@0  100371f2 f   kernel32:KERNEL32.dll
 0001:000361f8       _FreeEnvironmentStringsW@4 100371f8 f   kernel32:KERNEL32.dll
 0001:000361fe       _HeapSize@12               100371fe f   kernel32:KERNEL32.dll
 0001:00036204       _GetDateFormatW@24         10037204 f   kernel32:KERNEL32.dll
 0001:0003620a       _GetTimeFormatW@24         1003720a f   kernel32:KERNEL32.dll
 0001:00036210       _CompareStringW@24         10037210 f   kernel32:KERNEL32.dll
 0001:00036216       _LCMapStringW@24           10037216 f   kernel32:KERNEL32.dll
 0001:0003621c       _GetLocaleInfoW@16         1003721c f   kernel32:KERNEL32.dll
 0001:00036222       _IsValidLocale@8           10037222 f   kernel32:KERNEL32.dll
 0001:00036228       _GetUserDefaultLCID@0      10037228 f   kernel32:KERNEL32.dll
 0001:0003622e       _EnumSystemLocalesW@8      1003722e f   kernel32:KERNEL32.dll
 0001:00036234       _GetStringTypeW@16         10037234 f   kernel32:KERNEL32.dll
 0001:0003623a       _FlushFileBuffers@4        1003723a f   kernel32:KERNEL32.dll
 0001:00036240       _SetStdHandle@8            10037240 f   kernel32:KERNEL32.dll
 0001:00036246       _CreateFileW@28            10037246 f   kernel32:KERNEL32.dll
 0001:0003624c       _SetEndOfFile@4            1003724c f   kernel32:KERNEL32.dll
 0002:00000000       ___xc_a                    10042000     LIBCMT:crt0init.obj
 0002:00000104       ___xc_z                    10042104     LIBCMT:crt0init.obj
 0002:00000208       ___xi_a                    10042208     LIBCMT:crt0init.obj
 0002:00000424       ___xi_z                    10042424     LIBCMT:crt0init.obj
 0002:00000528       ___xp_a                    10042528     LIBCMT:crt0init.obj
 0002:0000083c       ___xp_z                    1004283c     LIBCMT:crt0init.obj
 0002:00000940       ___xt_a                    10042940     LIBCMT:crt0init.obj
 0002:00000a44       ___xt_z                    10042a44     LIBCMT:crt0init.obj
 0002:00000b88       _FingerStrokeAssistance_M  10042b88     FingerStrokeAssistance.obj
 0002:00000b8c       ??_C@_0BI@PEBACBDB@Error?5creating?5scope?53?6?$AA@ 10042b8c     FingerStrokeAssistance.obj
 0002:00000ba8       ??_C@_0BD@JBFFJPLK@MATLAB?5Function?1p3?$AA@ 10042ba8     FingerStrokeAssistance.obj
 0002:00000bc0       ??_C@_0DB@GGNMPEDP@Robot?1account?5for?5handedness1?1MA@ 10042bc0     FingerStrokeAssistance.obj
 0002:00000bfc       ??_C@_0O@LNGALFC@Robot?1Gain?1s1?$AA@ 10042bfc     FingerStrokeAssistance.obj
 0002:00000c0c       ??_C@_0N@CGBNOIGO@Robot?1Sum?1s1?$AA@ 10042c0c     FingerStrokeAssistance.obj
 0002:00000c1c       ??_C@_0BD@KDGDPNDI@MATLAB?5Function?1p1?$AA@ 10042c1c     FingerStrokeAssistance.obj
 0002:00000c34       ??_C@_0BJ@OJGJJAHB@Discrete?9Time?5Integrator?$AA@ 10042c34     FingerStrokeAssistance.obj
 0002:00000c54       ??_C@_0O@DNKOCOOP@f_ref2?3?$CF15?46f?$AA@ 10042c54     FingerStrokeAssistance.obj
 0002:00000c64       ??_C@_0P@JDGPLDCK@enc_raw?3?$CF15?46f?$AA@ 10042c64     FingerStrokeAssistance.obj
 0002:00000c78       ??_C@_0BA@ELCINL@enc_norm?3?$CF15?46f?$AA@ 10042c78     FingerStrokeAssistance.obj
 0002:00000c8c       ??_C@_0L@PPFLILHD@pos?3?$CF15?46f?$AA@ 10042c8c     FingerStrokeAssistance.obj
 0002:00000c9c       ??_C@_0N@NEDGIMDD@state?3?$CF15?46f?$AA@ 10042c9c     FingerStrokeAssistance.obj
 0002:00000cac       ??_C@_0BC@BFGNDABD@op_trigger?3?$CF15?46f?$AA@ 10042cac     FingerStrokeAssistance.obj
 0002:00000cc4       ??_C@_0BI@PBFPDHLE@Error?5creating?5scope?54?6?$AA@ 10042cc4     FingerStrokeAssistance.obj
 0002:00000ce0       ??_C@_0BP@BLNLPCCJ@HL?5Controller?1Multiport?5Switch?$AA@ 10042ce0     FingerStrokeAssistance.obj
 0002:00000d08       ??_C@_0BF@BBMGCHIE@LL?5Controller?1Sum?1s1?$AA@ 10042d08     FingerStrokeAssistance.obj
 0002:00000d24       ??_C@_0BI@PFNCELAG@Error?5creating?5scope?52?6?$AA@ 10042d24     FingerStrokeAssistance.obj
 0002:00000d40       ??_C@_0BF@ENIEHMOD@signals?1sigGravAccel?$AA@ 10042d40     FingerStrokeAssistance.obj
 0002:00000d5c       ??_C@_0BI@PHJEPFFP@Error?5creating?5scope?51?6?$AA@ 10042d5c     FingerStrokeAssistance.obj
 0002:00000d78       ??_C@_0CN@LPKEPDKF@LL?5Controller?1Discrete?5PID?5Contr@ 10042d78     FingerStrokeAssistance.obj
 0002:00000db0       ??_C@_0CN@JEIJKAGG@LL?5Controller?1Discrete?5PID?5Contr@ 10042db0     FingerStrokeAssistance.obj
 0002:00000de8       ??_C@_0BC@OJJPBDHH@FixedStepDiscrete?$AA@ 10042de8     FingerStrokeAssistance.obj
 0002:00000e00       ??_C@_04EPKDLPPB@tout?$AA@ 10042e00     FingerStrokeAssistance.obj
 0002:00000e06       ??_C@_00CNPNBAHC@?$AA@     10042e06     FingerStrokeAssistance.obj
 0002:00000e08       ??_C@_03HBFGMJOD@rt_?$AA@  10042e08     FingerStrokeAssistance.obj
 0002:00000e0c       ??_C@_0O@IFKELIIB@PCI?56221?5ENC?5?$AA@ 10042e0c     FingerStrokeAssistance.obj
 0002:00000e1c       ??_C@_0CL@FGFCPCFH@FingerStrokeAssistance?1Robot?1PCI@ 10042e1c     FingerStrokeAssistance.obj
 0002:00000e50       ??_C@_0P@FMGHBALM@PCI?56221?5ENC?51?$AA@ 10042e50     FingerStrokeAssistance.obj
 0002:00000e64       ??_C@_0CM@DDAEJBBH@FingerStrokeAssistance?1Robot?1PCI@ 10042e64     FingerStrokeAssistance.obj
 0002:00000e98       ??_C@_0M@HBIEHIJL@PCI?96221?5DA?$AA@ 10042e98     FingerStrokeAssistance.obj
 0002:00000ea8       ??_C@_0CJ@KACMKMOO@FingerStrokeAssistance?1Robot?1PCI@ 10042ea8     FingerStrokeAssistance.obj
 0002:00000edc       ??_C@_0N@JAOEPLNP@PCI?96221?5AD1?$AA@ 10042edc     FingerStrokeAssistance.obj
 0002:00000eec       ??_C@_0CK@LAFKNGLI@FingerStrokeAssistance?1Robot?1PCI@ 10042eec     FingerStrokeAssistance.obj
 0002:00000f20       __real@0000000000000000    10042f20     FingerStrokeAssistance.obj
 0002:00000f30       __real@3f50624dd2f1a9fc    10042f30     FingerStrokeAssistance.obj
 0002:00000f40       __real@3f9eb851eb851eb8    10042f40     FingerStrokeAssistance.obj
 0002:00000f50       __real@3fb999999999999a    10042f50     FingerStrokeAssistance.obj
 0002:00000f60       __real@3fe0000000000000    10042f60     FingerStrokeAssistance.obj
 0002:00000f70       __real@3ff0000000000000    10042f70     FingerStrokeAssistance.obj
 0002:00000f80       __real@4000000000000000    10042f80     FingerStrokeAssistance.obj
 0002:00000f90       __real@4004000000000000    10042f90     FingerStrokeAssistance.obj
 0002:00000fa0       __real@4008000000000000    10042fa0     FingerStrokeAssistance.obj
 0002:00000fb0       __real@4010000000000000    10042fb0     FingerStrokeAssistance.obj
 0002:00000fc0       __real@4014000000000000    10042fc0     FingerStrokeAssistance.obj
 0002:00000fd0       __real@4018000000000000    10042fd0     FingerStrokeAssistance.obj
 0002:00000fe0       __real@4024000000000000    10042fe0     FingerStrokeAssistance.obj
 0002:00000ff0       __real@402e000000000000    10042ff0     FingerStrokeAssistance.obj
 0002:00001000       __real@409f400000000000    10043000     FingerStrokeAssistance.obj
 0002:00001010       __real@41f0000000000000    10043010     FingerStrokeAssistance.obj
 0002:00001020       __real@4330000000000000    10043020     FingerStrokeAssistance.obj
 0002:00001030       __real@8000000000000000    10043030     FingerStrokeAssistance.obj
 0002:00001040       __real@bf50624dd2f1a9fc    10043040     FingerStrokeAssistance.obj
 0002:00001050       __real@bfe0000000000000    10043050     FingerStrokeAssistance.obj
 0002:00001060       __real@bff0000000000000    10043060     FingerStrokeAssistance.obj
 0002:00001070       __xmm@00000000000000003f50624dd2f1a9fc 10043070     FingerStrokeAssistance.obj
 0002:00001090       __xmm@00000000000000003fe999999999999a 10043090     FingerStrokeAssistance.obj
 0002:000010b0       __xmm@000000ed000000750000007a00000001 100430b0     FingerStrokeAssistance.obj
 0002:000010d0       __xmm@40040000000000003ff0000000000000 100430d0     FingerStrokeAssistance.obj
 0002:000010f0       __xmm@41f00000000000000000000000000000 100430f0     FingerStrokeAssistance.obj
 0002:00001110       __xmm@7fffffffffffffff7fffffffffffffff 10043110     FingerStrokeAssistance.obj
 0002:00002d40       ??_C@_0BD@IIEOKOPL@MATLAB?5Function?1p2?$AA@ 10044d40     FingerStrokeAssistance_capi.obj
 0002:00002d58       ??_C@_0BD@NOBEAJHN@MATLAB?5Function?1p4?$AA@ 10044d58     FingerStrokeAssistance_capi.obj
 0002:00002d70       ??_C@_0BD@MHAPDIDM@MATLAB?5Function?1p5?$AA@ 10044d70     FingerStrokeAssistance_capi.obj
 0002:00002d88       ??_C@_0BD@OMCCGLPP@MATLAB?5Function?1p6?$AA@ 10044d88     FingerStrokeAssistance_capi.obj
 0002:00002da0       ??_C@_0BD@PFDJFKLO@MATLAB?5Function?1p7?$AA@ 10044da0     FingerStrokeAssistance_capi.obj
 0002:00002db8       ??_C@_0BD@HCKBEGHB@MATLAB?5Function?1p8?$AA@ 10044db8     FingerStrokeAssistance_capi.obj
 0002:00002dd0       ??_C@_0BD@GLLKHHDA@MATLAB?5Function?1p9?$AA@ 10044dd0     FingerStrokeAssistance_capi.obj
 0002:00002de8       ??_C@_0BF@GGMNNFDC@Data?5Type?5Conversion?$AA@ 10044de8     FingerStrokeAssistance_capi.obj
 0002:00002e04       ??_C@_0M@GIEJKJNO@Main?5Switch?$AA@ 10044e04     FingerStrokeAssistance_capi.obj
 0002:00002e14       ??_C@_0L@EGNLABOL@Unit?5Delay?$AA@ 10044e14     FingerStrokeAssistance_capi.obj
 0002:00002e24       ??_C@_0M@PBMDOHED@Unit?5Delay1?$AA@ 10044e24     FingerStrokeAssistance_capi.obj
 0002:00002e34       ??_C@_0M@NKOOLEIA@Unit?5Delay2?$AA@ 10044e34     FingerStrokeAssistance_capi.obj
 0002:00002e44       ??_C@_0M@MDPFIFMB@Unit?5Delay3?$AA@ 10044e44     FingerStrokeAssistance_capi.obj
 0002:00002e54       ??_C@_0CI@LMEDCDNN@Detect?5Change?1FixPt?5Relational?5O@ 10044e54     FingerStrokeAssistance_capi.obj
 0002:00002e84       ??_C@_0BL@FKJCOAKD@Detect?5Change?1Delay?5Input1?$AA@ 10044e84     FingerStrokeAssistance_capi.obj
 0002:00002ea4       ??_C@_06CFNEEADJ@U?$CIk?91?$CJ?$AA@ 10044ea4     FingerStrokeAssistance_capi.obj
 0002:00002eac       ??_C@_0BH@IBJBGMJI@HL?5Controller?1Constant?$AA@ 10044eac     FingerStrokeAssistance_capi.obj
 0002:00002ec8       ??_C@_0CH@PENCCFNF@HL?5Controller?1Discrete?9Time?5Inte@ 10044ec8     FingerStrokeAssistance_capi.obj
 0002:00002ef8       ??_C@_0BE@OJENBPFA@HL?5Controller?1Gain1?$AA@ 10044ef8     FingerStrokeAssistance_capi.obj
 0002:00002f10       ??_C@_0BN@NPMPBAJP@HL?5Controller?1Manual?5Switch3?$AA@ 10044f10     FingerStrokeAssistance_capi.obj
 0002:00002f34       ??_C@_0BE@JOHLLJDM@HL?5Controller?1Delay?$AA@ 10044f34     FingerStrokeAssistance_capi.obj
 0002:00002f4c       ??_C@_0BF@OJKMAAIM@HL?5Controller?1Delay1?$AA@ 10044f4c     FingerStrokeAssistance_capi.obj
 0002:00002f68       ??_C@_0BO@GONBLMCA@HL?5Controller?1Discrete?5Filter?$AA@ 10044f68     FingerStrokeAssistance_capi.obj
 0002:00002f8c       ??_C@_0BD@JGAMGINO@LL?5Controller?1Gain?$AA@ 10044f8c     FingerStrokeAssistance_capi.obj
 0002:00002fa4       ??_C@_0BC@PPCBCHF@LL?5Controller?1Sum?$AA@ 10044fa4     FingerStrokeAssistance_capi.obj
 0002:00002fbc       ??_C@_0L@NEPEIPFM@Robot?1Gain?$AA@ 10044fbc     FingerStrokeAssistance_capi.obj
 0002:00002fcc       ??_C@_0BE@OMELOOBD@Robot?1PCI?56221?5ENC?5?$AA@ 10044fcc     FingerStrokeAssistance_capi.obj
 0002:00002fe4       ??_C@_0BF@ECAPANIC@Robot?1PCI?56221?5ENC?51?$AA@ 10044fe4     FingerStrokeAssistance_capi.obj
 0002:00003000       ??_C@_0BG@HNHIMJLG@Robot?1PCI?96221?5AD1?1p1?$AA@ 10045000     FingerStrokeAssistance_capi.obj
 0002:0000301c       ??_C@_0BG@FGFFJKHF@Robot?1PCI?96221?5AD1?1p2?$AA@ 1004501c     FingerStrokeAssistance_capi.obj
 0002:00003038       ??_C@_0BG@EPEOKLDE@Robot?1PCI?96221?5AD1?1p3?$AA@ 10045038     FingerStrokeAssistance_capi.obj
 0002:00003054       ??_C@_0BG@PDNPD@Robot?1PCI?96221?5AD1?1p4?$AA@ 10045054     FingerStrokeAssistance_capi.obj
 0002:00003070       ??_C@_0BG@BJBEAMLC@Robot?1PCI?96221?5AD1?1p5?$AA@ 10045070     FingerStrokeAssistance_capi.obj
 0002:0000308c       ??_C@_0BG@DCDJFPHB@Robot?1PCI?96221?5AD1?1p6?$AA@ 1004508c     FingerStrokeAssistance_capi.obj
 0002:000030a8       ??_C@_0BG@CLCCGODA@Robot?1PCI?96221?5AD1?1p7?$AA@ 100450a8     FingerStrokeAssistance_capi.obj
 0002:000030c4       ??_C@_0BG@KMLKHCPP@Robot?1PCI?96221?5AD1?1p8?$AA@ 100450c4     FingerStrokeAssistance_capi.obj
 0002:000030e0       ??_C@_09EFINPMFM@Robot?1Sum?$AA@ 100450e0     FingerStrokeAssistance_capi.obj
 0002:000030ec       ??_C@_0BB@ONCKFKHP@Robot?1Unit?5Delay?$AA@ 100450ec     FingerStrokeAssistance_capi.obj
 0002:00003100       ??_C@_0BJ@LDIJMIN@parameters?1parChangeRate?$AA@ 10045100     FingerStrokeAssistance_capi.obj
 0002:00003120       ??_C@_0BG@MANKCMPG@parameters?1parFThresh?$AA@ 10045120     FingerStrokeAssistance_capi.obj
 0002:0000313c       ??_C@_0BH@GKLAKHLL@parameters?1parFixedDur?$AA@ 1004513c     FingerStrokeAssistance_capi.obj
 0002:00003158       ??_C@_0BL@EGOKLGEF@parameters?1parForceTrigger?$AA@ 10045158     FingerStrokeAssistance_capi.obj
 0002:00003178       ??_C@_0BC@FKHIPIEO@parameters?1parKd1?$AA@ 10045178     FingerStrokeAssistance_capi.obj
 0002:00003190       ??_C@_0BC@HBFFKLIN@parameters?1parKd2?$AA@ 10045190     FingerStrokeAssistance_capi.obj
 0002:000031a8       ??_C@_0BD@BKPLMOHI@parameters?1parKdV1?$AA@ 100451a8     FingerStrokeAssistance_capi.obj
 0002:000031c0       ??_C@_0BD@DBNGJNLL@parameters?1parKdV2?$AA@ 100451c0     FingerStrokeAssistance_capi.obj
 0002:000031d8       ??_C@_0BC@EBFHPDOC@parameters?1parKp1?$AA@ 100451d8     FingerStrokeAssistance_capi.obj
 0002:000031f0       ??_C@_0BC@GKHKKACB@parameters?1parKp2?$AA@ 100451f0     FingerStrokeAssistance_capi.obj
 0002:00003208       ??_C@_0BH@PENPCGFM@parameters?1parLeftMode?$AA@ 10045208     FingerStrokeAssistance_capi.obj
 0002:00003224       ??_C@_0BF@GLMDNGIG@parameters?1parMarker?$AA@ 10045224     FingerStrokeAssistance_capi.obj
 0002:00003240       ??_C@_0BJ@BNLOJEEL@parameters?1parMaxTrajDur?$AA@ 10045240     FingerStrokeAssistance_capi.obj
 0002:00003260       ??_C@_0BE@GHPCIJPH@parameters?1parPStop?$AA@ 10045260     FingerStrokeAssistance_capi.obj
 0002:00003278       ??_C@_0BH@GJMCKDGC@parameters?1parTrajMode?$AA@ 10045278     FingerStrokeAssistance_capi.obj
 0002:00003294       ??_C@_0BG@LMGBBNNN@parameters?1parVThresh?$AA@ 10045294     FingerStrokeAssistance_capi.obj
 0002:000032b0       ??_C@_0BI@PBEPHEEP@parameters?1parWiggleAmp?$AA@ 100452b0     FingerStrokeAssistance_capi.obj
 0002:000032cc       ??_C@_0BN@BNDFGDOE@parameters?1Rounding?5Function?$AA@ 100452cc     FingerStrokeAssistance_capi.obj
 0002:000032f0       ??_C@_0BG@KKGOACNA@parameters?1Saturation?$AA@ 100452f0     FingerStrokeAssistance_capi.obj
 0002:0000330c       ??_C@_0BH@EACELLGE@parameters?1Saturation1?$AA@ 1004530c     FingerStrokeAssistance_capi.obj
 0002:00003328       ??_C@_0BH@GLAJOIKH@parameters?1Saturation2?$AA@ 10045328     FingerStrokeAssistance_capi.obj
 0002:00003344       ??_C@_0BG@IJAPOADM@signals?1Digital?5Clock?$AA@ 10045344     FingerStrokeAssistance_capi.obj
 0002:00003360       ??_C@_0BG@ICCBOBMJ@signals?1sigTargetTime?$AA@ 10045360     FingerStrokeAssistance_capi.obj
 0002:0000337c       ??_C@_0CN@BMMFOADL@LL?5Controller?1Discrete?5PID?5Contr@ 1004537c     FingerStrokeAssistance_capi.obj
 0002:000033b4       ??_C@_0DB@HDHLABFB@LL?5Controller?1Discrete?5PID?5Contr@ 100453b4     FingerStrokeAssistance_capi.obj
 0002:000033f0       ??_C@_0DG@HLAOPJGM@LL?5Controller?1Discrete?5PID?5Contr@ 100453f0     FingerStrokeAssistance_capi.obj
 0002:00003430       ??_C@_0DJ@KOPOKLBH@LL?5Controller?1Discrete?5PID?5Contr@ 10045430     FingerStrokeAssistance_capi.obj
 0002:00003474       ??_C@_0DE@EPKOKGAH@LL?5Controller?1Discrete?5PID?5Contr@ 10045474     FingerStrokeAssistance_capi.obj
 0002:000034b4       ??_C@_0DI@CMDIPDHM@LL?5Controller?1Discrete?5PID?5Contr@ 100454b4     FingerStrokeAssistance_capi.obj
 0002:000034f8       ??_C@_0CK@BDBPDANN@LL?5Controller?1Discrete?5PID?5Contr@ 100454f8     FingerStrokeAssistance_capi.obj
 0002:0000352c       ??_C@_0CL@GMGEDLFI@LL?5Controller?1Discrete?5PID?5Contr@ 1004552c     FingerStrokeAssistance_capi.obj
 0002:00003560       ??_C@_0CN@GBNNKPCO@LL?5Controller?1Saturation?5Dynamic@ 10045560     FingerStrokeAssistance_capi.obj
 0002:00003598       ??_C@_0CM@IAPBLAAG@LL?5Controller?1Saturation?5Dynamic@ 10045598     FingerStrokeAssistance_capi.obj
 0002:000035cc       ??_C@_0CI@CKNPEEAB@LL?5Controller?1Saturation?5Dynamic@ 100455cc     FingerStrokeAssistance_capi.obj
 0002:000035fc       ??_C@_0CJ@JKFNLLKD@LL?5Controller?1Saturation?5Dynamic@ 100455fc     FingerStrokeAssistance_capi.obj
 0002:00003630       ??_C@_0CO@BJKFCIOJ@LL?5Controller?1Saturation?5Dynamic@ 10045630     FingerStrokeAssistance_capi.obj
 0002:00003668       ??_C@_0CN@PPLPNFEO@LL?5Controller?1Saturation?5Dynamic@ 10045668     FingerStrokeAssistance_capi.obj
 0002:000036a0       ??_C@_0CJ@BODBLONB@LL?5Controller?1Saturation?5Dynamic@ 100456a0     FingerStrokeAssistance_capi.obj
 0002:000036d4       ??_C@_0CK@BMLKIHIN@LL?5Controller?1Saturation?5Dynamic@ 100456d4     FingerStrokeAssistance_capi.obj
 0002:00003708       ??_C@_0BP@DAEPAEBF@Robot?1Discrete?5Derivative?1Diff?$AA@ 10045708     FingerStrokeAssistance_capi.obj
 0002:00003730       ??_C@_0CA@DLBHKHPN@Robot?1Discrete?5Derivative?1TSamp?$AA@ 10045730     FingerStrokeAssistance_capi.obj
 0002:00003758       ??_C@_0BN@GNNONLLN@Robot?1Discrete?5Derivative?1UD?$AA@ 10045758     FingerStrokeAssistance_capi.obj
 0002:0000377c       ??_C@_0BO@KMPBMPBM@Robot?1Triggered?5Subsystem?1In1?$AA@ 1004577c     FingerStrokeAssistance_capi.obj
 0002:000037a0       ??_C@_0DA@IHGHECDK@Robot?1account?5for?5handedness?1MAT@ 100457a0     FingerStrokeAssistance_capi.obj
 0002:000037dc       ??_C@_0DA@KMEKBBPJ@Robot?1account?5for?5handedness?1MAT@ 100457dc     FingerStrokeAssistance_capi.obj
 0002:00003818       ??_C@_0DD@LGPLBJIP@Robot?1account?5for?5handedness?5for@ 10045818     FingerStrokeAssistance_capi.obj
 0002:00003858       ??_C@_0DB@ENPBKHPM@Robot?1account?5for?5handedness1?1MA@ 10045858     FingerStrokeAssistance_capi.obj
 0002:00003894       ??_C@_0DB@BNMCHGNM@Robot?1account?5for?5handedness2?1MA@ 10045894     FingerStrokeAssistance_capi.obj
 0002:000038d0       ??_C@_0DB@DGOPCFBP@Robot?1account?5for?5handedness2?1MA@ 100458d0     FingerStrokeAssistance_capi.obj
 0002:0000390c       ??_C@_0CM@LEIBMJGE@Robot?1filtered?5force?5output?1Low?5@ 1004590c     FingerStrokeAssistance_capi.obj
 0002:00003940       ??_C@_0CN@IMDGCDDK@Robot?1filtered?5force?5output?1Low?5@ 10045940     FingerStrokeAssistance_capi.obj
 0002:00003978       ??_C@_0CD@NAELEMPL@Robot?1filtered?5force?5output?1Memo@ 10045978     FingerStrokeAssistance_capi.obj
 0002:000039a4       ??_C@_0CE@OMOCGHGK@Robot?1filtered?5force?5output?1Memo@ 100459a4     FingerStrokeAssistance_capi.obj
 0002:000039d0       ??_C@_0BD@BNMELIGD@Robot?1gravDir?1gain?$AA@ 100459d0     FingerStrokeAssistance_capi.obj
 0002:000039e8       ??_C@_0BC@NJKIOKBB@Robot?1gravDir?1Sum?$AA@ 100459e8     FingerStrokeAssistance_capi.obj
 0002:00003a00       ??_C@_0CH@KJDMLLPO@parameters?1gain?5transition?1gainr@ 10045a00     FingerStrokeAssistance_capi.obj
 0002:00003a30       ??_C@_0CH@ICBBOIDN@parameters?1gain?5transition?1gainr@ 10045a30     FingerStrokeAssistance_capi.obj
 0002:00003a60       ??_C@_0CC@BDCPHDEE@parameters?1gain?5transition?1Memor@ 10045a60     FingerStrokeAssistance_capi.obj
 0002:00003a88       ??_C@_0CI@PJCJMMGB@parameters?1gain?5transition1?1gain@ 10045a88     FingerStrokeAssistance_capi.obj
 0002:00003ab8       ??_C@_0CI@NCAEJPKC@parameters?1gain?5transition1?1gain@ 10045ab8     FingerStrokeAssistance_capi.obj
 0002:00003ae8       ??_C@_0CD@LNHEJADF@parameters?1gain?5transition1?1Memo@ 10045ae8     FingerStrokeAssistance_capi.obj
 0002:00003b14       ??_C@_0CI@IFEIOJLK@parameters?1gain?5transition2?1gain@ 10045b14     FingerStrokeAssistance_capi.obj
 0002:00003b44       ??_C@_0CI@KOGFLKHJ@parameters?1gain?5transition2?1gain@ 10045b44     FingerStrokeAssistance_capi.obj
 0002:00003b74       ??_C@_0CD@IEPJKMPA@parameters?1gain?5transition2?1Memo@ 10045b74     FingerStrokeAssistance_capi.obj
 0002:00003ba0       ??_C@_0CI@BIEHAIMM@parameters?1gain?5transition3?1gain@ 10045ba0     FingerStrokeAssistance_capi.obj
 0002:00003bd0       ??_C@_0CI@DDGKFLAP@parameters?1gain?5transition3?1gain@ 10045bd0     FingerStrokeAssistance_capi.obj
 0002:00003c00       ??_C@_0CD@JDICLILD@parameters?1gain?5transition3?1Memo@ 10045c00     FingerStrokeAssistance_capi.obj
 0002:00003c2c       ??_C@_0CI@HNIKKCAM@parameters?1gain?5transition4?1gain@ 10045c2c     FingerStrokeAssistance_capi.obj
 0002:00003c5c       ??_C@_0CI@FGKHPBMP@parameters?1gain?5transition4?1gain@ 10045c5c     FingerStrokeAssistance_capi.obj
 0002:00003c8c       ??_C@_0CD@PHODNFHK@parameters?1gain?5transition4?1Memo@ 10045c8c     FingerStrokeAssistance_capi.obj
 0002:00003cb8       ??_C@_0CI@OAIFEDHK@parameters?1gain?5transition5?1gain@ 10045cb8     FingerStrokeAssistance_capi.obj
 0002:00003ce8       ??_C@_0CI@MLKIBALJ@parameters?1gain?5transition5?1gain@ 10045ce8     FingerStrokeAssistance_capi.obj
 0002:00003d18       ??_C@_0CD@OAJIMBDJ@parameters?1gain?5transition5?1Memo@ 10045d18     FingerStrokeAssistance_capi.obj
 0002:00003d44       ??_C@_0O@LGFGCGML@Detect?5Change?$AA@ 10045d44     FingerStrokeAssistance_capi.obj
 0002:00003d54       ??_C@_05NAMIGJNB@vinit?$AA@ 10045d54     FingerStrokeAssistance_capi.obj
 0002:00003d5c       ??_C@_09IIHOELEE@Constant1?$AA@ 10045d5c     FingerStrokeAssistance_capi.obj
 0002:00003d68       ??_C@_05LPIJGKJ@Value?$AA@ 10045d68     FingerStrokeAssistance_capi.obj
 0002:00003d70       ??_C@_09LKEICJMG@Constant3?$AA@ 10045d70     FingerStrokeAssistance_capi.obj
 0002:00003d7c       ??_C@_0M@HPDGGLDG@standby?9OFF?$AA@ 10045d7c     FingerStrokeAssistance_capi.obj
 0002:00003d8c       ??_C@_0L@LAAODOB@standby?9ON?$AA@ 10045d8c     FingerStrokeAssistance_capi.obj
 0002:00003d9c       ??_C@_07KKMCCDCH@gainval?$AA@ 10045d9c     FingerStrokeAssistance_capi.obj
 0002:00003da8       ??_C@_0BB@CFEOEMDC@InitialCondition?$AA@ 10045da8     FingerStrokeAssistance_capi.obj
 0002:00003dbc       ??_C@_0P@HMEAEHIM@CurrentSetting?$AA@ 10045dbc     FingerStrokeAssistance_capi.obj
 0002:00003dd0       ??_C@_0BI@BDCFNOGL@HL?5Controller?1Constant2?$AA@ 10045dd0     FingerStrokeAssistance_capi.obj
 0002:00003dec       ??_C@_0BJ@EIFHKLFK@HL?5Controller?1Switch_Off?$AA@ 10045dec     FingerStrokeAssistance_capi.obj
 0002:00003e0c       ??_C@_0BI@IJJFFPMC@HL?5Controller?1Switch_On?$AA@ 10045e0c     FingerStrokeAssistance_capi.obj
 0002:00003e28       ??_C@_0BF@GLIOIDJM@UpperSaturationLimit?$AA@ 10045e28     FingerStrokeAssistance_capi.obj
 0002:00003e44       ??_C@_0BF@EMCFELNH@LowerSaturationLimit?$AA@ 10045e44     FingerStrokeAssistance_capi.obj
 0002:00003e60       ??_C@_04OMOMKKFL@Gain?$AA@ 10045e60     FingerStrokeAssistance_capi.obj
 0002:00003e68       ??_C@_0M@KNNCJG@DelayLength?$AA@ 10045e68     FingerStrokeAssistance_capi.obj
 0002:00003e78       ??_C@_09OMDFKCLN@Numerator?$AA@ 10045e78     FingerStrokeAssistance_capi.obj
 0002:00003e84       ??_C@_0M@KDILNJPK@Denominator?$AA@ 10045e84     FingerStrokeAssistance_capi.obj
 0002:00003e94       ??_C@_0O@KHJPNGBD@InitialStates?$AA@ 10045e94     FingerStrokeAssistance_capi.obj
 0002:00003ea4       ??_C@_0CG@DLDPEALE@LL?5Controller?1Discrete?5PID?5Contr@ 10045ea4     FingerStrokeAssistance_capi.obj
 0002:00003ed4       ??_C@_01EJNLAFE@P?$AA@     10045ed4     FingerStrokeAssistance_capi.obj
 0002:00003ed8       ??_C@_01JPJNBJEM@I?$AA@    10045ed8     FingerStrokeAssistance_capi.obj
 0002:00003edc       ??_C@_01CKDDGHAB@D?$AA@    10045edc     FingerStrokeAssistance_capi.obj
 0002:00003ee0       ??_C@_01NANMIPIL@N?$AA@    10045ee0     FingerStrokeAssistance_capi.obj
 0002:00003ee4       ??_C@_0BK@MMODBLJF@Robot?1Discrete?5Derivative?$AA@ 10045ee4     FingerStrokeAssistance_capi.obj
 0002:00003f04       ??_C@_0BC@DNAKAAEE@ICPrevScaledInput?$AA@ 10045f04     FingerStrokeAssistance_capi.obj
 0002:00003f1c       ??_C@_02KKFPAPOP@P1?$AA@   10045f1c     FingerStrokeAssistance_capi.obj
 0002:00003f20       ??_C@_02IBHCFMCM@P2?$AA@   10045f20     FingerStrokeAssistance_capi.obj
 0002:00003f24       ??_C@_02JIGJGNGN@P3?$AA@   10045f24     FingerStrokeAssistance_capi.obj
 0002:00003f28       ??_C@_02NHCIPLKK@P4?$AA@   10045f28     FingerStrokeAssistance_capi.obj
 0002:00003f2c       ??_C@_02MODDMKOL@P5?$AA@   10045f2c     FingerStrokeAssistance_capi.obj
 0002:00003f30       ??_C@_02OFBOJJCI@P6?$AA@   10045f30     FingerStrokeAssistance_capi.obj
 0002:00003f34       ??_C@_02PMAFKIGJ@P7?$AA@   10045f34     FingerStrokeAssistance_capi.obj
 0002:00003f38       ??_C@_02HLJNLEKG@P8?$AA@   10045f38     FingerStrokeAssistance_capi.obj
 0002:00003f3c       ??_C@_02GCIGIFOH@P9?$AA@   10045f3c     FingerStrokeAssistance_capi.obj
 0002:00003f40       ??_C@_03OPFJJGBF@P10?$AA@  10045f40     FingerStrokeAssistance_capi.obj
 0002:00003f44       ??_C@_0BD@HJHAJHEM@Robot?1PCI?96221?5AD1?$AA@ 10045f44     FingerStrokeAssistance_capi.obj
 0002:00003f5c       ??_C@_0BC@IGENNOJN@Robot?1PCI?96221?5DA?$AA@ 10045f5c     FingerStrokeAssistance_capi.obj
 0002:00003f74       ??_C@_0CD@NBHNHEJB@parameters?1paremeters_?5must_be_o@ 10045f74     FingerStrokeAssistance_capi.obj
 0002:00003fa0       ??_C@_0L@FBCGKKEN@UpperLimit?$AA@ 10045fa0     FingerStrokeAssistance_capi.obj
 0002:00003fb0       ??_C@_0L@DGFJOHKP@LowerLimit?$AA@ 10045fb0     FingerStrokeAssistance_capi.obj
 0002:00003fc0       ??_C@_04GKLBNPCL@WtEt?$AA@ 10045fc0     FingerStrokeAssistance_capi.obj
 0002:00003fc8       ??_C@_0BP@KMPJMACH@Robot?1Triggered?5Subsystem?1Out1?$AA@ 10045fc8     FingerStrokeAssistance_capi.obj
 0002:00003ff0       ??_C@_0O@LILIEJBO@InitialOutput?$AA@ 10045ff0     FingerStrokeAssistance_capi.obj
 0002:00004000       ??_C@_02LNFHGPBG@X0?$AA@   10046000     FingerStrokeAssistance_capi.obj
 0002:00004004       ??_C@_0BH@BIOEOLDB@Robot?1gravDir?1Constant?$AA@ 10046004     FingerStrokeAssistance_capi.obj
 0002:00004020       ??_C@_04OELFCIM@Alow?$AA@  10046020     FingerStrokeAssistance_capi.obj
 0002:00004028       ??_C@_04EJOLCIFM@Blow?$AA@ 10046028     FingerStrokeAssistance_capi.obj
 0002:00004030       ??_C@_04HEILABOM@Clow?$AA@ 10046030     FingerStrokeAssistance_capi.obj
 0002:00004038       ??_C@_04MGKLNNPM@Dlow?$AA@ 10046038     FingerStrokeAssistance_capi.obj
 0002:00004040       ??_C@_05FKGIECOB@x0low?$AA@ 10046040     FingerStrokeAssistance_capi.obj
 0002:00004048       ??_C@_06BNJCAIGJ@double?$AA@ 10046048     FingerStrokeAssistance_capi.obj
 0002:00004050       ??_C@_06CNMIJIPB@real_T?$AA@ 10046050     FingerStrokeAssistance_capi.obj
 0002:00004058       ??_C@_0O@PPAIJIHF@unsigned?5char?$AA@ 10046058     FingerStrokeAssistance_capi.obj
 0002:00004068       ??_C@_09JBMFCIMO@boolean_T?$AA@ 10046068     FingerStrokeAssistance_capi.obj
 0002:00004074       ??_C@_07NCEHLPOC@uint8_T?$AA@ 10046074     FingerStrokeAssistance_capi.obj
 0002:00004080       ??_C@_0N@OFHMGPAL@unsigned?5int?$AA@ 10046080     FingerStrokeAssistance_capi.obj
 0002:00004090       ??_C@_08CCMIKNJF@uint32_T?$AA@ 10046090     FingerStrokeAssistance_capi.obj
 0002:0000409c       ??_C@_05KNFBNCOH@float?$AA@ 1004609c     FingerStrokeAssistance_capi.obj
 0002:000040a4       ??_C@_0CJ@GGPBKPNK@Could?5not?5start?5ToAsyncQueue?5app@ 100460a4     FingerStrokeAssistance_tgtconn.obj
 0002:00004938       ??_C@_0DJ@FHKINPLE@Unexpected?5itemKind?5?$DN?5DATA_ITEM?5@ 10046938     rt_logging.obj
 0002:0000497c       ??_C@_0DA@IEHFPFCJ@Unexpected?5itemKind?$DN?$CFd?5in?5rt_Pro@ 1004697c     rt_logging.obj
 0002:000049b8       ??_C@_0DA@IFLHJPBO@Unexpected?5itemKind?$DN?$CFd?5in?5rt_Pro@ 100469b8     rt_logging.obj
 0002:000049f4       ??_C@_0DA@IAPIIJJL@Unexpected?5itemKind?$DN?$CFd?5in?5rt_Pro@ 100469f4     rt_logging.obj
 0002:00004a30       ??_C@_0BE@LCIGPJIG@MATLAB?55?40?5MAT?9file?$AA@ 10046a30     rt_logging.obj
 0002:00004a48       ??_C@_0FB@PCJEAJIB@?$CK?$CK?$CK?5Log?5variable?5?$CFs?5has?5wrapped?5@ 10046a48     rt_logging.obj
 0002:00004ab0       ??_C@_0MG@NKMLMOGF@?$CK?$CK?$CK?5To?5avoid?5wrapping?0?5explicitl@ 10046ab0     rt_logging.obj
 0002:00004ba0       ??_C@_0N@IPAEOLLP@_rtw_tmw?4tmw?$AA@ 10046ba0     rt_logging.obj
 0002:00004bb0       ??_C@_04HDOCAJNK@?$CFs?$CFs?$AA@ 10046bb0     rt_logging.obj
 0002:00004bb8       ??_C@_03ELIABIOC@w?$CLb?$AA@ 10046bb8     rt_logging.obj
 0002:00004bbc       ??_C@_0BF@JPILDDFA@?$CK?$CK?$CK?5Error?5opening?5?$CFs?$AA@ 10046bbc     rt_logging.obj
 0002:00004bd8       ??_C@_0BK@EEMDELA@unable?5to?5open?5data?5file?6?$AA@ 10046bd8     rt_logging.obj
 0002:00004bf8       ??_C@_04CGFJFPFD@none?$AA@ 10046bf8     rt_logging.obj
 0002:00004c00       ??_C@_0EE@LCGFPNON@?$CK?$CK?$CK?5Error?5creating?5signals?5struc@ 10046c00     rt_logging.obj
 0002:00004c54       ??_C@_0CE@NHECEDMK@?$CK?$CK?$CK?5Error?5creating?5log?5variable?5@ 10046c54     rt_logging.obj
 0002:00004c80       ??_C@_0DB@IOCGKAGH@?$CK?$CK?$CK?5Errors?5occurred?5when?5startin@ 10046c80     rt_logging.obj
 0002:00004cbc       ??_C@_0BO@BBLOGEBK@?$CK?$CK?$CK?5Memory?5allocation?5error?4?6?$AA@ 10046cbc     rt_logging.obj
 0002:00004ce0       ??_C@_0N@LGFBAGEL@?5?$CIreal?5part?$CJ?$AA@ 10046ce0     rt_logging.obj
 0002:00004cf0       ??_C@_0KH@CGNMHNFE@?5?5?5?5varName?5?5?5?5?5?5?5?5?5?5?$DN?5?$CFs?$CFs?6?5?5?5?5@ 10046cf0     rt_logging.obj
 0002:00004db8       ??_C@_0LE@OALKKEFM@?5?5?5?5varName?5?5?5?5?5?5?5?5?5?5?$DN?5?$CFs?5?$CIcompl@ 10046db8     rt_logging.obj
 0002:00004e90       ??_C@_0KF@JDDLEOKO@?5?5?5?5varName?5?5?5?5?5?5?5?5?5?5?$DN?5?$CFs?6?5?5?5?5nR@ 10046e90     rt_logging.obj
 0002:00004f58       ??_C@_0DP@HPDMIOFM@?$CK?$CK?$CK?5Using?5a?5default?5buffer?5of?5si@ 10046f58     rt_logging.obj
 0002:00004fa8       ??_C@_0KE@JEFOLKNF@?6?$CK?$CK?$CK?5Memory?5required?5to?5log?5vari@ 10046fa8     rt_logging.obj
 0002:00005070       ??_C@_0JP@DKLMHCBI@?$CK?$CK?$CK?5Details?3?6?5?5?5?5?5?5?5varName?5?5?5?5?5@ 10047070     rt_logging.obj
 0002:00005130       ??_C@_0CM@CAMILBED@?$CK?$CK?$CK?5Error?5allocating?5memory?5for?5@ 10047130     rt_logging.obj
 0002:00005164       ??_C@_0DF@BBCNMOPM@?$CK?$CK?$CK?5Error?5allocating?5memory?5for?5@ 10047164     rt_logging.obj
 0002:000051a8       ??_C@_0JP@DBCLPCCI@?$CK?$CK?$CK?5Details?3?6?5?5?5?5?5?5?5varName?5?5?5?5?5@ 100471a8     rt_logging.obj
 0002:00005268       ??_C@_0FK@DPGAOBGA@?$CK?$CK?$CK?5Error?5allocating?5memory?5for?5@ 10047268     rt_logging.obj
 0002:000052d4       ??_C@_0BI@GGDNPHLJ@?$CK?$CK?$CK?5Error?5writing?5to?5?$CFs?$AA@ 100472d4     rt_logging.obj
 0002:000052f0       ??_C@_0CB@IBGJGELG@?$CK?$CK?$CK?5Error?5writing?5?$CFs?5due?5to?3?5?$CFs?6@ 100472f0     rt_logging.obj
 0002:00005318       ??_C@_0CN@FLMCHCPB@?$CK?$CK?$CK?5Error?5writing?5log?5variable?5?$CF@ 10047318     rt_logging.obj
 0002:00005350       ??_C@_0DH@GAJCNOJP@?$CK?$CK?$CK?5Error?5writing?5structure?5log?5@ 10047350     rt_logging.obj
 0002:00005394       ??_C@_0BD@POEALECL@?$CK?$CK?5created?5?$CFs?5?$CK?$CK?6?6?$AA@ 10047394     rt_logging.obj
 0002:000053b0       __real@4020000000000000    100473b0     rt_logging.obj
 0002:000053c0       __real@41dfffffffc00000    100473c0     rt_logging.obj
 0002:000053d0       __real@41efffffffe00000    100473d0     rt_logging.obj
 0002:000053e0       __real@bfbf9add3afd2773    100473e0     rt_logging.obj
 0002:000053f0       __real@c000000000000000    100473f0     rt_logging.obj
 0002:00005400       __xmm@20202020202020202020202020202020 10047400     rt_logging.obj
 0002:00005430       __real@3cb0000000000000    10047430     rt_matrx.obj
 0002:00005450       ??_C@_0BI@INNPNFJN@Memory?5Allocation?5Error?$AA@ 10047450     rtw_modelmap_utils.obj
 0002:00005470       ??_C@_1HC@OAPLBLFC@?$AAC?$AA?3?$AA?2?$AAP?$AAR?$AAO?$AAG?$AAR?$AAA?$AA?$HO?$AA1?$AA?2?$AAM?$AAA?$AAT?$AAL?$AAA?$AAB?$AA?2?$AAR?$AA2?$AA0?$AA1?$AA6?$AAa?$AA?2?$AAr?$AAt?$AAw?$AA?2?$AAc?$AA?2@ 10047470     rtw_modelmap_utils.obj
 0002:000054f8       ??_C@_1CI@OEAJCJND@?$AAj?$AA?5?$AA?$DN?$AA?$DN?$AA?5?$AAe?$AAn?$AAc?$AAo?$AAd?$AAe?$AAd?$AAP?$AAa?$AAt?$AAh?$AAL?$AAe?$AAn?$AA?$AA@ 100474f8     rtw_modelmap_utils.obj
 0002:00005528       ??_C@_1DC@NFAOIFKB@?$AAe?$AAn?$AAc?$AAo?$AAd?$AAe?$AAd?$AAP?$AAa?$AAt?$AAh?$AA?$FL?$AAj?$AA?9?$AA1?$AA?$FN?$AA?5?$AA?$DN?$AA?$DN?$AA?5?$AA?8?$AA?2?$AA0?$AA?8?$AA?$AA@ 10047528     rtw_modelmap_utils.obj
 0002:00005564       ??_C@_1DI@FLNJGPEE@?$AAs?$AAi?$AAg?$AAC?$AAo?$AAm?$AAp?$AAl?$AAe?$AAx?$AAi?$AAt?$AAy?$AA?$FL?$AA?$CK?$AAs?$AAi?$AAg?$AAI?$AAd?$AAx?$AA?$FN?$AA?5?$AA?$CB?$AA?$DN?$AA?5?$AA1?$AA?$AA@ 10047564     rtw_modelmap_utils.obj
 0002:000055a8       ??_C@_1KI@OFELMGBG@?$AA?$CI?$AA?$CI?$AA?$CI?$AAd?$AAa?$AAt?$AAa?$AAT?$AAy?$AAp?$AAe?$AAM?$AAa?$AAp?$AA?$CJ?$AA?$FL?$AA?$CI?$AA?$CI?$AA?$CI?$AAs?$AAt?$AAa?$AAt?$AAe?$AAs?$AA?$CJ?$AA?$FL?$AA?$CI?$AAi?$AA?$CJ?$AA?$FN?$AA?4@ 100475a8     rtw_modelmap_utils.obj
 0002:00005674       ??_C@_1DA@ILCMPHNE@?$AAf?$AAu?$AAl?$AAl?$AAP?$AAa?$AAt?$AAh?$AA?5?$AA?$CB?$AA?$DN?$AA?5?$AA?$CI?$AA?$CI?$AAv?$AAo?$AAi?$AAd?$AA?5?$AA?$CK?$AA?$CJ?$AA0?$AA?$CJ?$AA?$AA@ 10047674     rtw_modelmap_utils.obj
 0002:000056b0       ??_C@_1CI@OEPPFCCA@?$AAp?$AAa?$AAt?$AAh?$AA?5?$AA?$CB?$AA?$DN?$AA?5?$AA?$CI?$AA?$CI?$AAv?$AAo?$AAi?$AAd?$AA?5?$AA?$CK?$AA?$CJ?$AA0?$AA?$CJ?$AA?$AA@ 100476b0     rtw_modelmap_utils.obj
 0002:000056e0       ??_C@_1FK@GLJIMFHB@?$AA?$CI?$AA?$CI?$AAm?$AAm?$AAi?$AA?$CJ?$AA?9?$AA?$DO?$AAI?$AAn?$AAs?$AAt?$AAa?$AAn?$AAc?$AAe?$AAM?$AAa?$AAp?$AA?4?$AAf?$AAu?$AAl?$AAl?$AAP?$AAa?$AAt?$AAh?$AA?$CJ?$AA?5?$AA?$DN?$AA?$DN@ 100476e0     rtw_modelmap_utils.obj
 0002:0000574c       ??_C@_1DG@HPCJGNCE@?$AAm?$AAm?$AAi?$AAP?$AAa?$AAt?$AAh?$AA?$FL?$AAp?$AAa?$AAt?$AAh?$AAL?$AAe?$AAn?$AA?9?$AA1?$AA?$FN?$AA?5?$AA?$DN?$AA?$DN?$AA?5?$AA?8?$AA?2?$AA0?$AA?8?$AA?$AA@ 1004774c     rtw_modelmap_utils.obj
 0002:0000578c       ??_C@_1DM@DBAOGGOO@?$AAm?$AAm?$AAi?$AAP?$AAa?$AAt?$AAh?$AA?$FL?$AAm?$AAm?$AAi?$AAP?$AAa?$AAt?$AAh?$AAL?$AAe?$AAn?$AA?9?$AA1?$AA?$FN?$AA?5?$AA?$DN?$AA?$DN?$AA?5?$AA?8?$AA?2?$AA0?$AA?8?$AA?$AA@ 1004778c     rtw_modelmap_utils.obj
 0002:000057d4       ??_C@_1DC@LHIAKAFE@?$AAb?$AAl?$AAo?$AAc?$AAk?$AAP?$AAa?$AAt?$AAh?$AA?5?$AA?$CB?$AA?$DN?$AA?5?$AA?$CI?$AA?$CI?$AAv?$AAo?$AAi?$AAd?$AA?5?$AA?$CK?$AA?$CJ?$AA0?$AA?$CJ?$AA?$AA@ 100477d4     rtw_modelmap_utils.obj
 0002:00005810       ??_C@_1GI@KIEJKPGC@?$AAf?$AAu?$AAl?$AAl?$AAS?$AAt?$AAa?$AAt?$AAe?$AAB?$AAl?$AAo?$AAc?$AAk?$AAP?$AAa?$AAt?$AAh?$AA?$FL?$AAf?$AAu?$AAl?$AAl?$AAS?$AAt?$AAa?$AAt?$AAe?$AAB?$AAl?$AAo?$AAc@ 10047810     rtw_modelmap_utils.obj
 0002:00005890       ??_C@_1EE@DNPIBJHC@?$AA?$CI?$AA?$CI?$AAd?$AAi?$AAm?$AAM?$AAa?$AAp?$AA?$CJ?$AA?$FL?$AA?$CI?$AAm?$AAa?$AAp?$AAI?$AAd?$AAx?$AA?$CJ?$AA?$FN?$AA?4?$AAn?$AAu?$AAm?$AAD?$AAi?$AAm?$AAs?$AA?$CJ?$AA?5?$AA?$DN?$AA?$DN?$AA?5@ 10047890     rtw_modelmap_utils.obj
 0002:000058e4       ??_C@_06JFOKFOED@CSTATE?$AA@ 100478e4     rtw_modelmap_utils.obj
 0002:000058ec       ??_C@_06FAENGAMN@DSTATE?$AA@ 100478ec     rtw_modelmap_utils.obj
 0002:000058f4       ??_C@_1BI@LEBJNOGG@?$AAc?$AAs?$AAv?$AAI?$AAd?$AAx?$AA?5?$AA?$DO?$AA?$DN?$AA?5?$AA0?$AA?$AA@ 100478f4     rtw_modelmap_utils.obj
 0002:00005910       ??_C@_1BA@KDMGHCHP@?$AAT?$AAI?$AAD?$AA?$DN?$AA?$DN?$AA?9?$AA1?$AA?$AA@ 10047910     rtw_modelmap_utils.obj
 0002:00005924       ??_C@_1DM@DHGKBPCE@?$AAs?$AAi?$AAg?$AAP?$AAa?$AAt?$AAh?$AA?$FL?$AAs?$AAi?$AAg?$AAP?$AAa?$AAt?$AAh?$AAL?$AAe?$AAn?$AA?9?$AA1?$AA?$FN?$AA?5?$AA?$DN?$AA?$DN?$AA?5?$AA?8?$AA?2?$AA0?$AA?8?$AA?$AA@ 10047924     rtw_modelmap_utils.obj
 0002:0000596c       _serialfifoground          1004796c     xpc_datatype_ground.obj
 0002:00005978       _bcmsg1553ground           10047978     xpc_datatype_ground.obj
 0002:00005988       _bcstatground              10047988     xpc_datatype_ground.obj
 0002:000059a0       _bmmsg1553ground           100479a0     xpc_datatype_ground.obj
 0002:000059c0       _ptsetfilename             100479c0     xpctarget.obj
 0002:000059c4       _xmlfile                   100479c4     xpctarget.obj
 0002:000059cc       ??_C@_0BH@DNMKOCPI@FingerStrokeAssistance?$AA@ 100479cc     xpctarget.obj
 0002:000059e8       ??_C@_0L@CHBJKKFC@xpceSetVar?$AA@ 100479e8     xpctarget.obj
 0002:000059f8       ??_C@_03ICACBPID@6?44?$AA@ 100479f8     xpctarget.obj
 0002:00005a00       __real@408f400000000000    10047a00     xpctarget.obj
 0002:00005a10       _FingerStrokeAssistance_BIOMAP 10047a10     appmappingData.obj
 0002:00005f90       _FingerStrokeAssistance_LBLMAP 10047f90     appmappingData.obj
 0002:00006510       _FingerStrokeAssistance_SIDMAP 10048510     appmappingData.obj
 0002:00006a90       _FingerStrokeAssistance_SBIO 10048a90     appmappingData.obj
 0002:00006c68       _FingerStrokeAssistance_SLBL 10048c68     appmappingData.obj
 0002:00006e40       _FingerStrokeAssistance_PTIDSMAP 10048e40     appmappingData.obj
 0002:000071f8       _FingerStrokeAssistance_PTNAMESMAP 100491f8     appmappingData.obj
 0002:000075b0       _FingerStrokeAssistance_SPTMAP 100495b0     appmappingData.obj
 0002:0000778c       _FingerStrokeAssistance_dtmap 1004978c     appmappingData.obj
 0002:000077c0       _appInfo                   100497c0     appmappingData.obj
 0002:00007e0c       ??_C@_0CC@FIFFDAB@?$CFd?5input?5args?5expected?0?5?$CFd?5passe@ 10049e0c     encnipcim.obj
 0002:00007e34       ??_C@_0BN@JIEFLHEB@?$CFs?3?5Too?5many?5M?5series?5boards?$AA@ 10049e34     encnipcim.obj
 0002:00007e58       ??_C@_0ED@LKHIFFLC@Wrong?5number?5of?5input?5arguments?5@ 10049e58     danipcim.obj
 0002:00007ea8       ??_C@_0DB@HFHLNKLE@Channel?5?$CFd?5exceeds?5the?5max?5DA?5ch@ 10049ea8     danipcim.obj
 0002:00007ee4       ??_C@_0CL@GCJHHCMG@Output?5range?5?$CFd?5is?5not?5supported@ 10049ee4     danipcim.obj
 0002:00007f18       ??_C@_0CI@FOFDKLAN@NI?5?$CFs?3?5Can?8t?5allocate?5temporary?5@ 10049f18     adnipcim.obj
 0002:00007f48       ??_C@_0CK@PIIIKEIH@NI?5M?5series?3?5Channel?5?$CFf?5out?5of?5r@ 10049f48     adnipcim.obj
 0002:00007f7c       ??_C@_0CF@LKNEFAOG@NI?5M?5series?3?5Timeout?5waiting?5for@ 10049f7c     adnipcim.obj
 0002:00007fa8       __real@417312d000000000    10049fa8     adnipcim.obj
 0002:00007fb4       ??_C@_0M@IMCLKBPP@NI?5PCI?96220?$AA@ 10049fb4     xpcionim.obj
 0002:00007fc4       ??_C@_0M@JFDAJALO@NI?5PCI?96221?$AA@ 10049fc4     xpcionim.obj
 0002:00007fd4       ??_C@_0P@NGCDCNKM@NI?5PCI?96221?137?$AA@ 10049fd4     xpcionim.obj
 0002:00007fe8       ??_C@_0M@OIEHGEPL@NI?5PCI?96224?$AA@ 10049fe8     xpcionim.obj
 0002:00007ff8       ??_C@_0M@PBFMFFLK@NI?5PCI?96225?$AA@ 10049ff8     xpcionim.obj
 0002:00008008       ??_C@_0M@FNOJBKLG@NI?5PCI?96229?$AA@ 1004a008     xpcionim.obj
 0002:00008018       ??_C@_0M@INOJMLMI@NI?5PCI?96230?$AA@ 1004a018     xpcionim.obj
 0002:00008028       ??_C@_0M@LPNPKJEK@NI?5PCI?96232?$AA@ 1004a028     xpcionim.obj
 0002:00008038       ??_C@_0M@KGMEJIAL@NI?5PCI?96233?$AA@ 1004a038     xpcionim.obj
 0002:00008048       ??_C@_0M@NLLDGMEO@NI?5PCI?96236?$AA@ 1004a048     xpcionim.obj
 0002:00008058       ??_C@_0M@EFDAEBMA@NI?5PCI?96238?$AA@ 1004a058     xpcionim.obj
 0002:00008068       ??_C@_0M@FMCLHAIB@NI?5PCI?96239?$AA@ 1004a068     xpcionim.obj
 0002:00008078       ??_C@_0M@IJGELHHK@NI?5PCI?96250?$AA@ 1004a078     xpcionim.obj
 0002:00008088       ??_C@_0M@JAHPIGDL@NI?5PCI?96251?$AA@ 1004a088     xpcionim.obj
 0002:00008098       ??_C@_0M@ONAIHCHO@NI?5PCI?96254?$AA@ 1004a098     xpcionim.obj
 0002:000080a8       ??_C@_0M@PEBDEDDP@NI?5PCI?96255?$AA@ 1004a0a8     xpcionim.obj
 0002:000080b8       ??_C@_0M@FIKGAMDD@NI?5PCI?96259?$AA@ 1004a0b8     xpcionim.obj
 0002:000080c8       ??_C@_0M@IBLMCECJ@NI?5PCI?96280?$AA@ 1004a0c8     xpcionim.obj
 0002:000080d8       ??_C@_0M@JIKHBFGI@NI?5PCI?96281?$AA@ 1004a0d8     xpcionim.obj
 0002:000080e8       ??_C@_0M@OFNAOBCN@NI?5PCI?96284?$AA@ 1004a0e8     xpcionim.obj
 0002:000080f8       ??_C@_0M@FAHOJPGA@NI?5PCI?96289?$AA@ 1004a0f8     xpcionim.obj
 0002:00008108       ??_C@_0CI@NFFNBHJA@?$CFs?5?$CIbus?5?$CFd?0?5slot?5?$CFd?$CJ?3?5board?5not?5@ 1004a108     xpcionim.obj
 0002:00008138       ??_C@_0CD@MBDNCLAI@NI?5M?5series?3?5Unknown?5board?5type?5@ 1004a138     xpcionim.obj
 0002:00008164       ??_C@_0CC@DMFKNLL@VendorId?5?$DN?50x?$CFx?0?5DeviceId?5?$DN?50x?$CFx@ 1004a164     xpcruntime:xpcimports.obj
 0002:00008188       ??_C@_0DH@OHCBLNMG@Subsystem?5Device?5ID?5?$DN?50x?$CFx?6Subsy@ 1004a188     xpcruntime:xpcimports.obj
 0002:000081c0       ??_C@_0BD@MMMMEFCM@Class?5Code?5?$DN?50x?$CFx?6?$AA@ 1004a1c0     xpcruntime:xpcimports.obj
 0002:000081d4       ??_C@_0BE@OLDDDNHM@InterruptLine?5?$DN?5?$CFd?6?$AA@ 1004a1d4     xpcruntime:xpcimports.obj
 0002:000081e8       ??_C@_0BF@OLKLEKBD@bus?5?$DN?5?$CFd?0?5slot?5?$DN?5?$CFd?6?$AA@ 1004a1e8     xpcruntime:xpcimports.obj
 0002:00008200       ??_C@_0CE@DGLLGDFH@?5?5?5?5Phys?5?5?5Virtual?5?5?5Length?5IO?1M@ 1004a200     xpcruntime:xpcimports.obj
 0002:00008224       ??_C@_0BI@FEOPLEMG@?$CF08x?5?$CF08x?5?$CF08x?5?5?5?5?5?5?$CFc?6?$AA@ 1004a224     xpcruntime:xpcimports.obj
 0002:0000823c       ??_C@_0BB@BNNCEDPC@rl32eScopeExists?$AA@ 1004a23c     xpcruntime:xpcimports.obj
 0002:00008250       ??_C@_0BM@FJBFEGFG@rl32eScopeExists?5not?5found?6?$AA@ 1004a250     xpcruntime:xpcimports.obj
 0002:0000826c       ??_C@_0O@BNNGKJEA@rl32eDefScope?$AA@ 1004a26c     xpcruntime:xpcimports.obj
 0002:0000827c       ??_C@_0BJ@CDNOENKA@rl32eDefScope?5not?5found?6?$AA@ 1004a27c     xpcruntime:xpcimports.obj
 0002:00008298       ??_C@_0P@CKNKILDP@rl32eAddSignal?$AA@ 1004a298     xpcruntime:xpcimports.obj
 0002:000082a8       ??_C@_0BK@GMJAJBAI@rl32eAddSignal?5not?5found?6?$AA@ 1004a2a8     xpcruntime:xpcimports.obj
 0002:000082c4       ??_C@_0BB@LDMIHGCE@rl32eGetSignalNo?$AA@ 1004a2c4     xpcruntime:xpcimports.obj
 0002:000082d8       ??_C@_0BM@LGAMBAID@rl32eGetSignalNo?5not?5found?6?$AA@ 1004a2d8     xpcruntime:xpcimports.obj
 0002:000082f4       ??_C@_0O@CFDGALBP@rl32eSetScope?$AA@ 1004a2f4     xpcruntime:xpcimports.obj
 0002:00008304       ??_C@_0BJ@JCLHHIN@rl32eSetScope?5not?5found?6?$AA@ 1004a304     xpcruntime:xpcimports.obj
 0002:00008320       ??_C@_0P@IKMCBMHH@xpceFSScopeSet?$AA@ 1004a320     xpcruntime:xpcimports.obj
 0002:00008330       ??_C@_0BK@JODJPNNH@xpceFSScopeSet?5not?5found?6?$AA@ 1004a330     xpcruntime:xpcimports.obj
 0002:0000834c       ??_C@_0BE@DLACEEJM@rl32eSetTargetScope?$AA@ 1004a34c     xpcruntime:xpcimports.obj
 0002:00008360       ??_C@_0BP@JCHFMKPJ@rl32eSetTargetScope?5not?5found?6?$AA@ 1004a360     xpcruntime:xpcimports.obj
 0002:00008380       ??_C@_0BJ@LIDLNDHC@rl32eSetTargetScopeSigFt?$AA@ 1004a380     xpcruntime:xpcimports.obj
 0002:0000839c       ??_C@_0CE@JLGHCFHI@rl32eSetTargetScopeSigFt?5not?5fou@ 1004a39c     xpcruntime:xpcimports.obj
 0002:000083c0       ??_C@_0BI@JAPOIDNG@rl32eRestartAcquisition?$AA@ 1004a3c0     xpcruntime:xpcimports.obj
 0002:000083d8       ??_C@_0CD@LLBEFFBO@rl32eRestartAcquisition?5not?5foun@ 1004a3d8     xpcruntime:xpcimports.obj
 0002:000083fc       ??_C@_0P@IEIIADJB@xpceScopeAcqOK?$AA@ 1004a3fc     xpcruntime:xpcimports.obj
 0002:0000840c       ??_C@_0BK@NJCKNFPN@xpceScopeAcqOK?5not?5found?6?$AA@ 1004a40c     xpcruntime:xpcimports.obj
 0002:00008428       ??_C@_0BA@IJINKAHF@xpceRegisterISR?$AA@ 1004a428     xpcruntime:xpcimports.obj
 0002:00008438       ??_C@_0BL@NNDLOEJE@xpceRegisterISR?5not?5found?6?$AA@ 1004a438     xpcruntime:xpcimports.obj
 0002:00008454       ??_C@_0BC@NLBADGKF@xpceDeRegisterISR?$AA@ 1004a454     xpcruntime:xpcimports.obj
 0002:00008468       ??_C@_0BN@DCAIKFFD@xpceDeRegisterISR?5not?5found?6?$AA@ 1004a468     xpcruntime:xpcimports.obj
 0002:00008488       ??_C@_0P@CPGPNKEB@xpceFTReadTime?$AA@ 1004a488     xpcruntime:xpcimports.obj
 0002:00008498       ??_C@_0BK@NMABIODN@xpceFTReadTime?5not?5found?6?$AA@ 1004a498     xpcruntime:xpcimports.obj
 0002:000084b4       ??_C@_09PHNHCHFH@xpceFTAdd?$AA@ 1004a4b4     xpcruntime:xpcimports.obj
 0002:000084c0       ??_C@_0BF@FJLEIILA@xpceFTAdd?5not?5found?6?$AA@ 1004a4c0     xpcruntime:xpcimports.obj
 0002:000084d8       ??_C@_0P@KEODBLHO@xpceFTSubtract?$AA@ 1004a4d8     xpcruntime:xpcimports.obj
 0002:000084e8       ??_C@_0BK@HONODOKP@xpceFTSubtract?5not?5found?6?$AA@ 1004a4e8     xpcruntime:xpcimports.obj
 0002:00008504       ??_C@_07JPMEPILD@xpcInpB?$AA@ 1004a504     xpcruntime:xpcimports.obj
 0002:0000850c       ??_C@_0BD@PGABEJOL@xpcInpB?5not?5found?6?$AA@ 1004a50c     xpcruntime:xpcimports.obj
 0002:00008520       ??_C@_07KIHBBOKH@xpcInpW?$AA@ 1004a520     xpcruntime:xpcimports.obj
 0002:00008528       ??_C@_0BD@FPCJFMCC@xpcInpW?5not?5found?6?$AA@ 1004a528     xpcruntime:xpcimports.obj
 0002:0000853c       ??_C@_08KDIAJBOP@xpcInpDW?$AA@ 1004a53c     xpcruntime:xpcimports.obj
 0002:00008548       ??_C@_0BE@PIELDNIL@xpcInpDW?5not?5found?6?$AA@ 1004a548     xpcruntime:xpcimports.obj
 0002:0000855c       ??_C@_08PJFMOIGO@xpcOutpB?$AA@ 1004a55c     xpcruntime:xpcimports.obj
 0002:00008568       ??_C@_0BE@HCKNCEKF@xpcOutpB?5not?5found?6?$AA@ 1004a568     xpcruntime:xpcimports.obj
 0002:0000857c       ??_C@_08MOOJAOHK@xpcOutpW?$AA@ 1004a57c     xpcruntime:xpcimports.obj
 0002:00008588       ??_C@_0BE@NLIFDBGM@xpcOutpW?5not?5found?6?$AA@ 1004a588     xpcruntime:xpcimports.obj
 0002:0000859c       ??_C@_09FLIEKHJG@xpcOutpDW?$AA@ 1004a59c     xpcruntime:xpcimports.obj
 0002:000085a8       ??_C@_0BF@GJKLPNHB@xpcOutpDW?5not?5found?6?$AA@ 1004a5a8     xpcruntime:xpcimports.obj
 0002:000085c0       ??_C@_0BH@EHOLELHH@xpcReserveMemoryRegion?$AA@ 1004a5c0     xpcruntime:xpcimports.obj
 0002:000085d8       ??_C@_0CC@KAAAGPI@xpcReserveMemoryRegion?5not?5found@ 1004a5d8     xpcruntime:xpcimports.obj
 0002:000085fc       ??_C@_0BA@JGPMHGAF@rl32eShowPCIDev?$AA@ 1004a5fc     xpcruntime:xpcimports.obj
 0002:0000860c       ??_C@_0BL@DDFFLNHI@rl32eShowPCIDev?5not?5found?6?$AA@ 1004a60c     xpcruntime:xpcimports.obj
 0002:00008628       ??_C@_0BB@KBCOJPFB@rl32eShowPCIInfo?$AA@ 1004a628     xpcruntime:xpcimports.obj
 0002:0000863c       ??_C@_0BM@IFDMAGLO@rl32eShowPCIInfo?5not?5found?6?$AA@ 1004a63c     xpcruntime:xpcimports.obj
 0002:00008658       ??_C@_0BA@BGPAADB@rl32eGetPCIInfo?$AA@ 1004a658     xpcruntime:xpcimports.obj
 0002:00008668       ??_C@_0BL@IGOMLDCK@rl32eGetPCIInfo?5not?5found?6?$AA@ 1004a668     xpcruntime:xpcimports.obj
 0002:00008684       ??_C@_0BG@NJPFKFDP@rl32eGetPCIInfoAtSlot?$AA@ 1004a684     xpcruntime:xpcimports.obj
 0002:0000869c       ??_C@_0CB@BBKIPMLA@rl32eGetPCIInfoAtSlot?5not?5found?6@ 1004a69c     xpcruntime:xpcimports.obj
 0002:000086c0       ??_C@_0BH@OKBOPNFG@xpceAssignPCIInterrupt?$AA@ 1004a6c0     xpcruntime:xpcimports.obj
 0002:000086d8       ??_C@_0CC@CDNDNJBJ@xpceAssignPCIInterrupt?5not?5found@ 1004a6d8     xpcruntime:xpcimports.obj
 0002:000086fc       ??_C@_0BB@FCHHFAAH@rl32eInitCOMPort?$AA@ 1004a6fc     xpcruntime:xpcimports.obj
 0002:00008710       ??_C@_0BM@DDJGKAHB@rl32eInitCOMPort?5not?5found?6?$AA@ 1004a710     xpcruntime:xpcimports.obj
 0002:0000872c       ??_C@_0BC@CHEEFCP@rl32eCloseCOMPort?$AA@ 1004a72c     xpcruntime:xpcimports.obj
 0002:00008740       ??_C@_0BN@KCOFELEM@rl32eCloseCOMPort?5not?5found?6?$AA@ 1004a740     xpcruntime:xpcimports.obj
 0002:00008760       ??_C@_0O@LLJGKFOG@rl32eSendChar?$AA@ 1004a760     xpcruntime:xpcimports.obj
 0002:00008770       ??_C@_0BJ@JCJKDACJ@rl32eSendChar?5not?5found?6?$AA@ 1004a770     xpcruntime:xpcimports.obj
 0002:0000878c       ??_C@_0BB@OMFKCOEK@rl32eReceiveChar?$AA@ 1004a78c     xpcruntime:xpcimports.obj
 0002:000087a0       ??_C@_0BM@HGAIOAND@rl32eReceiveChar?5not?5found?6?$AA@ 1004a7a0     xpcruntime:xpcimports.obj
 0002:000087bc       ??_C@_0BI@PKEJFHMJ@rl32eReceiveBufferCount?$AA@ 1004a7bc     xpcruntime:xpcimports.obj
 0002:000087d4       ??_C@_0CD@LNMOFLAH@rl32eReceiveBufferCount?5not?5foun@ 1004a7d4     xpcruntime:xpcimports.obj
 0002:000087f8       ??_C@_0BA@CFIJOJPK@rl32eLineStatus?$AA@ 1004a7f8     xpcruntime:xpcimports.obj
 0002:00008808       ??_C@_0BL@PLIDKKGI@rl32eLineStatus?5not?5found?6?$AA@ 1004a808     xpcruntime:xpcimports.obj
 0002:00008824       ??_C@_0P@MDMKIJF@rl32eSendBlock?$AA@ 1004a824     xpcruntime:xpcimports.obj
 0002:00008834       ??_C@_0BK@KNBNFIKH@rl32eSendBlock?5not?5found?6?$AA@ 1004a834     xpcruntime:xpcimports.obj
 0002:00008850       ??_C@_0BD@PCKOKHO@xpceGetSignalValue?$AA@ 1004a850     xpcruntime:xpcimports.obj
 0002:00008864       ??_C@_0BO@GCBDJHMB@xpceGetSignalValue?5not?5found?6?$AA@ 1004a864     xpcruntime:xpcimports.obj
 0002:00008884       ??_C@_0BB@BJONJAGA@xpceSetParameter?$AA@ 1004a884     xpcruntime:xpcimports.obj
 0002:00008898       ??_C@_0BM@BJIKDLHA@xpceSetParameter?5not?5found?6?$AA@ 1004a898     xpcruntime:xpcimports.obj
 0002:000088b4       ??_C@_0BB@GNFDFMCM@xpceGetParameter?$AA@ 1004a8b4     xpcruntime:xpcimports.obj
 0002:000088c8       ??_C@_0BM@POHNKBC@xpceGetParameter?5not?5found?6?$AA@ 1004a8c8     xpcruntime:xpcimports.obj
 0002:000088e4       ??_C@_0BB@CEIJLFCD@xpceGetParamDims?$AA@ 1004a8e4     xpcruntime:xpcimports.obj
 0002:000088f8       ??_C@_0BM@OABDBKAO@xpceGetParamDims?5not?5found?6?$AA@ 1004a8f8     xpcruntime:xpcimports.obj
 0002:00008914       ??_C@_0L@OCBLLHBM@xpceGetTET?$AA@ 1004a914     xpcruntime:xpcimports.obj
 0002:00008920       ??_C@_0BG@HNOFBOB@xpceGetTET?5not?5found?6?$AA@ 1004a920     xpcruntime:xpcimports.obj
 0002:00008938       ??_C@_0BA@FHMIOKFL@xpceUDPOpenSend?$AA@ 1004a938     xpcruntime:xpcimports.obj
 0002:00008948       ??_C@_0BL@HNLPFEK@xpceUDPOpenSend?5not?5found?6?$AA@ 1004a948     xpcruntime:xpcimports.obj
 0002:00008964       ??_C@_0BD@BCELJJJL@xpceUDPOpenReceive?$AA@ 1004a964     xpcruntime:xpcimports.obj
 0002:00008978       ??_C@_0BO@IFKJBHKC@xpceUDPOpenReceive?5not?5found?6?$AA@ 1004a978     xpcruntime:xpcimports.obj
 0002:00008998       ??_C@_0M@OFPFLJGN@xpceUDPSend?$AA@ 1004a998     xpcruntime:xpcimports.obj
 0002:000089a4       ??_C@_0BH@NOIKLPAB@xpceUDPSend?5not?5found?6?$AA@ 1004a9a4     xpcruntime:xpcimports.obj
 0002:000089bc       ??_C@_0P@PLFDECIN@xpceUDPReceive?$AA@ 1004a9bc     xpcruntime:xpcimports.obj
 0002:000089cc       ??_C@_0BK@OPJMLDLH@xpceUDPReceive?5not?5found?6?$AA@ 1004a9cc     xpcruntime:xpcimports.obj
 0002:000089e8       ??_C@_0N@IEHPMFME@xpceUDPClose?$AA@ 1004a9e8     xpcruntime:xpcimports.obj
 0002:000089f8       ??_C@_0BI@FHPFHECO@xpceUDPClose?5not?5found?6?$AA@ 1004a9f8     xpcruntime:xpcimports.obj
 0002:00008a10       ??_C@_0P@OKGNGAGH@xpcIsModelInit?$AA@ 1004aa10     xpcruntime:xpcimports.obj
 0002:00008a20       ??_C@_0BK@DHEMLBIM@xpcIsModelInit?5not?5found?6?$AA@ 1004aa20     xpcruntime:xpcimports.obj
 0002:00008a3c       ??_C@_0BH@KJJLCAOJ@xpcAllocPhysicalMemory?$AA@ 1004aa3c     xpcruntime:xpcimports.obj
 0002:00008a54       ??_C@_0CC@MOJPNHKL@xpcAllocPhysicalMemory?5not?5found@ 1004aa54     xpcruntime:xpcimports.obj
 0002:00008a78       ??_C@_0BG@CBNPGAEL@xpcFreePhysicalMemory?$AA@ 1004aa78     xpcruntime:xpcimports.obj
 0002:00008a90       ??_C@_0CB@PKJEBPOG@xpcFreePhysicalMemory?5not?5found?6@ 1004aa90     xpcruntime:xpcimports.obj
 0002:00008ab4       ??_C@_0BC@JGKNLICL@xpcGetElapsedTime?$AA@ 1004aab4     xpcruntime:xpcimports.obj
 0002:00008ac8       ??_C@_0BN@OEOAHCIO@xpcGetElapsedTime?5not?5found?6?$AA@ 1004aac8     xpcruntime:xpcimports.obj
 0002:00008ae8       ??_C@_0M@ICBLMODA@xpcBusyWait?$AA@ 1004aae8     xpcruntime:xpcimports.obj
 0002:00008af4       ??_C@_0BH@FBOPECBI@xpcBusyWait?5not?5found?6?$AA@ 1004aaf4     xpcruntime:xpcimports.obj
 0002:00008b0c       ??_C@_0N@LKKJEKKA@TBCreateSpin?$AA@ 1004ab0c     xpcruntime:xpcimports.obj
 0002:00008b1c       ??_C@_0BI@FHKMLKOE@TBCreateSpin?5not?5found?6?$AA@ 1004ab1c     xpcruntime:xpcimports.obj
 0002:00008b34       ??_C@_0N@HOAJHNBD@TBDeleteSpin?$AA@ 1004ab34     xpcruntime:xpcimports.obj
 0002:00008b44       ??_C@_0BI@BKCPAAG@TBDeleteSpin?5not?5found?6?$AA@ 1004ab44     xpcruntime:xpcimports.obj
 0002:00008b5c       ??_C@_0P@DAHDDBJG@TBTakeSpinFast?$AA@ 1004ab5c     xpcruntime:xpcimports.obj
 0002:00008b6c       ??_C@_0BK@NKAIBHGB@TBTakeSpinFast?5not?5found?6?$AA@ 1004ab6c     xpcruntime:xpcimports.obj
 0002:00008b88       ??_C@_0P@FKNAAELA@TBGiveSpinFast?$AA@ 1004ab88     xpcruntime:xpcimports.obj
 0002:00008b98       ??_C@_0BK@KGPJBJND@TBGiveSpinFast?5not?5found?6?$AA@ 1004ab98     xpcruntime:xpcimports.obj
 0002:00008bb4       ??_C@_0BE@IIGBFDHK@xpceCreateSemaphore?$AA@ 1004abb4     xpcruntime:xpcimports.obj
 0002:00008bc8       ??_C@_0BP@KFBAFFKJ@xpceCreateSemaphore?5not?5found?6?$AA@ 1004abc8     xpcruntime:xpcimports.obj
 0002:00008be8       ??_C@_0BC@IFNIONKJ@xpceWaitSemaphore?$AA@ 1004abe8     xpcruntime:xpcimports.obj
 0002:00008bfc       ??_C@_0BN@NMFAADIO@xpceWaitSemaphore?5not?5found?6?$AA@ 1004abfc     xpcruntime:xpcimports.obj
 0002:00008c1c       ??_C@_0BE@NNDIOBKE@xpceSignalSemaphore?$AA@ 1004ac1c     xpcruntime:xpcimports.obj
 0002:00008c30       ??_C@_0BP@LBANMHJP@xpceSignalSemaphore?5not?5found?6?$AA@ 1004ac30     xpcruntime:xpcimports.obj
 0002:00008c50       ??_C@_0BE@MEBEKOIM@xpceDeleteSemaphore?$AA@ 1004ac50     xpcruntime:xpcimports.obj
 0002:00008c64       ??_C@_0BP@OFNCKOJH@xpceDeleteSemaphore?5not?5found?6?$AA@ 1004ac64     xpcruntime:xpcimports.obj
 0002:00008c84       ??_C@_0BD@MFNDMBOF@FindUsbVideoDevice?$AA@ 1004ac84     xpcruntime:xpcimports.obj
 0002:00008c98       ??_C@_0BO@POKLDHMI@FindUsbVideoDevice?5not?5found?6?$AA@ 1004ac98     xpcruntime:xpcimports.obj
 0002:00008cb8       ??_C@_0BA@PLPAPNAB@GetVideoConfigs?$AA@ 1004acb8     xpcruntime:xpcimports.obj
 0002:00008cc8       ??_C@_0BL@DALDHKHC@GetVideoConfigs?5not?5found?6?$AA@ 1004acc8     xpcruntime:xpcimports.obj
 0002:00008ce4       ??_C@_0L@GBAEMHMH@StartVideo?$AA@ 1004ace4     xpcruntime:xpcimports.obj
 0002:00008cf0       ??_C@_0BG@HDCELEBP@StartVideo?5not?5found?6?$AA@ 1004acf0     xpcruntime:xpcimports.obj
 0002:00008d08       ??_C@_0BA@FDNPOCLN@ReadFrameBuffer?$AA@ 1004ad08     xpcruntime:xpcimports.obj
 0002:00008d18       ??_C@_0BL@JHGHPNBI@ReadFrameBuffer?5not?5found?6?$AA@ 1004ad18     xpcruntime:xpcimports.obj
 0002:00008d34       ??_C@_09FAHCLKAG@StopVideo?$AA@ 1004ad34     xpcruntime:xpcimports.obj
 0002:00008d40       ??_C@_0BF@NKGKKADL@StopVideo?5not?5found?6?$AA@ 1004ad40     xpcruntime:xpcimports.obj
 0002:00008d58       ??_C@_0O@MCPKDLLL@ConvertUImage?$AA@ 1004ad58     xpcruntime:xpcimports.obj
 0002:00008d68       ??_C@_0BJ@PHJKOAFL@ConvertUImage?5not?5found?6?$AA@ 1004ad68     xpcruntime:xpcimports.obj
 0002:00008d84       ??_C@_0BD@NKCBPBJJ@CreateVideoDisplay?$AA@ 1004ad84     xpcruntime:xpcimports.obj
 0002:00008d98       ??_C@_0BO@HPPLLNFP@CreateVideoDisplay?5not?5found?6?$AA@ 1004ad98     xpcruntime:xpcimports.obj
 0002:00008db8       ??_C@_0BE@KJCKGPHA@DestroyVideoDisplay?$AA@ 1004adb8     xpcruntime:xpcimports.obj
 0002:00008dcc       ??_C@_0BP@FMGLJAIJ@DestroyVideoDisplay?5not?5found?6?$AA@ 1004adcc     xpcruntime:xpcimports.obj
 0002:00008dec       ??_C@_0BC@HCMIMIDN@StartVideoDisplay?$AA@ 1004adec     xpcruntime:xpcimports.obj
 0002:00008e00       ??_C@_0BN@EFIEBGOO@StartVideoDisplay?5not?5found?6?$AA@ 1004ae00     xpcruntime:xpcimports.obj
 0002:00008e20       ??_C@_0BB@JBBLMILG@StopVideoDisplay?$AA@ 1004ae20     xpcruntime:xpcimports.obj
 0002:00008e34       ??_C@_0BM@DBJBPLEL@StopVideoDisplay?5not?5found?6?$AA@ 1004ae34     xpcruntime:xpcimports.obj
 0002:00008e50       ??_C@_0M@MFJEGMHC@StreamVideo?$AA@ 1004ae50     xpcruntime:xpcimports.obj
 0002:00008e5c       ??_C@_0BH@OINCDMLA@StreamVideo?5not?5found?6?$AA@ 1004ae5c     xpcruntime:xpcimports.obj
 0002:00008e74       ??_C@_0N@IGGLCIGE@xpceaddEvent?$AA@ 1004ae74     xpcruntime:xpcimports.obj
 0002:00008e84       ??_C@_0BI@NHJNFMKH@xpceaddEvent?5not?5found?6?$AA@ 1004ae84     xpcruntime:xpcimports.obj
 0002:00008e9c       ??_C@_0BB@LCMHHHFN@getMemoryService?$AA@ 1004ae9c     xpcruntime:xpcimports.obj
 0002:00008eb0       ??_C@_0BM@MPLCNIIE@getMemoryService?5not?5found?6?$AA@ 1004aeb0     xpcruntime:xpcimports.obj
 0002:00008ecc       ??_C@_0P@KIKONDKK@getCommService?$AA@ 1004aecc     xpcruntime:xpcimports.obj
 0002:00008edc       ??_C@_0BK@NCECBKNM@getCommService?5not?5found?6?$AA@ 1004aedc     xpcruntime:xpcimports.obj
 0002:00008ef8       ??_C@_0P@GDLHFECE@getStatusFlags?$AA@ 1004aef8     xpcruntime:xpcimports.obj
 0002:00008f08       ??_C@_0BK@NEKDLJHG@getStatusFlags?5not?5found?6?$AA@ 1004af08     xpcruntime:xpcimports.obj
 0002:00008f24       ??_C@_0BL@CDFCLKOL@startToAsyncQueueTgtAppSvc?$AA@ 1004af24     xpcruntime:xpcimports.obj
 0002:00008f40       ??_C@_0CG@JGOFFKEL@startToAsyncQueueTgtAppSvc?5not?5f@ 1004af40     xpcruntime:xpcimports.obj
 0002:00008f68       ??_C@_0BP@IJNGPPPE@terminateToAsyncQueueTgtAppSvc?$AA@ 1004af68     xpcruntime:xpcimports.obj
 0002:00008f88       ??_C@_0CK@NDEMAMKF@terminateToAsyncQueueTgtAppSvc?5n@ 1004af88     xpcruntime:xpcimports.obj
 0002:00008fb4       ??_C@_0BK@IDACEHAO@sendToAsyncQueueTgtAppSvc?$AA@ 1004afb4     xpcruntime:xpcimports.obj
 0002:00008fd0       ??_C@_0CF@PNCKPEHN@sendToAsyncQueueTgtAppSvc?5not?5fo@ 1004afd0     xpcruntime:xpcimports.obj
 0002:00008ff8       ??_C@_0BN@HJOHIFOM@xpceGetIntTimerGranularityNS?$AA@ 1004aff8     xpcruntime:xpcimports.obj
 0002:00009018       ??_C@_0CI@OADDPMKB@xpceGetIntTimerGranularityNS?5not@ 1004b018     xpcruntime:xpcimports.obj
 0002:00009040       ??_C@_0BG@CCHICKPN@slrteSetStepSizeDelta?$AA@ 1004b040     xpcruntime:xpcimports.obj
 0002:00009058       ??_C@_0CB@MKHINEIJ@slrteSetStepSizeDelta?5not?5found?6@ 1004b058     xpcruntime:xpcimports.obj
 0002:0000907c       ??_C@_0BI@CLNBLDKJ@slrteGetCurrentStepSize?$AA@ 1004b07c     xpcruntime:xpcimports.obj
 0002:00009094       ??_C@_0CD@GIOJPGJA@slrteGetCurrentStepSize?5not?5foun@ 1004b094     xpcruntime:xpcimports.obj
 0002:000090b8       ??_C@_0BE@FCLCBOC@registerPTPTimeRead?$AA@ 1004b0b8     xpcruntime:xpcimports.obj
 0002:000090cc       ??_C@_0BP@LHPKAJIP@registerPTPTimeRead?5not?5found?6?$AA@ 1004b0cc     xpcruntime:xpcimports.obj
 0002:000090ec       ??_C@_0BG@KIGCDDJI@unRegisterPTPTimeRead?$AA@ 1004b0ec     xpcruntime:xpcimports.obj
 0002:00009104       ??_C@_0CB@MLFFBFCM@unRegisterPTPTimeRead?5not?5found?6@ 1004b104     xpcruntime:xpcimports.obj
 0002:00009128       ??_C@_0BB@IPMDDBHK@slTestInitialize?$AA@ 1004b128     xpcruntime:xpcimports.obj
 0002:0000913c       ??_C@_0BM@LAJFCCJH@slTestInitialize?5not?5found?6?$AA@ 1004b13c     xpcruntime:xpcimports.obj
 0002:00009158       ??_C@_0BF@OOMPMEBC@slTestLogAssessments?$AA@ 1004b158     xpcruntime:xpcimports.obj
 0002:00009170       ??_C@_0CA@FGJCEBAG@slTestLogAssessments?5not?5found?6?$AA@ 1004b170     xpcruntime:xpcimports.obj
 0002:00009190       ??_C@_0BB@HJHKONHO@slTestEvalOnFail?$AA@ 1004b190     xpcruntime:xpcimports.obj
 0002:000091a4       ??_C@_0BM@JIKCFFNJ@slTestEvalOnFail?5not?5found?6?$AA@ 1004b1a4     xpcruntime:xpcimports.obj
 0002:000091c0       ??_C@_0BA@LBHLABFP@slTestTerminate?$AA@ 1004b1c0     xpcruntime:xpcimports.obj
 0002:000091d0       ??_C@_0BL@EMFGKAPA@slTestTerminate?5not?5found?6?$AA@ 1004b1d0     xpcruntime:xpcimports.obj
 0002:000091ec       ??_C@_0BE@JPNPBBEO@slTestRegAssessment?$AA@ 1004b1ec     xpcruntime:xpcimports.obj
 0002:00009200       ??_C@_0BP@FBDEJJJH@slTestRegAssessment?5not?5found?6?$AA@ 1004b200     xpcruntime:xpcimports.obj
 0002:0000cb88       __FPinit                   1004eb88     LIBCMT:fpinit.obj
 0002:0000cb94       ??_C@_1BI@BGOHAHKC@?$AAm?$AAs?$AAc?$AAo?$AAr?$AAe?$AAe?$AA?4?$AAd?$AAl?$AAl?$AA?$AA@ 1004eb94     LIBCMT:crt0dat.obj
 0002:0000cbac       ??_C@_0P@MIGLKIOC@CorExitProcess?$AA@ 1004ebac     LIBCMT:crt0dat.obj
 0002:0000cc44       ??_C@_17LGKOMLJ@?$AA?4?$AA?4?$AA?4?$AA?$AA@ 1004ec44     LIBCMT:wassert.obj
 0002:0000cc4c       ??_C@_13LBAGMAIH@?$AA?6?$AA?$AA@ 1004ec4c     LIBCMT:wassert.obj
 0002:0000cc50       ??_C@_15IABLJNFO@?$AA?6?$AA?6?$AA?$AA@ 1004ec50     LIBCMT:wassert.obj
 0002:0000cc58       ??_C@_1CE@OJBNHDMO@?$AAA?$AAs?$AAs?$AAe?$AAr?$AAt?$AAi?$AAo?$AAn?$AA?5?$AAf?$AAa?$AAi?$AAl?$AAe?$AAd?$AA?$CB?$AA?$AA@ 1004ec58     LIBCMT:wassert.obj
 0002:0000cc7c       ??_C@_1BE@PHKBBGE@?$AAP?$AAr?$AAo?$AAg?$AAr?$AAa?$AAm?$AA?3?$AA?5?$AA?$AA@ 1004ec7c     LIBCMT:wassert.obj
 0002:0000cc90       ??_C@_1CO@EAEJAADC@?$AA?$DM?$AAp?$AAr?$AAo?$AAg?$AAr?$AAa?$AAm?$AA?5?$AAn?$AAa?$AAm?$AAe?$AA?5?$AAu?$AAn?$AAk?$AAn?$AAo?$AAw?$AAn?$AA?$DO?$AA?$AA@ 1004ec90     LIBCMT:wassert.obj
 0002:0000ccc0       ??_C@_1O@HEMHKNDC@?$AAF?$AAi?$AAl?$AAe?$AA?3?$AA?5?$AA?$AA@ 1004ecc0     LIBCMT:wassert.obj
 0002:0000ccd0       ??_C@_1O@KCAFKHJE@?$AAL?$AAi?$AAn?$AAe?$AA?3?$AA?5?$AA?$AA@ 1004ecd0     LIBCMT:wassert.obj
 0002:0000cce0       ??_C@_1BK@PEDCIPMA@?$AAE?$AAx?$AAp?$AAr?$AAe?$AAs?$AAs?$AAi?$AAo?$AAn?$AA?3?$AA?5?$AA?$AA@ 1004ece0     LIBCMT:wassert.obj
 0002:0000cd00       ??_C@_1OA@EGMLFBHJ@?$AAF?$AAo?$AAr?$AA?5?$AAi?$AAn?$AAf?$AAo?$AAr?$AAm?$AAa?$AAt?$AAi?$AAo?$AAn?$AA?5?$AAo?$AAn?$AA?5?$AAh?$AAo?$AAw?$AA?5?$AAy?$AAo?$AAu?$AAr?$AA?5?$AAp?$AAr?$AAo?$AAg@ 1004ed00     LIBCMT:wassert.obj
 0002:0000cde0       ??_C@_1HK@POCJMFGK@?$AA?$CI?$AAP?$AAr?$AAe?$AAs?$AAs?$AA?5?$AAR?$AAe?$AAt?$AAr?$AAy?$AA?5?$AAt?$AAo?$AA?5?$AAd?$AAe?$AAb?$AAu?$AAg?$AA?5?$AAt?$AAh?$AAe?$AA?5?$AAa?$AAp?$AAp?$AAl?$AAi?$AAc@ 1004ede0     LIBCMT:wassert.obj
 0002:0000ce60       ??_C@_1EK@MBDPDCGA@?$AAM?$AAi?$AAc?$AAr?$AAo?$AAs?$AAo?$AAf?$AAt?$AA?5?$AAV?$AAi?$AAs?$AAu?$AAa?$AAl?$AA?5?$AAC?$AA?$CL?$AA?$CL?$AA?5?$AAR?$AAu?$AAn?$AAt?$AAi?$AAm?$AAe?$AA?5?$AAL?$AAi?$AAb@ 1004ee60     LIBCMT:wassert.obj
 0002:0000ceac       __pDefaultRawDllMain       1004eeac     LIBCMT:dllcrt0.obj
 0002:0000ceac       __pRawDllMain              1004eeac     LIBCMT:dllcrt0.obj
 0002:0000ceb0       ?ProcessDetach@NativeDll@<CrtImplementationDetails>@@0IB 1004eeb0     LIBCMT:handler.obj
 0002:0000ceb4       ?ProcessAttach@NativeDll@<CrtImplementationDetails>@@0IB 1004eeb4     LIBCMT:handler.obj
 0002:0000ceb8       ?ThreadAttach@NativeDll@<CrtImplementationDetails>@@0IB 1004eeb8     LIBCMT:handler.obj
 0002:0000cebc       ?ThreadDetach@NativeDll@<CrtImplementationDetails>@@0IB 1004eebc     LIBCMT:handler.obj
 0002:0000cec0       ?ProcessVerifier@NativeDll@<CrtImplementationDetails>@@0IB 1004eec0     LIBCMT:handler.obj
 0002:0000cf80       ??_C@_1FK@PGACCAFB@?$AAR?$AA6?$AA0?$AA0?$AA2?$AA?$AN?$AA?6?$AA?9?$AA?5?$AAf?$AAl?$AAo?$AAa?$AAt?$AAi?$AAn?$AAg?$AA?5?$AAp?$AAo?$AAi?$AAn?$AAt?$AA?5?$AAs?$AAu?$AAp?$AAp?$AAo?$AAr?$AAt?$AA?5@ 1004ef80     LIBCMT:crt0msg.obj
 0002:0000cfe0       ??_C@_1FE@LLNEDJMD@?$AAR?$AA6?$AA0?$AA0?$AA8?$AA?$AN?$AA?6?$AA?9?$AA?5?$AAn?$AAo?$AAt?$AA?5?$AAe?$AAn?$AAo?$AAu?$AAg?$AAh?$AA?5?$AAs?$AAp?$AAa?$AAc?$AAe?$AA?5?$AAf?$AAo?$AAr?$AA?5?$AAa?$AAr@ 1004efe0     LIBCMT:crt0msg.obj
 0002:0000d038       ??_C@_1FI@HONFMGBI@?$AAR?$AA6?$AA0?$AA0?$AA9?$AA?$AN?$AA?6?$AA?9?$AA?5?$AAn?$AAo?$AAt?$AA?5?$AAe?$AAn?$AAo?$AAu?$AAg?$AAh?$AA?5?$AAs?$AAp?$AAa?$AAc?$AAe?$AA?5?$AAf?$AAo?$AAr?$AA?5?$AAe?$AAn@ 1004f038     LIBCMT:crt0msg.obj
 0002:0000d090       ??_C@_1EG@BEHAGFJD@?$AAR?$AA6?$AA0?$AA1?$AA0?$AA?$AN?$AA?6?$AA?9?$AA?5?$AAa?$AAb?$AAo?$AAr?$AAt?$AA?$CI?$AA?$CJ?$AA?5?$AAh?$AAa?$AAs?$AA?5?$AAb?$AAe?$AAe?$AAn?$AA?5?$AAc?$AAa?$AAl?$AAl?$AAe?$AAd@ 1004f090     LIBCMT:crt0msg.obj
 0002:0000d0d8       ??_C@_1FI@LOGNIKDM@?$AAR?$AA6?$AA0?$AA1?$AA6?$AA?$AN?$AA?6?$AA?9?$AA?5?$AAn?$AAo?$AAt?$AA?5?$AAe?$AAn?$AAo?$AAu?$AAg?$AAh?$AA?5?$AAs?$AAp?$AAa?$AAc?$AAe?$AA?5?$AAf?$AAo?$AAr?$AA?5?$AAt?$AAh@ 1004f0d8     LIBCMT:crt0msg.obj
 0002:0000d130       ??_C@_1FK@BEOGODMC@?$AAR?$AA6?$AA0?$AA1?$AA7?$AA?$AN?$AA?6?$AA?9?$AA?5?$AAu?$AAn?$AAe?$AAx?$AAp?$AAe?$AAc?$AAt?$AAe?$AAd?$AA?5?$AAm?$AAu?$AAl?$AAt?$AAi?$AAt?$AAh?$AAr?$AAe?$AAa?$AAd?$AA?5@ 1004f130     LIBCMT:crt0msg.obj
 0002:0000d190       ??_C@_1EC@JIBHAOPH@?$AAR?$AA6?$AA0?$AA1?$AA8?$AA?$AN?$AA?6?$AA?9?$AA?5?$AAu?$AAn?$AAe?$AAx?$AAp?$AAe?$AAc?$AAt?$AAe?$AAd?$AA?5?$AAh?$AAe?$AAa?$AAp?$AA?5?$AAe?$AAr?$AAr?$AAo?$AAr?$AA?$AN?$AA?6@ 1004f190     LIBCMT:crt0msg.obj
 0002:0000d1d8       ??_C@_1FC@ECHBIFBC@?$AAR?$AA6?$AA0?$AA1?$AA9?$AA?$AN?$AA?6?$AA?9?$AA?5?$AAu?$AAn?$AAa?$AAb?$AAl?$AAe?$AA?5?$AAt?$AAo?$AA?5?$AAo?$AAp?$AAe?$AAn?$AA?5?$AAc?$AAo?$AAn?$AAs?$AAo?$AAl?$AAe?$AA?5@ 1004f1d8     LIBCMT:crt0msg.obj
 0002:0000d230       ??_C@_1GK@FHCKBEFA@?$AAR?$AA6?$AA0?$AA2?$AA4?$AA?$AN?$AA?6?$AA?9?$AA?5?$AAn?$AAo?$AAt?$AA?5?$AAe?$AAn?$AAo?$AAu?$AAg?$AAh?$AA?5?$AAs?$AAp?$AAa?$AAc?$AAe?$AA?5?$AAf?$AAo?$AAr?$AA?5?$AA_?$AAo@ 1004f230     LIBCMT:crt0msg.obj
 0002:0000d2a0       ??_C@_1EM@MAADIHMB@?$AAR?$AA6?$AA0?$AA2?$AA5?$AA?$AN?$AA?6?$AA?9?$AA?5?$AAp?$AAu?$AAr?$AAe?$AA?5?$AAv?$AAi?$AAr?$AAt?$AAu?$AAa?$AAl?$AA?5?$AAf?$AAu?$AAn?$AAc?$AAt?$AAi?$AAo?$AAn?$AA?5?$AAc@ 1004f2a0     LIBCMT:crt0msg.obj
 0002:0000d2f0       ??_C@_1GK@MCAAGJMO@?$AAR?$AA6?$AA0?$AA2?$AA6?$AA?$AN?$AA?6?$AA?9?$AA?5?$AAn?$AAo?$AAt?$AA?5?$AAe?$AAn?$AAo?$AAu?$AAg?$AAh?$AA?5?$AAs?$AAp?$AAa?$AAc?$AAe?$AA?5?$AAf?$AAo?$AAr?$AA?5?$AAs?$AAt@ 1004f2f0     LIBCMT:crt0msg.obj
 0002:0000d360       ??_C@_1GK@MFGOKLAG@?$AAR?$AA6?$AA0?$AA2?$AA7?$AA?$AN?$AA?6?$AA?9?$AA?5?$AAn?$AAo?$AAt?$AA?5?$AAe?$AAn?$AAo?$AAu?$AAg?$AAh?$AA?5?$AAs?$AAp?$AAa?$AAc?$AAe?$AA?5?$AAf?$AAo?$AAr?$AA?5?$AAl?$AAo@ 1004f360     LIBCMT:crt0msg.obj
 0002:0000d3d0       ??_C@_1EK@HHFLMAOL@?$AAR?$AA6?$AA0?$AA2?$AA8?$AA?$AN?$AA?6?$AA?9?$AA?5?$AAu?$AAn?$AAa?$AAb?$AAl?$AAe?$AA?5?$AAt?$AAo?$AA?5?$AAi?$AAn?$AAi?$AAt?$AAi?$AAa?$AAl?$AAi?$AAz?$AAe?$AA?5?$AAh?$AAe@ 1004f3d0     LIBCMT:crt0msg.obj
 0002:0000d41c       ??_C@_1DO@BMFCDCD@?$AAR?$AA6?$AA0?$AA3?$AA0?$AA?$AN?$AA?6?$AA?9?$AA?5?$AAC?$AAR?$AAT?$AA?5?$AAn?$AAo?$AAt?$AA?5?$AAi?$AAn?$AAi?$AAt?$AAi?$AAa?$AAl?$AAi?$AAz?$AAe?$AAd?$AA?$AN?$AA?6?$AA?$AA@ 1004f41c     LIBCMT:crt0msg.obj
 0002:0000d460       ??_C@_1MG@ENCOOIDF@?$AAR?$AA6?$AA0?$AA3?$AA1?$AA?$AN?$AA?6?$AA?9?$AA?5?$AAA?$AAt?$AAt?$AAe?$AAm?$AAp?$AAt?$AA?5?$AAt?$AAo?$AA?5?$AAi?$AAn?$AAi?$AAt?$AAi?$AAa?$AAl?$AAi?$AAz?$AAe?$AA?5?$AAt@ 1004f460     LIBCMT:crt0msg.obj
 0002:0000d528       ??_C@_1GG@GOPILAJP@?$AAR?$AA6?$AA0?$AA3?$AA2?$AA?$AN?$AA?6?$AA?9?$AA?5?$AAn?$AAo?$AAt?$AA?5?$AAe?$AAn?$AAo?$AAu?$AAg?$AAh?$AA?5?$AAs?$AAp?$AAa?$AAc?$AAe?$AA?5?$AAf?$AAo?$AAr?$AA?5?$AAl?$AAo@ 1004f528     LIBCMT:crt0msg.obj
 0002:0000d590       ??_C@_1BOO@KGEDBGAJ@?$AAR?$AA6?$AA0?$AA3?$AA3?$AA?$AN?$AA?6?$AA?9?$AA?5?$AAA?$AAt?$AAt?$AAe?$AAm?$AAp?$AAt?$AA?5?$AAt?$AAo?$AA?5?$AAu?$AAs?$AAe?$AA?5?$AAM?$AAS?$AAI?$AAL?$AA?5?$AAc?$AAo?$AAd@ 1004f590     LIBCMT:crt0msg.obj
 0002:0000d780       ??_C@_1GG@MKFPEKFO@?$AAR?$AA6?$AA0?$AA3?$AA4?$AA?$AN?$AA?6?$AA?9?$AA?5?$AAi?$AAn?$AAc?$AAo?$AAn?$AAs?$AAi?$AAs?$AAt?$AAe?$AAn?$AAt?$AA?5?$AAo?$AAn?$AAe?$AAx?$AAi?$AAt?$AA?5?$AAb?$AAe?$AAg@ 1004f780     LIBCMT:crt0msg.obj
 0002:0000d7e8       ??_C@_1BO@BFCDCGC@?$AAD?$AAO?$AAM?$AAA?$AAI?$AAN?$AA?5?$AAe?$AAr?$AAr?$AAo?$AAr?$AA?$AN?$AA?6?$AA?$AA@ 1004f7e8     LIBCMT:crt0msg.obj
 0002:0000d808       ??_C@_1BK@KMOMNAAI@?$AAS?$AAI?$AAN?$AAG?$AA?5?$AAe?$AAr?$AAr?$AAo?$AAr?$AA?$AN?$AA?6?$AA?$AA@ 1004f808     LIBCMT:crt0msg.obj
 0002:0000d824       ??_C@_1BM@JBBEPPHI@?$AAT?$AAL?$AAO?$AAS?$AAS?$AA?5?$AAe?$AAr?$AAr?$AAo?$AAr?$AA?$AN?$AA?6?$AA?$AA@ 1004f824     LIBCMT:crt0msg.obj
 0002:0000d840       ??_C@_15JNBOKNOG@?$AA?$AN?$AA?6?$AA?$AA@ 1004f840     LIBCMT:crt0msg.obj
 0002:0000d848       ??_C@_1BO@BKOMIGKJ@?$AAr?$AAu?$AAn?$AAt?$AAi?$AAm?$AAe?$AA?5?$AAe?$AAr?$AAr?$AAo?$AAr?$AA?5?$AA?$AA@ 1004f848     LIBCMT:crt0msg.obj
 0002:0000d868       ??_C@_1DE@JNGNBFGO@?$AAR?$AAu?$AAn?$AAt?$AAi?$AAm?$AAe?$AA?5?$AAE?$AAr?$AAr?$AAo?$AAr?$AA?$CB?$AA?6?$AA?6?$AAP?$AAr?$AAo?$AAg?$AAr?$AAa?$AAm?$AA?3?$AA?5?$AA?$AA@ 1004f868     LIBCMT:crt0msg.obj
 0002:0000d89c       ??_C@_06OJHGLDPL@?$CInull?$CJ?$AA@ 1004f89c     LIBCMT:output.obj
 0002:0000d8a4       ??_C@_1O@CEDCILHN@?$AA?$CI?$AAn?$AAu?$AAl?$AAl?$AA?$CJ?$AA?$AA@ 1004f8a4     LIBCMT:output.obj
 0002:0000d8b8       ___lookuptable             1004f8b8     LIBCMT:output.obj
 0002:0000d980       ??_C@_03MGHMBJCF@log?$AA@  1004f980     LIBCMT:libm_error.obj
 0002:0000d984       ??_C@_05HGHHAHAP@log10?$AA@ 1004f984     LIBCMT:libm_error.obj
 0002:0000d98c       ??_C@_03KHJOGHMM@exp?$AA@  1004f98c     LIBCMT:libm_error.obj
 0002:0000d990       ??_C@_03JGHBODFD@pow?$AA@  1004f990     LIBCMT:libm_error.obj
 0002:0000d994       ??_C@_04FIHNOPOL@asin?$AA@ 1004f994     LIBCMT:libm_error.obj
 0002:0000d99c       ??_C@_04PDIFKINK@acos?$AA@ 1004f99c     LIBCMT:libm_error.obj
 0002:0000d9a4       ??_C@_05EOHGHCHD@exp10?$AA@ 1004f9a4     LIBCMT:libm_error.obj
 0002:0000d9ac       ??_C@_04MLLJIGOK@atan?$AA@ 1004f9ac     LIBCMT:libm_error.obj
 0002:0000d9b4       ??_C@_04GFPJNGEK@ceil?$AA@ 1004f9b4     LIBCMT:libm_error.obj
 0002:0000d9bc       ??_C@_05PBJFFIGL@floor?$AA@ 1004f9bc     LIBCMT:libm_error.obj
 0002:0000d9c4       ??_C@_04EHEDPDJG@modf?$AA@ 1004f9c4     LIBCMT:libm_error.obj
 0002:0000d9cc       ??_C@_03BLEJJJBH@sin?$AA@  1004f9cc     LIBCMT:libm_error.obj
 0002:0000d9d0       ??_C@_03LALBNOCG@cos?$AA@  1004f9d0     LIBCMT:libm_error.obj
 0002:0000d9d4       ??_C@_03IIINPABG@tan?$AA@  1004f9d4     LIBCMT:libm_error.obj
 0002:0000d9d8       ??_C@_04EIAKFFMI@sqrt?$AA@ 1004f9d8     LIBCMT:libm_error.obj
 0002:0000d9e0       ??_C@_05KLBDPFGC@e?$CL000?$AA@ 1004f9e0     LIBCMT:cvt.obj
 0002:0000d9e8       ??_C@_1BK@MGMFAEKH@?$AAk?$AAe?$AAr?$AAn?$AAe?$AAl?$AA3?$AA2?$AA?4?$AAd?$AAl?$AAl?$AA?$AA@ 1004f9e8     LIBCMT:winapisupp.obj
 0002:0000da04       ??_C@_08KNHFBNJ@FlsAlloc?$AA@ 1004fa04     LIBCMT:winapisupp.obj
 0002:0000da10       ??_C@_07PEJMOBNF@FlsFree?$AA@ 1004fa10     LIBCMT:winapisupp.obj
 0002:0000da18       ??_C@_0M@GDNOONDI@FlsGetValue?$AA@ 1004fa18     LIBCMT:winapisupp.obj
 0002:0000da24       ??_C@_0M@JCPCPOEF@FlsSetValue?$AA@ 1004fa24     LIBCMT:winapisupp.obj
 0002:0000da30       ??_C@_0BM@HCFOFFN@InitializeCriticalSectionEx?$AA@ 1004fa30     LIBCMT:winapisupp.obj
 0002:0000da4c       ??_C@_0P@DLHPPCNH@CreateEventExW?$AA@ 1004fa4c     LIBCMT:winapisupp.obj
 0002:0000da5c       ??_C@_0BD@KIEEOEEH@CreateSemaphoreExW?$AA@ 1004fa5c     LIBCMT:winapisupp.obj
 0002:0000da70       ??_C@_0BI@BKLFFAPO@SetThreadStackGuarantee?$AA@ 1004fa70     LIBCMT:winapisupp.obj
 0002:0000da88       ??_C@_0BG@OGFAJCKC@CreateThreadpoolTimer?$AA@ 1004fa88     LIBCMT:winapisupp.obj
 0002:0000daa0       ??_C@_0BD@LPLEMMDI@SetThreadpoolTimer?$AA@ 1004faa0     LIBCMT:winapisupp.obj
 0002:0000dab4       ??_C@_0CA@FMNJENH@WaitForThreadpoolTimerCallbacks?$AA@ 1004fab4     LIBCMT:winapisupp.obj
 0002:0000dad4       ??_C@_0BF@DCFCCNOC@CloseThreadpoolTimer?$AA@ 1004fad4     LIBCMT:winapisupp.obj
 0002:0000daec       ??_C@_0BF@FLABGKKM@CreateThreadpoolWait?$AA@ 1004faec     LIBCMT:winapisupp.obj
 0002:0000db04       ??_C@_0BC@MGCOHNA@SetThreadpoolWait?$AA@ 1004fb04     LIBCMT:winapisupp.obj
 0002:0000db18       ??_C@_0BE@OCIOMIMP@CloseThreadpoolWait?$AA@ 1004fb18     LIBCMT:winapisupp.obj
 0002:0000db2c       ??_C@_0BJ@LKGHFHBO@FlushProcessWriteBuffers?$AA@ 1004fb2c     LIBCMT:winapisupp.obj
 0002:0000db48       ??_C@_0BP@KALKKPMO@FreeLibraryWhenCallbackReturns?$AA@ 1004fb48     LIBCMT:winapisupp.obj
 0002:0000db68       ??_C@_0BK@DFNBACLA@GetCurrentProcessorNumber?$AA@ 1004fb68     LIBCMT:winapisupp.obj
 0002:0000db84       ??_C@_0BP@KHGALBC@GetLogicalProcessorInformation?$AA@ 1004fb84     LIBCMT:winapisupp.obj
 0002:0000dba4       ??_C@_0BE@FKKLLFLM@CreateSymbolicLinkW?$AA@ 1004fba4     LIBCMT:winapisupp.obj
 0002:0000dbb8       ??_C@_0BJ@OHNKDLIJ@SetDefaultDllDirectories?$AA@ 1004fbb8     LIBCMT:winapisupp.obj
 0002:0000dbd4       ??_C@_0BE@LJANKFHF@EnumSystemLocalesEx?$AA@ 1004fbd4     LIBCMT:winapisupp.obj
 0002:0000dbe8       ??_C@_0BA@IHGNDAEB@CompareStringEx?$AA@ 1004fbe8     LIBCMT:winapisupp.obj
 0002:0000dbf8       ??_C@_0BA@EPCJIIPD@GetDateFormatEx?$AA@ 1004fbf8     LIBCMT:winapisupp.obj
 0002:0000dc08       ??_C@_0BA@ONOKGCMP@GetLocaleInfoEx?$AA@ 1004fc08     LIBCMT:winapisupp.obj
 0002:0000dc18       ??_C@_0BA@CIJJKCJJ@GetTimeFormatEx?$AA@ 1004fc18     LIBCMT:winapisupp.obj
 0002:0000dc28       ??_C@_0BJ@PBCCBIPI@GetUserDefaultLocaleName?$AA@ 1004fc28     LIBCMT:winapisupp.obj
 0002:0000dc44       ??_C@_0BC@CELBKLLA@IsValidLocaleName?$AA@ 1004fc44     LIBCMT:winapisupp.obj
 0002:0000dc58       ??_C@_0O@KKBNKAPF@LCMapStringEx?$AA@ 1004fc58     LIBCMT:winapisupp.obj
 0002:0000dc68       ??_C@_0BE@JOGNEJCI@GetCurrentPackageId?$AA@ 1004fc68     LIBCMT:winapisupp.obj
 0002:0000dc7c       ??_C@_0P@CDHHOHKP@GetTickCount64?$AA@ 1004fc7c     LIBCMT:winapisupp.obj
 0002:0000dc8c       ??_C@_0BO@KPCLFDJJ@GetFileInformationByHandleExW?$AA@ 1004fc8c     LIBCMT:winapisupp.obj
 0002:0000dcac       ??_C@_0BM@MHIDLABK@SetFileInformationByHandleW?$AA@ 1004fcac     LIBCMT:winapisupp.obj
 0002:0000dcc8       ??_C@_1BK@GAEMIDIL@?$AAA?$AAD?$AAV?$AAA?$AAP?$AAI?$AA3?$AA2?$AA?4?$AAD?$AAL?$AAL?$AA?$AA@ 1004fcc8     LIBCMT:rand_s.obj
 0002:0000dce4       ??_C@_0BC@JEAENNKH@SystemFunction036?$AA@ 1004fce4     LIBCMT:rand_s.obj
 0002:0000dd08       ??_C@_1M@HPNHIDJI@?$AAj?$AAa?$AA?9?$AAJ?$AAP?$AA?$AA@ 1004fd08     LIBCMT:mbctype.obj
 0002:0000dd14       ??_C@_1M@BIBDDEMK@?$AAz?$AAh?$AA?9?$AAC?$AAN?$AA?$AA@ 1004fd14     LIBCMT:mbctype.obj
 0002:0000dd20       ??_C@_1M@JLOOOEGK@?$AAk?$AAo?$AA?9?$AAK?$AAR?$AA?$AA@ 1004fd20     LIBCMT:mbctype.obj
 0002:0000dd2c       ??_C@_1M@CLNBBOPM@?$AAz?$AAh?$AA?9?$AAT?$AAW?$AA?$AA@ 1004fd2c     LIBCMT:mbctype.obj
 0002:0000dd58       ??_C@_04FJHINJAO@tanh?$AA@ 1004fd58     LIBCMT:fpexcept.obj
 0002:0000dd60       ??_C@_05KNGEOGJB@atan2?$AA@ 1004fd60     LIBCMT:fpexcept.obj
 0002:0000dd68       ??_C@_04ODHECPBC@fabs?$AA@ 1004fd68     LIBCMT:fpexcept.obj
 0002:0000dd70       ??_C@_05CEJMAHNP@ldexp?$AA@ 1004fd70     LIBCMT:fpexcept.obj
 0002:0000dd78       ??_C@_05KBKMEMPO@_cabs?$AA@ 1004fd78     LIBCMT:fpexcept.obj
 0002:0000dd80       ??_C@_06MEIMCGCF@_hypot?$AA@ 1004fd80     LIBCMT:fpexcept.obj
 0002:0000dd88       ??_C@_04KEPJIHGP@fmod?$AA@ 1004fd88     LIBCMT:fpexcept.obj
 0002:0000dd90       ??_C@_05GKKHEGJL@frexp?$AA@ 1004fd90     LIBCMT:fpexcept.obj
 0002:0000dd98       ??_C@_03MJLDFKDL@_y0?$AA@  1004fd98     LIBCMT:fpexcept.obj
 0002:0000dd9c       ??_C@_03NAKIGLHK@_y1?$AA@  1004fd9c     LIBCMT:fpexcept.obj
 0002:0000dda0       ??_C@_03ONILCKOB@_yn?$AA@  1004fda0     LIBCMT:fpexcept.obj
 0002:0000dda4       ??_C@_05JGDBENOH@_logb?$AA@ 1004fda4     LIBCMT:fpexcept.obj
 0002:0000ddac       ??_C@_0L@KDOEJCKC@_nextafter?$AA@ 1004fdac     LIBCMT:fpexcept.obj
 0002:0000ddb8       ??_C@_04COOMCNPB@sinh?$AA@ 1004fdb8     LIBCMT:fpexcept.obj
 0002:0000ddc0       ??_C@_04HPJJNFIM@cosh?$AA@ 1004fdc0     LIBCMT:fpexcept.obj
 0002:0000ddc8       ??_C@_1BG@GOEBHBDC@?$AAU?$AAS?$AAE?$AAR?$AA3?$AA2?$AA?4?$AAD?$AAL?$AAL?$AA?$AA@ 1004fdc8     LIBCMT:crtmboxw.obj
 0002:0000dde0       ??_C@_0M@DLDCCGNP@MessageBoxW?$AA@ 1004fde0     LIBCMT:crtmboxw.obj
 0002:0000ddec       ??_C@_0BA@HNOPNCHB@GetActiveWindow?$AA@ 1004fdec     LIBCMT:crtmboxw.obj
 0002:0000ddfc       ??_C@_0BD@HHGDFDBJ@GetLastActivePopup?$AA@ 1004fdfc     LIBCMT:crtmboxw.obj
 0002:0000de10       ??_C@_0BK@DEKFELLI@GetUserObjectInformationW?$AA@ 1004fe10     LIBCMT:crtmboxw.obj
 0002:0000de2c       ??_C@_0BI@DFKBFLJE@GetProcessWindowStation?$AA@ 1004fe2c     LIBCMT:crtmboxw.obj
 0002:0000de48       __XcptActTab               1004fe48     LIBCMT:winxfltr.obj
 0002:0000ded8       __XcptActTabCount          1004fed8     LIBCMT:winxfltr.obj
 0002:0000dedc       __XcptActTabSize           1004fedc     LIBCMT:winxfltr.obj
 0002:0000dee0       __First_FPE_Indx           1004fee0     LIBCMT:winxfltr.obj
 0002:0000dee4       __Num_FPE                  1004fee4     LIBCMT:winxfltr.obj
 0002:0000dee8       ___lookuptable_s           1004fee8     LIBCMT:outputs.obj
 0002:0000df44       ??_C@_03KOEHGMDN@Sun?$AA@  1004ff44     LIBCMT:nlsdata.obj
 0002:0000df48       ??_C@_03PDAGKDH@Mon?$AA@   1004ff48     LIBCMT:nlsdata.obj
 0002:0000df4c       ??_C@_03NAGEINEP@Tue?$AA@  1004ff4c     LIBCMT:nlsdata.obj
 0002:0000df50       ??_C@_03MHOMLAJA@Wed?$AA@  1004ff50     LIBCMT:nlsdata.obj
 0002:0000df54       ??_C@_03IOFIKPDN@Thu?$AA@  1004ff54     LIBCMT:nlsdata.obj
 0002:0000df58       ??_C@_03IDIOELNC@Fri?$AA@  1004ff58     LIBCMT:nlsdata.obj
 0002:0000df5c       ??_C@_03FEFJNEK@Sat?$AA@   1004ff5c     LIBCMT:nlsdata.obj
 0002:0000df60       ??_C@_06OOPIFAJ@Sunday?$AA@ 1004ff60     LIBCMT:nlsdata.obj
 0002:0000df68       ??_C@_06JLEDEDGH@Monday?$AA@ 1004ff68     LIBCMT:nlsdata.obj
 0002:0000df70       ??_C@_07BAAGCFCM@Tuesday?$AA@ 1004ff70     LIBCMT:nlsdata.obj
 0002:0000df78       ??_C@_09DLIGFAKA@Wednesday?$AA@ 1004ff78     LIBCMT:nlsdata.obj
 0002:0000df84       ??_C@_08HACCIKIA@Thursday?$AA@ 1004ff84     LIBCMT:nlsdata.obj
 0002:0000df90       ??_C@_06JECMNKMI@Friday?$AA@ 1004ff90     LIBCMT:nlsdata.obj
 0002:0000df98       ??_C@_08INBOOONO@Saturday?$AA@ 1004ff98     LIBCMT:nlsdata.obj
 0002:0000dfa4       ??_C@_03JIHJHPIE@Jan?$AA@  1004ffa4     LIBCMT:nlsdata.obj
 0002:0000dfa8       ??_C@_03HJBDCHOM@Feb?$AA@  1004ffa8     LIBCMT:nlsdata.obj
 0002:0000dfac       ??_C@_03ODNJBKGA@Mar?$AA@  1004ffac     LIBCMT:nlsdata.obj
 0002:0000dfb0       ??_C@_03LEOLGMJP@Apr?$AA@  1004ffb0     LIBCMT:nlsdata.obj
 0002:0000dfb4       ??_C@_03CNMDKL@May?$AA@    1004ffb4     LIBCMT:nlsdata.obj
 0002:0000dfb8       ??_C@_03IDFGHECI@Jun?$AA@  1004ffb8     LIBCMT:nlsdata.obj
 0002:0000dfbc       ??_C@_03LBGABGKK@Jul?$AA@  1004ffbc     LIBCMT:nlsdata.obj
 0002:0000dfc0       ??_C@_03IFJFEIGA@Aug?$AA@  1004ffc0     LIBCMT:nlsdata.obj
 0002:0000dfc4       ??_C@_03GGCAPAJC@Sep?$AA@  1004ffc4     LIBCMT:nlsdata.obj
 0002:0000dfc8       ??_C@_03BMAOKBAD@Oct?$AA@  1004ffc8     LIBCMT:nlsdata.obj
 0002:0000dfcc       ??_C@_03JPJOFNIA@Nov?$AA@  1004ffcc     LIBCMT:nlsdata.obj
 0002:0000dfd0       ??_C@_03MKABNOCG@Dec?$AA@  1004ffd0     LIBCMT:nlsdata.obj
 0002:0000dfd4       ??_C@_07CGJPFGJA@January?$AA@ 1004ffd4     LIBCMT:nlsdata.obj
 0002:0000dfdc       ??_C@_08GNJGEPFN@February?$AA@ 1004ffdc     LIBCMT:nlsdata.obj
 0002:0000dfe8       ??_C@_05HPCKOFNC@March?$AA@ 1004ffe8     LIBCMT:nlsdata.obj
 0002:0000dff0       ??_C@_05DMJDNLEJ@April?$AA@ 1004fff0     LIBCMT:nlsdata.obj
 0002:0000dff8       ??_C@_04CNLMGBGM@June?$AA@ 1004fff8     LIBCMT:nlsdata.obj
 0002:0000e000       ??_C@_04MIEPOIFP@July?$AA@ 10050000     LIBCMT:nlsdata.obj
 0002:0000e008       ??_C@_06LBBHFDDG@August?$AA@ 10050008     LIBCMT:nlsdata.obj
 0002:0000e010       ??_C@_09BHHEALKD@September?$AA@ 10050010     LIBCMT:nlsdata.obj
 0002:0000e01c       ??_C@_07JJNFCEND@October?$AA@ 1005001c     LIBCMT:nlsdata.obj
 0002:0000e024       ??_C@_08HCHEGEOA@November?$AA@ 10050024     LIBCMT:nlsdata.obj
 0002:0000e030       ??_C@_08EDHMEBNP@December?$AA@ 10050030     LIBCMT:nlsdata.obj
 0002:0000e03c       ??_C@_02DEDBPAFC@AM?$AA@   1005003c     LIBCMT:nlsdata.obj
 0002:0000e040       ??_C@_02CJNFDJBF@PM?$AA@   10050040     LIBCMT:nlsdata.obj
 0002:0000e044       ??_C@_08BPBNCDIB@MM?1dd?1yy?$AA@ 10050044     LIBCMT:nlsdata.obj
 0002:0000e050       ??_C@_0BE@CKGJFCPC@dddd?0?5MMMM?5dd?0?5yyyy?$AA@ 10050050     LIBCMT:nlsdata.obj
 0002:0000e064       ??_C@_08JCCMCCIL@HH?3mm?3ss?$AA@ 10050064     LIBCMT:nlsdata.obj
 0002:0000e070       ??_C@_17MBGCMIPB@?$AAS?$AAu?$AAn?$AA?$AA@ 10050070     LIBCMT:nlsdata.obj
 0002:0000e078       ??_C@_17KBOMKBF@?$AAM?$AAo?$AAn?$AA?$AA@ 10050078     LIBCMT:nlsdata.obj
 0002:0000e080       ??_C@_17BMKGEGOJ@?$AAT?$AAu?$AAe?$AA?$AA@ 10050080     LIBCMT:nlsdata.obj
 0002:0000e088       ??_C@_17CJEDCEPE@?$AAW?$AAe?$AAd?$AA?$AA@ 10050088     LIBCMT:nlsdata.obj
 0002:0000e090       ??_C@_17PDPHAADD@?$AAT?$AAh?$AAu?$AA?$AA@ 10050090     LIBCMT:nlsdata.obj
 0002:0000e098       ??_C@_17HFOLPPLP@?$AAF?$AAr?$AAi?$AA?$AA@ 10050098     LIBCMT:nlsdata.obj
 0002:0000e0a0       ??_C@_17GGIBDPIH@?$AAS?$AAa?$AAt?$AA?$AA@ 100500a0     LIBCMT:nlsdata.obj
 0002:0000e0a8       ??_C@_1O@IHNHDHPB@?$AAS?$AAu?$AAn?$AAd?$AAa?$AAy?$AA?$AA@ 100500a8     LIBCMT:nlsdata.obj
 0002:0000e0b8       ??_C@_1O@MMNBFLIA@?$AAM?$AAo?$AAn?$AAd?$AAa?$AAy?$AA?$AA@ 100500b8     LIBCMT:nlsdata.obj
 0002:0000e0c8       ??_C@_1BA@ENFBFFEK@?$AAT?$AAu?$AAe?$AAs?$AAd?$AAa?$AAy?$AA?$AA@ 100500c8     LIBCMT:nlsdata.obj
 0002:0000e0d8       ??_C@_1BE@EBOGMDOH@?$AAW?$AAe?$AAd?$AAn?$AAe?$AAs?$AAd?$AAa?$AAy?$AA?$AA@ 100500d8     LIBCMT:nlsdata.obj
 0002:0000e0ec       ??_C@_1BC@HHMNLIHE@?$AAT?$AAh?$AAu?$AAr?$AAs?$AAd?$AAa?$AAy?$AA?$AA@ 100500ec     LIBCMT:nlsdata.obj
 0002:0000e100       ??_C@_1O@PDICJHAG@?$AAF?$AAr?$AAi?$AAd?$AAa?$AAy?$AA?$AA@ 10050100     LIBCMT:nlsdata.obj
 0002:0000e110       ??_C@_1BC@ENMNNPAJ@?$AAS?$AAa?$AAt?$AAu?$AAr?$AAd?$AAa?$AAy?$AA?$AA@ 10050110     LIBCMT:nlsdata.obj
 0002:0000e124       ??_C@_17DKNBKCHM@?$AAJ?$AAa?$AAn?$AA?$AA@ 10050124     LIBCMT:nlsdata.obj
 0002:0000e12c       ??_C@_17LMDJEKJN@?$AAF?$AAe?$AAb?$AA?$AA@ 1005012c     LIBCMT:nlsdata.obj
 0002:0000e134       ??_C@_17CKNLEDEC@?$AAM?$AAa?$AAr?$AA?$AA@ 10050134     LIBCMT:nlsdata.obj
 0002:0000e13c       ??_C@_17LFPOIHDD@?$AAA?$AAp?$AAr?$AA?$AA@ 1005013c     LIBCMT:nlsdata.obj
 0002:0000e144       ??_C@_17PNNKMEED@?$AAM?$AAa?$AAy?$AA?$AA@ 10050144     LIBCMT:nlsdata.obj
 0002:0000e14c       ??_C@_17KCJGOCPB@?$AAJ?$AAu?$AAn?$AA?$AA@ 1005014c     LIBCMT:nlsdata.obj
 0002:0000e154       ??_C@_17IJPCKHK@?$AAJ?$AAu?$AAl?$AA?$AA@ 10050154     LIBCMT:nlsdata.obj
 0002:0000e15c       ??_C@_17ICPELBCN@?$AAA?$AAu?$AAg?$AA?$AA@ 1005015c     LIBCMT:nlsdata.obj
 0002:0000e164       ??_C@_17HCHCOKMG@?$AAS?$AAe?$AAp?$AA?$AA@ 10050164     LIBCMT:nlsdata.obj
 0002:0000e16c       ??_C@_17FNLKOI@?$AAO?$AAc?$AAt?$AA?$AA@ 1005016c     LIBCMT:nlsdata.obj
 0002:0000e174       ??_C@_17BBDMLCIG@?$AAN?$AAo?$AAv?$AA?$AA@ 10050174     LIBCMT:nlsdata.obj
 0002:0000e17c       ??_C@_17EGKACKIF@?$AAD?$AAe?$AAc?$AA?$AA@ 1005017c     LIBCMT:nlsdata.obj
 0002:0000e184       ??_C@_1BA@EFMEIEBA@?$AAJ?$AAa?$AAn?$AAu?$AAa?$AAr?$AAy?$AA?$AA@ 10050184     LIBCMT:nlsdata.obj
 0002:0000e194       ??_C@_1BC@JGDDFFAM@?$AAF?$AAe?$AAb?$AAr?$AAu?$AAa?$AAr?$AAy?$AA?$AA@ 10050194     LIBCMT:nlsdata.obj
 0002:0000e1a8       ??_C@_1M@IKEENEDF@?$AAM?$AAa?$AAr?$AAc?$AAh?$AA?$AA@ 100501a8     LIBCMT:nlsdata.obj
 0002:0000e1b4       ??_C@_1M@GJNLMHFD@?$AAA?$AAp?$AAr?$AAi?$AAl?$AA?$AA@ 100501b4     LIBCMT:nlsdata.obj
 0002:0000e1c0       ??_C@_19EPFLPGAP@?$AAJ?$AAu?$AAn?$AAe?$AA?$AA@ 100501c0     LIBCMT:nlsdata.obj
 0002:0000e1cc       ??_C@_19BIFMLPCD@?$AAJ?$AAu?$AAl?$AAy?$AA?$AA@ 100501cc     LIBCMT:nlsdata.obj
 0002:0000e1d8       ??_C@_1O@PAHLKOAC@?$AAA?$AAu?$AAg?$AAu?$AAs?$AAt?$AA?$AA@ 100501d8     LIBCMT:nlsdata.obj
 0002:0000e1e8       ??_C@_1BE@DKAAMBJL@?$AAS?$AAe?$AAp?$AAt?$AAe?$AAm?$AAb?$AAe?$AAr?$AA?$AA@ 100501e8     LIBCMT:nlsdata.obj
 0002:0000e1fc       ??_C@_1BA@EPANDLNG@?$AAO?$AAc?$AAt?$AAo?$AAb?$AAe?$AAr?$AA?$AA@ 100501fc     LIBCMT:nlsdata.obj
 0002:0000e20c       ??_C@_1BC@BGLIFPF@?$AAN?$AAo?$AAv?$AAe?$AAm?$AAb?$AAe?$AAr?$AA?$AA@ 1005020c     LIBCMT:nlsdata.obj
 0002:0000e220       ??_C@_1BC@FEMKIFH@?$AAD?$AAe?$AAc?$AAe?$AAm?$AAb?$AAe?$AAr?$AA?$AA@ 10050220     LIBCMT:nlsdata.obj
 0002:0000e234       ??_C@_15ODEHAHHF@?$AAA?$AAM?$AA?$AA@ 10050234     LIBCMT:nlsdata.obj
 0002:0000e23c       ??_C@_15CLMNNGEL@?$AAP?$AAM?$AA?$AA@ 1005023c     LIBCMT:nlsdata.obj
 0002:0000e244       ??_C@_1BC@IEBCMHCM@?$AAM?$AAM?$AA?1?$AAd?$AAd?$AA?1?$AAy?$AAy?$AA?$AA@ 10050244     LIBCMT:nlsdata.obj
 0002:0000e258       ??_C@_1CI@KNAKOEBC@?$AAd?$AAd?$AAd?$AAd?$AA?0?$AA?5?$AAM?$AAM?$AAM?$AAM?$AA?5?$AAd?$AAd?$AA?0?$AA?5?$AAy?$AAy?$AAy?$AAy?$AA?$AA@ 10050258     LIBCMT:nlsdata.obj
 0002:0000e280       ??_C@_1BC@GDGBMEMK@?$AAH?$AAH?$AA?3?$AAm?$AAm?$AA?3?$AAs?$AAs?$AA?$AA@ 10050280     LIBCMT:nlsdata.obj
 0002:0000e294       ??_C@_1M@BMHNFIME@?$AAe?$AAn?$AA?9?$AAU?$AAS?$AA?$AA@ 10050294     LIBCMT:nlsdata.obj
 0002:0000e2a0       _LcidToLocaleNameTable     100502a0     LIBCMT:winapinls.obj
 0002:0000e9c0       _LocaleNameToIndexTable    100509c0     LIBCMT:winapinls.obj
 0002:0000f0e0       ??_C@_15EMKDOKLE@?$AAa?$AAr?$AA?$AA@ 100510e0     LIBCMT:winapinls.obj
 0002:0000f0e8       ??_C@_15KNPADPLH@?$AAb?$AAg?$AA?$AA@ 100510e8     LIBCMT:winapinls.obj
 0002:0000f0f0       ??_C@_15EDMHLDMO@?$AAc?$AAa?$AA?$AA@ 100510f0     LIBCMT:winapinls.obj
 0002:0000f0f8       ??_C@_1O@BPEAJADD@?$AAz?$AAh?$AA?9?$AAC?$AAH?$AAS?$AA?$AA@ 100510f8     LIBCMT:winapinls.obj
 0002:0000f108       ??_C@_15LJNHCMNK@?$AAc?$AAs?$AA?$AA@ 10051108     LIBCMT:winapinls.obj
 0002:0000f110       ??_C@_15FOMCIDHG@?$AAd?$AAa?$AA?$AA@ 10051110     LIBCMT:winapinls.obj
 0002:0000f118       ??_C@_15NBKABECB@?$AAd?$AAe?$AA?$AA@ 10051118     LIBCMT:winapinls.obj
 0002:0000f120       ??_C@_15GHPEIIAO@?$AAe?$AAl?$AA?$AA@ 10051120     LIBCMT:winapinls.obj
 0002:0000f128       ??_C@_15MNPNEAIF@?$AAe?$AAn?$AA?$AA@ 10051128     LIBCMT:winapinls.obj
 0002:0000f130       ??_C@_15GPIOMPMH@?$AAe?$AAs?$AA?$AA@ 10051130     LIBCMT:winapinls.obj
 0002:0000f138       ??_C@_15NGLOAKJC@?$AAf?$AAi?$AA?$AA@ 10051138     LIBCMT:winapinls.obj
 0002:0000f140       ??_C@_15FBKGNKAM@?$AAf?$AAr?$AA?$AA@ 10051140     LIBCMT:winapinls.obj
 0002:0000f148       ??_C@_15KGGCNEFK@?$AAh?$AAe?$AA?$AA@ 10051148     LIBCMT:winapinls.obj
 0002:0000f150       ??_C@_15PGHLIDMF@?$AAh?$AAu?$AA?$AA@ 10051150     LIBCMT:winapinls.obj
 0002:0000f158       ??_C@_15BIEMAPLM@?$AAi?$AAs?$AA?$AA@ 10051158     LIBCMT:winapinls.obj
 0002:0000f160       ??_C@_15IFJLDHAF@?$AAi?$AAt?$AA?$AA@ 10051160     LIBCMT:winapinls.obj
 0002:0000f168       ??_C@_15GEMIOCAG@?$AAj?$AAa?$AA?$AA@ 10051168     LIBCMT:winapinls.obj
 0002:0000f170       ??_C@_15EPELEGJA@?$AAk?$AAo?$AA?$AA@ 10051170     LIBCMT:winapinls.obj
 0002:0000f178       ??_C@_15NDDHIMN@?$AAn?$AAl?$AA?$AA@ 10051178     LIBCMT:winapinls.obj
 0002:0000f180       ??_C@_15BPIGNHCD@?$AAn?$AAo?$AA?$AA@ 10051180     LIBCMT:winapinls.obj
 0002:0000f188       ??_C@_15DEOPBLCG@?$AAp?$AAl?$AA?$AA@ 10051188     LIBCMT:winapinls.obj
 0002:0000f190       ??_C@_15KBECGEFG@?$AAp?$AAt?$AA?$AA@ 10051190     LIBCMT:winapinls.obj
 0002:0000f198       ??_C@_15GLJCBFMD@?$AAr?$AAo?$AA?$AA@ 10051198     LIBCMT:winapinls.obj
 0002:0000f1a0       ??_C@_15FEDGKCDI@?$AAr?$AAu?$AA?$AA@ 100511a0     LIBCMT:winapinls.obj
 0002:0000f1a8       ??_C@_15GLKMLLHM@?$AAh?$AAr?$AA?$AA@ 100511a8     LIBCMT:winapinls.obj
 0002:0000f1b0       ??_C@_15CPKMFBDB@?$AAs?$AAk?$AA?$AA@ 100511b0     LIBCMT:winapinls.obj
 0002:0000f1b8       ??_C@_15BAAIOGMK@?$AAs?$AAq?$AA?$AA@ 100511b8     LIBCMT:winapinls.obj
 0002:0000f1c0       ??_C@_15INNPNOHD@?$AAs?$AAv?$AA?$AA@ 100511c0     LIBCMT:winapinls.obj
 0002:0000f1c8       ??_C@_15CABMMOGH@?$AAt?$AAh?$AA?$AA@ 100511c8     LIBCMT:winapinls.obj
 0002:0000f1d0       ??_C@_15BPLIHJJM@?$AAt?$AAr?$AA?$AA@ 100511d0     LIBCMT:winapinls.obj
 0002:0000f1d8       ??_C@_15NEOEKKDJ@?$AAu?$AAr?$AA?$AA@ 100511d8     LIBCMT:winapinls.obj
 0002:0000f1e0       ??_C@_15NFICGAJK@?$AAi?$AAd?$AA?$AA@ 100511e0     LIBCMT:winapinls.obj
 0002:0000f1e8       ??_C@_15PJPFLCCM@?$AAu?$AAk?$AA?$AA@ 100511e8     LIBCMT:winapinls.obj
 0002:0000f1f0       ??_C@_15HPJPHDM@?$AAb?$AAe?$AA?$AA@ 100511f0     LIBCMT:winapinls.obj
 0002:0000f1f8       ??_C@_15LCHLGJII@?$AAs?$AAl?$AA?$AA@ 100511f8     LIBCMT:winapinls.obj
 0002:0000f200       ??_C@_15PCFJPHHO@?$AAe?$AAt?$AA?$AA@ 10051200     LIBCMT:winapinls.obj
 0002:0000f208       ??_C@_15HPFPGODN@?$AAl?$AAv?$AA?$AA@ 10051208     LIBCMT:winapinls.obj
 0002:0000f210       ??_C@_15NFFGKGLG@?$AAl?$AAt?$AA?$AA@ 10051210     LIBCMT:winapinls.obj
 0002:0000f218       ??_C@_15BDAKCCHN@?$AAf?$AAa?$AA?$AA@ 10051218     LIBCMT:winapinls.obj
 0002:0000f220       ??_C@_15NFGIAIAJ@?$AAv?$AAi?$AA?$AA@ 10051220     LIBCMT:winapinls.obj
 0002:0000f228       ??_C@_15LMKNDMHN@?$AAh?$AAy?$AA?$AA@ 10051228     LIBCMT:winapinls.obj
 0002:0000f230       ??_C@_15IJBHMCFL@?$AAa?$AAz?$AA?$AA@ 10051230     LIBCMT:winapinls.obj
 0002:0000f238       ??_C@_15EKOFJABL@?$AAe?$AAu?$AA?$AA@ 10051238     LIBCMT:winapinls.obj
 0002:0000f240       ??_C@_15BGHADCNK@?$AAm?$AAk?$AA?$AA@ 10051240     LIBCMT:winapinls.obj
 0002:0000f248       ??_C@_15JDNICKHM@?$AAa?$AAf?$AA?$AA@ 10051248     LIBCMT:winapinls.obj
 0002:0000f250       ??_C@_15KPJEDBKD@?$AAk?$AAa?$AA?$AA@ 10051250     LIBCMT:winapinls.obj
 0002:0000f258       ??_C@_15PDNFFFEO@?$AAf?$AAo?$AA?$AA@ 10051258     LIBCMT:winapinls.obj
 0002:0000f260       ??_C@_15OMLEGLOC@?$AAh?$AAi?$AA?$AA@ 10051260     LIBCMT:winapinls.obj
 0002:0000f268       ??_C@_15IDNNENKK@?$AAm?$AAs?$AA?$AA@ 10051268     LIBCMT:winapinls.obj
 0002:0000f270       ??_C@_15MACJNBMH@?$AAk?$AAk?$AA?$AA@ 10051270     LIBCMT:winapinls.obj
 0002:0000f278       ??_C@_15DKDJEOND@?$AAk?$AAy?$AA?$AA@ 10051278     LIBCMT:winapinls.obj
 0002:0000f280       ??_C@_15DFGDLJBG@?$AAs?$AAw?$AA?$AA@ 10051280     LIBCMT:winapinls.obj
 0002:0000f288       ??_C@_15BBFAICNG@?$AAu?$AAz?$AA?$AA@ 10051288     LIBCMT:winapinls.obj
 0002:0000f290       ??_C@_15DKNDCGEA@?$AAt?$AAt?$AA?$AA@ 10051290     LIBCMT:winapinls.obj
 0002:0000f298       ??_C@_15MGIFMDPL@?$AAp?$AAa?$AA?$AA@ 10051298     LIBCMT:winapinls.obj
 0002:0000f2a0       ??_C@_15HCNDBBA@?$AAg?$AAu?$AA?$AA@ 100512a0     LIBCMT:winapinls.obj
 0002:0000f2a8       ??_C@_15FNBEIBON@?$AAt?$AAa?$AA?$AA@ 100512a8     LIBCMT:winapinls.obj
 0002:0000f2b0       ??_C@_15NCHGBGLK@?$AAt?$AAe?$AA?$AA@ 100512b0     LIBCMT:winapinls.obj
 0002:0000f2b8       ??_C@_15PHPHCBPF@?$AAk?$AAn?$AA?$AA@ 100512b8     LIBCMT:winapinls.obj
 0002:0000f2c0       ??_C@_15DLGBCKMP@?$AAm?$AAr?$AA?$AA@ 100512c0     LIBCMT:winapinls.obj
 0002:0000f2c8       ??_C@_15EABBLBFF@?$AAs?$AAa?$AA?$AA@ 100512c8     LIBCMT:winapinls.obj
 0002:0000f2d0       ??_C@_15CBKOMCOI@?$AAm?$AAn?$AA?$AA@ 100512d0     LIBCMT:winapinls.obj
 0002:0000f2d8       ??_C@_15CKDMCJAF@?$AAg?$AAl?$AA?$AA@ 100512d8     LIBCMT:winapinls.obj
 0002:0000f2e0       ??_C@_17CNJFBPG@?$AAk?$AAo?$AAk?$AA?$AA@ 100512e0     LIBCMT:winapinls.obj
 0002:0000f2e8       ??_C@_17FFBJICPL@?$AAs?$AAy?$AAr?$AA?$AA@ 100512e8     LIBCMT:winapinls.obj
 0002:0000f2f0       ??_C@_17KPNDCPAF@?$AAd?$AAi?$AAv?$AA?$AA@ 100512f0     LIBCMT:winapinls.obj
 0002:0000f2f8       ??_C@_11LOCGONAA@?$AA?$AA@ 100512f8     LIBCMT:winapinls.obj
 0002:0000f2fc       ??_C@_1M@OKAHONE@?$AAa?$AAr?$AA?9?$AAS?$AAA?$AA?$AA@ 100512fc     LIBCMT:winapinls.obj
 0002:0000f308       ??_C@_1M@FFFIGIGK@?$AAb?$AAg?$AA?9?$AAB?$AAG?$AA?$AA@ 10051308     LIBCMT:winapinls.obj
 0002:0000f314       ??_C@_1M@BJNKEDC@?$AAc?$AAa?$AA?9?$AAE?$AAS?$AA?$AA@ 10051314     LIBCMT:winapinls.obj
 0002:0000f320       ??_C@_1M@IJJHFJHA@?$AAc?$AAs?$AA?9?$AAC?$AAZ?$AA?$AA@ 10051320     LIBCMT:winapinls.obj
 0002:0000f32c       ??_C@_1M@CLPEOBGI@?$AAd?$AAa?$AA?9?$AAD?$AAK?$AA?$AA@ 1005132c     LIBCMT:winapinls.obj
 0002:0000f338       ??_C@_1M@MCMADGCB@?$AAd?$AAe?$AA?9?$AAD?$AAE?$AA?$AA@ 10051338     LIBCMT:winapinls.obj
 0002:0000f344       ??_C@_1M@OOCKEMAM@?$AAe?$AAl?$AA?9?$AAG?$AAR?$AA?$AA@ 10051344     LIBCMT:winapinls.obj
 0002:0000f350       ??_C@_1M@DDNJFGID@?$AAf?$AAi?$AA?9?$AAF?$AAI?$AA?$AA@ 10051350     LIBCMT:winapinls.obj
 0002:0000f35c       ??_C@_1M@GLIPPMAC@?$AAf?$AAr?$AA?9?$AAF?$AAR?$AA?$AA@ 1005135c     LIBCMT:winapinls.obj
 0002:0000f368       ??_C@_1M@GFMCHPE@?$AAh?$AAe?$AA?9?$AAI?$AAL?$AA?$AA@ 10051368     LIBCMT:winapinls.obj
 0002:0000f374       ??_C@_1M@MHLPGNKM@?$AAh?$AAu?$AA?9?$AAH?$AAU?$AA?$AA@ 10051374     LIBCMT:winapinls.obj
 0002:0000f380       ??_C@_1M@LPDDNNPN@?$AAi?$AAs?$AA?9?$AAI?$AAS?$AA?$AA@ 10051380     LIBCMT:winapinls.obj
 0002:0000f38c       ??_C@_1M@MADIPODN@?$AAi?$AAt?$AA?9?$AAI?$AAT?$AA?$AA@ 1005138c     LIBCMT:winapinls.obj
 0002:0000f398       ??_C@_1M@IHBJJGG@?$AAn?$AAl?$AA?9?$AAN?$AAL?$AA?$AA@ 10051398     LIBCMT:winapinls.obj
 0002:0000f3a4       ??_C@_1M@EANAGDL@?$AAn?$AAb?$AA?9?$AAN?$AAO?$AA?$AA@ 100513a4     LIBCMT:winapinls.obj
 0002:0000f3b0       ??_C@_1M@NEIEMEGP@?$AAp?$AAl?$AA?9?$AAP?$AAL?$AA?$AA@ 100513b0     LIBCMT:winapinls.obj
 0002:0000f3bc       ??_C@_1M@BOCFIGEP@?$AAp?$AAt?$AA?9?$AAB?$AAR?$AA?$AA@ 100513bc     LIBCMT:winapinls.obj
 0002:0000f3c8       ??_C@_1M@IMPFOPBG@?$AAr?$AAo?$AA?9?$AAR?$AAO?$AA?$AA@ 100513c8     LIBCMT:winapinls.obj
 0002:0000f3d4       ??_C@_1M@IDNNEJMM@?$AAr?$AAu?$AA?9?$AAR?$AAU?$AA?$AA@ 100513d4     LIBCMT:winapinls.obj
 0002:0000f3e0       ??_C@_1M@LILEEOGM@?$AAh?$AAr?$AA?9?$AAH?$AAR?$AA?$AA@ 100513e0     LIBCMT:winapinls.obj
 0002:0000f3ec       ??_C@_1M@FKIFEHPB@?$AAs?$AAk?$AA?9?$AAS?$AAK?$AA?$AA@ 100513ec     LIBCMT:winapinls.obj
 0002:0000f3f8       ??_C@_1M@LJMAMNPJ@?$AAs?$AAq?$AA?9?$AAA?$AAL?$AA?$AA@ 100513f8     LIBCMT:winapinls.obj
 0002:0000f404       ??_C@_1M@GIAKDKJK@?$AAs?$AAv?$AA?9?$AAS?$AAE?$AA?$AA@ 10051404     LIBCMT:winapinls.obj
 0002:0000f410       ??_C@_1M@MKJKIKCL@?$AAt?$AAh?$AA?9?$AAT?$AAH?$AA?$AA@ 10051410     LIBCMT:winapinls.obj
 0002:0000f41c       ??_C@_1M@MFLCCMPB@?$AAt?$AAr?$AA?9?$AAT?$AAR?$AA?$AA@ 1005141c     LIBCMT:winapinls.obj
 0002:0000f428       ??_C@_1M@OIJHDKJN@?$AAu?$AAr?$AA?9?$AAP?$AAK?$AA?$AA@ 10051428     LIBCMT:winapinls.obj
 0002:0000f434       ??_C@_1M@LHIPCIEK@?$AAi?$AAd?$AA?9?$AAI?$AAD?$AA?$AA@ 10051434     LIBCMT:winapinls.obj
 0002:0000f440       ??_C@_1M@MFMOBGI@?$AAu?$AAk?$AA?9?$AAU?$AAA?$AA?$AA@ 10051440     LIBCMT:winapinls.obj
 0002:0000f44c       ??_C@_1M@OBGLJIPL@?$AAb?$AAe?$AA?9?$AAB?$AAY?$AA?$AA@ 1005144c     LIBCMT:winapinls.obj
 0002:0000f458       ??_C@_1M@BCFAJEAD@?$AAs?$AAl?$AA?9?$AAS?$AAI?$AA?$AA@ 10051458     LIBCMT:winapinls.obj
 0002:0000f464       ??_C@_1M@FKFFEDDN@?$AAe?$AAt?$AA?9?$AAE?$AAE?$AA?$AA@ 10051464     LIBCMT:winapinls.obj
 0002:0000f470       ??_C@_1M@KGKKAACI@?$AAl?$AAv?$AA?9?$AAL?$AAV?$AA?$AA@ 10051470     LIBCMT:winapinls.obj
 0002:0000f47c       ??_C@_1M@IFGBIJO@?$AAl?$AAt?$AA?9?$AAL?$AAT?$AA?$AA@ 1005147c     LIBCMT:winapinls.obj
 0002:0000f488       ??_C@_1M@FGEAHEDM@?$AAf?$AAa?$AA?9?$AAI?$AAR?$AA?$AA@ 10051488     LIBCMT:winapinls.obj
 0002:0000f494       ??_C@_1M@KBMAIBFN@?$AAv?$AAi?$AA?9?$AAV?$AAN?$AA?$AA@ 10051494     LIBCMT:winapinls.obj
 0002:0000f4a0       ??_C@_1M@GPCBKDJK@?$AAh?$AAy?$AA?9?$AAA?$AAM?$AA?$AA@ 100514a0     LIBCMT:winapinls.obj
 0002:0000f4ac       ??_C@_1BG@BECMDDJB@?$AAa?$AAz?$AA?9?$AAA?$AAZ?$AA?9?$AAL?$AAa?$AAt?$AAn?$AA?$AA@ 100514ac     LIBCMT:winapinls.obj
 0002:0000f4c4       ??_C@_1M@MAOFCAEA@?$AAe?$AAu?$AA?9?$AAE?$AAS?$AA?$AA@ 100514c4     LIBCMT:winapinls.obj
 0002:0000f4d0       ??_C@_1M@IGHABKPI@?$AAm?$AAk?$AA?9?$AAM?$AAK?$AA?$AA@ 100514d0     LIBCMT:winapinls.obj
 0002:0000f4dc       ??_C@_1M@IAIGNEJG@?$AAt?$AAn?$AA?9?$AAZ?$AAA?$AA?$AA@ 100514dc     LIBCMT:winapinls.obj
 0002:0000f4e8       ??_C@_1M@IIJCOJFA@?$AAx?$AAh?$AA?9?$AAZ?$AAA?$AA?$AA@ 100514e8     LIBCMT:winapinls.obj
 0002:0000f4f4       ??_C@_1M@LGPJHNJH@?$AAz?$AAu?$AA?9?$AAZ?$AAA?$AA?$AA@ 100514f4     LIBCMT:winapinls.obj
 0002:0000f500       ??_C@_1M@HOKAOIO@?$AAa?$AAf?$AA?9?$AAZ?$AAA?$AA?$AA@ 10051500     LIBCMT:winapinls.obj
 0002:0000f50c       ??_C@_1M@DPCLHLIE@?$AAk?$AAa?$AA?9?$AAG?$AAE?$AA?$AA@ 1005150c     LIBCMT:winapinls.obj
 0002:0000f518       ??_C@_1M@BLKMHJBI@?$AAf?$AAo?$AA?9?$AAF?$AAO?$AA?$AA@ 10051518     LIBCMT:winapinls.obj
 0002:0000f524       ??_C@_1M@LGGJAPPB@?$AAh?$AAi?$AA?9?$AAI?$AAN?$AA?$AA@ 10051524     LIBCMT:winapinls.obj
 0002:0000f530       ??_C@_1M@FIKPIHFE@?$AAm?$AAt?$AA?9?$AAM?$AAT?$AA?$AA@ 10051530     LIBCMT:winapinls.obj
 0002:0000f53c       ??_C@_1M@HEGGPBFA@?$AAs?$AAe?$AA?9?$AAN?$AAO?$AA?$AA@ 1005153c     LIBCMT:winapinls.obj
 0002:0000f548       ??_C@_1M@EIBJEEPA@?$AAm?$AAs?$AA?9?$AAM?$AAY?$AA?$AA@ 10051548     LIBCMT:winapinls.obj
 0002:0000f554       ??_C@_1M@FHLBGMPP@?$AAk?$AAk?$AA?9?$AAK?$AAZ?$AA?$AA@ 10051554     LIBCMT:winapinls.obj
 0002:0000f560       ??_C@_1M@NGJJLCGI@?$AAk?$AAy?$AA?9?$AAK?$AAG?$AA?$AA@ 10051560     LIBCMT:winapinls.obj
 0002:0000f56c       ??_C@_1M@GIENNBFC@?$AAs?$AAw?$AA?9?$AAK?$AAE?$AA?$AA@ 1005156c     LIBCMT:winapinls.obj
 0002:0000f578       ??_C@_1BG@NDGMJIMJ@?$AAu?$AAz?$AA?9?$AAU?$AAZ?$AA?9?$AAL?$AAa?$AAt?$AAn?$AA?$AA@ 10051578     LIBCMT:winapinls.obj
 0002:0000f590       ??_C@_1M@IDCCIHBC@?$AAt?$AAt?$AA?9?$AAR?$AAU?$AA?$AA@ 10051590     LIBCMT:winapinls.obj
 0002:0000f59c       ??_C@_1M@LOICPMOJ@?$AAb?$AAn?$AA?9?$AAI?$AAN?$AA?$AA@ 1005159c     LIBCMT:winapinls.obj
 0002:0000f5a8       ??_C@_1M@KPKKNEAH@?$AAp?$AAa?$AA?9?$AAI?$AAN?$AA?$AA@ 100515a8     LIBCMT:winapinls.obj
 0002:0000f5b4       ??_C@_1M@PJGPPBOG@?$AAg?$AAu?$AA?9?$AAI?$AAN?$AA?$AA@ 100515b4     LIBCMT:winapinls.obj
 0002:0000f5c0       ??_C@_1M@KMKMOPHI@?$AAt?$AAa?$AA?9?$AAI?$AAN?$AA?$AA@ 100515c0     LIBCMT:winapinls.obj
 0002:0000f5cc       ??_C@_1M@KFEHEPAC@?$AAt?$AAe?$AA?9?$AAI?$AAN?$AA?$AA@ 100515cc     LIBCMT:winapinls.obj
 0002:0000f5d8       ??_C@_1M@CDCLMGHI@?$AAk?$AAn?$AA?9?$AAI?$AAN?$AA?$AA@ 100515d8     LIBCMT:winapinls.obj
 0002:0000f5e4       ??_C@_1M@MIODLDKF@?$AAm?$AAl?$AA?9?$AAI?$AAN?$AA?$AA@ 100515e4     LIBCMT:winapinls.obj
 0002:0000f5f0       ??_C@_1M@PBIEACPO@?$AAm?$AAr?$AA?9?$AAI?$AAN?$AA?$AA@ 100515f0     LIBCMT:winapinls.obj
 0002:0000f5fc       ??_C@_1M@NIDEAGPH@?$AAs?$AAa?$AA?9?$AAI?$AAN?$AA?$AA@ 100515fc     LIBCMT:winapinls.obj
 0002:0000f608       ??_C@_1M@FHIHCBIO@?$AAm?$AAn?$AA?9?$AAM?$AAN?$AA?$AA@ 10051608     LIBCMT:winapinls.obj
 0002:0000f614       ??_C@_1M@JAIJPENP@?$AAc?$AAy?$AA?9?$AAG?$AAB?$AA?$AA@ 10051614     LIBCMT:winapinls.obj
 0002:0000f620       ??_C@_1M@PHGFBEPN@?$AAg?$AAl?$AA?9?$AAE?$AAS?$AA?$AA@ 10051620     LIBCMT:winapinls.obj
 0002:0000f62c       ??_C@_1O@KPIPDNCP@?$AAk?$AAo?$AAk?$AA?9?$AAI?$AAN?$AA?$AA@ 1005162c     LIBCMT:winapinls.obj
 0002:0000f63c       ??_C@_1O@KNHJLDJA@?$AAs?$AAy?$AAr?$AA?9?$AAS?$AAY?$AA?$AA@ 1005163c     LIBCMT:winapinls.obj
 0002:0000f64c       ??_C@_1O@MKEKBLAH@?$AAd?$AAi?$AAv?$AA?9?$AAM?$AAV?$AA?$AA@ 1005164c     LIBCMT:winapinls.obj
 0002:0000f65c       ??_C@_1O@OHDCKDDF@?$AAq?$AAu?$AAz?$AA?9?$AAB?$AAO?$AA?$AA@ 1005165c     LIBCMT:winapinls.obj
 0002:0000f66c       ??_C@_1M@LEPJNLFD@?$AAn?$AAs?$AA?9?$AAZ?$AAA?$AA?$AA@ 1005166c     LIBCMT:winapinls.obj
 0002:0000f678       ??_C@_1M@OMLEIIJB@?$AAm?$AAi?$AA?9?$AAN?$AAZ?$AA?$AA@ 10051678     LIBCMT:winapinls.obj
 0002:0000f684       ??_C@_1M@PMPEAILG@?$AAa?$AAr?$AA?9?$AAI?$AAQ?$AA?$AA@ 10051684     LIBCMT:winapinls.obj
 0002:0000f690       ??_C@_1M@CNKPNOEE@?$AAd?$AAe?$AA?9?$AAC?$AAH?$AA?$AA@ 10051690     LIBCMT:winapinls.obj
 0002:0000f69c       ??_C@_1M@LKMGMLKO@?$AAe?$AAn?$AA?9?$AAG?$AAB?$AA?$AA@ 1005169c     LIBCMT:winapinls.obj
 0002:0000f6a8       ??_C@_1M@PGKJFFGL@?$AAe?$AAs?$AA?9?$AAM?$AAX?$AA?$AA@ 100516a8     LIBCMT:winapinls.obj
 0002:0000f6b4       ??_C@_1M@DNNANBDC@?$AAf?$AAr?$AA?9?$AAB?$AAE?$AA?$AA@ 100516b4     LIBCMT:winapinls.obj
 0002:0000f6c0       ??_C@_1M@HLGMDFHM@?$AAi?$AAt?$AA?9?$AAC?$AAH?$AA?$AA@ 100516c0     LIBCMT:winapinls.obj
 0002:0000f6cc       ??_C@_1M@CLLBGJH@?$AAn?$AAl?$AA?9?$AAB?$AAE?$AA?$AA@ 100516cc     LIBCMT:winapinls.obj
 0002:0000f6d8       ??_C@_1M@BODBOGLF@?$AAn?$AAn?$AA?9?$AAN?$AAO?$AA?$AA@ 100516d8     LIBCMT:winapinls.obj
 0002:0000f6e4       ??_C@_1M@HFFAHKAD@?$AAp?$AAt?$AA?9?$AAP?$AAT?$AA?$AA@ 100516e4     LIBCMT:winapinls.obj
 0002:0000f6f0       ??_C@_1BG@LNOAKHIE@?$AAs?$AAr?$AA?9?$AAS?$AAP?$AA?9?$AAL?$AAa?$AAt?$AAn?$AA?$AA@ 100516f0     LIBCMT:winapinls.obj
 0002:0000f708       ??_C@_1M@HBMHBGAK@?$AAs?$AAv?$AA?9?$AAF?$AAI?$AA?$AA@ 10051708     LIBCMT:winapinls.obj
 0002:0000f714       ??_C@_1BG@DGCJGJBE@?$AAa?$AAz?$AA?9?$AAA?$AAZ?$AA?9?$AAC?$AAy?$AAr?$AAl?$AA?$AA@ 10051714     LIBCMT:winapinls.obj
 0002:0000f72c       ??_C@_1M@KEJDAAHB@?$AAs?$AAe?$AA?9?$AAS?$AAE?$AA?$AA@ 1005172c     LIBCMT:winapinls.obj
 0002:0000f738       ??_C@_1M@HEIBJJAD@?$AAm?$AAs?$AA?9?$AAB?$AAN?$AA?$AA@ 10051738     LIBCMT:winapinls.obj
 0002:0000f744       ??_C@_1BG@PBGJMCEM@?$AAu?$AAz?$AA?9?$AAU?$AAZ?$AA?9?$AAC?$AAy?$AAr?$AAl?$AA?$AA@ 10051744     LIBCMT:winapinls.obj
 0002:0000f75c       ??_C@_1O@LAOBCMDF@?$AAq?$AAu?$AAz?$AA?9?$AAE?$AAC?$AA?$AA@ 1005175c     LIBCMT:winapinls.obj
 0002:0000f76c       ??_C@_1M@POEEMAIO@?$AAa?$AAr?$AA?9?$AAE?$AAG?$AA?$AA@ 1005176c     LIBCMT:winapinls.obj
 0002:0000f778       ??_C@_1M@EFAKDEDL@?$AAz?$AAh?$AA?9?$AAH?$AAK?$AA?$AA@ 10051778     LIBCMT:winapinls.obj
 0002:0000f784       ??_C@_1M@HKKIJHGI@?$AAd?$AAe?$AA?9?$AAA?$AAT?$AA?$AA@ 10051784     LIBCMT:winapinls.obj
 0002:0000f790       ??_C@_1M@KBFBEHJF@?$AAe?$AAn?$AA?9?$AAA?$AAU?$AA?$AA@ 10051790     LIBCMT:winapinls.obj
 0002:0000f79c       ??_C@_1M@MNPLFAAH@?$AAe?$AAs?$AA?9?$AAE?$AAS?$AA?$AA@ 1005179c     LIBCMT:winapinls.obj
 0002:0000f7a8       ??_C@_1M@HJOOJFMA@?$AAf?$AAr?$AA?9?$AAC?$AAA?$AA?$AA@ 100517a8     LIBCMT:winapinls.obj
 0002:0000f7b4       ??_C@_1BG@JPOFPNAB@?$AAs?$AAr?$AA?9?$AAS?$AAP?$AA?9?$AAC?$AAy?$AAr?$AAl?$AA?$AA@ 100517b4     LIBCMT:winapinls.obj
 0002:0000f7cc       ??_C@_1M@LNFOCMOB@?$AAs?$AAe?$AA?9?$AAF?$AAI?$AA?$AA@ 100517cc     LIBCMT:winapinls.obj
 0002:0000f7d8       ??_C@_1O@MGJBOAMB@?$AAq?$AAu?$AAz?$AA?9?$AAP?$AAE?$AA?$AA@ 100517d8     LIBCMT:winapinls.obj
 0002:0000f7e8       ??_C@_1M@GJINLBOK@?$AAa?$AAr?$AA?9?$AAL?$AAY?$AA?$AA@ 100517e8     LIBCMT:winapinls.obj
 0002:0000f7f4       ??_C@_1M@GGMNHJNL@?$AAz?$AAh?$AA?9?$AAS?$AAG?$AA?$AA@ 100517f4     LIBCMT:winapinls.obj
 0002:0000f800       ??_C@_1M@HOIKODND@?$AAd?$AAe?$AA?9?$AAL?$AAU?$AA?$AA@ 10051800     LIBCMT:winapinls.obj
 0002:0000f80c       ??_C@_1M@DDOCCGFG@?$AAe?$AAn?$AA?9?$AAC?$AAA?$AA?$AA@ 1005180c     LIBCMT:winapinls.obj
 0002:0000f818       ??_C@_1M@BNOEMJLF@?$AAe?$AAs?$AA?9?$AAG?$AAT?$AA?$AA@ 10051818     LIBCMT:winapinls.obj
 0002:0000f824       ??_C@_1M@EOGNKEK@?$AAf?$AAr?$AA?9?$AAC?$AAH?$AA?$AA@ 10051824     LIBCMT:winapinls.obj
 0002:0000f830       ??_C@_1M@FLIDJFHL@?$AAh?$AAr?$AA?9?$AAB?$AAA?$AA?$AA@ 10051830     LIBCMT:winapinls.obj
 0002:0000f83c       ??_C@_1O@FMCELNAJ@?$AAs?$AAm?$AAj?$AA?9?$AAN?$AAO?$AA?$AA@ 1005183c     LIBCMT:winapinls.obj
 0002:0000f84c       ??_C@_1M@JHGLJMGJ@?$AAa?$AAr?$AA?9?$AAD?$AAZ?$AA?$AA@ 1005184c     LIBCMT:winapinls.obj
 0002:0000f858       ??_C@_1M@JKKFDCNP@?$AAz?$AAh?$AA?9?$AAM?$AAO?$AA?$AA@ 10051858     LIBCMT:winapinls.obj
 0002:0000f864       ??_C@_1M@GEEFALPE@?$AAd?$AAe?$AA?9?$AAL?$AAI?$AA?$AA@ 10051864     LIBCMT:winapinls.obj
 0002:0000f870       ??_C@_1M@IGEOFBG@?$AAe?$AAn?$AA?9?$AAN?$AAZ?$AA?$AA@ 10051870     LIBCMT:winapinls.obj
 0002:0000f87c       ??_C@_1M@KDBONEHP@?$AAe?$AAs?$AA?9?$AAC?$AAR?$AA?$AA@ 1005187c     LIBCMT:winapinls.obj
 0002:0000f888       ??_C@_1M@FHMDOHNN@?$AAf?$AAr?$AA?9?$AAL?$AAU?$AA?$AA@ 10051888     LIBCMT:winapinls.obj
 0002:0000f894       ??_C@_1BG@NFKKMAFG@?$AAb?$AAs?$AA?9?$AAB?$AAA?$AA?9?$AAL?$AAa?$AAt?$AAn?$AA?$AA@ 10051894     LIBCMT:winapinls.obj
 0002:0000f8ac       ??_C@_1O@IMNBEMCI@?$AAs?$AAm?$AAj?$AA?9?$AAS?$AAE?$AA?$AA@ 100518ac     LIBCMT:winapinls.obj
 0002:0000f8bc       ??_C@_1M@DHHMBNDP@?$AAa?$AAr?$AA?9?$AAM?$AAA?$AA?$AA@ 100518bc     LIBCMT:winapinls.obj
 0002:0000f8c8       ??_C@_1M@BNBLJCGH@?$AAe?$AAn?$AA?9?$AAI?$AAE?$AA?$AA@ 100518c8     LIBCMT:winapinls.obj
 0002:0000f8d4       ??_C@_1M@GEPAFMDL@?$AAe?$AAs?$AA?9?$AAP?$AAA?$AA?$AA@ 100518d4     LIBCMT:winapinls.obj
 0002:0000f8e0       ??_C@_1M@OJONDMDL@?$AAf?$AAr?$AA?9?$AAM?$AAC?$AA?$AA@ 100518e0     LIBCMT:winapinls.obj
 0002:0000f8ec       ??_C@_1BG@OBCNFJB@?$AAs?$AAr?$AA?9?$AAB?$AAA?$AA?9?$AAL?$AAa?$AAt?$AAn?$AA?$AA@ 100518ec     LIBCMT:winapinls.obj
 0002:0000f904       ??_C@_1O@KEMEEGPO@?$AAs?$AAm?$AAa?$AA?9?$AAN?$AAO?$AA?$AA@ 10051904     LIBCMT:winapinls.obj
 0002:0000f914       ??_C@_1M@ELMGFODK@?$AAa?$AAr?$AA?9?$AAT?$AAN?$AA?$AA@ 10051914     LIBCMT:winapinls.obj
 0002:0000f920       ??_C@_1M@BHDLHFAF@?$AAe?$AAn?$AA?9?$AAZ?$AAA?$AA?$AA@ 10051920     LIBCMT:winapinls.obj
 0002:0000f92c       ??_C@_1M@BMGIGLIF@?$AAe?$AAs?$AA?9?$AAD?$AAO?$AA?$AA@ 1005192c     LIBCMT:winapinls.obj
 0002:0000f938       ??_C@_1BG@CMBHIPBE@?$AAs?$AAr?$AA?9?$AAB?$AAA?$AA?9?$AAC?$AAy?$AAr?$AAl?$AA?$AA@ 10051938     LIBCMT:winapinls.obj
 0002:0000f950       ??_C@_1O@HEDBLHNP@?$AAs?$AAm?$AAa?$AA?9?$AAS?$AAE?$AA?$AA@ 10051950     LIBCMT:winapinls.obj
 0002:0000f960       ??_C@_1M@DAGCADIM@?$AAa?$AAr?$AA?9?$AAO?$AAM?$AA?$AA@ 10051960     LIBCMT:winapinls.obj
 0002:0000f96c       ??_C@_1M@FODLMICG@?$AAe?$AAn?$AA?9?$AAJ?$AAM?$AA?$AA@ 1005196c     LIBCMT:winapinls.obj
 0002:0000f978       ??_C@_1M@DNMLCIHB@?$AAe?$AAs?$AA?9?$AAV?$AAE?$AA?$AA@ 10051978     LIBCMT:winapinls.obj
 0002:0000f984       ??_C@_1O@EOKHMKJK@?$AAs?$AAm?$AAs?$AA?9?$AAF?$AAI?$AA?$AA@ 10051984     LIBCMT:winapinls.obj
 0002:0000f994       ??_C@_1M@CAFJMKOF@?$AAa?$AAr?$AA?9?$AAY?$AAE?$AA?$AA@ 10051994     LIBCMT:winapinls.obj
 0002:0000f9a0       ??_C@_1M@CBFHIJLI@?$AAe?$AAn?$AA?9?$AAC?$AAB?$AA?$AA@ 100519a0     LIBCMT:winapinls.obj
 0002:0000f9ac       ??_C@_1M@BGNFLDN@?$AAe?$AAs?$AA?9?$AAC?$AAO?$AA?$AA@ 100519ac     LIBCMT:winapinls.obj
 0002:0000f9b8       ??_C@_1O@JMPHMAMC@?$AAs?$AAm?$AAn?$AA?9?$AAF?$AAI?$AA?$AA@ 100519b8     LIBCMT:winapinls.obj
 0002:0000f9c8       ??_C@_1M@JLANABKE@?$AAa?$AAr?$AA?9?$AAS?$AAY?$AA?$AA@ 100519c8     LIBCMT:winapinls.obj
 0002:0000f9d4       ??_C@_1M@HPKGCFGN@?$AAe?$AAn?$AA?9?$AAB?$AAZ?$AA?$AA@ 100519d4     LIBCMT:winapinls.obj
 0002:0000f9e0       ??_C@_1M@OLJCMLGM@?$AAe?$AAs?$AA?9?$AAP?$AAE?$AA?$AA@ 100519e0     LIBCMT:winapinls.obj
 0002:0000f9ec       ??_C@_1M@MKKGFKLE@?$AAa?$AAr?$AA?9?$AAJ?$AAO?$AA?$AA@ 100519ec     LIBCMT:winapinls.obj
 0002:0000f9f8       ??_C@_1M@EKPGLDNI@?$AAe?$AAn?$AA?9?$AAT?$AAT?$AA?$AA@ 100519f8     LIBCMT:winapinls.obj
 0002:0000fa04       ??_C@_1M@OONGHFHE@?$AAe?$AAs?$AA?9?$AAA?$AAR?$AA?$AA@ 10051a04     LIBCMT:winapinls.obj
 0002:0000fa10       ??_C@_1M@OOJFGBHE@?$AAa?$AAr?$AA?9?$AAL?$AAB?$AA?$AA@ 10051a10     LIBCMT:winapinls.obj
 0002:0000fa1c       ??_C@_1M@GCEJHNEG@?$AAe?$AAn?$AA?9?$AAZ?$AAW?$AA?$AA@ 10051a1c     LIBCMT:winapinls.obj
 0002:0000fa28       ??_C@_1M@JNOCAHJI@?$AAe?$AAs?$AA?9?$AAE?$AAC?$AA?$AA@ 10051a28     LIBCMT:winapinls.obj
 0002:0000fa34       ??_C@_1M@JEFHPGGB@?$AAa?$AAr?$AA?9?$AAK?$AAW?$AA?$AA@ 10051a34     LIBCMT:winapinls.obj
 0002:0000fa40       ??_C@_1M@MLKIBJOJ@?$AAe?$AAn?$AA?9?$AAP?$AAH?$AA?$AA@ 10051a40     LIBCMT:winapinls.obj
 0002:0000fa4c       ??_C@_1M@BDNIPEND@?$AAe?$AAs?$AA?9?$AAC?$AAL?$AA?$AA@ 10051a4c     LIBCMT:winapinls.obj
 0002:0000fa58       ??_C@_1M@MPNMEKBD@?$AAa?$AAr?$AA?9?$AAA?$AAE?$AA?$AA@ 10051a58     LIBCMT:winapinls.obj
 0002:0000fa64       ??_C@_1M@KBJALCPI@?$AAe?$AAs?$AA?9?$AAU?$AAY?$AA?$AA@ 10051a64     LIBCMT:winapinls.obj
 0002:0000fa70       ??_C@_1M@LLCCOAGA@?$AAa?$AAr?$AA?9?$AAB?$AAH?$AA?$AA@ 10051a70     LIBCMT:winapinls.obj
 0002:0000fa7c       ??_C@_1M@PBFNCDEL@?$AAe?$AAs?$AA?9?$AAP?$AAY?$AA?$AA@ 10051a7c     LIBCMT:winapinls.obj
 0002:0000fa88       ??_C@_1M@EDGINPNP@?$AAa?$AAr?$AA?9?$AAQ?$AAA?$AA?$AA@ 10051a88     LIBCMT:winapinls.obj
 0002:0000fa94       ??_C@_1M@MKDBIIJI@?$AAe?$AAs?$AA?9?$AAB?$AAO?$AA?$AA@ 10051a94     LIBCMT:winapinls.obj
 0002:0000faa0       ??_C@_1M@CPKKEBLD@?$AAe?$AAs?$AA?9?$AAS?$AAV?$AA?$AA@ 10051aa0     LIBCMT:winapinls.obj
 0002:0000faac       ??_C@_1M@NDBGMMJL@?$AAe?$AAs?$AA?9?$AAH?$AAN?$AA?$AA@ 10051aac     LIBCMT:winapinls.obj
 0002:0000fab8       ??_C@_1M@JIJIBHDP@?$AAe?$AAs?$AA?9?$AAN?$AAI?$AA?$AA@ 10051ab8     LIBCMT:winapinls.obj
 0002:0000fac4       ??_C@_1M@CGFMKEEK@?$AAe?$AAs?$AA?9?$AAP?$AAR?$AA?$AA@ 10051ac4     LIBCMT:winapinls.obj
 0002:0000fad0       ??_C@_1O@ICJHKIIK@?$AAz?$AAh?$AA?9?$AAC?$AAH?$AAT?$AA?$AA@ 10051ad0     LIBCMT:winapinls.obj
 0002:0000fae0       ??_C@_15CLNEJCE@?$AAs?$AAr?$AA?$AA@ 10051ae0     LIBCMT:winapinls.obj
 0002:0000fae8       ??_C@_1M@KAHEKEIG@?$AAa?$AAf?$AA?9?$AAz?$AAa?$AA?$AA@ 10051ae8     LIBCMT:winapinls.obj
 0002:0000faf4       ??_C@_1M@GIECOABL@?$AAa?$AAr?$AA?9?$AAa?$AAe?$AA?$AA@ 10051af4     LIBCMT:winapinls.obj
 0002:0000fb00       ??_C@_1M@BMLMEKGI@?$AAa?$AAr?$AA?9?$AAb?$AAh?$AA?$AA@ 10051b00     LIBCMT:winapinls.obj
 0002:0000fb0c       ??_C@_1M@DAPFDGGB@?$AAa?$AAr?$AA?9?$AAd?$AAz?$AA?$AA@ 10051b0c     LIBCMT:winapinls.obj
 0002:0000fb18       ??_C@_1M@FJNKGKIG@?$AAa?$AAr?$AA?9?$AAe?$AAg?$AA?$AA@ 10051b18     LIBCMT:winapinls.obj
 0002:0000fb24       ??_C@_1M@FLGKKCLO@?$AAa?$AAr?$AA?9?$AAi?$AAq?$AA?$AA@ 10051b24     LIBCMT:winapinls.obj
 0002:0000fb30       ??_C@_1M@GNDIPALM@?$AAa?$AAr?$AA?9?$AAj?$AAo?$AA?$AA@ 10051b30     LIBCMT:winapinls.obj
 0002:0000fb3c       ??_C@_1M@DDMJFMGJ@?$AAa?$AAr?$AA?9?$AAk?$AAw?$AA?$AA@ 10051b3c     LIBCMT:winapinls.obj
 0002:0000fb48       ??_C@_1M@EJALMLHM@?$AAa?$AAr?$AA?9?$AAl?$AAb?$AA?$AA@ 10051b48     LIBCMT:winapinls.obj
 0002:0000fb54       ??_C@_1M@MOBDBLOC@?$AAa?$AAr?$AA?9?$AAl?$AAy?$AA?$AA@ 10051b54     LIBCMT:winapinls.obj
 0002:0000fb60       ??_C@_1M@JAOCLHDH@?$AAa?$AAr?$AA?9?$AAm?$AAa?$AA?$AA@ 10051b60     LIBCMT:winapinls.obj
 0002:0000fb6c       ??_C@_1M@JHPMKJIE@?$AAa?$AAr?$AA?9?$AAo?$AAm?$AA?$AA@ 10051b6c     LIBCMT:winapinls.obj
 0002:0000fb78       ??_C@_1M@OEPGHFNH@?$AAa?$AAr?$AA?9?$AAq?$AAa?$AA?$AA@ 10051b78     LIBCMT:winapinls.obj
 0002:0000fb84       ??_C@_1M@KJDONENM@?$AAa?$AAr?$AA?9?$AAs?$AAa?$AA?$AA@ 10051b84     LIBCMT:winapinls.obj
 0002:0000fb90       ??_C@_1M@DMJDKLKM@?$AAa?$AAr?$AA?9?$AAs?$AAy?$AA?$AA@ 10051b90     LIBCMT:winapinls.obj
 0002:0000fb9c       ??_C@_1M@OMFIPEDC@?$AAa?$AAr?$AA?9?$AAt?$AAn?$AA?$AA@ 10051b9c     LIBCMT:winapinls.obj
 0002:0000fba8       ??_C@_1M@IHMHGAON@?$AAa?$AAr?$AA?9?$AAy?$AAe?$AA?$AA@ 10051ba8     LIBCMT:winapinls.obj
 0002:0000fbb4       ??_C@_1BG@KDCPGJGB@?$AAa?$AAz?$AA?9?$AAa?$AAz?$AA?9?$AAc?$AAy?$AAr?$AAl?$AA?$AA@ 10051bb4     LIBCMT:winapinls.obj
 0002:0000fbcc       ??_C@_1BG@IBCKDDOE@?$AAa?$AAz?$AA?9?$AAa?$AAz?$AA?9?$AAl?$AAa?$AAt?$AAn?$AA?$AA@ 10051bcc     LIBCMT:winapinls.obj
 0002:0000fbe4       ??_C@_1M@EGPFDCPD@?$AAb?$AAe?$AA?9?$AAb?$AAy?$AA?$AA@ 10051be4     LIBCMT:winapinls.obj
 0002:0000fbf0       ??_C@_1M@PCMGMCGC@?$AAb?$AAg?$AA?9?$AAb?$AAg?$AA?$AA@ 10051bf0     LIBCMT:winapinls.obj
 0002:0000fbfc       ??_C@_1M@BJBMFGOB@?$AAb?$AAn?$AA?9?$AAi?$AAn?$AA?$AA@ 10051bfc     LIBCMT:winapinls.obj
 0002:0000fc08       ??_C@_1BG@EAKMMACD@?$AAb?$AAs?$AA?9?$AAb?$AAa?$AA?9?$AAl?$AAa?$AAt?$AAn?$AA?$AA@ 10051c08     LIBCMT:winapinls.obj
 0002:0000fc20       ??_C@_1M@KGADAODK@?$AAc?$AAa?$AA?9?$AAe?$AAs?$AA?$AA@ 10051c20     LIBCMT:winapinls.obj
 0002:0000fc2c       ??_C@_1M@COAJPDHI@?$AAc?$AAs?$AA?9?$AAc?$AAz?$AA?$AA@ 10051c2c     LIBCMT:winapinls.obj
 0002:0000fc38       ??_C@_1M@DHBHFONH@?$AAc?$AAy?$AA?9?$AAg?$AAb?$AA?$AA@ 10051c38     LIBCMT:winapinls.obj
 0002:0000fc44       ??_C@_1M@IMGKELGA@?$AAd?$AAa?$AA?9?$AAd?$AAk?$AA?$AA@ 10051c44     LIBCMT:winapinls.obj
 0002:0000fc50       ??_C@_1M@NNDGDNGA@?$AAd?$AAe?$AA?9?$AAa?$AAt?$AA?$AA@ 10051c50     LIBCMT:winapinls.obj
 0002:0000fc5c       ??_C@_1M@IKDBHEEM@?$AAd?$AAe?$AA?9?$AAc?$AAh?$AA?$AA@ 10051c5c     LIBCMT:winapinls.obj
 0002:0000fc68       ??_C@_1M@GFFOJMCJ@?$AAd?$AAe?$AA?9?$AAd?$AAe?$AA?$AA@ 10051c68     LIBCMT:winapinls.obj
 0002:0000fc74       ??_C@_1M@MDNLKBPM@?$AAd?$AAe?$AA?9?$AAl?$AAi?$AA?$AA@ 10051c74     LIBCMT:winapinls.obj
 0002:0000fc80       ??_C@_1M@NJBEEJNL@?$AAd?$AAe?$AA?9?$AAl?$AAu?$AA?$AA@ 10051c80     LIBCMT:winapinls.obj
 0002:0000fc8c       ??_C@_1O@GNNELBAP@?$AAd?$AAi?$AAv?$AA?9?$AAm?$AAv?$AA?$AA@ 10051c8c     LIBCMT:winapinls.obj
 0002:0000fc9c       ??_C@_1M@EJLEOGAE@?$AAe?$AAl?$AA?9?$AAg?$AAr?$AA?$AA@ 10051c9c     LIBCMT:winapinls.obj
 0002:0000fca8       ??_C@_1M@GMPONJN@?$AAe?$AAn?$AA?9?$AAa?$AAu?$AA?$AA@ 10051ca8     LIBCMT:winapinls.obj
 0002:0000fcb4       ??_C@_1M@NIDIIPGF@?$AAe?$AAn?$AA?9?$AAb?$AAz?$AA?$AA@ 10051cb4     LIBCMT:winapinls.obj
 0002:0000fcc0       ??_C@_1M@JEHMIMFO@?$AAe?$AAn?$AA?9?$AAc?$AAa?$AA?$AA@ 10051cc0     LIBCMT:winapinls.obj
 0002:0000fccc       ??_C@_1M@IGMJCDLA@?$AAe?$AAn?$AA?9?$AAc?$AAb?$AA?$AA@ 10051ccc     LIBCMT:winapinls.obj
 0002:0000fcd8       ??_C@_1M@BNFIGBKG@?$AAe?$AAn?$AA?9?$AAg?$AAb?$AA?$AA@ 10051cd8     LIBCMT:winapinls.obj
 0002:0000fce4       ??_C@_1M@LKIFDIGP@?$AAe?$AAn?$AA?9?$AAi?$AAe?$AA?$AA@ 10051ce4     LIBCMT:winapinls.obj
 0002:0000fcf0       ??_C@_1M@PJKFGCCO@?$AAe?$AAn?$AA?9?$AAj?$AAm?$AA?$AA@ 10051cf0     LIBCMT:winapinls.obj
 0002:0000fcfc       ??_C@_1M@KPPKEPBO@?$AAe?$AAn?$AA?9?$AAn?$AAz?$AA?$AA@ 10051cfc     LIBCMT:winapinls.obj
 0002:0000fd08       ??_C@_1M@GMDGLDOB@?$AAe?$AAn?$AA?9?$AAp?$AAh?$AA?$AA@ 10051d08     LIBCMT:winapinls.obj
 0002:0000fd14       ??_C@_1M@ONGIBJNA@?$AAe?$AAn?$AA?9?$AAt?$AAt?$AA?$AA@ 10051d14     LIBCMT:winapinls.obj
 0002:0000fd20       ??_C@_1M@LLODPCMM@?$AAe?$AAn?$AA?9?$AAu?$AAs?$AA?$AA@ 10051d20     LIBCMT:winapinls.obj
 0002:0000fd2c       ??_C@_1M@LAKFNPAN@?$AAe?$AAn?$AA?9?$AAz?$AAa?$AA?$AA@ 10051d2c     LIBCMT:winapinls.obj
 0002:0000fd38       ??_C@_1M@MFNHNHEO@?$AAe?$AAn?$AA?9?$AAz?$AAw?$AA?$AA@ 10051d38     LIBCMT:winapinls.obj
 0002:0000fd44       ??_C@_1M@EJEINPHM@?$AAe?$AAs?$AA?9?$AAa?$AAr?$AA?$AA@ 10051d44     LIBCMT:winapinls.obj
 0002:0000fd50       ??_C@_1M@GNKPCCJA@?$AAe?$AAs?$AA?9?$AAb?$AAo?$AA?$AA@ 10051d50     LIBCMT:winapinls.obj
 0002:0000fd5c       ??_C@_1M@LEEGFONL@?$AAe?$AAs?$AA?9?$AAc?$AAl?$AA?$AA@ 10051d5c     LIBCMT:winapinls.obj
 0002:0000fd68       ??_C@_1M@KGPDPBDF@?$AAe?$AAs?$AA?9?$AAc?$AAo?$AA?$AA@ 10051d68     LIBCMT:winapinls.obj
 0002:0000fd74       ??_C@_1M@EIAHOHH@?$AAe?$AAs?$AA?9?$AAc?$AAr?$AA?$AA@ 10051d74     LIBCMT:winapinls.obj
 0002:0000fd80       ??_C@_1M@LLPGMBIN@?$AAe?$AAs?$AA?9?$AAd?$AAo?$AA?$AA@ 10051d80     LIBCMT:winapinls.obj
 0002:0000fd8c       ??_C@_1M@DKHMKNJA@?$AAe?$AAs?$AA?9?$AAe?$AAc?$AA?$AA@ 10051d8c     LIBCMT:winapinls.obj
 0002:0000fd98       ??_C@_1M@GKGFPKAP@?$AAe?$AAs?$AA?9?$AAe?$AAs?$AA?$AA@ 10051d98     LIBCMT:winapinls.obj
 0002:0000fda4       ??_C@_1M@LKHKGDLN@?$AAe?$AAs?$AA?9?$AAg?$AAt?$AA?$AA@ 10051da4     LIBCMT:winapinls.obj
 0002:0000fdb0       ??_C@_1M@HEIIGGJD@?$AAe?$AAs?$AA?9?$AAh?$AAn?$AA?$AA@ 10051db0     LIBCMT:winapinls.obj
 0002:0000fdbc       ??_C@_1M@FBDHPPGD@?$AAe?$AAs?$AA?9?$AAm?$AAx?$AA?$AA@ 10051dbc     LIBCMT:winapinls.obj
 0002:0000fdc8       ??_C@_1M@DPAGLNDH@?$AAe?$AAs?$AA?9?$AAn?$AAi?$AA?$AA@ 10051dc8     LIBCMT:winapinls.obj
 0002:0000fdd4       ??_C@_1M@MDGOPGDD@?$AAe?$AAs?$AA?9?$AAp?$AAa?$AA?$AA@ 10051dd4     LIBCMT:winapinls.obj
 0002:0000fde0       ??_C@_1M@EMAMGBGE@?$AAe?$AAs?$AA?9?$AAp?$AAe?$AA?$AA@ 10051de0     LIBCMT:winapinls.obj
 0002:0000fdec       ??_C@_1M@IBMCAOEC@?$AAe?$AAs?$AA?9?$AAp?$AAr?$AA?$AA@ 10051dec     LIBCMT:winapinls.obj
 0002:0000fdf8       ??_C@_1M@FGMDIJED@?$AAe?$AAs?$AA?9?$AAp?$AAy?$AA?$AA@ 10051df8     LIBCMT:winapinls.obj
 0002:0000fe04       ??_C@_1M@IIDEOLLL@?$AAe?$AAs?$AA?9?$AAs?$AAv?$AA?$AA@ 10051e04     LIBCMT:winapinls.obj
 0002:0000fe10       ??_C@_1M@GAOBIPA@?$AAe?$AAs?$AA?9?$AAu?$AAy?$AA?$AA@ 10051e10     LIBCMT:winapinls.obj
 0002:0000fe1c       ??_C@_1M@JKFFICHJ@?$AAe?$AAs?$AA?9?$AAv?$AAe?$AA?$AA@ 10051e1c     LIBCMT:winapinls.obj
 0002:0000fe28       ??_C@_1M@PNMLOJDF@?$AAe?$AAt?$AA?9?$AAe?$AAe?$AA?$AA@ 10051e28     LIBCMT:winapinls.obj
 0002:0000fe34       ??_C@_1M@GHHLIKEI@?$AAe?$AAu?$AA?9?$AAe?$AAs?$AA?$AA@ 10051e34     LIBCMT:winapinls.obj
 0002:0000fe40       ??_C@_1M@PBNONODE@?$AAf?$AAa?$AA?9?$AAi?$AAr?$AA?$AA@ 10051e40     LIBCMT:winapinls.obj
 0002:0000fe4c       ??_C@_1M@JEEHPMIL@?$AAf?$AAi?$AA?9?$AAf?$AAi?$AA?$AA@ 10051e4c     LIBCMT:winapinls.obj
 0002:0000fe58       ??_C@_1M@LMDCNDBA@?$AAf?$AAo?$AA?9?$AAf?$AAo?$AA?$AA@ 10051e58     LIBCMT:winapinls.obj
 0002:0000fe64       ??_C@_1M@JKEOHLDK@?$AAf?$AAr?$AA?9?$AAb?$AAe?$AA?$AA@ 10051e64     LIBCMT:winapinls.obj
 0002:0000fe70       ??_C@_1M@NOHADPMI@?$AAf?$AAr?$AA?9?$AAc?$AAa?$AA?$AA@ 10051e70     LIBCMT:winapinls.obj
 0002:0000fe7c       ??_C@_1M@KDHIHAEC@?$AAf?$AAr?$AA?9?$AAc?$AAh?$AA?$AA@ 10051e7c     LIBCMT:winapinls.obj
 0002:0000fe88       ??_C@_1M@MMBBFGAK@?$AAf?$AAr?$AA?9?$AAf?$AAr?$AA?$AA@ 10051e88     LIBCMT:winapinls.obj
 0002:0000fe94       ??_C@_1M@PAFNENNF@?$AAf?$AAr?$AA?9?$AAl?$AAu?$AA?$AA@ 10051e94     LIBCMT:winapinls.obj
 0002:0000fea0       ??_C@_1M@EOHDJGDD@?$AAf?$AAr?$AA?9?$AAm?$AAc?$AA?$AA@ 10051ea0     LIBCMT:winapinls.obj
 0002:0000feac       ??_C@_1M@FAPLLOPF@?$AAg?$AAl?$AA?9?$AAe?$AAs?$AA?$AA@ 10051eac     LIBCMT:winapinls.obj
 0002:0000feb8       ??_C@_1M@FOPBFLOO@?$AAg?$AAu?$AA?9?$AAi?$AAn?$AA?$AA@ 10051eb8     LIBCMT:winapinls.obj
 0002:0000fec4       ??_C@_1M@KBMCINPM@?$AAh?$AAe?$AA?9?$AAi?$AAl?$AA?$AA@ 10051ec4     LIBCMT:winapinls.obj
 0002:0000fed0       ??_C@_1M@BBPHKFPJ@?$AAh?$AAi?$AA?9?$AAi?$AAn?$AA?$AA@ 10051ed0     LIBCMT:winapinls.obj
 0002:0000fedc       ??_C@_1M@PMBNDPHD@?$AAh?$AAr?$AA?9?$AAb?$AAa?$AA?$AA@ 10051edc     LIBCMT:winapinls.obj
 0002:0000fee8       ??_C@_1M@BPCKOEGE@?$AAh?$AAr?$AA?9?$AAh?$AAr?$AA?$AA@ 10051ee8     LIBCMT:winapinls.obj
 0002:0000fef4       ??_C@_1M@GACBMHKE@?$AAh?$AAu?$AA?9?$AAh?$AAu?$AA?$AA@ 10051ef4     LIBCMT:winapinls.obj
 0002:0000ff00       ??_C@_1M@MILPAJJC@?$AAh?$AAy?$AA?9?$AAa?$AAm?$AA?$AA@ 10051f00     LIBCMT:winapinls.obj
 0002:0000ff0c       ??_C@_1M@BABBICEC@?$AAi?$AAd?$AA?9?$AAi?$AAd?$AA?$AA@ 10051f0c     LIBCMT:winapinls.obj
 0002:0000ff18       ??_C@_1M@BIKNHHPF@?$AAi?$AAs?$AA?9?$AAi?$AAs?$AA?$AA@ 10051f18     LIBCMT:winapinls.obj
 0002:0000ff24       ??_C@_1M@NMPCJPHE@?$AAi?$AAt?$AA?9?$AAc?$AAh?$AA?$AA@ 10051f24     LIBCMT:winapinls.obj
 0002:0000ff30       ??_C@_1M@GHKGFEDF@?$AAi?$AAt?$AA?9?$AAi?$AAt?$AA?$AA@ 10051f30     LIBCMT:winapinls.obj
 0002:0000ff3c       ??_C@_1M@NIEJCJJA@?$AAj?$AAa?$AA?9?$AAj?$AAp?$AA?$AA@ 10051f3c     LIBCMT:winapinls.obj
 0002:0000ff48       ??_C@_1M@JILFNBIM@?$AAk?$AAa?$AA?9?$AAg?$AAe?$AA?$AA@ 10051f48     LIBCMT:winapinls.obj
 0002:0000ff54       ??_C@_1M@PACPMGPH@?$AAk?$AAk?$AA?9?$AAk?$AAz?$AA?$AA@ 10051f54     LIBCMT:winapinls.obj
 0002:0000ff60       ??_C@_1M@IELFGMHA@?$AAk?$AAn?$AA?9?$AAi?$AAn?$AA?$AA@ 10051f60     LIBCMT:winapinls.obj
 0002:0000ff6c       ??_C@_1O@IBBJHCH@?$AAk?$AAo?$AAk?$AA?9?$AAi?$AAn?$AA?$AA@ 10051f6c     LIBCMT:winapinls.obj
 0002:0000ff7c       ??_C@_1M@DMHAEOGC@?$AAk?$AAo?$AA?9?$AAk?$AAr?$AA?$AA@ 10051f7c     LIBCMT:winapinls.obj
 0002:0000ff88       ??_C@_1M@HBAHBIGA@?$AAk?$AAy?$AA?9?$AAk?$AAg?$AA?$AA@ 10051f88     LIBCMT:winapinls.obj
 0002:0000ff94       ??_C@_1M@KPMILCJG@?$AAl?$AAt?$AA?9?$AAl?$AAt?$AA?$AA@ 10051f94     LIBCMT:winapinls.obj
 0002:0000ffa0       ??_C@_1M@BDEKKCA@?$AAl?$AAv?$AA?9?$AAl?$AAv?$AA?$AA@ 10051fa0     LIBCMT:winapinls.obj
 0002:0000ffac       ??_C@_1M@ELCKCCJJ@?$AAm?$AAi?$AA?9?$AAn?$AAz?$AA?$AA@ 10051fac     LIBCMT:winapinls.obj
 0002:0000ffb8       ??_C@_1M@CBOOLAPA@?$AAm?$AAk?$AA?9?$AAm?$AAk?$AA?$AA@ 10051fb8     LIBCMT:winapinls.obj
 0002:0000ffc4       ??_C@_1M@GPHNBJKN@?$AAm?$AAl?$AA?9?$AAi?$AAn?$AA?$AA@ 10051fc4     LIBCMT:winapinls.obj
 0002:0000ffd0       ??_C@_1M@PABJILIG@?$AAm?$AAn?$AA?9?$AAm?$AAn?$AA?$AA@ 10051fd0     LIBCMT:winapinls.obj
 0002:0000ffdc       ??_C@_1M@FGBKKIPG@?$AAm?$AAr?$AA?9?$AAi?$AAn?$AA?$AA@ 10051fdc     LIBCMT:winapinls.obj
 0002:0000ffe8       ??_C@_1M@NDBPDDAL@?$AAm?$AAs?$AA?9?$AAb?$AAn?$AA?$AA@ 10051fe8     LIBCMT:winapinls.obj
 0002:0000fff4       ??_C@_1M@OPIHOOPI@?$AAm?$AAs?$AA?9?$AAm?$AAy?$AA?$AA@ 10051ff4     LIBCMT:winapinls.obj
 0002:00010000       ??_C@_1M@PPDBCNFM@?$AAm?$AAt?$AA?9?$AAm?$AAt?$AA?$AA@ 10052000     LIBCMT:winapinls.obj
 0002:0001000c       ??_C@_1M@KDJDKMDD@?$AAn?$AAb?$AA?9?$AAn?$AAo?$AA?$AA@ 1005200c     LIBCMT:winapinls.obj
 0002:00010018       ??_C@_1M@KFCFLMJP@?$AAn?$AAl?$AA?9?$AAb?$AAe?$AA?$AA@ 10052018     LIBCMT:winapinls.obj
 0002:00010024       ??_C@_1M@KPOPDDGO@?$AAn?$AAl?$AA?9?$AAn?$AAl?$AA?$AA@ 10052024     LIBCMT:winapinls.obj
 0002:00010030       ??_C@_1M@LJKPEMLN@?$AAn?$AAn?$AA?9?$AAn?$AAo?$AA?$AA@ 10052030     LIBCMT:winapinls.obj
 0002:0001003c       ??_C@_1M@BDGHHBFL@?$AAn?$AAs?$AA?9?$AAz?$AAa?$AA?$AA@ 1005203c     LIBCMT:winapinls.obj
 0002:00010048       ??_C@_1M@IDEHOAP@?$AAp?$AAa?$AA?9?$AAi?$AAn?$AA?$AA@ 10052048     LIBCMT:winapinls.obj
 0002:00010054       ??_C@_1M@HDBKGOGH@?$AAp?$AAl?$AA?9?$AAp?$AAl?$AA?$AA@ 10052054     LIBCMT:winapinls.obj
 0002:00010060       ??_C@_1M@LJLLCMEH@?$AAp?$AAt?$AA?9?$AAb?$AAr?$AA?$AA@ 10052060     LIBCMT:winapinls.obj
 0002:0001006c       ??_C@_1M@NCMONAAL@?$AAp?$AAt?$AA?9?$AAp?$AAt?$AA?$AA@ 1005206c     LIBCMT:winapinls.obj
 0002:00010078       ??_C@_1O@EAKMAJDN@?$AAq?$AAu?$AAz?$AA?9?$AAb?$AAo?$AA?$AA@ 10052078     LIBCMT:winapinls.obj
 0002:00010088       ??_C@_1O@BHHPIGDN@?$AAq?$AAu?$AAz?$AA?9?$AAe?$AAc?$AA?$AA@ 10052088     LIBCMT:winapinls.obj
 0002:00010098       ??_C@_1O@GBAPEKMJ@?$AAq?$AAu?$AAz?$AA?9?$AAp?$AAe?$AA?$AA@ 10052098     LIBCMT:winapinls.obj
 0002:000100a8       ??_C@_1M@CLGLEFBO@?$AAr?$AAo?$AA?9?$AAr?$AAo?$AA?$AA@ 100520a8     LIBCMT:winapinls.obj
 0002:000100b4       ??_C@_1M@CEEDODME@?$AAr?$AAu?$AA?9?$AAr?$AAu?$AA?$AA@ 100520b4     LIBCMT:winapinls.obj
 0002:000100c0       ??_C@_1M@HPKKKMPP@?$AAs?$AAa?$AA?9?$AAi?$AAn?$AA?$AA@ 100520c0     LIBCMT:winapinls.obj
 0002:000100cc       ??_C@_1M@BKMAIGOJ@?$AAs?$AAe?$AA?9?$AAf?$AAi?$AA?$AA@ 100520cc     LIBCMT:winapinls.obj
 0002:000100d8       ??_C@_1M@NDPIFLFI@?$AAs?$AAe?$AA?9?$AAn?$AAo?$AA?$AA@ 100520d8     LIBCMT:winapinls.obj
 0002:000100e4       ??_C@_1M@DANKKHJ@?$AAs?$AAe?$AA?9?$AAs?$AAe?$AA?$AA@ 100520e4     LIBCMT:winapinls.obj
 0002:000100f0       ??_C@_1M@PNBLONPJ@?$AAs?$AAk?$AA?9?$AAs?$AAk?$AA?$AA@ 100520f0     LIBCMT:winapinls.obj
 0002:000100fc       ??_C@_1M@LFMODOAL@?$AAs?$AAl?$AA?9?$AAs?$AAi?$AA?$AA@ 100520fc     LIBCMT:winapinls.obj
 0002:00010108       ??_C@_1O@DFKOMPG@?$AAs?$AAm?$AAa?$AA?9?$AAn?$AAo?$AA?$AA@ 10052108     LIBCMT:winapinls.obj
 0002:00010118       ??_C@_1O@NDKPBNNH@?$AAs?$AAm?$AAa?$AA?9?$AAs?$AAe?$AA?$AA@ 10052118     LIBCMT:winapinls.obj
 0002:00010128       ??_C@_1O@PLLKBHAB@?$AAs?$AAm?$AAj?$AA?9?$AAn?$AAo?$AA?$AA@ 10052128     LIBCMT:winapinls.obj
 0002:00010138       ??_C@_1O@CLEPOGCA@?$AAs?$AAm?$AAj?$AA?9?$AAs?$AAe?$AA?$AA@ 10052138     LIBCMT:winapinls.obj
 0002:00010148       ??_C@_1O@DLGJGKMK@?$AAs?$AAm?$AAn?$AA?9?$AAf?$AAi?$AA?$AA@ 10052148     LIBCMT:winapinls.obj
 0002:00010158       ??_C@_1O@OJDJGAJC@?$AAs?$AAm?$AAs?$AA?9?$AAf?$AAi?$AA?$AA@ 10052158     LIBCMT:winapinls.obj
 0002:00010168       ??_C@_1M@BOFOGHPB@?$AAs?$AAq?$AA?9?$AAa?$AAl?$AA?$AA@ 10052168     LIBCMT:winapinls.obj
 0002:00010174       ??_C@_1BG@LJBBIPGB@?$AAs?$AAr?$AA?9?$AAb?$AAa?$AA?9?$AAc?$AAy?$AAr?$AAl?$AA?$AA@ 10052174     LIBCMT:winapinls.obj
 0002:0001018c       ??_C@_1BG@JLBENFOE@?$AAs?$AAr?$AA?9?$AAb?$AAa?$AA?9?$AAl?$AAa?$AAt?$AAn?$AA?$AA@ 1005218c     LIBCMT:winapinls.obj
 0002:000101a4       ??_C@_1BG@KODPNHE@?$AAs?$AAr?$AA?9?$AAs?$AAp?$AA?9?$AAc?$AAy?$AAr?$AAl?$AA?$AA@ 100521a4     LIBCMT:winapinls.obj
 0002:000101bc       ??_C@_1BG@CIOGKHPB@?$AAs?$AAr?$AA?9?$AAs?$AAp?$AA?9?$AAl?$AAa?$AAt?$AAn?$AA?$AA@ 100521bc     LIBCMT:winapinls.obj
 0002:000101d4       ??_C@_1M@NGFJLMAC@?$AAs?$AAv?$AA?9?$AAf?$AAi?$AA?$AA@ 100521d4     LIBCMT:winapinls.obj
 0002:000101e0       ??_C@_1M@MPJEJAJC@?$AAs?$AAv?$AA?9?$AAs?$AAe?$AA?$AA@ 100521e0     LIBCMT:winapinls.obj
 0002:000101ec       ??_C@_1M@MPNDHLFK@?$AAs?$AAw?$AA?9?$AAk?$AAe?$AA?$AA@ 100521ec     LIBCMT:winapinls.obj
 0002:000101f8       ??_C@_1O@KOHBJJI@?$AAs?$AAy?$AAr?$AA?9?$AAs?$AAy?$AA?$AA@ 100521f8     LIBCMT:winapinls.obj
 0002:00010208       ??_C@_1M@LDCEFHA@?$AAt?$AAa?$AA?9?$AAi?$AAn?$AA?$AA@ 10052208     LIBCMT:winapinls.obj
 0002:00010214       ??_C@_1M@CNJOFAK@?$AAt?$AAe?$AA?9?$AAi?$AAn?$AA?$AA@ 10052214     LIBCMT:winapinls.obj
 0002:00010220       ??_C@_1M@GNAECACD@?$AAt?$AAh?$AA?9?$AAt?$AAh?$AA?$AA@ 10052220     LIBCMT:winapinls.obj
 0002:0001022c       ??_C@_1M@CHBIHOJO@?$AAt?$AAn?$AA?9?$AAz?$AAa?$AA?$AA@ 1005222c     LIBCMT:winapinls.obj
 0002:00010238       ??_C@_1M@GCCMIGPJ@?$AAt?$AAr?$AA?9?$AAt?$AAr?$AA?$AA@ 10052238     LIBCMT:winapinls.obj
 0002:00010244       ??_C@_1M@CELMCNBK@?$AAt?$AAt?$AA?9?$AAr?$AAu?$AA?$AA@ 10052244     LIBCMT:winapinls.obj
 0002:00010250       ??_C@_1M@KLMCELGA@?$AAu?$AAk?$AA?9?$AAu?$AAa?$AA?$AA@ 10052250     LIBCMT:winapinls.obj
 0002:0001025c       ??_C@_1M@EPAJJAJF@?$AAu?$AAr?$AA?9?$AAp?$AAk?$AA?$AA@ 1005225c     LIBCMT:winapinls.obj
 0002:00010268       ??_C@_1BG@GEGPMCDJ@?$AAu?$AAz?$AA?9?$AAu?$AAz?$AA?9?$AAc?$AAy?$AAr?$AAl?$AA?$AA@ 10052268     LIBCMT:winapinls.obj
 0002:00010280       ??_C@_1BG@EGGKJILM@?$AAu?$AAz?$AA?9?$AAu?$AAz?$AA?9?$AAl?$AAa?$AAt?$AAn?$AA?$AA@ 10052280     LIBCMT:winapinls.obj
 0002:00010298       ??_C@_1M@GFOCLFF@?$AAv?$AAi?$AA?9?$AAv?$AAn?$AA?$AA@ 10052298     LIBCMT:winapinls.obj
 0002:000102a4       ??_C@_1M@CPAMEDFI@?$AAx?$AAh?$AA?9?$AAz?$AAa?$AA?$AA@ 100522a4     LIBCMT:winapinls.obj
 0002:000102b0       ??_C@_1O@EBKIFIGN@?$AAz?$AAh?$AA?9?$AAc?$AAh?$AAs?$AA?$AA@ 100522b0     LIBCMT:winapinls.obj
 0002:000102c0       ??_C@_1O@NMHPGANE@?$AAz?$AAh?$AA?9?$AAc?$AAh?$AAt?$AA?$AA@ 100522c0     LIBCMT:winapinls.obj
 0002:000102d0       ??_C@_1M@LPINJOMC@?$AAz?$AAh?$AA?9?$AAc?$AAn?$AA?$AA@ 100522d0     LIBCMT:winapinls.obj
 0002:000102dc       ??_C@_1M@OCJEJODD@?$AAz?$AAh?$AA?9?$AAh?$AAk?$AA?$AA@ 100522dc     LIBCMT:winapinls.obj
 0002:000102e8       ??_C@_1M@DNDLJINH@?$AAz?$AAh?$AA?9?$AAm?$AAo?$AA?$AA@ 100522e8     LIBCMT:winapinls.obj
 0002:000102f4       ??_C@_1M@MBFDNDND@?$AAz?$AAh?$AA?9?$AAs?$AAg?$AA?$AA@ 100522f4     LIBCMT:winapinls.obj
 0002:00010300       ??_C@_1M@IMEPLEPE@?$AAz?$AAh?$AA?9?$AAt?$AAw?$AA?$AA@ 10052300     LIBCMT:winapinls.obj
 0002:0001030c       ??_C@_1M@BBGHNHJP@?$AAz?$AAu?$AA?9?$AAz?$AAa?$AA?$AA@ 1005230c     LIBCMT:winapinls.obj
 0002:00010318       ___newctype                10052318     LIBCMT:ctype.obj
 0002:00010618       __wctype                   10052618     LIBCMT:ctype.obj
 0002:00010820       ___newclmap                10052820     LIBCMT:ctype.obj
 0002:000109a0       ___newcumap                100529a0     LIBCMT:ctype.obj
 0002:00010b20       ___lc_category             10052b20     LIBCMT:wsetloca.obj
 0002:00010b68       ??_C@_1O@GIFLHMA@?$AAL?$AAC?$AA_?$AAA?$AAL?$AAL?$AA?$AA@ 10052b68     LIBCMT:wsetloca.obj
 0002:00010b78       ??_C@_1BG@PPOMIBNJ@?$AAL?$AAC?$AA_?$AAC?$AAO?$AAL?$AAL?$AAA?$AAT?$AAE?$AA?$AA@ 10052b78     LIBCMT:wsetloca.obj
 0002:00010b90       ??_C@_1BC@FFJGAPJM@?$AAL?$AAC?$AA_?$AAC?$AAT?$AAY?$AAP?$AAE?$AA?$AA@ 10052b90     LIBCMT:wsetloca.obj
 0002:00010ba4       ??_C@_1BI@PCKFNJFB@?$AAL?$AAC?$AA_?$AAM?$AAO?$AAN?$AAE?$AAT?$AAA?$AAR?$AAY?$AA?$AA@ 10052ba4     LIBCMT:wsetloca.obj
 0002:00010bbc       ??_C@_1BG@ENIEDKID@?$AAL?$AAC?$AA_?$AAN?$AAU?$AAM?$AAE?$AAR?$AAI?$AAC?$AA?$AA@ 10052bbc     LIBCMT:wsetloca.obj
 0002:00010bd4       ??_C@_1BA@HAAOMIIG@?$AAL?$AAC?$AA_?$AAT?$AAI?$AAM?$AAE?$AA?$AA@ 10052bd4     LIBCMT:wsetloca.obj
 0002:00010c68       ??_C@_15NBPDDFIP@?$AA?$DN?$AA?$DL?$AA?$AA@ 10052c68     LIBCMT:wsetloca.obj
 0002:00010c70       ??_C@_13PJJBFPED@?$AA?$DL?$AA?$AA@ 10052c70     LIBCMT:wsetloca.obj
 0002:00010c74       ??_C@_13NMPKAAJP@?$AA?$DN?$AA?$AA@ 10052c74     LIBCMT:wsetloca.obj
 0002:00010c78       ??_C@_13FHBKNHDA@?$AAC?$AA?$AA@ 10052c78     LIBCMT:wsetloca.obj
 0002:00010c7c       ??_C@_17MBJJLFDM@?$AA_?$AA?4?$AA?0?$AA?$AA@ 10052c7c     LIBCMT:wsetloca.obj
 0002:00010c84       ??_C@_13ENNFDPBH@?$AA_?$AA?$AA@ 10052c84     LIBCMT:wsetloca.obj
 0002:00010c88       ??_C@_13JOFGPIOO@?$AA?4?$AA?$AA@ 10052c88     LIBCMT:wsetloca.obj
 0002:00010c8c       ??_C@_06PGGFOGJG@1?$CDSNAN?$AA@ 10052c8c     LIBCMT:x10fout.obj
 0002:00010c94       ??_C@_05PHHOCPM@1?$CDIND?$AA@ 10052c94     LIBCMT:x10fout.obj
 0002:00010c9c       ??_C@_05DNEBIAHO@1?$CDINF?$AA@ 10052c9c     LIBCMT:x10fout.obj
 0002:00010ca4       ??_C@_06IMKFLFPG@1?$CDQNAN?$AA@ 10052ca4     LIBCMT:x10fout.obj
 0002:00010cac       ??_C@_0M@HHGEPIBF@CreateFile2?$AA@ 10052cac     LIBCMT:wopen.obj
 0002:00010cb8       ??_C@_1BA@BALFACEM@?$AAC?$AAO?$AAN?$AAO?$AAU?$AAT?$AA$?$AA?$AA@ 10052cb8     LIBCMT:initcon.obj
 0002:00010cc8       ___rg_language             10052cc8     LIBCMT:getqloc.obj
 0002:00010fd4       ??_C@_1BC@LLOKLNP@?$AAa?$AAm?$AAe?$AAr?$AAi?$AAc?$AAa?$AAn?$AA?$AA@ 10052fd4     LIBCMT:getqloc.obj
 0002:00010fe8       ??_C@_1CC@HEIGCDGG@?$AAa?$AAm?$AAe?$AAr?$AAi?$AAc?$AAa?$AAn?$AA?5?$AAe?$AAn?$AAg?$AAl?$AAi?$AAs?$AAh?$AA?$AA@ 10052fe8     LIBCMT:getqloc.obj
 0002:0001100c       ??_C@_1CC@IHCNOMIN@?$AAa?$AAm?$AAe?$AAr?$AAi?$AAc?$AAa?$AAn?$AA?9?$AAe?$AAn?$AAg?$AAl?$AAi?$AAs?$AAh?$AA?$AA@ 1005300c     LIBCMT:getqloc.obj
 0002:00011030       ??_C@_1BG@GKAGPCGG@?$AAa?$AAu?$AAs?$AAt?$AAr?$AAa?$AAl?$AAi?$AAa?$AAn?$AA?$AA@ 10053030     LIBCMT:getqloc.obj
 0002:00011048       ??_C@_1BA@GMENCENF@?$AAb?$AAe?$AAl?$AAg?$AAi?$AAa?$AAn?$AA?$AA@ 10053048     LIBCMT:getqloc.obj
 0002:00011058       ??_C@_1BC@PJMIIAAN@?$AAc?$AAa?$AAn?$AAa?$AAd?$AAi?$AAa?$AAn?$AA?$AA@ 10053058     LIBCMT:getqloc.obj
 0002:0001106c       ??_C@_17NOIMNFBF@?$AAc?$AAh?$AAh?$AA?$AA@ 1005306c     LIBCMT:getqloc.obj
 0002:00011074       ??_C@_17GGDALCHA@?$AAc?$AAh?$AAi?$AA?$AA@ 10053074     LIBCMT:getqloc.obj
 0002:0001107c       ??_C@_1BA@NPNJKIBL@?$AAc?$AAh?$AAi?$AAn?$AAe?$AAs?$AAe?$AA?$AA@ 1005307c     LIBCMT:getqloc.obj
 0002:0001108c       ??_C@_1CC@DINBAMMJ@?$AAc?$AAh?$AAi?$AAn?$AAe?$AAs?$AAe?$AA?9?$AAh?$AAo?$AAn?$AAg?$AAk?$AAo?$AAn?$AAg?$AA?$AA@ 1005308c     LIBCMT:getqloc.obj
 0002:000110b0       ??_C@_1CG@IOBJPACO@?$AAc?$AAh?$AAi?$AAn?$AAe?$AAs?$AAe?$AA?9?$AAs?$AAi?$AAm?$AAp?$AAl?$AAi?$AAf?$AAi?$AAe?$AAd?$AA?$AA@ 100530b0     LIBCMT:getqloc.obj
 0002:000110d8       ??_C@_1CE@GAJNDCKG@?$AAc?$AAh?$AAi?$AAn?$AAe?$AAs?$AAe?$AA?9?$AAs?$AAi?$AAn?$AAg?$AAa?$AAp?$AAo?$AAr?$AAe?$AA?$AA@ 100530d8     LIBCMT:getqloc.obj
 0002:000110fc       ??_C@_1CI@PAJPIOOD@?$AAc?$AAh?$AAi?$AAn?$AAe?$AAs?$AAe?$AA?9?$AAt?$AAr?$AAa?$AAd?$AAi?$AAt?$AAi?$AAo?$AAn?$AAa?$AAl?$AA?$AA@ 100530fc     LIBCMT:getqloc.obj
 0002:00011124       ??_C@_1BM@NILJBMMD@?$AAd?$AAu?$AAt?$AAc?$AAh?$AA?9?$AAb?$AAe?$AAl?$AAg?$AAi?$AAa?$AAn?$AA?$AA@ 10053124     LIBCMT:getqloc.obj
 0002:00011140       ??_C@_1CC@OOJPJNEJ@?$AAe?$AAn?$AAg?$AAl?$AAi?$AAs?$AAh?$AA?9?$AAa?$AAm?$AAe?$AAr?$AAi?$AAc?$AAa?$AAn?$AA?$AA@ 10053140     LIBCMT:getqloc.obj
 0002:00011164       ??_C@_1BI@IOLFEEM@?$AAe?$AAn?$AAg?$AAl?$AAi?$AAs?$AAh?$AA?9?$AAa?$AAu?$AAs?$AA?$AA@ 10053164     LIBCMT:getqloc.obj
 0002:0001117c       ??_C@_1BO@HFFNLENJ@?$AAe?$AAn?$AAg?$AAl?$AAi?$AAs?$AAh?$AA?9?$AAb?$AAe?$AAl?$AAi?$AAz?$AAe?$AA?$AA@ 1005317c     LIBCMT:getqloc.obj
 0002:0001119c       ??_C@_1BI@HAPKJMPO@?$AAe?$AAn?$AAg?$AAl?$AAi?$AAs?$AAh?$AA?9?$AAc?$AAa?$AAn?$AA?$AA@ 1005319c     LIBCMT:getqloc.obj
 0002:000111b4       ??_C@_1CE@HLNDMIOJ@?$AAe?$AAn?$AAg?$AAl?$AAi?$AAs?$AAh?$AA?9?$AAc?$AAa?$AAr?$AAi?$AAb?$AAb?$AAe?$AAa?$AAn?$AA?$AA@ 100531b4     LIBCMT:getqloc.obj
 0002:000111d8       ??_C@_1BI@LDHJHHAC@?$AAe?$AAn?$AAg?$AAl?$AAi?$AAs?$AAh?$AA?9?$AAi?$AAr?$AAe?$AA?$AA@ 100531d8     LIBCMT:getqloc.obj
 0002:000111f0       ??_C@_1CA@NJMMCFOC@?$AAe?$AAn?$AAg?$AAl?$AAi?$AAs?$AAh?$AA?9?$AAj?$AAa?$AAm?$AAa?$AAi?$AAc?$AAa?$AA?$AA@ 100531f0     LIBCMT:getqloc.obj
 0002:00011210       ??_C@_1BG@BHJEBBGG@?$AAe?$AAn?$AAg?$AAl?$AAi?$AAs?$AAh?$AA?9?$AAn?$AAz?$AA?$AA@ 10053210     LIBCMT:getqloc.obj
 0002:00011228       ??_C@_1CK@FGOEJJCO@?$AAe?$AAn?$AAg?$AAl?$AAi?$AAs?$AAh?$AA?9?$AAs?$AAo?$AAu?$AAt?$AAh?$AA?5?$AAa?$AAf?$AAr?$AAi?$AAc?$AAa?$AA?$AA@ 10053228     LIBCMT:getqloc.obj
 0002:00011254       ??_C@_1DE@PDBJPCJ@?$AAe?$AAn?$AAg?$AAl?$AAi?$AAs?$AAh?$AA?9?$AAt?$AAr?$AAi?$AAn?$AAi?$AAd?$AAa?$AAd?$AA?5?$AAy?$AA?5?$AAt?$AAo?$AAb?$AAa?$AAg?$AAo?$AA?$AA@ 10053254     LIBCMT:getqloc.obj
 0002:00011288       ??_C@_1BG@JGCANDME@?$AAe?$AAn?$AAg?$AAl?$AAi?$AAs?$AAh?$AA?9?$AAu?$AAk?$AA?$AA@ 10053288     LIBCMT:getqloc.obj
 0002:000112a0       ??_C@_1BG@DINKMLE@?$AAe?$AAn?$AAg?$AAl?$AAi?$AAs?$AAh?$AA?9?$AAu?$AAs?$AA?$AA@ 100532a0     LIBCMT:getqloc.obj
 0002:000112b8       ??_C@_1BI@NMFDBHJE@?$AAe?$AAn?$AAg?$AAl?$AAi?$AAs?$AAh?$AA?9?$AAu?$AAs?$AAa?$AA?$AA@ 100532b8     LIBCMT:getqloc.obj
 0002:000112d0       ??_C@_1BO@OIHKJKII@?$AAf?$AAr?$AAe?$AAn?$AAc?$AAh?$AA?9?$AAb?$AAe?$AAl?$AAg?$AAi?$AAa?$AAn?$AA?$AA@ 100532d0     LIBCMT:getqloc.obj
 0002:000112f0       ??_C@_1CA@NKAELJKI@?$AAf?$AAr?$AAe?$AAn?$AAc?$AAh?$AA?9?$AAc?$AAa?$AAn?$AAa?$AAd?$AAi?$AAa?$AAn?$AA?$AA@ 100532f0     LIBCMT:getqloc.obj
 0002:00011310       ??_C@_1CE@MGKCNLGN@?$AAf?$AAr?$AAe?$AAn?$AAc?$AAh?$AA?9?$AAl?$AAu?$AAx?$AAe?$AAm?$AAb?$AAo?$AAu?$AAr?$AAg?$AA?$AA@ 10053310     LIBCMT:getqloc.obj
 0002:00011334       ??_C@_1BK@CEGEAILM@?$AAf?$AAr?$AAe?$AAn?$AAc?$AAh?$AA?9?$AAs?$AAw?$AAi?$AAs?$AAs?$AA?$AA@ 10053334     LIBCMT:getqloc.obj
 0002:00011350       ??_C@_1CA@PAFKEOCC@?$AAg?$AAe?$AAr?$AAm?$AAa?$AAn?$AA?9?$AAa?$AAu?$AAs?$AAt?$AAr?$AAi?$AAa?$AAn?$AA?$AA@ 10053350     LIBCMT:getqloc.obj
 0002:00011370       ??_C@_1CI@HCFHGOFD@?$AAg?$AAe?$AAr?$AAm?$AAa?$AAn?$AA?9?$AAl?$AAi?$AAc?$AAh?$AAt?$AAe?$AAn?$AAs?$AAt?$AAe?$AAi?$AAn?$AA?$AA@ 10053370     LIBCMT:getqloc.obj
 0002:00011398       ??_C@_1CE@FEDDNPDG@?$AAg?$AAe?$AAr?$AAm?$AAa?$AAn?$AA?9?$AAl?$AAu?$AAx?$AAe?$AAm?$AAb?$AAo?$AAu?$AAr?$AAg?$AA?$AA@ 10053398     LIBCMT:getqloc.obj
 0002:000113bc       ??_C@_1BK@LIMINNMN@?$AAg?$AAe?$AAr?$AAm?$AAa?$AAn?$AA?9?$AAs?$AAw?$AAi?$AAs?$AAs?$AA?$AA@ 100533bc     LIBCMT:getqloc.obj
 0002:000113d8       ??_C@_1BM@LGMDBEPD@?$AAi?$AAr?$AAi?$AAs?$AAh?$AA?9?$AAe?$AAn?$AAg?$AAl?$AAi?$AAs?$AAh?$AA?$AA@ 100533d8     LIBCMT:getqloc.obj
 0002:000113f4       ??_C@_1BM@NNCFBAEE@?$AAi?$AAt?$AAa?$AAl?$AAi?$AAa?$AAn?$AA?9?$AAs?$AAw?$AAi?$AAs?$AAs?$AA?$AA@ 100533f4     LIBCMT:getqloc.obj
 0002:00011410       ??_C@_1BE@FEDJNPIB@?$AAn?$AAo?$AAr?$AAw?$AAe?$AAg?$AAi?$AAa?$AAn?$AA?$AA@ 10053410     LIBCMT:getqloc.obj
 0002:00011424       ??_C@_1CC@CILKDEIE@?$AAn?$AAo?$AAr?$AAw?$AAe?$AAg?$AAi?$AAa?$AAn?$AA?9?$AAb?$AAo?$AAk?$AAm?$AAa?$AAl?$AA?$AA@ 10053424     LIBCMT:getqloc.obj
 0002:00011448       ??_C@_1CE@DHMMHEPL@?$AAn?$AAo?$AAr?$AAw?$AAe?$AAg?$AAi?$AAa?$AAn?$AA?9?$AAn?$AAy?$AAn?$AAo?$AAr?$AAs?$AAk?$AA?$AA@ 10053448     LIBCMT:getqloc.obj
 0002:0001146c       ??_C@_1CK@OPNMHECD@?$AAp?$AAo?$AAr?$AAt?$AAu?$AAg?$AAu?$AAe?$AAs?$AAe?$AA?9?$AAb?$AAr?$AAa?$AAz?$AAi?$AAl?$AAi?$AAa?$AAn?$AA?$AA@ 1005346c     LIBCMT:getqloc.obj
 0002:00011498       ??_C@_1CE@KEEHCDB@?$AAs?$AAp?$AAa?$AAn?$AAi?$AAs?$AAh?$AA?9?$AAa?$AAr?$AAg?$AAe?$AAn?$AAt?$AAi?$AAn?$AAa?$AA?$AA@ 10053498     LIBCMT:getqloc.obj
 0002:000114bc       ??_C@_1CA@GIAOLHJD@?$AAs?$AAp?$AAa?$AAn?$AAi?$AAs?$AAh?$AA?9?$AAb?$AAo?$AAl?$AAi?$AAv?$AAi?$AAa?$AA?$AA@ 100534bc     LIBCMT:getqloc.obj
 0002:000114dc       ??_C@_1BM@OJNDFNPD@?$AAs?$AAp?$AAa?$AAn?$AAi?$AAs?$AAh?$AA?9?$AAc?$AAh?$AAi?$AAl?$AAe?$AA?$AA@ 100534dc     LIBCMT:getqloc.obj
 0002:000114f8       ??_C@_1CC@OCOLPALL@?$AAs?$AAp?$AAa?$AAn?$AAi?$AAs?$AAh?$AA?9?$AAc?$AAo?$AAl?$AAo?$AAm?$AAb?$AAi?$AAa?$AA?$AA@ 100534f8     LIBCMT:getqloc.obj
 0002:0001151c       ??_C@_1CG@BPOFMKBB@?$AAs?$AAp?$AAa?$AAn?$AAi?$AAs?$AAh?$AA?9?$AAc?$AAo?$AAs?$AAt?$AAa?$AA?5?$AAr?$AAi?$AAc?$AAa?$AA?$AA@ 1005351c     LIBCMT:getqloc.obj
 0002:00011544       ??_C@_1DG@IGOBAPBB@?$AAs?$AAp?$AAa?$AAn?$AAi?$AAs?$AAh?$AA?9?$AAd?$AAo?$AAm?$AAi?$AAn?$AAi?$AAc?$AAa?$AAn?$AA?5?$AAr?$AAe?$AAp?$AAu?$AAb?$AAl?$AAi?$AAc?$AA?$AA@ 10053544     LIBCMT:getqloc.obj
 0002:0001157c       ??_C@_1CA@JHAPGEGI@?$AAs?$AAp?$AAa?$AAn?$AAi?$AAs?$AAh?$AA?9?$AAe?$AAc?$AAu?$AAa?$AAd?$AAo?$AAr?$AA?$AA@ 1005357c     LIBCMT:getqloc.obj
 0002:0001159c       ??_C@_1CI@LAPALJPP@?$AAs?$AAp?$AAa?$AAn?$AAi?$AAs?$AAh?$AA?9?$AAe?$AAl?$AA?5?$AAs?$AAa?$AAl?$AAv?$AAa?$AAd?$AAo?$AAr?$AA?$AA@ 1005359c     LIBCMT:getqloc.obj
 0002:000115c4       ??_C@_1CE@PDGBOFOM@?$AAs?$AAp?$AAa?$AAn?$AAi?$AAs?$AAh?$AA?9?$AAg?$AAu?$AAa?$AAt?$AAe?$AAm?$AAa?$AAl?$AAa?$AA?$AA@ 100535c4     LIBCMT:getqloc.obj
 0002:000115e8       ??_C@_1CC@NBEBAODI@?$AAs?$AAp?$AAa?$AAn?$AAi?$AAs?$AAh?$AA?9?$AAh?$AAo?$AAn?$AAd?$AAu?$AAr?$AAa?$AAs?$AA?$AA@ 100535e8     LIBCMT:getqloc.obj
 0002:0001160c       ??_C@_1CA@LLKGHBMF@?$AAs?$AAp?$AAa?$AAn?$AAi?$AAs?$AAh?$AA?9?$AAm?$AAe?$AAx?$AAi?$AAc?$AAa?$AAn?$AA?$AA@ 1005360c     LIBCMT:getqloc.obj
 0002:0001162c       ??_C@_1BO@LKNDOIGD@?$AAs?$AAp?$AAa?$AAn?$AAi?$AAs?$AAh?$AA?9?$AAm?$AAo?$AAd?$AAe?$AAr?$AAn?$AA?$AA@ 1005362c     LIBCMT:getqloc.obj
 0002:0001164c       ??_C@_1CE@NMDMOEEB@?$AAs?$AAp?$AAa?$AAn?$AAi?$AAs?$AAh?$AA?9?$AAn?$AAi?$AAc?$AAa?$AAr?$AAa?$AAg?$AAu?$AAa?$AA?$AA@ 1005364c     LIBCMT:getqloc.obj
 0002:00011670       ??_C@_1BO@LLCBEJGB@?$AAs?$AAp?$AAa?$AAn?$AAi?$AAs?$AAh?$AA?9?$AAp?$AAa?$AAn?$AAa?$AAm?$AAa?$AA?$AA@ 10053670     LIBCMT:getqloc.obj
 0002:00011690       ??_C@_1CC@FKPGGIHO@?$AAs?$AAp?$AAa?$AAn?$AAi?$AAs?$AAh?$AA?9?$AAp?$AAa?$AAr?$AAa?$AAg?$AAu?$AAa?$AAy?$AA?$AA@ 10053690     LIBCMT:getqloc.obj
 0002:000116b4       ??_C@_1BK@CDEIHOOP@?$AAs?$AAp?$AAa?$AAn?$AAi?$AAs?$AAh?$AA?9?$AAp?$AAe?$AAr?$AAu?$AA?$AA@ 100536b4     LIBCMT:getqloc.obj
 0002:000116d0       ??_C@_1CI@GAHAKKGP@?$AAs?$AAp?$AAa?$AAn?$AAi?$AAs?$AAh?$AA?9?$AAp?$AAu?$AAe?$AAr?$AAt?$AAo?$AA?5?$AAr?$AAi?$AAc?$AAo?$AA?$AA@ 100536d0     LIBCMT:getqloc.obj
 0002:000116f8       ??_C@_1CA@NKJBCAGP@?$AAs?$AAp?$AAa?$AAn?$AAi?$AAs?$AAh?$AA?9?$AAu?$AAr?$AAu?$AAg?$AAu?$AAa?$AAy?$AA?$AA@ 100536f8     LIBCMT:getqloc.obj
 0002:00011718       ??_C@_1CE@ODILCONM@?$AAs?$AAp?$AAa?$AAn?$AAi?$AAs?$AAh?$AA?9?$AAv?$AAe?$AAn?$AAe?$AAz?$AAu?$AAe?$AAl?$AAa?$AA?$AA@ 10053718     LIBCMT:getqloc.obj
 0002:0001173c       ??_C@_1CA@OBNMCGFO@?$AAs?$AAw?$AAe?$AAd?$AAi?$AAs?$AAh?$AA?9?$AAf?$AAi?$AAn?$AAl?$AAa?$AAn?$AAd?$AA?$AA@ 1005373c     LIBCMT:getqloc.obj
 0002:0001175c       ??_C@_1M@PIPDDPPI@?$AAs?$AAw?$AAi?$AAs?$AAs?$AA?$AA@ 1005375c     LIBCMT:getqloc.obj
 0002:00011768       ??_C@_15GMFIMNFM@?$AAu?$AAs?$AA?$AA@ 10053768     LIBCMT:getqloc.obj
 0002:00011770       ??_C@_17HAEBFAGL@?$AAu?$AAs?$AAa?$AA?$AA@ 10053770     LIBCMT:getqloc.obj
 0002:00011778       ___rg_country              10053778     LIBCMT:getqloc.obj
 0002:0001188c       ??_C@_1BA@DPFJEPHB@?$AAa?$AAm?$AAe?$AAr?$AAi?$AAc?$AAa?$AA?$AA@ 1005388c     LIBCMT:getqloc.obj
 0002:0001189c       ??_C@_1BA@ELOGGFK@?$AAb?$AAr?$AAi?$AAt?$AAa?$AAi?$AAn?$AA?$AA@ 1005389c     LIBCMT:getqloc.obj
 0002:000118ac       ??_C@_1M@GHBGIGDA@?$AAc?$AAh?$AAi?$AAn?$AAa?$AA?$AA@ 100538ac     LIBCMT:getqloc.obj
 0002:000118b8       ??_C@_1M@NCHEJOPO@?$AAc?$AAz?$AAe?$AAc?$AAh?$AA?$AA@ 100538b8     LIBCMT:getqloc.obj
 0002:000118c4       ??_C@_1BA@BKPAPBLA@?$AAe?$AAn?$AAg?$AAl?$AAa?$AAn?$AAd?$AA?$AA@ 100538c4     LIBCMT:getqloc.obj
 0002:000118d4       ??_C@_1BM@HKBCKIPC@?$AAg?$AAr?$AAe?$AAa?$AAt?$AA?5?$AAb?$AAr?$AAi?$AAt?$AAa?$AAi?$AAn?$AA?$AA@ 100538d4     LIBCMT:getqloc.obj
 0002:000118f0       ??_C@_1BA@PPCHPGJB@?$AAh?$AAo?$AAl?$AAl?$AAa?$AAn?$AAd?$AA?$AA@ 100538f0     LIBCMT:getqloc.obj
 0002:00011900       ??_C@_1BE@JBMPEGDG@?$AAh?$AAo?$AAn?$AAg?$AA?9?$AAk?$AAo?$AAn?$AAg?$AA?$AA@ 10053900     LIBCMT:getqloc.obj
 0002:00011914       ??_C@_1BI@KOELBBPJ@?$AAn?$AAe?$AAw?$AA?9?$AAz?$AAe?$AAa?$AAl?$AAa?$AAn?$AAd?$AA?$AA@ 10053914     LIBCMT:getqloc.obj
 0002:0001192c       ??_C@_15HIEBHAIO@?$AAn?$AAz?$AA?$AA@ 1005392c     LIBCMT:getqloc.obj
 0002:00011934       ??_C@_1BC@CHBCPFPI@?$AAp?$AAr?$AA?5?$AAc?$AAh?$AAi?$AAn?$AAa?$AA?$AA@ 10053934     LIBCMT:getqloc.obj
 0002:00011948       ??_C@_1BC@JAOIIFKD@?$AAp?$AAr?$AA?9?$AAc?$AAh?$AAi?$AAn?$AAa?$AA?$AA@ 10053948     LIBCMT:getqloc.obj
 0002:0001195c       ??_C@_1BI@BEHPPHKC@?$AAp?$AAu?$AAe?$AAr?$AAt?$AAo?$AA?9?$AAr?$AAi?$AAc?$AAo?$AA?$AA@ 1005395c     LIBCMT:getqloc.obj
 0002:00011974       ??_C@_1O@PAEOFKDI@?$AAs?$AAl?$AAo?$AAv?$AAa?$AAk?$AA?$AA@ 10053974     LIBCMT:getqloc.obj
 0002:00011984       ??_C@_1BK@FIHMCKAM@?$AAs?$AAo?$AAu?$AAt?$AAh?$AA?5?$AAa?$AAf?$AAr?$AAi?$AAc?$AAa?$AA?$AA@ 10053984     LIBCMT:getqloc.obj
 0002:000119a0       ??_C@_1BI@NAEOODKB@?$AAs?$AAo?$AAu?$AAt?$AAh?$AA?5?$AAk?$AAo?$AAr?$AAe?$AAa?$AA?$AA@ 100539a0     LIBCMT:getqloc.obj
 0002:000119b8       ??_C@_1BK@FBDGGIFF@?$AAs?$AAo?$AAu?$AAt?$AAh?$AA?9?$AAa?$AAf?$AAr?$AAi?$AAc?$AAa?$AA?$AA@ 100539b8     LIBCMT:getqloc.obj
 0002:000119d4       ??_C@_1BI@GHLEJDPK@?$AAs?$AAo?$AAu?$AAt?$AAh?$AA?9?$AAk?$AAo?$AAr?$AAe?$AAa?$AA?$AA@ 100539d4     LIBCMT:getqloc.obj
 0002:000119ec       ??_C@_1CE@PLHLOMJF@?$AAt?$AAr?$AAi?$AAn?$AAi?$AAd?$AAa?$AAd?$AA?5?$AA?$CG?$AA?5?$AAt?$AAo?$AAb?$AAa?$AAg?$AAo?$AA?$AA@ 100539ec     LIBCMT:getqloc.obj
 0002:00011a10       ??_C@_1BO@MODIMHHI@?$AAu?$AAn?$AAi?$AAt?$AAe?$AAd?$AA?9?$AAk?$AAi?$AAn?$AAg?$AAd?$AAo?$AAm?$AA?$AA@ 10053a10     LIBCMT:getqloc.obj
 0002:00011a30       ??_C@_1BM@FFHJONBJ@?$AAu?$AAn?$AAi?$AAt?$AAe?$AAd?$AA?9?$AAs?$AAt?$AAa?$AAt?$AAe?$AAs?$AA?$AA@ 10053a30     LIBCMT:getqloc.obj
 0002:00011a4c       ___rg_language_count       10053a4c     LIBCMT:getqloc.obj
 0002:00011a50       ___rg_country_count        10053a50     LIBCMT:getqloc.obj
 0002:00011a54       ??_C@_17DNCLJFIF@?$AAA?$AAC?$AAP?$AA?$AA@ 10053a54     LIBCMT:getqloc.obj
 0002:00011a5c       ??_C@_17CIKBIHLH@?$AAO?$AAC?$AAP?$AA?$AA@ 10053a5c     LIBCMT:getqloc.obj
 0002:00011a64       ___rglangidNotDefault      10053a64     LIBCMT:getqloc_downlevel.obj
 0002:00011a78       __real@00000000            10053a78     LIBCMT:wcstoq.obj
 0002:00011a80       __load_config_used         10053a80     LIBCMT:loadcfg.obj
 0002:00013d70       ___safe_se_handler_table   10055d70     <linker-defined>
 0002:00013e80       ___rtc_iaa                 10055e80     LIBCMT:initsect.obj
 0002:00013f84       ___rtc_izz                 10055f84     LIBCMT:initsect.obj
 0002:00014088       ___rtc_taa                 10056088     LIBCMT:initsect.obj
 0002:0001418c       ___rtc_tzz                 1005618c     LIBCMT:initsect.obj
 0003:000004e0       _FingerStrokeAssistance_P  100574e0     FingerStrokeAssistance_data.obj
 0003:00000db8       _pci20041digout            10057db8     xpctarget.obj
 0003:00000dbc       _nipcdio24cnfg             10057dbc     xpctarget.obj
 0003:00000dc0       _rtddm6604cnfg             10057dc0     xpctarget.obj
 0003:000014e8       _DefaultCOMIOBase          100584e8     xpcruntime:xpcimports.obj
 0003:000014f8       _DefaultCOMIRQ             100584f8     xpcruntime:xpcimports.obj
 0003:00001510       __fltused                  10058510     LIBCMT:fpinit.obj
 0003:00001514       __ldused                   10058514     LIBCMT:fpinit.obj
 0003:00001520       __iob                      10058520     LIBCMT:_file.obj
 0003:000017a0       ___isa_enabled             100587a0     LIBCMT:cpu_disp.obj
 0003:000017a4       ___security_cookie         100587a4     LIBCMT:gs_cookie.obj
 0003:000017a8       ___security_cookie_complement 100587a8     LIBCMT:gs_cookie.obj
 0003:00001980       ___nullstring              10058980     LIBCMT:output.obj
 0003:00001984       ___wnullstring             10058984     LIBCMT:output.obj
 0003:00001994       __cfltcvt_tab              10058994     LIBCMT:cmiscdat.obj
 0003:00001ae0       __mbctype                  10058ae0     LIBCMT:mbctype.obj
 0003:00001be8       __mbcasemap                10058be8     LIBCMT:mbctype.obj
 0003:00001ce8       ___initialmbcinfo          10058ce8     LIBCMT:mbctype.obj
 0003:00001f0c       ___ptmbcinfo               10058f0c     LIBCMT:mbctype.obj
 0003:00002000       ___badioinfo               10059000     LIBCMT:ioinit.obj
 0003:00002040       __lookuptrailbytes         10059040     LIBCMT:read.obj
 0003:00002140       __d_inf                    10059140     LIBCMT:util.obj
 0003:00002148       __d_ind                    10059148     LIBCMT:util.obj
 0003:00002150       __d_max                    10059150     LIBCMT:util.obj
 0003:00002158       __d_min                    10059158     LIBCMT:util.obj
 0003:00002160       __d_mzero                  10059160     LIBCMT:util.obj
 0003:0000226c       ___abort_behavior          1005926c     LIBCMT:abort.obj
 0003:00002270       ___flsindex                10059270     LIBCMT:tidtable.obj
 0003:00002280       ___mb_cur_max              10059280     LIBCMT:nlsdata.obj
 0003:00002284       ___wclocalestr             10059284     LIBCMT:nlsdata.obj
 0003:00002288       ___lc_time_c               10059288     LIBCMT:nlsdata.obj
 0003:000023ec       ___ptlocinfo               100593ec     LIBCMT:nlsdata.obj
 0003:000023f0       ___initiallocinfo          100593f0     LIBCMT:nlsdata.obj
 0003:000024a8       ___initiallocalestructinfo 100594a8     LIBCMT:nlsdata.obj
 0003:000024b0       ___globallocalestatus      100594b0     LIBCMT:glstatus.obj
 0003:000024b4       __matherr_flag             100594b4     LIBCMT:matherr.obj
 0003:000024c0       __NLG_Destination          100594c0     LIBCMT:exsup.obj
 0003:000024d0       ___lconv                   100594d0     LIBCMT:lconv.obj
 0003:000024d4       ___lconv_static_decimal    100594d4     LIBCMT:lconv.obj
 0003:000024d8       ___lconv_c                 100594d8     LIBCMT:lconv.obj
 0003:00002528       ___lconv_static_W_decimal  10059528     LIBCMT:lconv.obj
 0003:0000252c       __pctype                   1005952c     LIBCMT:ctype.obj
 0003:00002530       __pwctype                  10059530     LIBCMT:ctype.obj
 0003:00002570       __confh                    10059570     LIBCMT:initcon.obj
 0003:00002578       __pow10pos                 10059578     LIBCMT:constpow.obj
 0003:000026d8       __pow10neg                 100596d8     LIBCMT:constpow.obj
 0003:00002840       __HUGE                     10059840     LIBCMT:huge.obj
 0003:00002d9c       ___isa_available_default   10059d9c     rt_logging.obj
 0003:00002dac       _pci20098PortA             10059dac     xpctarget.obj
 0003:00002db0       _pci20098PortB             10059db0     xpctarget.obj
 0003:00002db4       _siepowercan_firmware_initialized 10059db4     xpctarget.obj
 0003:00002db8       _siepowercan_port1_configured 10059db8     xpctarget.obj
 0003:00002dbc       _siepowercan_port2_configured 10059dbc     xpctarget.obj
 0003:00002dc0       _CANAC2_FIRMWARE_LOADED    10059dc0     xpctarget.obj
 0003:00002dc4       _rs232ports                10059dc4     xpctarget.obj
 0003:00002dd4       _NI_AT_MIO_16F_5_commreg2  10059dd4     xpctarget.obj
 0003:00002dd8       _RTD_DM6430_init           10059dd8     xpctarget.obj
 0003:00002ddc       _RTD_DM6420_init           10059ddc     xpctarget.obj
 0003:00002de0       _CANAC2_FIRMWARE_LOADED_mb1 10059de0     xpctarget.obj
 0003:00002de4       _CANAC2_FIRMWARE_LOADED_mb2 10059de4     xpctarget.obj
 0003:00002de8       _CANAC2_FIRMWARE_LOADED_mb3 10059de8     xpctarget.obj
 0003:00002dec       _xmlsize                   10059dec     xpctarget.obj
 0003:000034f8       ___fastflag                1005a4f8     LIBCMT:fpinit.obj
 0003:00003820       __C_Exit_Done              1005a820     LIBCMT:crt0dat.obj
 0003:00003824       ___argc                    1005a824     LIBCMT:crt0dat.obj
 0003:00003828       ___argv                    1005a828     LIBCMT:crt0dat.obj
 0003:0000382c       ___wargv                   1005a82c     LIBCMT:crt0dat.obj
 0003:00003830       __environ                  1005a830     LIBCMT:crt0dat.obj
 0003:00003834       __wenviron                 1005a834     LIBCMT:crt0dat.obj
 0003:00003838       __pgmptr                   1005a838     LIBCMT:crt0dat.obj
 0003:0000383c       __wpgmptr                  1005a83c     LIBCMT:crt0dat.obj
 0003:00003840       __umaskval                 1005a840     LIBCMT:crt0dat.obj
 0003:00003844       __exitflag                 1005a844     LIBCMT:crt0dat.obj
 0003:00003848       __C_Termination_Done       1005a848     LIBCMT:crt0dat.obj
 0003:0000384c       ___winitenv                1005a84c     LIBCMT:crt0dat.obj
 0003:00003850       ___initenv                 1005a850     LIBCMT:crt0dat.obj
 0003:00003854       __cflush                   1005a854     LIBCMT:_file.obj
 0003:00003858       ___isa_available           1005a858     LIBCMT:cpu_disp.obj
 0003:0000385c       ___favor                   1005a85c     LIBCMT:cpu_disp.obj
 0003:00003864       __aenvptr                  1005a864     LIBCMT:dllcrt0.obj
 0003:00003868       __wenvptr                  1005a868     LIBCMT:dllcrt0.obj
 0003:0000386c       ?_pnhHeap@@3P6AHI@ZA       1005a86c     LIBCMT:handler.obj
 0003:00003870       ___app_type                1005a870     LIBCMT:crt0msg.obj
 0003:00003ea0       __newmode                  1005aea0     LIBCMT:_newmode.obj
 0003:00003ea4       __crtheap                  1005aea4     LIBCMT:heapinit.obj
 0003:00003ea8       ___pInvalidArgHandler      1005aea8     LIBCMT:invarg.obj
 0003:00003eac       __stdbuf                   1005aeac     LIBCMT:_sftbuf.obj
 0003:00004008       __maxwait                  1005b008     LIBCMT:crtheap.obj
 0003:0000400c       ?__pInconsistency@@3P6AXXZA 1005b00c     LIBCMT:hooks.obj
 0003:00004010       ___pPurecall               1005b010     LIBCMT:inithelp.obj
 0003:0000402c       ___mbcodepage              1005b02c     LIBCMT:mbctype.obj
 0003:00004030       ___ismbcodepage            1005b030     LIBCMT:mbctype.obj
 0003:00004034       ___mbulinfo                1005b034     LIBCMT:mbctype.obj
 0003:00004040       ___mblocalename            1005b040     LIBCMT:mbctype.obj
 0003:00004048       ___pioinfo                 1005b048     LIBCMT:ioinit.obj
 0003:00004148       ___error_mode              1005b148     LIBCMT:errmode.obj
 0003:00004268       __outputformat             1005b268     LIBCMT:outputformat.obj
 0003:00004270       __commode                  1005b270     LIBCMT:ncommode.obj
 0003:00004274       ___lconv_static_null       1005b274     LIBCMT:lconv.obj
 0003:00004278       ___lconv_static_W_null     1005b278     LIBCMT:lconv.obj
 0003:0000427c       ___locale_changed          1005b27c     LIBCMT:wsetloca.obj
 0003:00004280       __fmode                    1005b280     LIBCMT:txtmode.obj
 0003:000042a0       _CANAC2_2_receiveindex_mb3 1005b2a0     <common>
 0003:00007374       _CANAC2_2_receivemaxindex_mb3 1005e374     <common>
 0003:00007380       _CANAC2_2_sendindex_mb3    1005e380     <common>
 0003:000076a0       _CANAC2_2_sendmaxindex_mb3 1005e6a0     <common>
 0003:000076c0       _CANAC2_1_receiveindex_mb3 1005e6c0     <common>
 0003:000079e0       _CANAC2_1_receivemaxindex_mb3 1005e9e0     <common>
 0003:00007a00       _CANAC2_1_sendindex_mb3    1005ea00     <common>
 0003:00007d20       _CANAC2_1_sendmaxindex_mb3 1005ed20     <common>
 0003:00007d40       _CANAC2_2_receive_mb3      1005ed40     <common>
 0003:00008060       _CANAC2_2_send_mb3         1005f060     <common>
 0003:00008380       _CANAC2_1_receive_mb3      1005f380     <common>
 0003:000086a0       _CANAC2_1_send_mb3         1005f6a0     <common>
 0003:000089c0       _CANAC2_2_receiveindex_mb2 1005f9c0     <common>
 0003:00008ce0       _CANAC2_2_receivemaxindex_mb2 1005fce0     <common>
 0003:00008d00       _CANAC2_2_sendindex_mb2    1005fd00     <common>
 0003:00009020       _CANAC2_2_sendmaxindex_mb2 10060020     <common>
 0003:00009040       _CANAC2_1_receiveindex_mb2 10060040     <common>
 0003:00009360       _CANAC2_1_receivemaxindex_mb2 10060360     <common>
 0003:00009380       _CANAC2_1_sendindex_mb2    10060380     <common>
 0003:000096a0       _CANAC2_1_sendmaxindex_mb2 100606a0     <common>
 0003:000096c0       _CANAC2_2_receive_mb2      100606c0     <common>
 0003:000099e0       _CANAC2_2_send_mb2         100609e0     <common>
 0003:00009d00       _CANAC2_1_receive_mb2      10060d00     <common>
 0003:0000a020       _CANAC2_1_send_mb2         10061020     <common>
 0003:0000a340       _CANAC2_2_receiveindex_mb1 10061340     <common>
 0003:0000a660       _CANAC2_2_receivemaxindex_mb1 10061660     <common>
 0003:0000a680       _CANAC2_2_sendindex_mb1    10061680     <common>
 0003:0000a9a0       _CANAC2_2_sendmaxindex_mb1 100619a0     <common>
 0003:0000a9c0       _CANAC2_1_receiveindex_mb1 100619c0     <common>
 0003:0000ace0       _CANAC2_1_receivemaxindex_mb1 10061ce0     <common>
 0003:0000ad00       _CANAC2_1_sendindex_mb1    10061d00     <common>
 0003:0000b020       _CANAC2_1_sendmaxindex_mb1 10062020     <common>
 0003:0000b040       _CANAC2_2_receive_mb1      10062040     <common>
 0003:0000b360       _CANAC2_2_send_mb1         10062360     <common>
 0003:0000b680       _CANAC2_1_receive_mb1      10062680     <common>
 0003:0000b9a0       _CANAC2_1_send_mb1         100629a0     <common>
 0003:0000bcc0       _CANAC2_2_receiveindex     10062cc0     <common>
 0003:0000bfe0       _CANAC2_2_receivemaxindex  10062fe0     <common>
 0003:0000c000       _CANAC2_2_sendindex        10063000     <common>
 0003:0000c320       _CANAC2_2_sendmaxindex     10063320     <common>
 0003:0000c340       _CANAC2_1_receiveindex     10063340     <common>
 0003:0000c660       _CANAC2_1_receivemaxindex  10063660     <common>
 0003:0000c680       _CANAC2_1_sendindex        10063680     <common>
 0003:0000c9a0       _CANAC2_1_sendmaxindex     100639a0     <common>
 0003:0000c9c0       _CANAC2_2_receive          100639c0     <common>
 0003:0000cce0       _CANAC2_2_send             10063ce0     <common>
 0003:0000d000       _CANAC2_1_receive          10064000     <common>
 0003:0000d320       _CANAC2_1_send             10064320     <common>
 0003:0000d640       _siepowercan_can_object_buffer_port2 10064640     <common>
 0003:00011660       _siepowercan_can_object_buffer_port1 10068660     <common>
 0003:00015660       _rtNaNF                    1006c660     <common>
 0003:00015674       _rtMinusInfF               1006c674     <common>
 0003:00015678       _rtInfF                    1006c678     <common>
 0003:00015680       _rtNaN                     1006c680     <common>
 0003:00015688       _rtMinusInf                1006c688     <common>
 0003:00015690       _rtInf                     1006c690     <common>
 0003:00015698       _FingerStrokeAssistance_PrevZCX 1006c698     <common>
 0003:00015cc0       _FingerStrokeAssistance_DW 1006ccc0     <common>
 0003:00016000       _FingerStrokeAssistance_B  1006d000     <common>
 0003:000165c0       _FingerStrokeAssistance_M_ 1006d5c0     <common>
 0003:00017b78       _xpceaddEvent              1006eb78     <common>
 0003:00017bc8       _xpceDeRegisterISR         1006ebc8     <common>
 0003:00017bcc       _xpceRegisterISR           1006ebcc     <common>
 0003:00017bd0       _xpcIsModelInit            1006ebd0     <common>
 0003:00017bd4       _xpcGetElapsedTime         1006ebd4     <common>
 0003:00017bd8       _xpcBusyWait               1006ebd8     <common>
 0003:00017bdc       _xpcFreePhysicalMemory     1006ebdc     <common>
 0003:00017be0       _xpcAllocPhysicalMemory    1006ebe0     <common>
 0003:00017be4       _xpcReserveMemoryRegion    1006ebe4     <common>
 0003:00017be8       _xpcOutpB                  1006ebe8     <common>
 0003:00017bec       _xpcOutpW                  1006ebec     <common>
 0003:00017bf0       _xpcOutpDW                 1006ebf0     <common>
 0003:00017bf4       _xpcInpB                   1006ebf4     <common>
 0003:00017bf8       _xpcInpW                   1006ebf8     <common>
 0003:00017bfc       _xpcInpDW                  1006ebfc     <common>
 0003:00017c00       _slTestRegAssessment       1006ec00     <common>
 0003:00017c04       _slTestTerminate           1006ec04     <common>
 0003:00017c08       _slTestEvalOnFail          1006ec08     <common>
 0003:00017c0c       _slTestLogAssessments      1006ec0c     <common>
 0003:00017c10       _slTestInitialize          1006ec10     <common>
 0003:00017c14       _unRegisterPTPTimeRead     1006ec14     <common>
 0003:00017c18       _registerPTPTimeRead       1006ec18     <common>
 0003:00017c1c       _slrteGetCurrentStepSize   1006ec1c     <common>
 0003:00017c20       _slrteSetStepSizeDelta     1006ec20     <common>
 0003:00017c24       _xpceGetIntTimerGranularityNS 1006ec24     <common>
 0003:00017c28       _sendToAsyncQueueTgtAppSvc 1006ec28     <common>
 0003:00017c2c       _terminateToAsyncQueueTgtAppSvc 1006ec2c     <common>
 0003:00017c30       _startToAsyncQueueTgtAppSvc 1006ec30     <common>
 0003:00017c34       _getStatusFlags            1006ec34     <common>
 0003:00017c38       _getCommService            1006ec38     <common>
 0003:00017c3c       _getMemoryService          1006ec3c     <common>
 0003:00017c40       _StreamVideo               1006ec40     <common>
 0003:00017c44       _StopVideoDisplay          1006ec44     <common>
 0003:00017c48       _StartVideoDisplay         1006ec48     <common>
 0003:00017c4c       _DestroyVideoDisplay       1006ec4c     <common>
 0003:00017c50       _CreateVideoDisplay        1006ec50     <common>
 0003:00017c54       _ConvertUImage             1006ec54     <common>
 0003:00017c58       _StopVideo                 1006ec58     <common>
 0003:00017c5c       _ReadFrameBuffer           1006ec5c     <common>
 0003:00017c60       _StartVideo                1006ec60     <common>
 0003:00017c64       _GetVideoConfigs           1006ec64     <common>
 0003:00017c68       _FindUsbVideoDevice        1006ec68     <common>
 0003:00017c6c       _xpceDeleteSemaphore       1006ec6c     <common>
 0003:00017c70       _xpceSignalSemaphore       1006ec70     <common>
 0003:00017c74       _xpceWaitSemaphore         1006ec74     <common>
 0003:00017c78       _xpceCreateSemaphore       1006ec78     <common>
 0003:00017c7c       _TBGiveSpinFast            1006ec7c     <common>
 0003:00017c80       _TBTakeSpinFast            1006ec80     <common>
 0003:00017c84       _TBDeleteSpin              1006ec84     <common>
 0003:00017c88       _TBCreateSpin              1006ec88     <common>
 0003:00017c8c       _xpceScopeAcqOK            1006ec8c     <common>
 0003:00017c90       _rl32eRestartAcquisition   1006ec90     <common>
 0003:00017c94       _rl32eSetTargetScopeSigFt  1006ec94     <common>
 0003:00017c98       _rl32eSetTargetScope       1006ec98     <common>
 0003:00017c9c       _xpceFSScopeSet            1006ec9c     <common>
 0003:00017ca0       _rl32eSetScope             1006eca0     <common>
 0003:00017ca4       _rl32eAddSignal            1006eca4     <common>
 0003:00017ca8       _rl32eGetSignalNo          1006eca8     <common>
 0003:00017cac       _rl32eDefScope             1006ecac     <common>
 0003:00017cb0       _rl32eScopeExists          1006ecb0     <common>
 0003:00017cb4       _xpceUDPClose              1006ecb4     <common>
 0003:00017cb8       _xpceUDPReceive            1006ecb8     <common>
 0003:00017cbc       _xpceUDPSend               1006ecbc     <common>
 0003:00017cc0       _xpceUDPOpenReceive        1006ecc0     <common>
 0003:00017cc4       _xpceUDPOpenSend           1006ecc4     <common>
 0003:00017cc8       _rl32eSendBlock            1006ecc8     <common>
 0003:00017ccc       _rl32eLineStatus           1006eccc     <common>
 0003:00017cd0       _rl32eReceiveBufferCount   1006ecd0     <common>
 0003:00017cd4       _rl32eReceiveChar          1006ecd4     <common>
 0003:00017cd8       _rl32eSendChar             1006ecd8     <common>
 0003:00017cdc       _rl32eCloseCOMPort         1006ecdc     <common>
 0003:00017ce0       _rl32eInitCOMPort          1006ece0     <common>
 0003:00017ce4       _xpceGetParamDims          1006ece4     <common>
 0003:00017ce8       _xpceGetParameter          1006ece8     <common>
 0003:00017cec       _xpceSetParameter          1006ecec     <common>
 0003:00017cf0       _xpceGetSignalValue        1006ecf0     <common>
 0003:00017cf4       _xpceAssignPCIInterrupt    1006ecf4     <common>
 0003:00017cf8       _rl32eGetPCIInfoAtSlot     1006ecf8     <common>
 0003:00017cfc       _rl32eGetPCIInfo           1006ecfc     <common>
 0003:00017d00       _rl32eShowPCIInfo          1006ed00     <common>
 0003:00017d04       _rl32eShowPCIDev           1006ed04     <common>
 0003:00017d08       _xpceGetTET                1006ed08     <common>
 0003:00017d0c       _xpceFTSubtract            1006ed0c     <common>
 0003:00017d10       _xpceFTAdd                 1006ed10     <common>
 0003:00017d14       _xpceFTReadTime            1006ed14     <common>
 0003:00017d18       ___unguarded_readlc_active 1006ed18     <common>
 0003:00017d28       ___setlc_active            1006ed28     <common>
 0003:00017d2c       __nhandle                  1006ed2c     <common>
 0003:00017d40       _encodedKERNEL32Functions  1006ed40     <common>
 0003:00017de8       __debugger_hook_dummy      1006ede8     <common>
 0003:00017df4       ___use_sse2_mathfcns       1006edf4     <common>
 0003:00017e00       __pmatherr                 1006ee00     <common>
 0003:00017e0c       __pDestructExceptionObject 1006ee0c     <common>
 0003:00017e18       __acmdln                   1006ee18     <common>
 0003:00017e40       __bufin                    1006ee40     <common>
 0003:0001917c       ___piob                    1007017c     <common>
 0003:00019180       __nstream                  10070180     <common>
 0003:00019184       ___dyn_tls_init_callback   10070184     <common>
 0003:00019194       ___onexitend               10070194     <common>
 0003:00019198       ___onexitbegin             10070198     <common>
 0003:0001919c       ___mbctype_initialized     1007019c     <common>
 0003:000191a0       ___env_initialized         100701a0     <common>
 0004:00000000       __imp__GetModuleHandleA@4  10071000     kernel32:KERNEL32.dll
 0004:00000004       __imp__GetProcAddress@8    10071004     kernel32:KERNEL32.dll
 0004:00000008       __imp__HeapAlloc@12        10071008     kernel32:KERNEL32.dll
 0004:0000000c       __imp__IsDebuggerPresent@0 1007100c     kernel32:KERNEL32.dll
 0004:00000010       __imp__IsProcessorFeaturePresent@4 10071010     kernel32:KERNEL32.dll
 0004:00000014       __imp__EncodePointer@4     10071014     kernel32:KERNEL32.dll
 0004:00000018       __imp__DecodePointer@4     10071018     kernel32:KERNEL32.dll
 0004:0000001c       __imp__GetLastError@0      1007101c     kernel32:KERNEL32.dll
 0004:00000020       __imp__ExitProcess@4       10071020     kernel32:KERNEL32.dll
 0004:00000024       __imp__GetModuleHandleExW@12 10071024     kernel32:KERNEL32.dll
 0004:00000028       __imp__AreFileApisANSI@0   10071028     kernel32:KERNEL32.dll
 0004:0000002c       __imp__MultiByteToWideChar@24 1007102c     kernel32:KERNEL32.dll
 0004:00000030       __imp__WideCharToMultiByte@32 10071030     kernel32:KERNEL32.dll
 0004:00000034       __imp__HeapFree@12         10071034     kernel32:KERNEL32.dll
 0004:00000038       __imp__HeapReAlloc@16      10071038     kernel32:KERNEL32.dll
 0004:0000003c       __imp__EnterCriticalSection@4 1007103c     kernel32:KERNEL32.dll
 0004:00000040       __imp__LeaveCriticalSection@4 10071040     kernel32:KERNEL32.dll
 0004:00000044       __imp__GetStdHandle@4      10071044     kernel32:KERNEL32.dll
 0004:00000048       __imp__GetFileType@4       10071048     kernel32:KERNEL32.dll
 0004:0000004c       __imp__GetModuleFileNameW@12 1007104c     kernel32:KERNEL32.dll
 0004:00000050       __imp__WriteConsoleW@20    10071050     kernel32:KERNEL32.dll
 0004:00000054       __imp__GetCommandLineA@0   10071054     kernel32:KERNEL32.dll
 0004:00000058       __imp__GetCurrentThreadId@0 10071058     kernel32:KERNEL32.dll
 0004:0000005c       __imp__WriteFile@20        1007105c     kernel32:KERNEL32.dll
 0004:00000060       __imp__GetProcessHeap@0    10071060     kernel32:KERNEL32.dll
 0004:00000064       __imp__UnhandledExceptionFilter@4 10071064     kernel32:KERNEL32.dll
 0004:00000068       __imp__SetUnhandledExceptionFilter@4 10071068     kernel32:KERNEL32.dll
 0004:0000006c       __imp__SetLastError@4      1007106c     kernel32:KERNEL32.dll
 0004:00000070       __imp__InitializeCriticalSectionAndSpinCount@8 10071070     kernel32:KERNEL32.dll
 0004:00000074       __imp__CreateEventW@16     10071074     kernel32:KERNEL32.dll
 0004:00000078       __imp__Sleep@4             10071078     kernel32:KERNEL32.dll
 0004:0000007c       __imp__GetCurrentProcess@0 1007107c     kernel32:KERNEL32.dll
 0004:00000080       __imp__TerminateProcess@8  10071080     kernel32:KERNEL32.dll
 0004:00000084       __imp__TlsAlloc@0          10071084     kernel32:KERNEL32.dll
 0004:00000088       __imp__TlsGetValue@4       10071088     kernel32:KERNEL32.dll
 0004:0000008c       __imp__TlsSetValue@8       1007108c     kernel32:KERNEL32.dll
 0004:00000090       __imp__TlsFree@4           10071090     kernel32:KERNEL32.dll
 0004:00000094       __imp__GetStartupInfoW@4   10071094     kernel32:KERNEL32.dll
 0004:00000098       __imp__GetTickCount@0      10071098     kernel32:KERNEL32.dll
 0004:0000009c       __imp__GetModuleHandleW@4  1007109c     kernel32:KERNEL32.dll
 0004:000000a0       __imp__CreateSemaphoreW@16 100710a0     kernel32:KERNEL32.dll
 0004:000000a4       __imp__DeleteCriticalSection@4 100710a4     kernel32:KERNEL32.dll
 0004:000000a8       __imp__FatalAppExitA@8     100710a8     kernel32:KERNEL32.dll
 0004:000000ac       __imp__SetConsoleCtrlHandler@8 100710ac     kernel32:KERNEL32.dll
 0004:000000b0       __imp__FreeLibrary@4       100710b0     kernel32:KERNEL32.dll
 0004:000000b4       __imp__LoadLibraryExW@12   100710b4     kernel32:KERNEL32.dll
 0004:000000b8       __imp__IsValidCodePage@4   100710b8     kernel32:KERNEL32.dll
 0004:000000bc       __imp__GetACP@0            100710bc     kernel32:KERNEL32.dll
 0004:000000c0       __imp__GetOEMCP@0          100710c0     kernel32:KERNEL32.dll
 0004:000000c4       __imp__GetCPInfo@8         100710c4     kernel32:KERNEL32.dll
 0004:000000c8       __imp__CloseHandle@4       100710c8     kernel32:KERNEL32.dll
 0004:000000cc       __imp__RtlUnwind@16        100710cc     kernel32:KERNEL32.dll
 0004:000000d0       __imp__ReadFile@20         100710d0     kernel32:KERNEL32.dll
 0004:000000d4       __imp__GetConsoleMode@8    100710d4     kernel32:KERNEL32.dll
 0004:000000d8       __imp__ReadConsoleW@20     100710d8     kernel32:KERNEL32.dll
 0004:000000dc       __imp__GetConsoleCP@0      100710dc     kernel32:KERNEL32.dll
 0004:000000e0       __imp__DeleteFileW@4       100710e0     kernel32:KERNEL32.dll
 0004:000000e4       __imp__SetFilePointerEx@20 100710e4     kernel32:KERNEL32.dll
 0004:000000e8       __imp__RaiseException@16   100710e8     kernel32:KERNEL32.dll
 0004:000000ec       __imp__OutputDebugStringW@4 100710ec     kernel32:KERNEL32.dll
 0004:000000f0       __imp__GetCurrentThread@0  100710f0     kernel32:KERNEL32.dll
 0004:000000f4       __imp__GetModuleFileNameA@12 100710f4     kernel32:KERNEL32.dll
 0004:000000f8       __imp__QueryPerformanceCounter@4 100710f8     kernel32:KERNEL32.dll
 0004:000000fc       __imp__GetCurrentProcessId@0 100710fc     kernel32:KERNEL32.dll
 0004:00000100       __imp__GetSystemTimeAsFileTime@4 10071100     kernel32:KERNEL32.dll
 0004:00000104       __imp__GetEnvironmentStringsW@0 10071104     kernel32:KERNEL32.dll
 0004:00000108       __imp__FreeEnvironmentStringsW@4 10071108     kernel32:KERNEL32.dll
 0004:0000010c       __imp__HeapSize@12         1007110c     kernel32:KERNEL32.dll
 0004:00000110       __imp__GetDateFormatW@24   10071110     kernel32:KERNEL32.dll
 0004:00000114       __imp__GetTimeFormatW@24   10071114     kernel32:KERNEL32.dll
 0004:00000118       __imp__CompareStringW@24   10071118     kernel32:KERNEL32.dll
 0004:0000011c       __imp__LCMapStringW@24     1007111c     kernel32:KERNEL32.dll
 0004:00000120       __imp__GetLocaleInfoW@16   10071120     kernel32:KERNEL32.dll
 0004:00000124       __imp__IsValidLocale@8     10071124     kernel32:KERNEL32.dll
 0004:00000128       __imp__GetUserDefaultLCID@0 10071128     kernel32:KERNEL32.dll
 0004:0000012c       __imp__EnumSystemLocalesW@8 1007112c     kernel32:KERNEL32.dll
 0004:00000130       __imp__GetStringTypeW@16   10071130     kernel32:KERNEL32.dll
 0004:00000134       __imp__FlushFileBuffers@4  10071134     kernel32:KERNEL32.dll
 0004:00000138       __imp__SetStdHandle@8      10071138     kernel32:KERNEL32.dll
 0004:0000013c       __imp__CreateFileW@28      1007113c     kernel32:KERNEL32.dll
 0004:00000140       __imp__SetEndOfFile@4      10071140     kernel32:KERNEL32.dll
 0004:00000144       \177KERNEL32_NULL_THUNK_DATA 10071144     kernel32:KERNEL32.dll
 0004:000001b0       __IMPORT_DESCRIPTOR_KERNEL32 100711b0     kernel32:KERNEL32.dll
 0004:000001c4       __NULL_IMPORT_DESCRIPTOR   100711c4     kernel32:KERNEL32.dll

 entry point at        0001:000166f3

