 FingerStrokeAssistance_xpc

 Timestamp is 58ade736 (Wed Feb 22 11:32:06 2017)

 Preferred load address is 10000000

 Start         Length     Name                   Class
 0001:00000000 00040a5eH .text$mn                CODE
 0002:00000000 00000104H .CRT$XCA                DATA
 0002:00000104 00000104H .CRT$XCZ                DATA
 0002:00000208 00000104H .CRT$XIA                DATA
 0002:0000030c 00000118H .CRT$XIC                DATA
 0002:00000424 00000104H .CRT$XIZ                DATA
 0002:00000528 00000104H .CRT$XPA                DATA
 0002:0000062c 00000109H .CRT$XPX                DATA
 0002:00000738 00000104H .CRT$XPXA               DATA
 0002:0000083c 00000104H .CRT$XPZ                DATA
 0002:00000940 00000104H .CRT$XTA                DATA
 0002:00000a44 00000104H .CRT$XTZ                DATA
 0002:00000b50 00013382H .rdata                  DATA
 0002:00013ed4 000001c4H .rdata$debug            DATA
 0002:000140a0 0000010eH .rdata$sxdata           DATA
 0002:000141b0 00000104H .rtc$IAA                DATA
 0002:000142b4 00000104H .rtc$IZZ                DATA
 0002:000143b8 00000104H .rtc$TAA                DATA
 0002:000144bc 00000104H .rtc$TZZ                DATA
 0002:000145c0 00000991H .xdata$x                DATA
 0002:00014f60 00000226H .edata                  DATA
 0003:00000000 00002d2fH .data                   DATA
 0003:00002d40 000164a4H .bss                    DATA
 0004:00000000 000001b0H .idata$5                DATA
 0004:000001b0 00000014H .idata$2                DATA
 0004:000001c4 00000014H .idata$3                DATA
 0004:000001d8 000001b0H .idata$4                DATA
 0004:00000388 0000076bH .idata$6                DATA

  Address         Publics by Value              Rva+Base       Lib:Object

 0000:00000000       ___guard_flags             00000000     <absolute>
 0000:00000000       ___guard_fids_table        00000000     <absolute>
 0000:00000000       __except_list              00000000     <absolute>
 0000:00000000       ___guard_fids_count        00000000     <absolute>
 0000:00000003       ___safe_se_handler_count   00000003     <absolute>
 0000:00000000       ___ImageBase               10000000     <linker-defined>
 0001:00000460       _FingerStrokeAssi_MATLABFunction 10001460 f   FingerStrokeAssistance.obj
 0001:000004c0       _FingerStrokeAssistance    100014c0 f   FingerStrokeAssistance.obj
 0001:00001680       _FingerStrokeAssistance_gainramp 10002680 f   FingerStrokeAssistance.obj
 0001:00004190       _MdlInitialize             10005190 f   FingerStrokeAssistance.obj
 0001:000041a0       _MdlInitializeSampleTimes  100051a0 f   FingerStrokeAssistance.obj
 0001:000041b0       _MdlInitializeSizes        100051b0 f   FingerStrokeAssistance.obj
 0001:000041c0       _MdlOutputs                100051c0 f   FingerStrokeAssistance.obj
 0001:000041d0       _MdlStart                  100051d0 f   FingerStrokeAssistance.obj
 0001:000041e0       _MdlTerminate              100051e0 f   FingerStrokeAssistance.obj
 0001:00004240       _MdlUpdate                 10005240 f   FingerStrokeAssistance.obj
 0001:00004250       _rt_powd_snf               10005250 f   FingerStrokeAssistance.obj
 0001:000044e0       _rt_roundd_snf             100054e0 f   FingerStrokeAssistance.obj
 0001:000045e0       _FingerStrokeAssistance_GetCAPIStaticMap 100055e0 f   FingerStrokeAssistance_capi.obj
 0001:000045f0       _FingerStrokeAssistance_InitializeDataMapInfo 100055f0 f   FingerStrokeAssistance_capi.obj
 0001:00004680       _TgtConnBackgroundTask     10005680 f   FingerStrokeAssistance_tgtconn.obj
 0001:00004690       _TgtConnInit               10005690 f   FingerStrokeAssistance_tgtconn.obj
 0001:000046b0       _TgtConnPostStep           100056b0 f   FingerStrokeAssistance_tgtconn.obj
 0001:000046c0       _TgtConnPreStep            100056c0 f   FingerStrokeAssistance_tgtconn.obj
 0001:000046d0       _TgtConnTerm               100056d0 f   FingerStrokeAssistance_tgtconn.obj
 0001:000046e0       _rtGetInf                  100056e0 f   rtGetInf.obj
 0001:00004710       _rtGetInfF                 10005710 f   rtGetInf.obj
 0001:00004730       _rtGetMinusInf             10005730 f   rtGetInf.obj
 0001:00004760       _rtGetMinusInfF            10005760 f   rtGetInf.obj
 0001:00004780       _rtGetNaN                  10005780 f   rtGetNaN.obj
 0001:000047b0       _rtGetNaNF                 100057b0 f   rtGetNaN.obj
 0001:000050e0       _rt_CreateLogVar           100060e0 f   rt_logging.obj
 0001:00005170       _rt_CreateLogVarWithConvert 10006170 f   rt_logging.obj
 0001:00005af0       _rt_CreateStructLogVar     10006af0 f   rt_logging.obj
 0001:00006860       _rt_GetMxIdFromDTypeId     10007860 f   rt_logging.obj
 0001:00006890       _rt_GetMxIdFromDTypeIdForRSim 10007890 f   rt_logging.obj
 0001:000091d0       _rt_StartDataLogging       1000a1d0 f   rt_logging.obj
 0001:00009690       _rt_StartDataLoggingWithStartTime 1000a690 f   rt_logging.obj
 0001:00009ff0       _rt_StopDataLogging        1000aff0 f   rt_logging.obj
 0001:0000a010       _rt_StopDataLoggingImpl    1000b010 f   rt_logging.obj
 0001:0000a330       _rt_UpdateLogVar           1000b330 f   rt_logging.obj
 0001:0000b6f0       _rt_UpdateStructLogVar     1000c6f0 f   rt_logging.obj
 0001:0000b780       _rt_UpdateTXXFYLogVars     1000c780 f   rt_logging.obj
 0001:0000bac0       _rt_UpdateTXYLogVars       1000cac0 f   rt_logging.obj
 0001:0000bd10       _rt_CleanUpForStateLogWithMMI 1000cd10 f   rt_logging_mmi.obj
 0001:0000be20       _rt_FillStateSigInfoFromMMI 1000ce20 f   rt_logging_mmi.obj
 0001:0000c1d0       _rt_mxCreateCharMatrixFromStrings 1000d1d0 f   rt_matrx.obj
 0001:0000c320       _rt_mxCreateDoubleMatrix   1000d320 f   rt_matrx.obj
 0001:0000c380       _rt_mxCreateNumericArray   1000d380 f   rt_matrx.obj
 0001:0000c400       _rt_mxCreateString         1000d400 f   rt_matrx.obj
 0001:0000c490       _rt_mxDuplicateArray       1000d490 f   rt_matrx.obj
 0001:0000c4f0       _rt_mxGetDimensions        1000d4f0 f   rt_matrx.obj
 0001:0000c530       _rt_mxGetEps               1000d530 f   rt_matrx.obj
 0001:0000c540       _rt_mxGetString            1000d540 f   rt_matrx.obj
 0001:0000c5c0       _rtIsInf                   1000d5c0 f   rt_nonfinite.obj
 0001:0000c600       _rtIsInfF                  1000d600 f   rt_nonfinite.obj
 0001:0000c640       _rtIsNaN                   1000d640 f   rt_nonfinite.obj
 0001:0000c660       _rtIsNaNF                  1000d660 f   rt_nonfinite.obj
 0001:0000c680       _rt_InitInfAndNaN          1000d680 f   rt_nonfinite.obj
 0001:0000c6e0       _rtPrintfNoOp              1000d6e0 f   rt_printf.obj
 0001:0000c6f0       _rt_ZCFcn                  1000d6f0 f   rt_zcfcn.obj
 0001:0000c7b0       _rtwCAPI_CountSysRan       1000d7b0 f   rtw_modelmap_utils.obj
 0001:0000c850       _rtwCAPI_EncodePath        1000d850 f   rtw_modelmap_utils.obj
 0001:0000c940       _rtwCAPI_FillSysRan        1000d940 f   rtw_modelmap_utils.obj
 0001:0000ca30       _rtwCAPI_FreeFullPaths     1000da30 f   rtw_modelmap_utils.obj
 0001:0000cac0       _rtwCAPI_GetFullStateBlockPath 1000dac0 f   rtw_modelmap_utils.obj
 0001:0000cc70       _rtwCAPI_GetNumContStateRecords 1000dc70 f   rtw_modelmap_utils.obj
 0001:0000cd30       _rtwCAPI_GetNumSigLogRecords 1000dd30 f   rtw_modelmap_utils.obj
 0001:0000cd80       _rtwCAPI_GetNumSigLogRecordsForRTWLogging 1000dd80 f   rtw_modelmap_utils.obj
 0001:0000ce10       _rtwCAPI_GetNumStateRecords 1000de10 f   rtw_modelmap_utils.obj
 0001:0000ce60       _rtwCAPI_GetNumStateRecordsForRTWLogging 1000de60 f   rtw_modelmap_utils.obj
 0001:0000cef0       _rtwCAPI_GetSigAddrFromMap 1000def0 f   rtw_modelmap_utils.obj
 0001:0000cfb0       _rtwCAPI_GetSigLogRecordInfo 1000dfb0 f   rtw_modelmap_utils.obj
 0001:0000d3e0       _rtwCAPI_GetStateRecordInfo 1000e3e0 f   rtw_modelmap_utils.obj
 0001:0000d890       _rtwCAPI_GetStateWidth     1000e890 f   rtw_modelmap_utils.obj
 0001:0000d8f0       _rtwCAPI_HasStates         1000e8f0 f   rtw_modelmap_utils.obj
 0001:0000d960       _rtwCAPI_UpdateFullPaths   1000e960 f   rtw_modelmap_utils.obj
 0001:0000db40       _DllMain@12                1000eb40 f   xpctarget.obj
 0001:0000db50       _FingerStrokeAssistance_ChangeStepSize 1000eb50 f   xpctarget.obj
 0001:0000dba0       _SLRTSetErrorStatus        1000eba0 f   xpctarget.obj
 0001:0000dbc0       _changeStepSize            1000ebc0 f   xpctarget.obj
 0001:0000dc10       _getDLMVersion             1000ec10 f   xpctarget.obj
 0001:0000dc20       _getRefMdlPath             1000ec20 f   xpctarget.obj
 0001:0000dca0       _getRefMdlSignalNumber     1000eca0 f   xpctarget.obj
 0001:0000dd50       _getrlmdlinfo              1000ed50 f   xpctarget.obj
 0001:0000df30       _updateDiscreteEvents      1000ef30 f   xpctarget.obj
 0001:0000df40       _getNumRef                 1000ef40 f   appmappingData.obj
 0001:0000df50       _encnipcim                 1000ef50 f   encnipcim.obj
 0001:0000e580       _danipcim                  1000f580 f   danipcim.obj
 0001:0000ed20       _adnipcim                  1000fd20 f   adnipcim.obj
 0001:0000f750       _niMIdentify               10010750 f   xpcionim.obj
 0001:0000f8d0       _niM_AISetup               100108d0 f   xpcionim.obj
 0001:0000fce0       _niM_AO_Setup              10010ce0 f   xpcionim.obj
 0001:0000fe70       _niM_Cont_Pulse_Train_Generation 10010e70 f   xpcionim.obj
 0001:0000ffb0       _niM_Counter_Reset_All     10010fb0 f   xpcionim.obj
 0001:00010060       _niM_CtrArm                10011060 f   xpcionim.obj
 0001:00010080       _niM_CtrDisarm             10011080 f   xpcionim.obj
 0001:000100a0       _niM_CtrReadArm            100110a0 f   xpcionim.obj
 0001:000100c0       _niM_CtrReadDisarm         100110c0 f   xpcionim.obj
 0001:000100e0       _niM_PeriodConfigure       100110e0 f   xpcionim.obj
 0001:00010250       _niM_Private_Data          10011250 f   xpcionim.obj
 0001:00010830       _niM_SetPFIFilter          10011830 f   xpcionim.obj
 0001:000108b0       _niM_SetPFI_DO             100118b0 f   xpcionim.obj
 0001:00010900       _niM_SetPFI_Select         10011900 f   xpcionim.obj
 0001:00010980       _niM_aiConfigureChannel    10011980 f   xpcionim.obj
 0001:000109f0       _niM_aiGetScalingCoefficients 100119f0 f   xpcionim.obj
 0001:00010bd0       _niM_aiPolynomialScaler    10011bd0 f   xpcionim.obj
 0001:00010cf0       _niM_analogTriggerReset    10011cf0 f   xpcionim.obj
 0001:00010d40       _niM_aoConfigureDAC        10011d40 f   xpcionim.obj
 0001:00010d90       _niM_aoGetScalingCoefficients 10011d90 f   xpcionim.obj
 0001:00010e40       _niM_aoLinearScaler        10011e40 f   xpcionim.obj
 0001:00010e70       _niM_configureTimebase     10011e70 f   xpcionim.obj
 0001:00010e90       _niM_eepromReadMSeries     10011e90 f   xpcionim.obj
 0001:00010f60       _niM_pllReset              10011f60 f   xpcionim.obj
 0001:00010f90       _niM_resetCtr              10011f90 f   xpcionim.obj
 0001:00010fb0       _niM_whichBank             10011fb0 f   xpcionim.obj
 0001:00010ff0       _niMconfig                 10011ff0 f   xpcionim.obj
 0001:00011090       _GetPCIDeviceFull          10012090 f   xpcruntime:xpcimports.obj
 0001:000110c0       _ShowPCIDevice             100120c0 f   xpcruntime:xpcimports.obj
 0001:00011730       _xpcGetPciConfigAtSlot     10012730 f   xpcruntime:xpcimports.obj
 0001:000119b0       _xpcInitProcs              100129b0 f   xpcruntime:xpcimports.obj
 0001:00012510       _xpceuploadevent           10013510 f   xpcruntime:xpcimports.obj
 0001:00012511       __heap_alloc               10013511 f i LIBCMT:malloc.obj
 0001:0001254e       _malloc                    1001354e f   LIBCMT:malloc.obj
 0001:000125e0       __get_printf_count_output  100135e0 f   LIBCMT:printf.obj
 0001:000125f5       __printf_l                 100135f5 f   LIBCMT:printf.obj
 0001:0001260c       __printf_p                 1001360c f   LIBCMT:printf.obj
 0001:00012622       __printf_p_l               10013622 f   LIBCMT:printf.obj
 0001:00012639       __printf_s_l               10013639 f   LIBCMT:printf.obj
 0001:00012650       __set_printf_count_output  10013650 f   LIBCMT:printf.obj
 0001:00012678       _printf                    10013678 f   LIBCMT:printf.obj
 0001:00012727       _printf_s                  10013727 f   LIBCMT:printf.obj
 0001:0001273d       ___libm_sse2_pow           1001373d f   LIBCMT:pow_sse2.obj
 0001:000131c0       _ceil                      100141c0 f   LIBCMT:ceil_pentium4.obj
 0001:00013200       __ceil_pentium4            10014200 f   LIBCMT:ceil_pentium4.obj
 0001:000132e0       _memset                    100142e0 f   LIBCMT:memset.obj
 0001:00013370       __fpmath                   10014370 f   LIBCMT:fpinit.obj
 0001:00013387       ___setfflag                10014387 f   LIBCMT:fpinit.obj
 0001:0001339a       __cfltcvt_init             1001439a f   LIBCMT:fpinit.obj
 0001:000133fa       ___raise_securityfailure   100143fa f   LIBCMT:gs_report.obj
 0001:00013437       ___report_gsfailure        10014437 f   LIBCMT:gs_report.obj
 0001:00013532       ___report_rangecheckfailure 10014532 f   LIBCMT:gs_report.obj
 0001:0001353e       ___report_securityfailure  1001453e f   LIBCMT:gs_report.obj
 0001:0001360e       ___report_securityfailureEx 1001460e f   LIBCMT:gs_report.obj
 0001:00013724       ___copy_path_to_wide_string 10014724 f   LIBCMT:crt0dat.obj
 0001:000137d6       ___copy_to_char            100147d6 f   LIBCMT:crt0dat.obj
 0001:0001388b       ___crtCorExitProcess       1001488b f   LIBCMT:crt0dat.obj
 0001:000138bf       ___crtExitProcess          100148bf f   LIBCMT:crt0dat.obj
 0001:000138d5       ___freeCrtMemory           100148d5 f   LIBCMT:crt0dat.obj
 0001:000139e2       __amsg_exit                100149e2 f   LIBCMT:crt0dat.obj
 0001:000139fe       __c_exit                   100149fe f   LIBCMT:crt0dat.obj
 0001:00013a0d       __cexit                    10014a0d f   LIBCMT:crt0dat.obj
 0001:00013a1c       __cinit                    10014a1c f   LIBCMT:crt0dat.obj
 0001:00013aa0       __exit                     10014aa0 f   LIBCMT:crt0dat.obj
 0001:00013ab4       __exit_app                 10014ab4 f   LIBCMT:crt0dat.obj
 0001:00013ac2       __get_pgmptr               10014ac2 f   LIBCMT:crt0dat.obj
 0001:00013af1       __get_wpgmptr              10014af1 f   LIBCMT:crt0dat.obj
 0001:00013b20       __init_pointers            10014b20 f   LIBCMT:crt0dat.obj
 0001:00013b8e       __initterm_e               10014b8e f   LIBCMT:crt0dat.obj
 0001:00013bb0       __lockexit                 10014bb0 f   LIBCMT:crt0dat.obj
 0001:00013bb9       __unlockexit               10014bb9 f   LIBCMT:crt0dat.obj
 0001:00013cf1       _exit                      10014cf1 f   LIBCMT:crt0dat.obj
 0001:00013d05       _calloc                    10014d05 f   LIBCMT:calloc.obj
 0001:00013d45       _free                      10014d45 f   LIBCMT:free.obj
 0001:00013d7d       _realloc                   10014d7d f   LIBCMT:realloc.obj
 0001:00013e30       _memmove                   10014e30 f   LIBCMT:memmove.obj
 0001:00014480       _strchr                    10015480 f   LIBCMT:strchr.obj
 0001:000144ee       ___from_strstr_to_strchr   100154ee     LIBCMT:strchr.obj
 0001:000145b0       _strncat                   100155b0 f   LIBCMT:strncat.obj
 0001:000146f0       _strncpy                   100156f0 f   LIBCMT:strncpy.obj
 0001:00014814       ___initstdio               10015814 f   LIBCMT:_file.obj
 0001:00014887       ___endstdio                10015887 f   LIBCMT:_file.obj
 0001:000148ae       ___iob_func                100158ae f   LIBCMT:_file.obj
 0001:000148b4       __lock_file                100158b4 f   LIBCMT:_file.obj
 0001:000148f3       __lock_file2               100158f3 f   LIBCMT:_file.obj
 0001:00014923       __unlock_file              10015923 f   LIBCMT:_file.obj
 0001:0001495d       __unlock_file2             1001595d f   LIBCMT:_file.obj
 0001:0001498a       __fclose_nolock            1001598a f   LIBCMT:fclose.obj
 0001:000149f6       _fclose                    100159f6 f   LIBCMT:fclose.obj
 0001:00014a6d       __fsopen                   10015a6d f   LIBCMT:fopen.obj
 0001:00014b31       _fopen                     10015b31 f   LIBCMT:fopen.obj
 0001:00014b46       _fopen_s                   10015b46 f   LIBCMT:fopen.obj
 0001:00014b8b       __fprintf_l                10015b8b f   LIBCMT:fprintf.obj
 0001:00014ba5       __fprintf_p                10015ba5 f   LIBCMT:fprintf.obj
 0001:00014bbe       __fprintf_p_l              10015bbe f   LIBCMT:fprintf.obj
 0001:00014bd8       __fprintf_s_l              10015bd8 f   LIBCMT:fprintf.obj
 0001:00014bf2       _fprintf                   10015bf2 f   LIBCMT:fprintf.obj
 0001:00014d04       _fprintf_s                 10015d04 f   LIBCMT:fprintf.obj
 0001:00014d1d       __fread_nolock             10015d1d f   LIBCMT:fread.obj
 0001:00014d38       __fread_nolock_s           10015d38 f   LIBCMT:fread.obj
 0001:00014efd       _fread                     10015efd f   LIBCMT:fread.obj
 0001:00014f18       _fread_s                   10015f18 f   LIBCMT:fread.obj
 0001:00014fa9       __fwrite_nolock            10015fa9 f   LIBCMT:fwrite.obj
 0001:00015102       _fwrite                    10016102 f   LIBCMT:fwrite.obj
 0001:00015184       __unlink                   10016184 f   LIBCMT:unlink.obj
 0001:0001518d       _remove                    1001618d f   LIBCMT:unlink.obj
 0001:000151cf       _rewind                    100161cf f   LIBCMT:rewind.obj
 0001:0001528e       __scprintf                 1001628e f   LIBCMT:sprintf.obj
 0001:000152a1       __scprintf_l               100162a1 f   LIBCMT:sprintf.obj
 0001:000152b8       __scprintf_p               100162b8 f   LIBCMT:sprintf.obj
 0001:000152cb       __scprintf_p_l             100162cb f   LIBCMT:sprintf.obj
 0001:000152e2       __snprintf_s               100162e2 f   LIBCMT:sprintf.obj
 0001:00015301       __snprintf_s_l             10016301 f   LIBCMT:sprintf.obj
 0001:00015321       __sprintf_l                10016321 f   LIBCMT:sprintf.obj
 0001:0001533b       __sprintf_p                1001633b f   LIBCMT:sprintf.obj
 0001:00015357       __sprintf_p_l              10016357 f   LIBCMT:sprintf.obj
 0001:00015374       __sprintf_s_l              10016374 f   LIBCMT:sprintf.obj
 0001:00015391       _sprintf                   10016391 f   LIBCMT:sprintf.obj
 0001:00015415       _sprintf_s                 10016415 f   LIBCMT:sprintf.obj
 0001:00015431       _ldexp                     10016431 f   LIBCMT:ldexp.obj
 0001:0001561d       @__security_check_cookie@4 1001661d f   LIBCMT:secchk.obj
 0001:00015630       __ftoui3                   10016630 f   LIBCMT:ftol3.obj
 0001:0001563f       __ftoul3                   1001663f f   LIBCMT:ftol3.obj
 0001:0001564e       __ftol3                    1001664e f   LIBCMT:ftol3.obj
 0001:0001565b       __ftol3_NaN                1001665b f   LIBCMT:ftol3.obj
 0001:00015673       __ftol3_work               10016673 f   LIBCMT:ftol3.obj
 0001:000156f9       __ftol3_common             100166f9 f   LIBCMT:ftol3.obj
 0001:000157bb       __ftol3_arg_error          100167bb f   LIBCMT:ftol3.obj
 0001:000157cd       __ftol3_except             100167cd f   LIBCMT:ftol3.obj
 0001:0001580f       __dtoui3                   1001680f f   LIBCMT:ftol3.obj
 0001:0001581e       __dtoul3                   1001681e f   LIBCMT:ftol3.obj
 0001:0001582d       __dtol3                    1001682d f   LIBCMT:ftol3.obj
 0001:0001583a       __dtol3_NaN                1001683a f   LIBCMT:ftol3.obj
 0001:00015857       __dtol3_work               10016857 f   LIBCMT:ftol3.obj
 0001:0001593c       __ultod3                   1001693c f   LIBCMT:ftol3.obj
 0001:000159cd       __ltod3                    100169cd f   LIBCMT:ftol3.obj
 0001:00015a00       _memcpy                    10016a00 f   LIBCMT:memcpy.obj
 0001:00016044       ___isa_available_init      10017044 f   LIBCMT:cpu_disp.obj
 0001:000161bd       __invoke_watson_if_error   100171bd f i LIBCMT:wassert.obj
 0001:000161dd       __wassert                  100171dd f   LIBCMT:wassert.obj
 0001:00016881       __CRT_INIT@12              10017881 f   LIBCMT:dllcrt0.obj
 0001:000169f3       __DllMainCRTStartup@12     100179f3 f   LIBCMT:dllcrt0.obj
 0001:00016b24       ___DllXcptFilter           10017b24 f   LIBCMT:dllcrt0.obj
 0001:00016b49       ?_query_new_handler@@YAP6AHI@ZXZ 10017b49 f   LIBCMT:handler.obj
 0001:00016b56       ?_set_new_handler@@YAP6AHI@ZH@Z 10017b56 f   LIBCMT:handler.obj
 0001:00016b5f       ?_set_new_handler@@YAP6AHI@ZP6AHI@Z@Z 10017b5f f   LIBCMT:handler.obj
 0001:00016b94       __callnewh                 10017b94 f   LIBCMT:handler.obj
 0001:00016bba       __initp_heap_handler       10017bba f   LIBCMT:handler.obj
 0001:00016bc7       __FF_MSGBANNER             10017bc7 f   LIBCMT:crt0msg.obj
 0001:00016c00       __GET_RTERRMSG             10017c00 f   LIBCMT:crt0msg.obj
 0001:00016c24       __NMSG_WRITE               10017c24 f   LIBCMT:crt0msg.obj
 0001:00016de1       ___doserrno                10017de1 f   LIBCMT:dosmap.obj
 0001:00016df4       __dosmaperr                10017df4 f   LIBCMT:dosmap.obj
 0001:00016e15       __errno                    10017e15 f   LIBCMT:dosmap.obj
 0001:00016e28       __get_doserrno             10017e28 f   LIBCMT:dosmap.obj
 0001:00016e4b       __get_errno                10017e4b f   LIBCMT:dosmap.obj
 0001:00016e6e       __get_errno_from_oserr     10017e6e f   LIBCMT:dosmap.obj
 0001:00016eaf       __set_doserrno             10017eaf f   LIBCMT:dosmap.obj
 0001:00016ece       __set_errno                10017ece f   LIBCMT:dosmap.obj
 0001:00016eed       __get_heap_handle          10017eed f   LIBCMT:heapinit.obj
 0001:00016ef3       __heap_init                10017ef3 f   LIBCMT:heapinit.obj
 0001:00016f08       __heap_term                10017f08 f   LIBCMT:heapinit.obj
 0001:00016f10       ?_invalid_parameter@@YAXPBG00II@Z 10017f10 f   LIBCMT:invarg.obj
 0001:00016f15       ?_invoke_watson@@YAXPBG00II@Z 10017f15 f   LIBCMT:invarg.obj
 0001:00016f2d       __call_reportfault         10017f2d f   LIBCMT:invarg.obj
 0001:00017052       __get_invalid_parameter_handler 10018052 f   LIBCMT:invarg.obj
 0001:0001705f       __initp_misc_invarg        1001805f f   LIBCMT:invarg.obj
 0001:0001706c       __invalid_parameter        1001806c f   LIBCMT:invarg.obj
 0001:00017097       __invalid_parameter_noinfo 10018097 f   LIBCMT:invarg.obj
 0001:000170a7       __invalid_parameter_noinfo_noreturn 100180a7 f   LIBCMT:invarg.obj
 0001:000170c2       __invoke_watson            100180c2 f   LIBCMT:invarg.obj
 0001:000170ed       __set_invalid_parameter_handler 100180ed f   LIBCMT:invarg.obj
 0001:00017112       __vprintf_l                10018112 f   LIBCMT:vprintf.obj
 0001:0001712d       __vprintf_p                1001812d f   LIBCMT:vprintf.obj
 0001:00017147       __vprintf_p_l              10018147 f   LIBCMT:vprintf.obj
 0001:00017162       __vprintf_s_l              10018162 f   LIBCMT:vprintf.obj
 0001:0001717d       _vprintf                   1001817d f   LIBCMT:vprintf.obj
 0001:00017197       _vprintf_helper            10018197 f   LIBCMT:vprintf.obj
 0001:00017224       _vprintf_s                 10018224 f   LIBCMT:vprintf.obj
 0001:0001723e       __ftbuf                    1001823e f   LIBCMT:_sftbuf.obj
 0001:0001726f       __stbuf                    1001826f f   LIBCMT:_sftbuf.obj
 0001:00017315       ??0_LocaleUpdate@@QAE@PAUlocaleinfo_struct@@@Z 10018315 f i LIBCMT:output.obj
 0001:0001739d       ??1_LocaleUpdate@@QAE@XZ   1001839d f i LIBCMT:output.obj
 0001:000173ab       ?GetLocaleT@_LocaleUpdate@@QAEPAUlocaleinfo_struct@@XZ 100183ab f i LIBCMT:output.obj
 0001:000173ae       __output_l                 100183ae f   LIBCMT:output.obj
 0001:00017f2e       _get_int64_arg             10018f2e f i LIBCMT:output.obj
 0001:00017f41       _get_int_arg               10018f41 f i LIBCMT:output.obj
 0001:00017f51       _get_short_arg             10018f51 f i LIBCMT:output.obj
 0001:00018050       __SEH_prolog4              10019050 f   LIBCMT:sehprolg4.obj
 0001:00018095       __SEH_epilog4              10019095 f   LIBCMT:sehprolg4.obj
 0001:000180f0       __except_handler4          100190f0 f   LIBCMT:chandler4.obj
 0001:00018284       ___libm_error_support      10019284 f   LIBCMT:libm_error.obj
 0001:0001856c       ___libm_setusermatherr     1001956c f   LIBCMT:libm_error.obj
 0001:00018598       __sse2_mathfcns_init       10019598 f   LIBCMT:mathfcns.obj
 0001:000185a7       __set_SSE2_enable          100195a7 f   LIBCMT:mathfcns.obj
 0001:000185c6       __ceil_default             100195c6 f   LIBCMT:ceil.obj
 0001:0001869d       __VEC_memset               1001969d f   LIBCMT:p4_memset.obj
 0001:00018765       ?strrchr@@YAPADPADH@Z      10019765 f i LIBCMT:cvt.obj
 0001:0001876e       __cfltcvt                  1001976e f   LIBCMT:cvt.obj
 0001:0001878f       __cfltcvt_l                1001978f f   LIBCMT:cvt.obj
 0001:00018815       __cftoa                    10019815 f   LIBCMT:cvt.obj
 0001:00018833       __cftoa_l                  10019833 f   LIBCMT:cvt.obj
 0001:00018b8f       __cftoe                    10019b8f f   LIBCMT:cvt.obj
 0001:00018cfe       __cftoe_l                  10019cfe f   LIBCMT:cvt.obj
 0001:00018dcc       __cftof                    10019dcc f   LIBCMT:cvt.obj
 0001:00018ed3       __cftof_l                  10019ed3 f   LIBCMT:cvt.obj
 0001:00018f94       __cftog                    10019f94 f   LIBCMT:cvt.obj
 0001:00018fb2       __cftog_l                  10019fb2 f   LIBCMT:cvt.obj
 0001:000190b1       __cropzeros                1001a0b1 f   LIBCMT:cvt.obj
 0001:000190c2       __cropzeros_l              1001a0c2 f   LIBCMT:cvt.obj
 0001:00019142       __fassign                  1001a142 f   LIBCMT:cvt.obj
 0001:0001915a       __fassign_l                1001a15a f   LIBCMT:cvt.obj
 0001:0001919c       __forcdecpt                1001a19c f   LIBCMT:cvt.obj
 0001:000191ad       __forcdecpt_l              1001a1ad f   LIBCMT:cvt.obj
 0001:00019221       __positive                 1001a221 f   LIBCMT:cvt.obj
 0001:00019263       __setdefaultprecision      1001a263 f   LIBCMT:fp8.obj
 0001:0001928a       __initp_misc_cfltcvt_tab   1001a28a f   LIBCMT:cmiscdat.obj
 0001:000192a9       __crt_debugger_hook        1001a2a9 f   LIBCMT:dbghook.obj
 0001:000192de       ___crtCloseThreadpoolTimer 1001a2de f   LIBCMT:winapisupp.obj
 0001:000192f5       ___crtCloseThreadpoolWait  1001a2f5 f   LIBCMT:winapisupp.obj
 0001:0001930c       ___crtCreateEventExW       1001a30c f   LIBCMT:winapisupp.obj
 0001:00019347       ___crtCreateSemaphoreExW   1001a347 f   LIBCMT:winapisupp.obj
 0001:00019381       ___crtCreateSymbolicLinkW  1001a381 f   LIBCMT:winapisupp.obj
 0001:000193aa       ___crtCreateThreadpoolTimer 1001a3aa f   LIBCMT:winapisupp.obj
 0001:000193cb       ___crtCreateThreadpoolWait 1001a3cb f   LIBCMT:winapisupp.obj
 0001:000193ec       ___crtFlsAlloc             1001a3ec f   LIBCMT:winapisupp.obj
 0001:0001940a       ___crtFlsFree              1001a40a f   LIBCMT:winapisupp.obj
 0001:00019429       ___crtFlsGetValue          1001a429 f   LIBCMT:winapisupp.obj
 0001:00019448       ___crtFlsSetValue          1001a448 f   LIBCMT:winapisupp.obj
 0001:0001946a       ___crtFlushProcessWriteBuffers 1001a46a f   LIBCMT:winapisupp.obj
 0001:0001947a       ___crtFreeLibraryWhenCallbackReturns 1001a47a f   LIBCMT:winapisupp.obj
 0001:00019494       ___crtGetCurrentProcessorNumber 1001a494 f   LIBCMT:winapisupp.obj
 0001:000194a6       ___crtGetFileInformationByHandleEx 1001a4a6 f   LIBCMT:winapisupp.obj
 0001:000194d2       ___crtGetLogicalProcessorInformation 1001a4d2 f   LIBCMT:winapisupp.obj
 0001:000194f8       ___crtGetShowWindowMode    1001a4f8 f   LIBCMT:winapisupp.obj
 0001:0001951b       ___crtGetTickCount64       1001a51b f   LIBCMT:winapisupp.obj
 0001:00019533       ___crtInitializeCriticalSectionEx 1001a533 f   LIBCMT:winapisupp.obj
 0001:00019561       ___crtIsPackagedApp        1001a561 f   LIBCMT:winapisupp.obj
 0001:000195a1       ___crtLoadWinApiPointers   1001a5a1 f   LIBCMT:winapisupp.obj
 0001:0001982c       ___crtSetFileInformationByHandle 1001a82c f   LIBCMT:winapisupp.obj
 0001:00019858       ___crtSetThreadStackGuarantee 1001a858 f   LIBCMT:winapisupp.obj
 0001:00019873       ___crtSetThreadpoolTimer   1001a873 f   LIBCMT:winapisupp.obj
 0001:00019893       ___crtSetThreadpoolWait    1001a893 f   LIBCMT:winapisupp.obj
 0001:000198b0       ___crtSetUnhandledExceptionFilter 1001a8b0 f   LIBCMT:winapisupp.obj
 0001:000198be       ___crtSleep                1001a8be f   LIBCMT:winapisupp.obj
 0001:000198cc       ___crtTerminateProcess     1001a8cc f   LIBCMT:winapisupp.obj
 0001:000198e1       ___crtUnhandledException   1001a8e1 f   LIBCMT:winapisupp.obj
 0001:000198f7       ___crtWaitForThreadpoolTimerCallbacks 1001a8f7 f   LIBCMT:winapisupp.obj
 0001:00019911       __RTC_Initialize           1001a911 f   LIBCMT:initsect.obj
 0001:00019931       __RTC_Terminate            1001a931 f   LIBCMT:initsect.obj
 0001:00019951       __lock                     1001a951 f   LIBCMT:mlock.obj
 0001:00019985       __lockerr_exit             1001a985 f   LIBCMT:mlock.obj
 0001:000199a5       __mtdeletelocks            1001a9a5 f   LIBCMT:mlock.obj
 0001:000199f9       __mtinitlocknum            1001a9f9 f   LIBCMT:mlock.obj
 0001:00019aa2       __mtinitlocks              1001aaa2 f   LIBCMT:mlock.obj
 0001:00019adb       __unlock                   1001aadb f   LIBCMT:mlock.obj
 0001:00019af0       __FindPESection            1001aaf0 f   LIBCMT:pesect.obj
 0001:00019b40       __IsNonwritableInCurrentImage 1001ab40 f   LIBCMT:pesect.obj
 0001:00019c00       __ValidateImageBase        1001ac00 f   LIBCMT:pesect.obj
 0001:00019c31       ___onexitinit              1001ac31 f   LIBCMT:onexit.obj
 0001:00019c60       __onexit                   1001ac60 f   LIBCMT:onexit.obj
 0001:00019d5c       _atexit                    1001ad5c f   LIBCMT:onexit.obj
 0001:00019d71       __calloc_crt               1001ad71 f   LIBCMT:crtheap.obj
 0001:00019db9       __malloc_crt               1001adb9 f   LIBCMT:crtheap.obj
 0001:00019e00       __realloc_crt              1001ae00 f   LIBCMT:crtheap.obj
 0001:00019e4a       __recalloc_crt             1001ae4a f   LIBCMT:crtheap.obj
 0001:00019e98       __set_malloc_crt_max_wait  1001ae98 f   LIBCMT:crtheap.obj
 0001:00019eab       _wait_a_bit                1001aeab f i LIBCMT:crtheap.obj
 0001:00019ecf       ?_inconsistency@@YAXXZ     1001aecf f   LIBCMT:hooks.obj
 0001:00019f07       ?terminate@@YAXXZ          1001af07 f   LIBCMT:hooks.obj
 0001:00019f3b       ?unexpected@@YAXXZ         1001af3b f   LIBCMT:hooks.obj
 0001:00019f4e       __initp_eh_hooks           1001af4e f   LIBCMT:hooks.obj
 0001:00019f5f       ___getlocaleinfo           1001af5f f   LIBCMT:inithelp.obj
 0001:0001a138       __initp_misc_purevirt      1001b138 f   LIBCMT:inithelp.obj
 0001:0001a145       ___fpecode                 1001b145 f   LIBCMT:winsig.obj
 0001:0001a14e       ___get_sigabrt             1001b14e f   LIBCMT:winsig.obj
 0001:0001a15b       ___pxcptinfoptrs           1001b15b f   LIBCMT:winsig.obj
 0001:0001a164       __initp_misc_winsig        1001b164 f   LIBCMT:winsig.obj
 0001:0001a225       _raise                     1001b225 f   LIBCMT:winsig.obj
 0001:0001a41a       _signal                    1001b41a f   LIBCMT:winsig.obj
 0001:0001a671       __initp_misc_rand_s        1001b671 f   LIBCMT:rand_s.obj
 0001:0001a67e       _rand_s                    1001b67e f   LIBCMT:rand_s.obj
 0001:0001a784       ___initmbctable            1001b784 f   LIBCMT:mbctype.obj
 0001:0001aa3b       ___updatetmbcinfo          1001ba3b f   LIBCMT:mbctype.obj
 0001:0001aae1       __getmbcp                  1001bae1 f   LIBCMT:mbctype.obj
 0001:0001ab12       __setmbcp                  1001bb12 f   LIBCMT:mbctype.obj
 0001:0001acba       __setmbcp_nolock           1001bcba f   LIBCMT:mbctype.obj
 0001:0001aea5       __calloc_impl              1001bea5 f   LIBCMT:calloc_impl.obj
 0001:0001af1f       __fcloseall                1001bf1f f   LIBCMT:closeall.obj
 0001:0001afbc       __fflush_nolock            1001bfbc f   LIBCMT:fflush.obj
 0001:0001b002       __flush                    1001c002 f   LIBCMT:fflush.obj
 0001:0001b066       __flushall                 1001c066 f   LIBCMT:fflush.obj
 0001:0001b06f       _fflush                    1001c06f f   LIBCMT:fflush.obj
 0001:0001b1ac       __fileno                   1001c1ac f   LIBCMT:fileno.obj
 0001:0001b1d0       __close                    1001c1d0 f   LIBCMT:close.obj
 0001:0001b2ab       __close_nolock             1001c2ab f   LIBCMT:close.obj
 0001:0001b345       __freebuf                  1001c345 f   LIBCMT:_freebuf.obj
 0001:0001b375       __getstream                1001c375 f   LIBCMT:stream.obj
 0001:0001b494       __openfile                 1001c494 f   LIBCMT:_open.obj
 0001:0001b710       __local_unwind4            1001c710 f   LIBCMT:exsup4.obj
 0001:0001b7e6       __seh_longjmp_unwind4@4    1001c7e6 f   LIBCMT:exsup4.obj
 0001:0001b802       @_EH4_CallFilterFunc@8     1001c802 f   LIBCMT:exsup4.obj
 0001:0001b819       @_EH4_TransferToHandler@8  1001c819 f   LIBCMT:exsup4.obj
 0001:0001b832       @_EH4_GlobalUnwind2@8      1001c832 f   LIBCMT:exsup4.obj
 0001:0001b84b       @_EH4_LocalUnwind@16       1001c84b f   LIBCMT:exsup4.obj
 0001:0001b862       __vfprintf_l               1001c862 f   LIBCMT:vfprintf.obj
 0001:0001b880       __vfprintf_p               1001c880 f   LIBCMT:vfprintf.obj
 0001:0001b89d       __vfprintf_p_l             1001c89d f   LIBCMT:vfprintf.obj
 0001:0001b8bb       __vfprintf_s_l             1001c8bb f   LIBCMT:vfprintf.obj
 0001:0001b8d9       _vfprintf                  1001c8d9 f   LIBCMT:vfprintf.obj
 0001:0001b8f6       _vfprintf_helper           1001c8f6 f   LIBCMT:vfprintf.obj
 0001:0001ba07       _vfprintf_s                1001ca07 f   LIBCMT:vfprintf.obj
 0001:0001ba24       __ioinit                   1001ca24 f   LIBCMT:ioinit.obj
 0001:0001bcd8       __ioterm                   1001ccd8 f   LIBCMT:ioinit.obj
 0001:0001bd2a       __filbuf                   1001cd2a f   LIBCMT:_filbuf.obj
 0001:0001be4b       _memcpy_s                  1001ce4b f   LIBCMT:memcpy_s.obj
 0001:0001beca       __read                     1001ceca f   LIBCMT:read.obj
 0001:0001bfde       __read_nolock              1001cfde f   LIBCMT:read.obj
 0001:0001c76f       __flsbuf                   1001d76f f   LIBCMT:_flsbuf.obj
 0001:0001c8be       __write                    1001d8be f   LIBCMT:write.obj
 0001:0001c9ad       __write_nolock             1001d9ad f   LIBCMT:write.obj
 0001:0001d212       __wremove                  1001e212 f   LIBCMT:wunlink.obj
 0001:0001d240       __wunlink                  1001e240 f   LIBCMT:wunlink.obj
 0001:0001d249       __lseek                    1001e249 f   LIBCMT:lseek.obj
 0001:0001d338       __lseek_nolock             1001e338 f   LIBCMT:lseek.obj
 0001:0001d3df       __vscprintf                1001e3df f   LIBCMT:vsprintf.obj
 0001:0001d3f9       __vscprintf_helper         1001e3f9 f   LIBCMT:vsprintf.obj
 0001:0001d455       __vscprintf_l              1001e455 f   LIBCMT:vsprintf.obj
 0001:0001d470       __vscprintf_p              1001e470 f   LIBCMT:vsprintf.obj
 0001:0001d48a       __vscprintf_p_l            1001e48a f   LIBCMT:vsprintf.obj
 0001:0001d4a5       __vsprintf_l               1001e4a5 f   LIBCMT:vsprintf.obj
 0001:0001d529       _vsprintf                  1001e529 f   LIBCMT:vsprintf.obj
 0001:0001d541       __vsnprintf_c              1001e541 f   LIBCMT:vsnprnc.obj
 0001:0001d568       __vsnprintf_c_l            1001e568 f   LIBCMT:vsnprnc.obj
 0001:0001d590       __vsnprintf_helper         1001e590 f   LIBCMT:vsnprnc.obj
 0001:0001d65a       __vsnprintf_s              1001e65a f   LIBCMT:vsnprnc.obj
 0001:0001d678       __vsnprintf_s_l            1001e678 f   LIBCMT:vsnprnc.obj
 0001:0001d778       __vsprintf_p               1001e778 f   LIBCMT:vsnprnc.obj
 0001:0001d79f       __vsprintf_p_l             1001e79f f   LIBCMT:vsnprnc.obj
 0001:0001d7c7       __vsprintf_s_l             1001e7c7 f   LIBCMT:vsnprnc.obj
 0001:0001d83c       _vsprintf_s                1001e83c f   LIBCMT:vsnprnc.obj
 0001:0001d857       __chgsign                  1001e857 f   LIBCMT:ieeemisc.obj
 0001:0001d884       __chgsignf                 1001e884 f   LIBCMT:ieeemisc.obj
 0001:0001d8a5       __copysign                 1001e8a5 f   LIBCMT:ieeemisc.obj
 0001:0001d8cd       __copysignf                1001e8cd f   LIBCMT:ieeemisc.obj
 0001:0001d8e9       __finite                   1001e8e9 f   LIBCMT:ieeemisc.obj
 0001:0001d901       __fpclass                  1001e901 f   LIBCMT:ieeemisc.obj
 0001:0001d99d       __isnan                    1001e99d f   LIBCMT:ieeemisc.obj
 0001:0001d9d0       __logb                     1001e9d0 f   LIBCMT:ieeemisc.obj
 0001:0001dab1       __nextafter                1001eab1 f   LIBCMT:ieeemisc.obj
 0001:0001dd51       __scalb                    1001ed51 f   LIBCMT:ieeemisc.obj
 0001:0001dd69       __add_exp                  1001ed69 f   LIBCMT:util.obj
 0001:0001dd98       __decomp                   1001ed98 f   LIBCMT:util.obj
 0001:0001de6a       __get_exp                  1001ee6a f   LIBCMT:util.obj
 0001:0001de83       __set_bexp                 1001ee83 f   LIBCMT:util.obj
 0001:0001deac       __set_exp                  1001eeac f   LIBCMT:util.obj
 0001:0001dedb       __sptype                   1001eedb f   LIBCMT:util.obj
 0001:0001df36       __errcode                  1001ef36 f   LIBCMT:fpexcept.obj
 0001:0001df68       __except1                  1001ef68 f   LIBCMT:fpexcept.obj
 0001:0001e030       __except2                  1001f030 f   LIBCMT:fpexcept.obj
 0001:0001e130       __handle_exc               1001f130 f   LIBCMT:fpexcept.obj
 0001:0001e30e       __handle_qnan1             1001f30e f   LIBCMT:fpexcept.obj
 0001:0001e35e       __handle_qnan2             1001f35e f   LIBCMT:fpexcept.obj
 0001:0001e3be       __raise_exc                1001f3be f   LIBCMT:fpexcept.obj
 0001:0001e3df       __raise_exc_ex             1001f3df f   LIBCMT:fpexcept.obj
 0001:0001e6c4       __raise_excf               1001f6c4 f   LIBCMT:fpexcept.obj
 0001:0001e6e5       __set_errno_from_matherr   1001f6e5 f   LIBCMT:fpexcept.obj
 0001:0001e712       __umatherr                 1001f712 f   LIBCMT:fpexcept.obj
 0001:0001e7b2       ___clrfp_sse2              1001f7b2 f   LIBCMT:fpctrl.obj
 0001:0001e7d3       ___ctrlfp_sse2             1001f7d3 f   LIBCMT:fpctrl.obj
 0001:0001e80c       ___fclrf_sse2              1001f80c f   LIBCMT:fpctrl.obj
 0001:0001e829       ___get_fpsr_sse2           1001f829 f   LIBCMT:fpctrl.obj
 0001:0001e845       ___set_fpsr_sse2           1001f845 f   LIBCMT:fpctrl.obj
 0001:0001e8bb       ___set_statfp_sse2         1001f8bb f   LIBCMT:fpctrl.obj
 0001:0001e8d4       ___statfp_sse2             1001f8d4 f   LIBCMT:fpctrl.obj
 0001:0001e8e9       __clrfp                    1001f8e9 f   LIBCMT:fpctrl.obj
 0001:0001e8fa       __ctrlfp                   1001f8fa f   LIBCMT:fpctrl.obj
 0001:0001e925       __set_statfp               1001f925 f   LIBCMT:fpctrl.obj
 0001:0001e97d       __statfp                   1001f97d f   LIBCMT:fpctrl.obj
 0001:0001e98d       _wcscat_s                  1001f98d f   LIBCMT:wcscat_s.obj
 0001:0001e9f9       _wcscpy_s                  1001f9f9 f   LIBCMT:wcscpy_s.obj
 0001:0001ea55       _wcslen                    1001fa55 f   LIBCMT:wcslen.obj
 0001:0001ea6e       _wcsncat_s                 1001fa6e f   LIBCMT:wcsncat_s.obj
 0001:0001eb3c       __set_abort_behavior       1001fb3c f   LIBCMT:abort.obj
 0001:0001eb5b       _abort                     1001fb5b f   LIBCMT:abort.obj
 0001:0001eb9e       ___set_app_type            1001fb9e f   LIBCMT:errmode.obj
 0001:0001ebab       __set_error_mode           1001fbab f   LIBCMT:errmode.obj
 0001:0001ed07       __i64tow_s                 1001fd07 f   LIBCMT:xtows.obj
 0001:0001ed38       __itow_s                   1001fd38 f   LIBCMT:xtows.obj
 0001:0001ed61       __ltow_s                   1001fd61 f   LIBCMT:xtows.obj
 0001:0001ed8b       __ui64tow_s                1001fd8b f   LIBCMT:xtows.obj
 0001:0001eda6       __ultow_s                  1001fda6 f   LIBCMT:xtows.obj
 0001:0001eeb1       _setvbuf                   1001feb1 f   LIBCMT:setvbuf.obj
 0001:0001efb7       __fwprintf_l               1001ffb7 f   LIBCMT:fwprintf.obj
 0001:0001efd1       __fwprintf_p               1001ffd1 f   LIBCMT:fwprintf.obj
 0001:0001efea       __fwprintf_p_l             1001ffea f   LIBCMT:fwprintf.obj
 0001:0001f004       __fwprintf_s_l             10020004 f   LIBCMT:fwprintf.obj
 0001:0001f01e       _fwprintf                  1002001e f   LIBCMT:fwprintf.obj
 0001:0001f0b2       _fwprintf_s                100200b2 f   LIBCMT:fwprintf.obj
 0001:0001f0cb       __vsnwprintf_s             100200cb f   LIBCMT:vswprnc.obj
 0001:0001f0e9       __vsnwprintf_s_l           100200e9 f   LIBCMT:vswprnc.obj
 0001:0001f1ed       __vswprintf_c              100201ed f   LIBCMT:vswprnc.obj
 0001:0001f214       __vswprintf_c_l            10020214 f   LIBCMT:vswprnc.obj
 0001:0001f23c       __vswprintf_helper         1002023c f   LIBCMT:vswprnc.obj
 0001:0001f337       __vswprintf_p              10020337 f   LIBCMT:vswprnc.obj
 0001:0001f35e       __vswprintf_p_l            1002035e f   LIBCMT:vswprnc.obj
 0001:0001f386       __vswprintf_s_l            10020386 f   LIBCMT:vswprnc.obj
 0001:0001f3fd       _vswprintf_s               100203fd f   LIBCMT:vswprnc.obj
 0001:0001f418       ___crtMessageBoxW          10020418 f   LIBCMT:crtmboxw.obj
 0001:0001f5fe       ___crtMessageBoxWaitThreadW@4 100205fe f   LIBCMT:crtmboxw.obj
 0001:0001f61c       __XcptFilter               1002061c f   LIBCMT:winxfltr.obj
 0001:0001f777       ___CppXcptFilter           10020777 f   LIBCMT:winxfltr.obj
 0001:0001f7c9       ___get_flsindex            100207c9 f   LIBCMT:tidtable.obj
 0001:0001f7cf       ___threadhandle            100207cf f   LIBCMT:tidtable.obj
 0001:0001f7d5       ___threadid                100207d5 f   LIBCMT:tidtable.obj
 0001:0001f7db       __freefls@4                100207db f   LIBCMT:tidtable.obj
 0001:0001f910       __freeptd                  10020910 f   LIBCMT:tidtable.obj
 0001:0001f946       __getptd                   10020946 f   LIBCMT:tidtable.obj
 0001:0001f95e       __getptd_noexit            1002095e f   LIBCMT:tidtable.obj
 0001:0001f9cd       __initptd                  100209cd f   LIBCMT:tidtable.obj
 0001:0001fa80       __mtinit                   10020a80 f   LIBCMT:tidtable.obj
 0001:0001faf6       __mtterm                   10020af6 f   LIBCMT:tidtable.obj
 0001:0001fb13       __set_pgmptr               10020b13 f i LIBCMT:stdargv.obj
 0001:0001fb20       __setargv                  10020b20 f   LIBCMT:stdargv.obj
 0001:0001fd4f       __setenvp                  10020d4f f   LIBCMT:stdenvp.obj
 0001:0001fe30       ___security_init_cookie    10020e30 f   LIBCMT:gs_support.obj
 0001:0001fecc       ___crtGetEnvironmentStringsA 10020ecc f   LIBCMT:a_env.obj
 0001:0001ff60       _strlen                    10020f60 f   LIBCMT:strlen.obj
 0001:0001ffeb       _wcsncpy_s                 10020feb f   LIBCMT:wcsncpy_s.obj
 0001:000200a9       __output_s_l               100210a9 f   LIBCMT:outputs.obj
 0001:00020d31       __output_p_l               10021d31 f   LIBCMT:outputp.obj
 0001:00022069       __validate_param_reuseA    10023069 f   LIBCMT:outputp.obj
 0001:0002219f       _get_crtdouble_arg         1002319f f i LIBCMT:outputp.obj
 0001:0002229e       __isatty                   1002329e f   LIBCMT:isatty.obj
 0001:000222f2       ___addlocaleref            100232f2 f   LIBCMT:localref.obj
 0001:00022387       ___freetlocinfo            10023387 f   LIBCMT:localref.obj
 0001:000224e1       ___removelocaleref         100234e1 f   LIBCMT:localref.obj
 0001:00022581       ___updatetlocinfo          10023581 f   LIBCMT:localref.obj
 0001:00022601       __updatetlocinfoEx_nolock  10023601 f   LIBCMT:localref.obj
 0001:0002264c       ___iswcsym                 1002364c f i LIBCMT:_wctype.obj
 0001:00022670       ___iswcsymf                10023670 f i LIBCMT:_wctype.obj
 0001:00022694       __isleadbyte_l             10023694 f i LIBCMT:_wctype.obj
 0001:000226ce       __iswalnum_l               100236ce f i LIBCMT:_wctype.obj
 0001:000226e2       __iswalpha_l               100236e2 f i LIBCMT:_wctype.obj
 0001:000226f6       __iswblank_l               100236f6 f i LIBCMT:_wctype.obj
 0001:00022711       __iswcntrl_l               10023711 f i LIBCMT:_wctype.obj
 0001:00022722       __iswcsym_l                10023722 f i LIBCMT:_wctype.obj
 0001:00022746       __iswcsymf_l               10023746 f i LIBCMT:_wctype.obj
 0001:0002276a       __iswdigit_l               1002376a f i LIBCMT:_wctype.obj
 0001:0002277b       __iswgraph_l               1002377b f i LIBCMT:_wctype.obj
 0001:0002278f       __iswlower_l               1002378f f i LIBCMT:_wctype.obj
 0001:000227a0       __iswprint_l               100237a0 f i LIBCMT:_wctype.obj
 0001:000227b4       __iswpunct_l               100237b4 f i LIBCMT:_wctype.obj
 0001:000227c5       __iswspace_l               100237c5 f i LIBCMT:_wctype.obj
 0001:000227d6       __iswupper_l               100237d6 f i LIBCMT:_wctype.obj
 0001:000227e7       __iswxdigit_l              100237e7 f i LIBCMT:_wctype.obj
 0001:000227fb       _isleadbyte                100237fb f i LIBCMT:_wctype.obj
 0001:0002280c       _iswalnum                  1002380c f i LIBCMT:_wctype.obj
 0001:00022820       _iswalpha                  10023820 f i LIBCMT:_wctype.obj
 0001:00022834       _iswascii                  10023834 f i LIBCMT:_wctype.obj
 0001:00022846       _iswblank                  10023846 f i LIBCMT:_wctype.obj
 0001:00022861       _iswcntrl                  10023861 f i LIBCMT:_wctype.obj
 0001:00022872       _iswdigit                  10023872 f i LIBCMT:_wctype.obj
 0001:00022883       _iswgraph                  10023883 f i LIBCMT:_wctype.obj
 0001:00022897       _iswlower                  10023897 f i LIBCMT:_wctype.obj
 0001:000228a8       _iswprint                  100238a8 f i LIBCMT:_wctype.obj
 0001:000228bc       _iswpunct                  100238bc f i LIBCMT:_wctype.obj
 0001:000228cd       _iswspace                  100238cd f i LIBCMT:_wctype.obj
 0001:000228de       _iswupper                  100238de f i LIBCMT:_wctype.obj
 0001:000228ef       _iswxdigit                 100238ef f i LIBCMT:_wctype.obj
 0001:00022903       __wctomb_l                 10023903 f   LIBCMT:wctomb.obj
 0001:00022952       __wctomb_s_l               10023952 f   LIBCMT:wctomb.obj
 0001:00022a76       _wctomb                    10023a76 f   LIBCMT:wctomb.obj
 0001:00022aa9       _wctomb_s                  10023aa9 f   LIBCMT:wctomb.obj
 0001:00022ad0       __aulldvrm                 10023ad0 f   LIBCMT:ulldvrm.obj
 0001:00022b65       __matherr                  10023b65 f   LIBCMT:matherr.obj
 0001:00022b68       __frnd                     10023b68 f   LIBCMT:frnd.obj
 0001:00022b7c       ___isascii                 10023b7c f i LIBCMT:_ctype.obj
 0001:00022b8c       ___iscsym                  10023b8c f i LIBCMT:_ctype.obj
 0001:00022bac       ___iscsymf                 10023bac f i LIBCMT:_ctype.obj
 0001:00022bc9       ___toascii                 10023bc9 f i LIBCMT:_ctype.obj
 0001:00022bd4       __isalnum_l                10023bd4 f i LIBCMT:_ctype.obj
 0001:00022c2c       __isalpha_l                10023c2c f i LIBCMT:_ctype.obj
 0001:00022c84       __isblank_l                10023c84 f i LIBCMT:_ctype.obj
 0001:00022cde       __iscntrl_l                10023cde f i LIBCMT:_ctype.obj
 0001:00022d30       __iscsym_l                 10023d30 f i LIBCMT:_ctype.obj
 0001:00022d51       __iscsymf_l                10023d51 f i LIBCMT:_ctype.obj
 0001:00022d72       __isdigit_l                10023d72 f i LIBCMT:_ctype.obj
 0001:00022dc4       __isgraph_l                10023dc4 f i LIBCMT:_ctype.obj
 0001:00022e1c       __islower_l                10023e1c f i LIBCMT:_ctype.obj
 0001:00022e6e       __isprint_l                10023e6e f i LIBCMT:_ctype.obj
 0001:00022ec6       __ispunct_l                10023ec6 f i LIBCMT:_ctype.obj
 0001:00022f18       __isspace_l                10023f18 f i LIBCMT:_ctype.obj
 0001:00022f6a       __isupper_l                10023f6a f i LIBCMT:_ctype.obj
 0001:00022fbc       __isxdigit_l               10023fbc f i LIBCMT:_ctype.obj
 0001:00023014       _isalnum                   10024014 f i LIBCMT:_ctype.obj
 0001:00023041       _isalpha                   10024041 f i LIBCMT:_ctype.obj
 0001:0002306e       _isblank                   1002406e f i LIBCMT:_ctype.obj
 0001:000230a3       _iscntrl                   100240a3 f i LIBCMT:_ctype.obj
 0001:000230ce       _isdigit                   100240ce f i LIBCMT:_ctype.obj
 0001:000230f9       _isgraph                   100240f9 f i LIBCMT:_ctype.obj
 0001:00023126       _islower                   10024126 f i LIBCMT:_ctype.obj
 0001:00023151       _isprint                   10024151 f i LIBCMT:_ctype.obj
 0001:0002317e       _ispunct                   1002417e f i LIBCMT:_ctype.obj
 0001:000231a9       _isspace                   100241a9 f i LIBCMT:_ctype.obj
 0001:000231d4       _isupper                   100241d4 f i LIBCMT:_ctype.obj
 0001:000231ff       _isxdigit                  100241ff f i LIBCMT:_ctype.obj
 0001:0002322c       __tolower                  1002422c f   LIBCMT:tolower.obj
 0001:00023237       __tolower_l                10024237 f   LIBCMT:tolower.obj
 0001:0002337a       _tolower                   1002437a f   LIBCMT:tolower.obj
 0001:000233a6       _strcpy_s                  100243a6 f   LIBCMT:strcpy_s.obj
 0001:00023400       _strrchr                   10024400 f   LIBCMT:strrchr.obj
 0001:00023537       __fptostr                  10024537 f   LIBCMT:_fptostr.obj
 0001:000235e7       ___crt_atoflt_l            100245e7 f   LIBCMT:atodbl.obj
 0001:0002368b       __atodbl                   1002468b f   LIBCMT:atodbl.obj
 0001:000236a0       __atodbl_l                 100246a0 f   LIBCMT:atodbl.obj
 0001:0002372e       __atoflt                   1002472e f   LIBCMT:atodbl.obj
 0001:00023743       __atoflt_l                 10024743 f   LIBCMT:atodbl.obj
 0001:0002375b       __atoldbl                  1002475b f   LIBCMT:atodbl.obj
 0001:00023770       __atoldbl_l                10024770 f   LIBCMT:atodbl.obj
 0001:000237ff       ___dtold                   100247ff f   LIBCMT:cfout.obj
 0001:000238c7       __fltout2                  100248c7 f   LIBCMT:cfout.obj
 0001:00023960       __alldvrm                  10024960 f   LIBCMT:lldvrm.obj
 0001:00023a40       __aullshr                  10024a40 f   LIBCMT:ullshr.obj
 0001:00023a5f       __get_output_format        10024a5f f   LIBCMT:outputformat.obj
 0001:00023a65       __set_output_format        10024a65 f   LIBCMT:outputformat.obj
 0001:00023a97       __controlfp_s              10024a97 f   LIBCMT:contrlfp.obj
 0001:00023af4       __fptrap                   10024af4 f   LIBCMT:crt0fp.obj
 0001:00023afd       __msize                    10024afd f   LIBCMT:msize.obj
 0001:00023b2e       __recalloc                 10024b2e f   LIBCMT:recalloc.obj
 0001:00023b97       _strncpy_s                 10024b97 f   LIBCMT:strncpy_s.obj
 0001:00023d1f       __MallocaIsSizeInRange     10024d1f f i LIBCMT:a_loc.obj
 0001:00023d30       __MarkAllocaS              10024d30 f i LIBCMT:a_loc.obj
 0001:00023d44       ___crtGetLocaleInfoA       10024d44 f   LIBCMT:a_loc.obj
 0001:00023d7e       __freea                    10024d7e f i LIBCMT:a_loc.obj
 0001:00023d9c       _GetTableIndexFromLcid     10024d9c f   LIBCMT:winapinls.obj
 0001:00023dd1       _GetTableIndexFromLocaleName 10024dd1 f   LIBCMT:winapinls.obj
 0001:00023e1f       ___crtCompareStringEx      10024e1f f   LIBCMT:winapinls.obj
 0001:00023e6b       ___crtDownlevelLCIDToLocaleName 10024e6b f   LIBCMT:winapinls.obj
 0001:00023ee7       ___crtDownlevelLocaleNameToLCID 10024ee7 f   LIBCMT:winapinls.obj
 0001:00023f25       ___crtEnumSystemLocalesEx  10024f25 f   LIBCMT:winapinls.obj
 0001:00023f62       ___crtGetDateFormatEx      10024f62 f   LIBCMT:winapinls.obj
 0001:00023fab       ___crtGetLocaleInfoEx      10024fab f   LIBCMT:winapinls.obj
 0001:00023fda       ___crtGetTimeFormatEx      10024fda f   LIBCMT:winapinls.obj
 0001:0002400f       ___crtGetUserDefaultLocaleName 1002500f f   LIBCMT:winapinls.obj
 0001:0002403a       ___crtIsValidLocaleName    1002503a f   LIBCMT:winapinls.obj
 0001:00024065       ___crtLCMapStringEx        10025065 f   LIBCMT:winapinls.obj
 0001:000240b1       ___wcsnicmp_ascii          100250b1 f   LIBCMT:winapinls.obj
 0001:00024343       ___crtLCMapStringA         10025343 f   LIBCMT:a_map.obj
 0001:00024481       ___crtGetStringTypeA       10025481 f   LIBCMT:a_str.obj
 0001:000244c1       __commit                   100254c1 f   LIBCMT:commit.obj
 0001:000245aa       ___lock_fhandle            100255aa f   LIBCMT:osfinfo.obj
 0001:00024638       __alloc_osfhnd             10025638 f   LIBCMT:osfinfo.obj
 0001:000247e1       __free_osfhnd              100257e1 f   LIBCMT:osfinfo.obj
 0001:00024867       __get_osfhandle            10025867 f   LIBCMT:osfinfo.obj
 0001:000248ce       __open_osfhandle           100258ce f   LIBCMT:osfinfo.obj
 0001:000249e4       __set_osfhnd               100259e4 f   LIBCMT:osfinfo.obj
 0001:00024a66       __unlock_fhandle           10025a66 f   LIBCMT:osfinfo.obj
 0001:00024a8c       __open                     10025a8c f   LIBCMT:open.obj
 0001:00024b3c       __sopen                    10025b3c f   LIBCMT:open.obj
 0001:00024b6f       __sopen_helper             10025b6f f   LIBCMT:open.obj
 0001:00024c38       __sopen_nolock             10025c38 f   LIBCMT:open.obj
 0001:00024c86       __sopen_s                  10025c86 f   LIBCMT:open.obj
 0001:00024ca4       __mbsnbcmp                 10025ca4 f   LIBCMT:mbsnbcmp.obj
 0001:00024cbc       __mbsnbcmp_l               10025cbc f   LIBCMT:mbsnbcmp.obj
 0001:00024dd3       __mbsnbicmp                10025dd3 f   LIBCMT:mbsnbicm.obj
 0001:00024deb       __mbsnbicmp_l              10025deb f   LIBCMT:mbsnbicm.obj
 0001:00024fb0       __global_unwind2           10025fb0 f   LIBCMT:exsup.obj
 0001:00025015       __local_unwind2            10026015 f   LIBCMT:exsup.obj
 0001:00025099       __abnormal_termination     10026099 f   LIBCMT:exsup.obj
 0001:000250bc       __NLG_Notify1              100260bc f   LIBCMT:exsup.obj
 0001:000250c5       __NLG_Notify               100260c5 f   LIBCMT:exsup.obj
 0001:000250dc       __NLG_Dispatch2            100260dc     LIBCMT:exsup.obj
 0001:000250dc       __NLG_Dispatch             100260dc     LIBCMT:exsup.obj
 0001:000250e4       __NLG_Call                 100260e4 f   LIBCMT:exsup.obj
 0001:000250e6       __NLG_Return2              100260e6     LIBCMT:exsup.obj
 0001:000250e7       __getbuf                   100260e7 f   LIBCMT:_getbuf.obj
 0001:0002512d       __lseeki64                 1002612d f   LIBCMT:lseeki64.obj
 0001:00025229       __lseeki64_nolock          10026229 f   LIBCMT:lseeki64.obj
 0001:0002529c       __mbtowc_l                 1002629c f   LIBCMT:mbtowc.obj
 0001:00025391       _mbtowc                    10026391 f   LIBCMT:mbtowc.obj
 0001:000253a9       __putwch                   100263a9 f   LIBCMT:putwch.obj
 0001:000253f5       __putwch_nolock            100263f5 f   LIBCMT:putwch.obj
 0001:00025440       __alloca_probe             10026440 f   LIBCMT:chkstk.obj
 0001:00025440       __chkstk                   10026440 f   LIBCMT:chkstk.obj
 0001:0002546b       __vfwprintf_l              1002646b f   LIBCMT:vfwprint.obj
 0001:00025489       __vfwprintf_p              10026489 f   LIBCMT:vfwprint.obj
 0001:000254a6       __vfwprintf_p_l            100264a6 f   LIBCMT:vfwprint.obj
 0001:000254c4       __vfwprintf_s_l            100264c4 f   LIBCMT:vfwprint.obj
 0001:000254e2       _vfwprintf                 100264e2 f   LIBCMT:vfwprint.obj
 0001:000254ff       _vfwprintf_helper          100264ff f   LIBCMT:vfwprint.obj
 0001:00025592       _vfwprintf_s               10026592 f   LIBCMT:vfwprint.obj
 0001:000255af       __woutput_l                100265af f   LIBCMT:woutput.obj
 0001:0002628e       __woutput_s_l              1002728e f   LIBCMT:woutputs.obj
 0001:00026fa5       __validate_param_reuseW    10027fa5 f   LIBCMT:woutputp.obj
 0001:0002711d       __woutput_p_l              1002811d f   LIBCMT:woutputp.obj
 0001:00028546       __ismbbalnum               10029546 f   LIBCMT:ismbbyte.obj
 0001:0002855f       __ismbbalnum_l             1002955f f   LIBCMT:ismbbyte.obj
 0001:00028579       __ismbbalpha               10029579 f   LIBCMT:ismbbyte.obj
 0001:00028592       __ismbbalpha_l             10029592 f   LIBCMT:ismbbyte.obj
 0001:000285ac       __ismbbblank               100295ac f   LIBCMT:ismbbyte.obj
 0001:000285cd       __ismbbblank_l             100295cd f   LIBCMT:ismbbyte.obj
 0001:000285ef       __ismbbgraph               100295ef f   LIBCMT:ismbbyte.obj
 0001:00028608       __ismbbgraph_l             10029608 f   LIBCMT:ismbbyte.obj
 0001:00028622       __ismbbkalnum              10029622 f   LIBCMT:ismbbyte.obj
 0001:00028638       __ismbbkalnum_l            10029638 f   LIBCMT:ismbbyte.obj
 0001:0002864f       __ismbbkana                1002964f f   LIBCMT:ismbbyte.obj
 0001:00028660       __ismbbkana_l              10029660 f   LIBCMT:ismbbyte.obj
 0001:000286ac       __ismbbkprint              100296ac f   LIBCMT:ismbbyte.obj
 0001:000286c2       __ismbbkprint_l            100296c2 f   LIBCMT:ismbbyte.obj
 0001:000286d9       __ismbbkpunct              100296d9 f   LIBCMT:ismbbyte.obj
 0001:000286ef       __ismbbkpunct_l            100296ef f   LIBCMT:ismbbyte.obj
 0001:00028706       __ismbblead                10029706 f   LIBCMT:ismbbyte.obj
 0001:0002871c       __ismbblead_l              1002971c f   LIBCMT:ismbbyte.obj
 0001:00028733       __ismbbprint               10029733 f   LIBCMT:ismbbyte.obj
 0001:0002874c       __ismbbprint_l             1002974c f   LIBCMT:ismbbyte.obj
 0001:00028766       __ismbbpunct               10029766 f   LIBCMT:ismbbyte.obj
 0001:0002877c       __ismbbpunct_l             1002977c f   LIBCMT:ismbbyte.obj
 0001:00028793       __ismbbtrail               10029793 f   LIBCMT:ismbbyte.obj
 0001:000287a9       __ismbbtrail_l             100297a9 f   LIBCMT:ismbbyte.obj
 0001:000289e6       __strtol_l                 100299e6 f   LIBCMT:strtol.obj
 0001:00028a01       __strtoul_l                10029a01 f   LIBCMT:strtol.obj
 0001:00028a1c       _strtol                    10029a1c f   LIBCMT:strtol.obj
 0001:00028a46       _strtoul                   10029a46 f   LIBCMT:strtol.obj
 0001:00028a70       ___free_lconv_mon          10029a70 f   LIBCMT:initmon.obj
 0001:00028b6c       ___init_monetary           10029b6c f   LIBCMT:initmon.obj
 0001:00028f45       ___free_lconv_num          10029f45 f   LIBCMT:initnum.obj
 0001:00028fac       ___init_numeric            10029fac f   LIBCMT:initnum.obj
 0001:000291ea       ___free_lc_time            1002a1ea f   LIBCMT:inittime.obj
 0001:0002956a       ___init_time               1002a56a f   LIBCMT:inittime.obj
 0001:00029dd9       _localeconv                1002add9 f   LIBCMT:lconv.obj
 0001:00029dff       __iswctype_l               1002adff f   LIBCMT:iswctype.obj
 0001:00029e11       _is_wctype                 1002ae11 f   LIBCMT:iswctype.obj
 0001:00029e1a       _iswctype                  1002ae1a f   LIBCMT:iswctype.obj
 0001:00029e70       ____lc_codepage_func       1002ae70 f   LIBCMT:initctyp.obj
 0001:00029e96       ____lc_collate_cp_func     1002ae96 f   LIBCMT:initctyp.obj
 0001:00029ebc       ____lc_locale_name_func    1002aebc f   LIBCMT:initctyp.obj
 0001:00029ee4       ____mb_cur_max_func        1002aee4 f   LIBCMT:initctyp.obj
 0001:00029f0a       ____mb_cur_max_l_func      1002af0a f   LIBCMT:initctyp.obj
 0001:00029f21       ___init_ctype              1002af21 f   LIBCMT:initctyp.obj
 0001:0002a2b9       ___pctype_func             1002b2b9 f   LIBCMT:ctype.obj
 0001:0002a2e2       ___pwctype_func            1002b2e2 f   LIBCMT:ctype.obj
 0001:0002a2e8       __isctype                  1002b2e8 f   LIBCMT:isctype.obj
 0001:0002a317       __isctype_l                1002b317 f   LIBCMT:isctype.obj
 0001:0002a3c8       ___init_dummy              1002b3c8 f   LIBCMT:wsetloca.obj
 0001:0002a3cb       __locterm                  1002b3cb f   LIBCMT:wsetloca.obj
 0001:0002a41d       ____setlc_active_func      1002b41d f   LIBCMT:wsetloca.obj
 0001:0002a423       ____unguarded_readlc_active_add_func 1002b423 f   LIBCMT:wsetloca.obj
 0001:0002a429       ___copy_locale_name        1002b429 f   LIBCMT:wsetloca.obj
 0001:0002a48d       ___create_locale           1002b48d f   LIBCMT:wsetloca.obj
 0001:0002a496       ___free_locale             1002b496 f   LIBCMT:wsetloca.obj
 0001:0002a49b       ___get_current_locale      1002b49b f   LIBCMT:wsetloca.obj
 0001:0002a4a0       ___lc_lctowcs              1002b4a0 f   LIBCMT:wsetloca.obj
 0001:0002a50e       ___lc_wcstolc              1002b50e f   LIBCMT:wsetloca.obj
 0001:0002a63a       __configthreadlocale       1002b63a f   LIBCMT:wsetloca.obj
 0001:0002a6c0       __create_locale            1002b6c0 f   LIBCMT:wsetloca.obj
 0001:0002a722       __expandlocale             1002b722 f   LIBCMT:wsetloca.obj
 0001:0002aa19       __free_locale              1002ba19 f   LIBCMT:wsetloca.obj
 0001:0002aad0       __get_current_locale       1002bad0 f   LIBCMT:wsetloca.obj
 0001:0002ab7f       __wcreate_locale           1002bb7f f   LIBCMT:wsetloca.obj
 0001:0002ac56       __wcscats                  1002bc56 f   LIBCMT:wsetloca.obj
 0001:0002ac95       __wsetlocale               1002bc95 f   LIBCMT:wsetloca.obj
 0001:0002b5d7       __CopyMan                  1002c5d7 f i LIBCMT:intrncvt.obj
 0001:0002b5f4       __FillZeroMan              1002c5f4 f i LIBCMT:intrncvt.obj
 0001:0002b603       __IncMan                   1002c603 f i LIBCMT:intrncvt.obj
 0001:0002b665       __IsZeroMan                1002c665 f i LIBCMT:intrncvt.obj
 0001:0002b682       __RoundMan                 1002c682 f i LIBCMT:intrncvt.obj
 0001:0002b783       __ShrMan                   1002c783 f i LIBCMT:intrncvt.obj
 0001:0002b811       __ZeroTail                 1002c811 f i LIBCMT:intrncvt.obj
 0001:0002b859       ___addl                    1002c859 f i LIBCMT:intrncvt.obj
 0001:0002b87d       __ld12cvt                  1002c87d f i LIBCMT:intrncvt.obj
 0001:0002bde8       __ld12tod                  1002cde8 f   LIBCMT:intrncvt.obj
 0001:0002c35a       __ld12tof                  1002d35a f   LIBCMT:intrncvt.obj
 0001:0002c8cc       __ld12told                 1002d8cc f   LIBCMT:intrncvt.obj
 0001:0002c99b       ___STRINGTOLD_L            1002d99b f   LIBCMT:strgtold.obj
 0001:0002c9f6       ___ld12mul                 1002d9f6 f i LIBCMT:strgtold.obj
 0001:0002ccc2       ___multtenpow12            1002dcc2 f i LIBCMT:strgtold.obj
 0001:0002d015       ___shl_12                  1002e015 f i LIBCMT:strgtold.obj
 0001:0002d046       ___shr_12                  1002e046 f i LIBCMT:strgtold.obj
 0001:0002d076       ___strgtold12_l            1002e076 f   LIBCMT:strgtold.obj
 0001:0002d81e       _$I10_OUTPUT               1002e81e f   LIBCMT:x10fout.obj
 0001:0002e1f2       ___add_12                  1002f1f2 f i LIBCMT:x10fout.obj
 0001:0002e39e       ___control87_2             1002f39e f   LIBCMT:ieee87.obj
 0001:0002ea12       __clearfp                  1002fa12 f   LIBCMT:ieee87.obj
 0001:0002eaf2       __control87                1002faf2 f i LIBCMT:ieee87.obj
 0001:0002edf4       __controlfp                1002fdf4 f   LIBCMT:ieee87.obj
 0001:0002f0ff       __fpreset                  100300ff f   LIBCMT:ieee87.obj
 0001:0002f1cc       __set_controlfp            100301cc f   LIBCMT:ieee87.obj
 0001:0002f23f       __statusfp                 1003023f f   LIBCMT:ieee87.obj
 0001:0002f2d9       __statusfp2                100302d9 f   LIBCMT:ieee87.obj
 0001:0002f340       __alloca_probe_16          10030340 f   LIBCMT:alloca16.obj
 0001:0002f356       __alloca_probe_8           10030356     LIBCMT:alloca16.obj
 0001:0002f36c       _wcsnlen                   1003036c f   LIBCMT:wcslen_s.obj
 0001:0002f413       __wopen                    10030413 f   LIBCMT:wopen.obj
 0001:0002f4c3       __wsopen                   100304c3 f   LIBCMT:wopen.obj
 0001:0002f4f6       __wsopen_helper            100304f6 f   LIBCMT:wopen.obj
 0001:0002f5bf       __wsopen_nolock            100305bf f   LIBCMT:wopen.obj
 0001:0002fd12       __wsopen_s                 10030d12 f   LIBCMT:wopen.obj
 0001:0002fd30       _strncmp                   10030d30 f   LIBCMT:strncmp.obj
 0001:0002fda8       __strnicmp                 10030da8 f   LIBCMT:strnicmp.obj
 0001:0002fe13       __strnicmp_l               10030e13 f   LIBCMT:strnicmp.obj
 0001:0002fec4       ___termconout              10030ec4 f   LIBCMT:initcon.obj
 0001:0002fedb       ___initconout              10030edb f   LIBCMT:initcon.obj
 0001:0002fefa       __fputwc_nolock            10030efa f   LIBCMT:fputwc.obj
 0001:00030080       _fputwc                    10031080 f   LIBCMT:fputwc.obj
 0001:000300f7       _putwc                     100310f7 f   LIBCMT:fputwc.obj
 0001:000302e1       __wcstol_l                 100312e1 f   LIBCMT:wcstol.obj
 0001:000302f9       __wcstoul_l                100312f9 f   LIBCMT:wcstol.obj
 0001:00030311       _wcstol                    10031311 f   LIBCMT:wcstol.obj
 0001:00030329       _wcstoul                   10031329 f   LIBCMT:wcstol.obj
 0001:00030341       ___init_collate            10031341 f   LIBCMT:initcoll.obj
 0001:00030461       _memcmp                    10031461 f   LIBCMT:memcmp.obj
 0001:00033375       _wcscmp                    10034375 f   LIBCMT:wcscmp.obj
 0001:000333b3       _wcscspn                   100343b3 f   LIBCMT:wcscspn.obj
 0001:000333fe       _wcsncmp                   100343fe f   LIBCMT:wcsncmp.obj
 0001:00033434       _wcspbrk                   10034434 f   LIBCMT:wcspbrk.obj
 0001:00033a38       ___get_qualified_locale    10034a38 f   LIBCMT:getqloc.obj
 0001:000342a8       ___get_qualified_locale_downlevel 100352a8 f   LIBCMT:getqloc_downlevel.obj
 0001:000344c4       ___mtold12                 100354c4 f   LIBCMT:mantold.obj
 0001:000346a4       __chsize                   100356a4 f   LIBCMT:chsize.obj
 0001:000346be       __chsize_nolock            100356be f   LIBCMT:chsize.obj
 0001:00034874       __chsize_s                 10035874 f   LIBCMT:chsize.obj
 0001:00034962       __get_fmode                10035962 f   LIBCMT:setmode.obj
 0001:0003498c       __set_fmode                1003598c f   LIBCMT:setmode.obj
 0001:000349c7       __setmode                  100359c7 f   LIBCMT:setmode.obj
 0001:00034acc       __setmode_nolock           10035acc f   LIBCMT:setmode.obj
 0001:00034ba0       ___ascii_strnicmp          10035ba0 f   LIBCMT:_strnicm.obj
 0001:00034c01       __flswbuf                  10035c01 f   LIBCMT:_flswbuf.obj
 0001:00034d63       __wchartodigit             10035d63 f   LIBCMT:wchtodig.obj
 0001:00034f02       __wtoi                     10035f02 f   LIBCMT:wtox.obj
 0001:00034f0b       __wtoi64                   10035f0b f   LIBCMT:wtox.obj
 0001:00034f1f       __wtoi64_l                 10035f1f f   LIBCMT:wtox.obj
 0001:00034f36       __wtoi_l                   10035f36 f   LIBCMT:wtox.obj
 0001:00034f3f       __wtol                     10035f3f f   LIBCMT:wtox.obj
 0001:00034f53       __wtol_l                   10035f53 f   LIBCMT:wtox.obj
 0001:00034f6a       __wtoll                    10035f6a f   LIBCMT:wtox.obj
 0001:00034f7e       __wtoll_l                  10035f7e f   LIBCMT:wtox.obj
 0001:00034f95       _wcschr                    10035f95 f   LIBCMT:wcschr.obj
 0001:00035043       __wcsicmp                  10036043 f   LIBCMT:wcsicmp.obj
 0001:000350d6       __wcsicmp_l                100360d6 f   LIBCMT:wcsicmp.obj
 0001:000351b1       __wcsnicmp                 100361b1 f   LIBCMT:wcsnicmp.obj
 0001:00035267       __wcsnicmp_l               10036267 f   LIBCMT:wcsnicmp.obj
 0001:00035630       __wcstof_l                 10036630 f   LIBCMT:wcstoq.obj
 0001:000356e3       __wcstoi64                 100366e3 f   LIBCMT:wcstoq.obj
 0001:0003570d       __wcstoi64_l               1003670d f   LIBCMT:wcstoq.obj
 0001:00035728       __wcstoimax_l              10036728 f   LIBCMT:wcstoq.obj
 0001:00035731       __wcstold_l                10036731 f   LIBCMT:wcstoq.obj
 0001:0003573a       __wcstoll_l                1003673a f   LIBCMT:wcstoq.obj
 0001:00035743       __wcstoui64                10036743 f   LIBCMT:wcstoq.obj
 0001:0003576d       __wcstoui64_l              1003676d f   LIBCMT:wcstoq.obj
 0001:00035788       __wcstoull_l               10036788 f   LIBCMT:wcstoq.obj
 0001:00035791       __wcstoumax_l              10036791 f   LIBCMT:wcstoq.obj
 0001:0003579a       _wcstof                    1003679a f   LIBCMT:wcstoq.obj
 0001:000357af       _wcstoimax                 100367af f   LIBCMT:wcstoq.obj
 0001:000357b8       _wcstold                   100367b8 f   LIBCMT:wcstoq.obj
 0001:000357c1       _wcstoll                   100367c1 f   LIBCMT:wcstoq.obj
 0001:000357ca       _wcstoull                  100367ca f   LIBCMT:wcstoq.obj
 0001:000357d3       _wcstoumax                 100367d3 f   LIBCMT:wcstoq.obj
 0001:000357dc       __towlower_l               100367dc f   LIBCMT:towlower.obj
 0001:0003588d       _towlower                  1003688d f   LIBCMT:towlower.obj
 0001:0003589e       __wcstod_l                 1003689e f   LIBCMT:wcstod.obj
 0001:00035999       _wcstod                    10036999 f   LIBCMT:wcstod.obj
 0001:000359b0       __allmul                   100369b0 f   LIBCMT:llmul.obj
 0001:000359e4       ___crtLCMapStringW         100369e4 f   LIBCMT:w_map.obj
 0001:00035a13       __wfltin2                  10036a13 f   LIBCMT:wcfin.obj
 0001:00035ac0       ___WSTRINGTOLD_L           10036ac0 f   LIBCMT:wstrgtold.obj
 0001:00035b1b       ___wstrgtold12_l           10036b1b f   LIBCMT:wstrgtold.obj
 0001:0003636c       _GetModuleHandleA@4        1003736c f   kernel32:KERNEL32.dll
 0001:00036372       _GetProcAddress@8          10037372 f   kernel32:KERNEL32.dll
 0001:00036378       _HeapAlloc@12              10037378 f   kernel32:KERNEL32.dll
 0001:0003637e       _IsDebuggerPresent@0       1003737e f   kernel32:KERNEL32.dll
 0001:00036384       _IsProcessorFeaturePresent@4 10037384 f   kernel32:KERNEL32.dll
 0001:0003638a       _EncodePointer@4           1003738a f   kernel32:KERNEL32.dll
 0001:00036390       _DecodePointer@4           10037390 f   kernel32:KERNEL32.dll
 0001:00036396       _GetLastError@0            10037396 f   kernel32:KERNEL32.dll
 0001:0003639c       _ExitProcess@4             1003739c f   kernel32:KERNEL32.dll
 0001:000363a2       _GetModuleHandleExW@12     100373a2 f   kernel32:KERNEL32.dll
 0001:000363a8       _AreFileApisANSI@0         100373a8 f   kernel32:KERNEL32.dll
 0001:000363ae       _MultiByteToWideChar@24    100373ae f   kernel32:KERNEL32.dll
 0001:000363b4       _WideCharToMultiByte@32    100373b4 f   kernel32:KERNEL32.dll
 0001:000363ba       _HeapFree@12               100373ba f   kernel32:KERNEL32.dll
 0001:000363c0       _HeapReAlloc@16            100373c0 f   kernel32:KERNEL32.dll
 0001:000363c6       _EnterCriticalSection@4    100373c6 f   kernel32:KERNEL32.dll
 0001:000363cc       _LeaveCriticalSection@4    100373cc f   kernel32:KERNEL32.dll
 0001:000363d2       _GetStdHandle@4            100373d2 f   kernel32:KERNEL32.dll
 0001:000363d8       _GetFileType@4             100373d8 f   kernel32:KERNEL32.dll
 0001:000363de       _GetModuleFileNameW@12     100373de f   kernel32:KERNEL32.dll
 0001:000363e4       _WriteConsoleW@20          100373e4 f   kernel32:KERNEL32.dll
 0001:000363ea       _GetCommandLineA@0         100373ea f   kernel32:KERNEL32.dll
 0001:000363f0       _GetCurrentThreadId@0      100373f0 f   kernel32:KERNEL32.dll
 0001:000363f6       _WriteFile@20              100373f6 f   kernel32:KERNEL32.dll
 0001:000363fc       _GetProcessHeap@0          100373fc f   kernel32:KERNEL32.dll
 0001:00036402       _UnhandledExceptionFilter@4 10037402 f   kernel32:KERNEL32.dll
 0001:00036408       _SetUnhandledExceptionFilter@4 10037408 f   kernel32:KERNEL32.dll
 0001:0003640e       _SetLastError@4            1003740e f   kernel32:KERNEL32.dll
 0001:00036414       _InitializeCriticalSectionAndSpinCount@8 10037414 f   kernel32:KERNEL32.dll
 0001:0003641a       _CreateEventW@16           1003741a f   kernel32:KERNEL32.dll
 0001:00036420       _Sleep@4                   10037420 f   kernel32:KERNEL32.dll
 0001:00036426       _GetCurrentProcess@0       10037426 f   kernel32:KERNEL32.dll
 0001:0003642c       _TerminateProcess@8        1003742c f   kernel32:KERNEL32.dll
 0001:00036432       _TlsAlloc@0                10037432 f   kernel32:KERNEL32.dll
 0001:00036438       _TlsGetValue@4             10037438 f   kernel32:KERNEL32.dll
 0001:0003643e       _TlsSetValue@8             1003743e f   kernel32:KERNEL32.dll
 0001:00036444       _TlsFree@4                 10037444 f   kernel32:KERNEL32.dll
 0001:0003644a       _GetStartupInfoW@4         1003744a f   kernel32:KERNEL32.dll
 0001:00036450       _GetTickCount@0            10037450 f   kernel32:KERNEL32.dll
 0001:00036456       _GetModuleHandleW@4        10037456 f   kernel32:KERNEL32.dll
 0001:0003645c       _CreateSemaphoreW@16       1003745c f   kernel32:KERNEL32.dll
 0001:00036462       _DeleteCriticalSection@4   10037462 f   kernel32:KERNEL32.dll
 0001:00036468       _FatalAppExitA@8           10037468 f   kernel32:KERNEL32.dll
 0001:0003646e       _SetConsoleCtrlHandler@8   1003746e f   kernel32:KERNEL32.dll
 0001:00036474       _FreeLibrary@4             10037474 f   kernel32:KERNEL32.dll
 0001:0003647a       _LoadLibraryExW@12         1003747a f   kernel32:KERNEL32.dll
 0001:00036480       _IsValidCodePage@4         10037480 f   kernel32:KERNEL32.dll
 0001:00036486       _GetACP@0                  10037486 f   kernel32:KERNEL32.dll
 0001:0003648c       _GetOEMCP@0                1003748c f   kernel32:KERNEL32.dll
 0001:00036492       _GetCPInfo@8               10037492 f   kernel32:KERNEL32.dll
 0001:00036498       _CloseHandle@4             10037498 f   kernel32:KERNEL32.dll
 0001:0003649e       _RtlUnwind@16              1003749e f   kernel32:KERNEL32.dll
 0001:000364a4       _ReadFile@20               100374a4 f   kernel32:KERNEL32.dll
 0001:000364aa       _GetConsoleMode@8          100374aa f   kernel32:KERNEL32.dll
 0001:000364b0       _ReadConsoleW@20           100374b0 f   kernel32:KERNEL32.dll
 0001:000364b6       _GetConsoleCP@0            100374b6 f   kernel32:KERNEL32.dll
 0001:000364bc       _DeleteFileW@4             100374bc f   kernel32:KERNEL32.dll
 0001:000364c2       _SetFilePointerEx@20       100374c2 f   kernel32:KERNEL32.dll
 0001:000364c8       _RaiseException@16         100374c8 f   kernel32:KERNEL32.dll
 0001:000364ce       _OutputDebugStringW@4      100374ce f   kernel32:KERNEL32.dll
 0001:000364d4       _GetCurrentThread@0        100374d4 f   kernel32:KERNEL32.dll
 0001:000364da       _GetModuleFileNameA@12     100374da f   kernel32:KERNEL32.dll
 0001:000364e0       _QueryPerformanceCounter@4 100374e0 f   kernel32:KERNEL32.dll
 0001:000364e6       _GetCurrentProcessId@0     100374e6 f   kernel32:KERNEL32.dll
 0001:000364ec       _GetSystemTimeAsFileTime@4 100374ec f   kernel32:KERNEL32.dll
 0001:000364f2       _GetEnvironmentStringsW@0  100374f2 f   kernel32:KERNEL32.dll
 0001:000364f8       _FreeEnvironmentStringsW@4 100374f8 f   kernel32:KERNEL32.dll
 0001:000364fe       _HeapSize@12               100374fe f   kernel32:KERNEL32.dll
 0001:00036504       _GetDateFormatW@24         10037504 f   kernel32:KERNEL32.dll
 0001:0003650a       _GetTimeFormatW@24         1003750a f   kernel32:KERNEL32.dll
 0001:00036510       _CompareStringW@24         10037510 f   kernel32:KERNEL32.dll
 0001:00036516       _LCMapStringW@24           10037516 f   kernel32:KERNEL32.dll
 0001:0003651c       _GetLocaleInfoW@16         1003751c f   kernel32:KERNEL32.dll
 0001:00036522       _IsValidLocale@8           10037522 f   kernel32:KERNEL32.dll
 0001:00036528       _GetUserDefaultLCID@0      10037528 f   kernel32:KERNEL32.dll
 0001:0003652e       _EnumSystemLocalesW@8      1003752e f   kernel32:KERNEL32.dll
 0001:00036534       _GetStringTypeW@16         10037534 f   kernel32:KERNEL32.dll
 0001:0003653a       _FlushFileBuffers@4        1003753a f   kernel32:KERNEL32.dll
 0001:00036540       _SetStdHandle@8            10037540 f   kernel32:KERNEL32.dll
 0001:00036546       _CreateFileW@28            10037546 f   kernel32:KERNEL32.dll
 0001:0003654c       _SetEndOfFile@4            1003754c f   kernel32:KERNEL32.dll
 0002:00000000       ___xc_a                    10042000     LIBCMT:crt0init.obj
 0002:00000104       ___xc_z                    10042104     LIBCMT:crt0init.obj
 0002:00000208       ___xi_a                    10042208     LIBCMT:crt0init.obj
 0002:00000424       ___xi_z                    10042424     LIBCMT:crt0init.obj
 0002:00000528       ___xp_a                    10042528     LIBCMT:crt0init.obj
 0002:0000083c       ___xp_z                    1004283c     LIBCMT:crt0init.obj
 0002:00000940       ___xt_a                    10042940     LIBCMT:crt0init.obj
 0002:00000a44       ___xt_z                    10042a44     LIBCMT:crt0init.obj
 0002:00000b88       _FingerStrokeAssistance_M  10042b88     FingerStrokeAssistance.obj
 0002:00000b8c       ??_C@_0BI@PBFPDHLE@Error?5creating?5scope?54?6?$AA@ 10042b8c     FingerStrokeAssistance.obj
 0002:00000ba8       ??_C@_0BG@FLOHFMFJ@MATLAB?5Function?1p2?1s2?$AA@ 10042ba8     FingerStrokeAssistance.obj
 0002:00000bc4       ??_C@_0DB@ENPBKHPM@Robot?1account?5for?5handedness1?1MA@ 10042bc4     FingerStrokeAssistance.obj
 0002:00000c00       ??_C@_0O@CAPLFIJB@Robot?1Gain?1s2?$AA@ 10042c00     FingerStrokeAssistance.obj
 0002:00000c10       ??_C@_0BG@JDAHNDCJ@MATLAB?5Function?1p7?1s2?$AA@ 10042c10     FingerStrokeAssistance.obj
 0002:00000c2c       ??_C@_0N@NDALLKN@Robot?1Sum?1s2?$AA@ 10042c2c     FingerStrokeAssistance.obj
 0002:00000c3c       ??_C@_0O@DNKOCOOP@f_ref2?3?$CF15?46f?$AA@ 10042c3c     FingerStrokeAssistance.obj
 0002:00000c4c       ??_C@_0BA@BAONOGED@enc_raw2?3?$CF15?46f?$AA@ 10042c4c     FingerStrokeAssistance.obj
 0002:00000c60       ??_C@_0BB@NKMEAAFC@enc_norm2?3?$CF15?46f?$AA@ 10042c60     FingerStrokeAssistance.obj
 0002:00000c74       ??_C@_0BB@GFJCGJHB@pos_ref_2?3?$CF15?46f?$AA@ 10042c74     FingerStrokeAssistance.obj
 0002:00000c88       ??_C@_0BC@IDGACA@pos_meas_2?3?$CF15?46f?$AA@ 10042c88     FingerStrokeAssistance.obj
 0002:00000ca0       ??_C@_0BI@PEBACBDB@Error?5creating?5scope?53?6?$AA@ 10042ca0     FingerStrokeAssistance.obj
 0002:00000cbc       ??_C@_0BG@HAMKAPJK@MATLAB?5Function?1p2?1s1?$AA@ 10042cbc     FingerStrokeAssistance.obj
 0002:00000cd8       ??_C@_0DB@GGNMPEDP@Robot?1account?5for?5handedness1?1MA@ 10042cd8     FingerStrokeAssistance.obj
 0002:00000d14       ??_C@_0O@LNGALFC@Robot?1Gain?1s1?$AA@ 10042d14     FingerStrokeAssistance.obj
 0002:00000d24       ??_C@_0BG@LICKIAOK@MATLAB?5Function?1p7?1s1?$AA@ 10042d24     FingerStrokeAssistance.obj
 0002:00000d40       ??_C@_0N@CGBNOIGO@Robot?1Sum?1s1?$AA@ 10042d40     FingerStrokeAssistance.obj
 0002:00000d50       ??_C@_0O@ECDBCCK@f_ref1?3?$CF15?46f?$AA@ 10042d50     FingerStrokeAssistance.obj
 0002:00000d60       ??_C@_0P@JDGPLDCK@enc_raw?3?$CF15?46f?$AA@ 10042d60     FingerStrokeAssistance.obj
 0002:00000d74       ??_C@_0BA@ELCINL@enc_norm?3?$CF15?46f?$AA@ 10042d74     FingerStrokeAssistance.obj
 0002:00000d88       ??_C@_0BB@FMBPFFLE@pos_ref_1?3?$CF15?46f?$AA@ 10042d88     FingerStrokeAssistance.obj
 0002:00000d9c       ??_C@_0BC@DJAOFMOF@pos_meas_1?3?$CF15?46f?$AA@ 10042d9c     FingerStrokeAssistance.obj
 0002:00000db4       ??_C@_0BI@PHJEPFFP@Error?5creating?5scope?51?6?$AA@ 10042db4     FingerStrokeAssistance.obj
 0002:00000dd0       ??_C@_0BD@KDGDPNDI@MATLAB?5Function?1p1?$AA@ 10042dd0     FingerStrokeAssistance.obj
 0002:00000de8       ??_C@_0N@NEDGIMDD@state?3?$CF15?46f?$AA@ 10042de8     FingerStrokeAssistance.obj
 0002:00000df8       ??_C@_0BI@PFNCELAG@Error?5creating?5scope?52?6?$AA@ 10042df8     FingerStrokeAssistance.obj
 0002:00000e14       ??_C@_0CN@LPKEPDKF@LL?5Controller?1Discrete?5PID?5Contr@ 10042e14     FingerStrokeAssistance.obj
 0002:00000e4c       ??_C@_0CN@JEIJKAGG@LL?5Controller?1Discrete?5PID?5Contr@ 10042e4c     FingerStrokeAssistance.obj
 0002:00000e84       ??_C@_0CH@PENCCFNF@HL?5Controller?1Discrete?9Time?5Inte@ 10042e84     FingerStrokeAssistance.obj
 0002:00000eb4       ??_C@_0BD@LBKJDOHN@f_ref_pid_1?3?$CF15?46f?$AA@ 10042eb4     FingerStrokeAssistance.obj
 0002:00000ecc       ??_C@_0BD@IICEACLI@f_ref_pid_2?3?$CF15?46f?$AA@ 10042ecc     FingerStrokeAssistance.obj
 0002:00000ee4       ??_C@_06KFNFIEK@?$CF15?46f?$AA@ 10042ee4     FingerStrokeAssistance.obj
 0002:00000eec       ??_C@_0BC@OJJPBDHH@FixedStepDiscrete?$AA@ 10042eec     FingerStrokeAssistance.obj
 0002:00000f04       ??_C@_04EPKDLPPB@tout?$AA@ 10042f04     FingerStrokeAssistance.obj
 0002:00000f0a       ??_C@_00CNPNBAHC@?$AA@     10042f0a     FingerStrokeAssistance.obj
 0002:00000f0c       ??_C@_03HBFGMJOD@rt_?$AA@  10042f0c     FingerStrokeAssistance.obj
 0002:00000f10       ??_C@_0O@IFKELIIB@PCI?56221?5ENC?5?$AA@ 10042f10     FingerStrokeAssistance.obj
 0002:00000f20       ??_C@_0CL@FGFCPCFH@FingerStrokeAssistance?1Robot?1PCI@ 10042f20     FingerStrokeAssistance.obj
 0002:00000f54       ??_C@_0P@FMGHBALM@PCI?56221?5ENC?51?$AA@ 10042f54     FingerStrokeAssistance.obj
 0002:00000f68       ??_C@_0CM@DDAEJBBH@FingerStrokeAssistance?1Robot?1PCI@ 10042f68     FingerStrokeAssistance.obj
 0002:00000f9c       ??_C@_0M@HBIEHIJL@PCI?96221?5DA?$AA@ 10042f9c     FingerStrokeAssistance.obj
 0002:00000fac       ??_C@_0CJ@KACMKMOO@FingerStrokeAssistance?1Robot?1PCI@ 10042fac     FingerStrokeAssistance.obj
 0002:00000fe0       ??_C@_0N@JAOEPLNP@PCI?96221?5AD1?$AA@ 10042fe0     FingerStrokeAssistance.obj
 0002:00000ff0       ??_C@_0CK@LAFKNGLI@FingerStrokeAssistance?1Robot?1PCI@ 10042ff0     FingerStrokeAssistance.obj
 0002:00001028       __real@0000000000000000    10043028     FingerStrokeAssistance.obj
 0002:00001038       __real@3f50624dd2f1a9fc    10043038     FingerStrokeAssistance.obj
 0002:00001048       __real@3f9eb851eb851eb8    10043048     FingerStrokeAssistance.obj
 0002:00001058       __real@3fb999999999999a    10043058     FingerStrokeAssistance.obj
 0002:00001068       __real@3fe0000000000000    10043068     FingerStrokeAssistance.obj
 0002:00001078       __real@3fe999999999999a    10043078     FingerStrokeAssistance.obj
 0002:00001088       __real@3ff0000000000000    10043088     FingerStrokeAssistance.obj
 0002:00001098       __real@4000000000000000    10043098     FingerStrokeAssistance.obj
 0002:000010a8       __real@4004000000000000    100430a8     FingerStrokeAssistance.obj
 0002:000010b8       __real@4008000000000000    100430b8     FingerStrokeAssistance.obj
 0002:000010c8       __real@4010000000000000    100430c8     FingerStrokeAssistance.obj
 0002:000010d8       __real@4014000000000000    100430d8     FingerStrokeAssistance.obj
 0002:000010e8       __real@4018000000000000    100430e8     FingerStrokeAssistance.obj
 0002:000010f8       __real@401c000000000000    100430f8     FingerStrokeAssistance.obj
 0002:00001108       __real@4024000000000000    10043108     FingerStrokeAssistance.obj
 0002:00001118       __real@402e000000000000    10043118     FingerStrokeAssistance.obj
 0002:00001128       __real@4034000000000000    10043128     FingerStrokeAssistance.obj
 0002:00001138       __real@409f400000000000    10043138     FingerStrokeAssistance.obj
 0002:00001148       __real@41f0000000000000    10043148     FingerStrokeAssistance.obj
 0002:00001158       __real@4330000000000000    10043158     FingerStrokeAssistance.obj
 0002:00001168       __real@8000000000000000    10043168     FingerStrokeAssistance.obj
 0002:00001178       __real@bfe0000000000000    10043178     FingerStrokeAssistance.obj
 0002:00001188       __real@bff0000000000000    10043188     FingerStrokeAssistance.obj
 0002:000011a0       __xmm@00000000000000003f50624dd2f1a9fc 100431a0     FingerStrokeAssistance.obj
 0002:000011c0       __xmm@00000000000000003feccccccccccccd 100431c0     FingerStrokeAssistance.obj
 0002:000011e0       __xmm@00000000000000003ff0000000000000 100431e0     FingerStrokeAssistance.obj
 0002:00001200       __xmm@00000001000000010000000100000001 10043200     FingerStrokeAssistance.obj
 0002:00001220       __xmm@000000eb000000790000007500000001 10043220     FingerStrokeAssistance.obj
 0002:00001240       __xmm@41f00000000000000000000000000000 10043240     FingerStrokeAssistance.obj
 0002:00001260       __xmm@7fffffffffffffff7fffffffffffffff 10043260     FingerStrokeAssistance.obj
 0002:00002ed4       ??_C@_0BD@IIEOKOPL@MATLAB?5Function?1p2?$AA@ 10044ed4     FingerStrokeAssistance_capi.obj
 0002:00002eec       ??_C@_0BD@JBFFJPLK@MATLAB?5Function?1p3?$AA@ 10044eec     FingerStrokeAssistance_capi.obj
 0002:00002f04       ??_C@_0BD@NOBEAJHN@MATLAB?5Function?1p4?$AA@ 10044f04     FingerStrokeAssistance_capi.obj
 0002:00002f1c       ??_C@_0BD@MHAPDIDM@MATLAB?5Function?1p5?$AA@ 10044f1c     FingerStrokeAssistance_capi.obj
 0002:00002f34       ??_C@_0BD@OMCCGLPP@MATLAB?5Function?1p6?$AA@ 10044f34     FingerStrokeAssistance_capi.obj
 0002:00002f4c       ??_C@_0BD@PFDJFKLO@MATLAB?5Function?1p7?$AA@ 10044f4c     FingerStrokeAssistance_capi.obj
 0002:00002f64       ??_C@_0BD@HCKBEGHB@MATLAB?5Function?1p8?$AA@ 10044f64     FingerStrokeAssistance_capi.obj
 0002:00002f7c       ??_C@_0BD@GLLKHHDA@MATLAB?5Function?1p9?$AA@ 10044f7c     FingerStrokeAssistance_capi.obj
 0002:00002f94       ??_C@_0BF@GGMNNFDC@Data?5Type?5Conversion?$AA@ 10044f94     FingerStrokeAssistance_capi.obj
 0002:00002fb0       ??_C@_0L@EGNLABOL@Unit?5Delay?$AA@ 10044fb0     FingerStrokeAssistance_capi.obj
 0002:00002fc0       ??_C@_0M@PBMDOHED@Unit?5Delay1?$AA@ 10044fc0     FingerStrokeAssistance_capi.obj
 0002:00002fd0       ??_C@_0M@MDPFIFMB@Unit?5Delay3?$AA@ 10044fd0     FingerStrokeAssistance_capi.obj
 0002:00002fe0       ??_C@_0CD@GLAMPGEM@HL?5Controller?1Data?5Type?5Conversi@ 10044fe0     FingerStrokeAssistance_capi.obj
 0002:0000300c       ??_C@_0BE@OJENBPFA@HL?5Controller?1Gain1?$AA@ 1004500c     FingerStrokeAssistance_capi.obj
 0002:00003024       ??_C@_0BE@JOHLLJDM@HL?5Controller?1Delay?$AA@ 10045024     FingerStrokeAssistance_capi.obj
 0002:0000303c       ??_C@_0BF@OJKMAAIM@HL?5Controller?1Delay1?$AA@ 1004503c     FingerStrokeAssistance_capi.obj
 0002:00003058       ??_C@_0BO@GONBLMCA@HL?5Controller?1Discrete?5Filter?$AA@ 10045058     FingerStrokeAssistance_capi.obj
 0002:0000307c       ??_C@_0BC@PPCBCHF@LL?5Controller?1Sum?$AA@ 1004507c     FingerStrokeAssistance_capi.obj
 0002:00003094       ??_C@_0L@NEPEIPFM@Robot?1Gain?$AA@ 10045094     FingerStrokeAssistance_capi.obj
 0002:000030a4       ??_C@_0M@KEFEOOOC@Robot?1Gain1?$AA@ 100450a4     FingerStrokeAssistance_capi.obj
 0002:000030b4       ??_C@_0BE@OMELOOBD@Robot?1PCI?56221?5ENC?5?$AA@ 100450b4     FingerStrokeAssistance_capi.obj
 0002:000030cc       ??_C@_0BF@ECAPANIC@Robot?1PCI?56221?5ENC?51?$AA@ 100450cc     FingerStrokeAssistance_capi.obj
 0002:000030e8       ??_C@_0BG@HNHIMJLG@Robot?1PCI?96221?5AD1?1p1?$AA@ 100450e8     FingerStrokeAssistance_capi.obj
 0002:00003104       ??_C@_0BG@FGFFJKHF@Robot?1PCI?96221?5AD1?1p2?$AA@ 10045104     FingerStrokeAssistance_capi.obj
 0002:00003120       ??_C@_0BG@EPEOKLDE@Robot?1PCI?96221?5AD1?1p3?$AA@ 10045120     FingerStrokeAssistance_capi.obj
 0002:0000313c       ??_C@_0BG@PDNPD@Robot?1PCI?96221?5AD1?1p4?$AA@ 1004513c     FingerStrokeAssistance_capi.obj
 0002:00003158       ??_C@_0BG@BJBEAMLC@Robot?1PCI?96221?5AD1?1p5?$AA@ 10045158     FingerStrokeAssistance_capi.obj
 0002:00003174       ??_C@_0BG@DCDJFPHB@Robot?1PCI?96221?5AD1?1p6?$AA@ 10045174     FingerStrokeAssistance_capi.obj
 0002:00003190       ??_C@_0BG@CLCCGODA@Robot?1PCI?96221?5AD1?1p7?$AA@ 10045190     FingerStrokeAssistance_capi.obj
 0002:000031ac       ??_C@_0BG@KMLKHCPP@Robot?1PCI?96221?5AD1?1p8?$AA@ 100451ac     FingerStrokeAssistance_capi.obj
 0002:000031c8       ??_C@_09EFINPMFM@Robot?1Sum?$AA@ 100451c8     FingerStrokeAssistance_capi.obj
 0002:000031d4       ??_C@_0BB@ONCKFKHP@Robot?1Unit?5Delay?$AA@ 100451d4     FingerStrokeAssistance_capi.obj
 0002:000031e8       ??_C@_0BP@HDIBGFHC@Subsystem?1Data?5Type?5Conversion?$AA@ 100451e8     FingerStrokeAssistance_capi.obj
 0002:00003210       ??_C@_0CD@IGDCNCLO@Subsystem?1Discrete?9Time?5Integrat@ 10045210     FingerStrokeAssistance_capi.obj
 0002:0000323c       ??_C@_0BG@DAMAHEPC@Subsystem?1Unit?5Delay1?$AA@ 1004523c     FingerStrokeAssistance_capi.obj
 0002:00003258       ??_C@_0BG@BLONCHDB@Subsystem?1Unit?5Delay2?$AA@ 10045258     FingerStrokeAssistance_capi.obj
 0002:00003274       ??_C@_0CA@EBCNJBOK@Subsystem1?1Data?5Type?5Conversion?$AA@ 10045274     FingerStrokeAssistance_capi.obj
 0002:0000329c       ??_C@_0CE@IGGOGCJM@Subsystem1?1Discrete?9Time?5Integra@ 1004529c     FingerStrokeAssistance_capi.obj
 0002:000032c8       ??_C@_0BH@OCBAAL@Subsystem1?1Unit?5Delay1?$AA@ 100452c8     FingerStrokeAssistance_capi.obj
 0002:000032e4       ??_C@_0BH@CLMPEDMI@Subsystem1?1Unit?5Delay2?$AA@ 100452e4     FingerStrokeAssistance_capi.obj
 0002:00003300       ??_C@_0BJ@LDIJMIN@parameters?1parChangeRate?$AA@ 10045300     FingerStrokeAssistance_capi.obj
 0002:00003320       ??_C@_0BG@MANKCMPG@parameters?1parFThresh?$AA@ 10045320     FingerStrokeAssistance_capi.obj
 0002:0000333c       ??_C@_0BH@GKLAKHLL@parameters?1parFixedDur?$AA@ 1004533c     FingerStrokeAssistance_capi.obj
 0002:00003358       ??_C@_0BL@EGOKLGEF@parameters?1parForceTrigger?$AA@ 10045358     FingerStrokeAssistance_capi.obj
 0002:00003378       ??_C@_0BC@FKHIPIEO@parameters?1parKd1?$AA@ 10045378     FingerStrokeAssistance_capi.obj
 0002:00003390       ??_C@_0BC@HBFFKLIN@parameters?1parKd2?$AA@ 10045390     FingerStrokeAssistance_capi.obj
 0002:000033a8       ??_C@_0BD@BKPLMOHI@parameters?1parKdV1?$AA@ 100453a8     FingerStrokeAssistance_capi.obj
 0002:000033c0       ??_C@_0BD@DBNGJNLL@parameters?1parKdV2?$AA@ 100453c0     FingerStrokeAssistance_capi.obj
 0002:000033d8       ??_C@_0BC@EBFHPDOC@parameters?1parKp1?$AA@ 100453d8     FingerStrokeAssistance_capi.obj
 0002:000033f0       ??_C@_0BC@GKHKKACB@parameters?1parKp2?$AA@ 100453f0     FingerStrokeAssistance_capi.obj
 0002:00003408       ??_C@_0BH@PENPCGFM@parameters?1parLeftMode?$AA@ 10045408     FingerStrokeAssistance_capi.obj
 0002:00003424       ??_C@_0BF@GLMDNGIG@parameters?1parMarker?$AA@ 10045424     FingerStrokeAssistance_capi.obj
 0002:00003440       ??_C@_0BJ@BNLOJEEL@parameters?1parMaxTrajDur?$AA@ 10045440     FingerStrokeAssistance_capi.obj
 0002:00003460       ??_C@_0BE@GHPCIJPH@parameters?1parPStop?$AA@ 10045460     FingerStrokeAssistance_capi.obj
 0002:00003478       ??_C@_0BH@GJMCKDGC@parameters?1parTrajMode?$AA@ 10045478     FingerStrokeAssistance_capi.obj
 0002:00003494       ??_C@_0BG@LMGBBNNN@parameters?1parVThresh?$AA@ 10045494     FingerStrokeAssistance_capi.obj
 0002:000034b0       ??_C@_0BI@PBEPHEEP@parameters?1parWiggleAmp?$AA@ 100454b0     FingerStrokeAssistance_capi.obj
 0002:000034cc       ??_C@_0BN@BNDFGDOE@parameters?1Rounding?5Function?$AA@ 100454cc     FingerStrokeAssistance_capi.obj
 0002:000034f0       ??_C@_0BG@KKGOACNA@parameters?1Saturation?$AA@ 100454f0     FingerStrokeAssistance_capi.obj
 0002:0000350c       ??_C@_0BH@EACELLGE@parameters?1Saturation1?$AA@ 1004550c     FingerStrokeAssistance_capi.obj
 0002:00003528       ??_C@_0BH@GLAJOIKH@parameters?1Saturation2?$AA@ 10045528     FingerStrokeAssistance_capi.obj
 0002:00003544       ??_C@_0DG@IOBGNGCJ@HL?5Controller?1Detect?5Change?1FixP@ 10045544     FingerStrokeAssistance_capi.obj
 0002:00003584       ??_C@_0CJ@CLPCMDPG@HL?5Controller?1Detect?5Change?1Dela@ 10045584     FingerStrokeAssistance_capi.obj
 0002:000035b8       ??_C@_06CFNEEADJ@U?$CIk?91?$CJ?$AA@ 100455b8     FingerStrokeAssistance_capi.obj
 0002:000035c0       ??_C@_0CN@BMMFOADL@LL?5Controller?1Discrete?5PID?5Contr@ 100455c0     FingerStrokeAssistance_capi.obj
 0002:000035f8       ??_C@_0DB@HDHLABFB@LL?5Controller?1Discrete?5PID?5Contr@ 100455f8     FingerStrokeAssistance_capi.obj
 0002:00003634       ??_C@_0DG@HLAOPJGM@LL?5Controller?1Discrete?5PID?5Contr@ 10045634     FingerStrokeAssistance_capi.obj
 0002:00003674       ??_C@_0DJ@KOPOKLBH@LL?5Controller?1Discrete?5PID?5Contr@ 10045674     FingerStrokeAssistance_capi.obj
 0002:000036b8       ??_C@_0DE@EPKOKGAH@LL?5Controller?1Discrete?5PID?5Contr@ 100456b8     FingerStrokeAssistance_capi.obj
 0002:000036f8       ??_C@_0DI@CMDIPDHM@LL?5Controller?1Discrete?5PID?5Contr@ 100456f8     FingerStrokeAssistance_capi.obj
 0002:0000373c       ??_C@_0CK@BDBPDANN@LL?5Controller?1Discrete?5PID?5Contr@ 1004573c     FingerStrokeAssistance_capi.obj
 0002:00003770       ??_C@_0CL@GMGEDLFI@LL?5Controller?1Discrete?5PID?5Contr@ 10045770     FingerStrokeAssistance_capi.obj
 0002:000037a4       ??_C@_0CO@BJKFCIOJ@LL?5Controller?1Saturation?5Dynamic@ 100457a4     FingerStrokeAssistance_capi.obj
 0002:000037dc       ??_C@_0CN@PPLPNFEO@LL?5Controller?1Saturation?5Dynamic@ 100457dc     FingerStrokeAssistance_capi.obj
 0002:00003814       ??_C@_0CJ@BODBLONB@LL?5Controller?1Saturation?5Dynamic@ 10045814     FingerStrokeAssistance_capi.obj
 0002:00003848       ??_C@_0CK@BMLKIHIN@LL?5Controller?1Saturation?5Dynamic@ 10045848     FingerStrokeAssistance_capi.obj
 0002:0000387c       ??_C@_0BP@DAEPAEBF@Robot?1Discrete?5Derivative?1Diff?$AA@ 1004587c     FingerStrokeAssistance_capi.obj
 0002:000038a4       ??_C@_0CA@DLBHKHPN@Robot?1Discrete?5Derivative?1TSamp?$AA@ 100458a4     FingerStrokeAssistance_capi.obj
 0002:000038cc       ??_C@_0BN@GNNONLLN@Robot?1Discrete?5Derivative?1UD?$AA@ 100458cc     FingerStrokeAssistance_capi.obj
 0002:000038f0       ??_C@_0CF@JOKCEMIH@Robot?1Saturation?5Dynamic?1LowerRe@ 100458f0     FingerStrokeAssistance_capi.obj
 0002:0000391c       ??_C@_0CE@PAHIGJNP@Robot?1Saturation?5Dynamic?1UpperRe@ 1004591c     FingerStrokeAssistance_capi.obj
 0002:00003948       ??_C@_0CA@NDOLBHN@Robot?1Saturation?5Dynamic?1Switch?$AA@ 10045948     FingerStrokeAssistance_capi.obj
 0002:00003970       ??_C@_0CB@MDMJGHEB@Robot?1Saturation?5Dynamic?1Switch2@ 10045970     FingerStrokeAssistance_capi.obj
 0002:00003998       ??_C@_0BO@KMPBMPBM@Robot?1Triggered?5Subsystem?1In1?$AA@ 10045998     FingerStrokeAssistance_capi.obj
 0002:000039bc       ??_C@_0DA@IHGHECDK@Robot?1account?5for?5handedness?1MAT@ 100459bc     FingerStrokeAssistance_capi.obj
 0002:000039f8       ??_C@_0DA@KMEKBBPJ@Robot?1account?5for?5handedness?1MAT@ 100459f8     FingerStrokeAssistance_capi.obj
 0002:00003a34       ??_C@_0DD@LGPLBJIP@Robot?1account?5for?5handedness?5for@ 10045a34     FingerStrokeAssistance_capi.obj
 0002:00003a74       ??_C@_0DB@BNMCHGNM@Robot?1account?5for?5handedness2?1MA@ 10045a74     FingerStrokeAssistance_capi.obj
 0002:00003ab0       ??_C@_0DB@DGOPCFBP@Robot?1account?5for?5handedness2?1MA@ 10045ab0     FingerStrokeAssistance_capi.obj
 0002:00003aec       ??_C@_0CM@LEIBMJGE@Robot?1filtered?5force?5output?1Low?5@ 10045aec     FingerStrokeAssistance_capi.obj
 0002:00003b20       ??_C@_0CN@IMDGCDDK@Robot?1filtered?5force?5output?1Low?5@ 10045b20     FingerStrokeAssistance_capi.obj
 0002:00003b58       ??_C@_0CD@NAELEMPL@Robot?1filtered?5force?5output?1Memo@ 10045b58     FingerStrokeAssistance_capi.obj
 0002:00003b84       ??_C@_0CE@OMOCGHGK@Robot?1filtered?5force?5output?1Memo@ 10045b84     FingerStrokeAssistance_capi.obj
 0002:00003bb0       ??_C@_0BD@BNMELIGD@Robot?1gravDir?1gain?$AA@ 10045bb0     FingerStrokeAssistance_capi.obj
 0002:00003bc8       ??_C@_0BC@NJKIOKBB@Robot?1gravDir?1Sum?$AA@ 10045bc8     FingerStrokeAssistance_capi.obj
 0002:00003be0       ??_C@_0DC@HIOFCDHB@Subsystem?1Detect?5Change?1FixPt?5Re@ 10045be0     FingerStrokeAssistance_capi.obj
 0002:00003c1c       ??_C@_0CF@IOCCGEMF@Subsystem?1Detect?5Change?1Delay?5In@ 10045c1c     FingerStrokeAssistance_capi.obj
 0002:00003c48       ??_C@_0DD@ODDDIJKC@Subsystem1?1Detect?5Change?1FixPt?5R@ 10045c48     FingerStrokeAssistance_capi.obj
 0002:00003c88       ??_C@_0CG@OCPBJBDF@Subsystem1?1Detect?5Change?1Delay?5I@ 10045c88     FingerStrokeAssistance_capi.obj
 0002:00003cb8       ??_C@_0CH@KJDMLLPO@parameters?1gain?5transition?1gainr@ 10045cb8     FingerStrokeAssistance_capi.obj
 0002:00003ce8       ??_C@_0CH@ICBBOIDN@parameters?1gain?5transition?1gainr@ 10045ce8     FingerStrokeAssistance_capi.obj
 0002:00003d18       ??_C@_0CC@BDCPHDEE@parameters?1gain?5transition?1Memor@ 10045d18     FingerStrokeAssistance_capi.obj
 0002:00003d40       ??_C@_0CI@PJCJMMGB@parameters?1gain?5transition1?1gain@ 10045d40     FingerStrokeAssistance_capi.obj
 0002:00003d70       ??_C@_0CI@NCAEJPKC@parameters?1gain?5transition1?1gain@ 10045d70     FingerStrokeAssistance_capi.obj
 0002:00003da0       ??_C@_0CD@LNHEJADF@parameters?1gain?5transition1?1Memo@ 10045da0     FingerStrokeAssistance_capi.obj
 0002:00003dcc       ??_C@_0CI@IFEIOJLK@parameters?1gain?5transition2?1gain@ 10045dcc     FingerStrokeAssistance_capi.obj
 0002:00003dfc       ??_C@_0CI@KOGFLKHJ@parameters?1gain?5transition2?1gain@ 10045dfc     FingerStrokeAssistance_capi.obj
 0002:00003e2c       ??_C@_0CD@IEPJKMPA@parameters?1gain?5transition2?1Memo@ 10045e2c     FingerStrokeAssistance_capi.obj
 0002:00003e58       ??_C@_0CI@BIEHAIMM@parameters?1gain?5transition3?1gain@ 10045e58     FingerStrokeAssistance_capi.obj
 0002:00003e88       ??_C@_0CI@DDGKFLAP@parameters?1gain?5transition3?1gain@ 10045e88     FingerStrokeAssistance_capi.obj
 0002:00003eb8       ??_C@_0CD@JDICLILD@parameters?1gain?5transition3?1Memo@ 10045eb8     FingerStrokeAssistance_capi.obj
 0002:00003ee4       ??_C@_0CI@HNIKKCAM@parameters?1gain?5transition4?1gain@ 10045ee4     FingerStrokeAssistance_capi.obj
 0002:00003f14       ??_C@_0CI@FGKHPBMP@parameters?1gain?5transition4?1gain@ 10045f14     FingerStrokeAssistance_capi.obj
 0002:00003f44       ??_C@_0CD@PHODNFHK@parameters?1gain?5transition4?1Memo@ 10045f44     FingerStrokeAssistance_capi.obj
 0002:00003f70       ??_C@_0CI@OAIFEDHK@parameters?1gain?5transition5?1gain@ 10045f70     FingerStrokeAssistance_capi.obj
 0002:00003fa0       ??_C@_0CI@MLKIBALJ@parameters?1gain?5transition5?1gain@ 10045fa0     FingerStrokeAssistance_capi.obj
 0002:00003fd0       ??_C@_0CD@OAJIMBDJ@parameters?1gain?5transition5?1Memo@ 10045fd0     FingerStrokeAssistance_capi.obj
 0002:00003ffc       ??_C@_09IIHOELEE@Constant1?$AA@ 10045ffc     FingerStrokeAssistance_capi.obj
 0002:00004008       ??_C@_05LPIJGKJ@Value?$AA@ 10046008     FingerStrokeAssistance_capi.obj
 0002:00004010       ??_C@_09LKEICJMG@Constant3?$AA@ 10046010     FingerStrokeAssistance_capi.obj
 0002:0000401c       ??_C@_0BB@CFEOEMDC@InitialCondition?$AA@ 1004601c     FingerStrokeAssistance_capi.obj
 0002:00004030       ??_C@_0BM@NNJFPEF@HL?5Controller?1Detect?5Change?$AA@ 10046030     FingerStrokeAssistance_capi.obj
 0002:00004054       ??_C@_05NAMIGJNB@vinit?$AA@ 10046054     FingerStrokeAssistance_capi.obj
 0002:0000405c       ??_C@_07KKMCCDCH@gainval?$AA@ 1004605c     FingerStrokeAssistance_capi.obj
 0002:00004068       ??_C@_0BF@GLIOIDJM@UpperSaturationLimit?$AA@ 10046068     FingerStrokeAssistance_capi.obj
 0002:00004084       ??_C@_0BF@EMCFELNH@LowerSaturationLimit?$AA@ 10046084     FingerStrokeAssistance_capi.obj
 0002:000040a0       ??_C@_04OMOMKKFL@Gain?$AA@ 100460a0     FingerStrokeAssistance_capi.obj
 0002:000040a8       ??_C@_0M@KNNCJG@DelayLength?$AA@ 100460a8     FingerStrokeAssistance_capi.obj
 0002:000040b8       ??_C@_09OMDFKCLN@Numerator?$AA@ 100460b8     FingerStrokeAssistance_capi.obj
 0002:000040c4       ??_C@_0M@KDILNJPK@Denominator?$AA@ 100460c4     FingerStrokeAssistance_capi.obj
 0002:000040d4       ??_C@_0O@KHJPNGBD@InitialStates?$AA@ 100460d4     FingerStrokeAssistance_capi.obj
 0002:000040e4       ??_C@_0CG@DLDPEALE@LL?5Controller?1Discrete?5PID?5Contr@ 100460e4     FingerStrokeAssistance_capi.obj
 0002:00004114       ??_C@_01EJNLAFE@P?$AA@     10046114     FingerStrokeAssistance_capi.obj
 0002:00004118       ??_C@_01JPJNBJEM@I?$AA@    10046118     FingerStrokeAssistance_capi.obj
 0002:0000411c       ??_C@_01CKDDGHAB@D?$AA@    1004611c     FingerStrokeAssistance_capi.obj
 0002:00004120       ??_C@_01NANMIPIL@N?$AA@    10046120     FingerStrokeAssistance_capi.obj
 0002:00004124       ??_C@_0BB@BPKEPNND@ON?1?1OFF?1Constant?$AA@ 10046124     FingerStrokeAssistance_capi.obj
 0002:00004138       ??_C@_0BK@MMODBLJF@Robot?1Discrete?5Derivative?$AA@ 10046138     FingerStrokeAssistance_capi.obj
 0002:00004158       ??_C@_0BC@DNAKAAEE@ICPrevScaledInput?$AA@ 10046158     FingerStrokeAssistance_capi.obj
 0002:00004170       ??_C@_02KKFPAPOP@P1?$AA@   10046170     FingerStrokeAssistance_capi.obj
 0002:00004174       ??_C@_02IBHCFMCM@P2?$AA@   10046174     FingerStrokeAssistance_capi.obj
 0002:00004178       ??_C@_02JIGJGNGN@P3?$AA@   10046178     FingerStrokeAssistance_capi.obj
 0002:0000417c       ??_C@_02NHCIPLKK@P4?$AA@   1004617c     FingerStrokeAssistance_capi.obj
 0002:00004180       ??_C@_02MODDMKOL@P5?$AA@   10046180     FingerStrokeAssistance_capi.obj
 0002:00004184       ??_C@_02OFBOJJCI@P6?$AA@   10046184     FingerStrokeAssistance_capi.obj
 0002:00004188       ??_C@_02PMAFKIGJ@P7?$AA@   10046188     FingerStrokeAssistance_capi.obj
 0002:0000418c       ??_C@_02HLJNLEKG@P8?$AA@   1004618c     FingerStrokeAssistance_capi.obj
 0002:00004190       ??_C@_02GCIGIFOH@P9?$AA@   10046190     FingerStrokeAssistance_capi.obj
 0002:00004194       ??_C@_03OPFJJGBF@P10?$AA@  10046194     FingerStrokeAssistance_capi.obj
 0002:00004198       ??_C@_0BD@HJHAJHEM@Robot?1PCI?96221?5AD1?$AA@ 10046198     FingerStrokeAssistance_capi.obj
 0002:000041b0       ??_C@_0BC@IGENNOJN@Robot?1PCI?96221?5DA?$AA@ 100461b0     FingerStrokeAssistance_capi.obj
 0002:000041c8       ??_C@_0BI@CCIOLKMP@Subsystem?1Detect?5Change?$AA@ 100461c8     FingerStrokeAssistance_capi.obj
 0002:000041e4       ??_C@_0BJ@KNCPHFFI@Subsystem1?1Detect?5Change?$AA@ 100461e4     FingerStrokeAssistance_capi.obj
 0002:00004204       ??_C@_0CD@NBHNHEJB@parameters?1paremeters_?5must_be_o@ 10046204     FingerStrokeAssistance_capi.obj
 0002:00004230       ??_C@_0L@FBCGKKEN@UpperLimit?$AA@ 10046230     FingerStrokeAssistance_capi.obj
 0002:00004240       ??_C@_0L@DGFJOHKP@LowerLimit?$AA@ 10046240     FingerStrokeAssistance_capi.obj
 0002:00004250       ??_C@_04GKLBNPCL@WtEt?$AA@ 10046250     FingerStrokeAssistance_capi.obj
 0002:00004258       ??_C@_0BP@KMPJMACH@Robot?1Triggered?5Subsystem?1Out1?$AA@ 10046258     FingerStrokeAssistance_capi.obj
 0002:00004280       ??_C@_0O@LILIEJBO@InitialOutput?$AA@ 10046280     FingerStrokeAssistance_capi.obj
 0002:00004290       ??_C@_02LNFHGPBG@X0?$AA@   10046290     FingerStrokeAssistance_capi.obj
 0002:00004294       ??_C@_0BH@BIOEOLDB@Robot?1gravDir?1Constant?$AA@ 10046294     FingerStrokeAssistance_capi.obj
 0002:000042b0       ??_C@_04OELFCIM@Alow?$AA@  100462b0     FingerStrokeAssistance_capi.obj
 0002:000042b8       ??_C@_04EJOLCIFM@Blow?$AA@ 100462b8     FingerStrokeAssistance_capi.obj
 0002:000042c0       ??_C@_04HEILABOM@Clow?$AA@ 100462c0     FingerStrokeAssistance_capi.obj
 0002:000042c8       ??_C@_04MGKLNNPM@Dlow?$AA@ 100462c8     FingerStrokeAssistance_capi.obj
 0002:000042d0       ??_C@_05FKGIECOB@x0low?$AA@ 100462d0     FingerStrokeAssistance_capi.obj
 0002:000042d8       ??_C@_06BNJCAIGJ@double?$AA@ 100462d8     FingerStrokeAssistance_capi.obj
 0002:000042e0       ??_C@_06CNMIJIPB@real_T?$AA@ 100462e0     FingerStrokeAssistance_capi.obj
 0002:000042e8       ??_C@_0O@PPAIJIHF@unsigned?5char?$AA@ 100462e8     FingerStrokeAssistance_capi.obj
 0002:000042f8       ??_C@_09JBMFCIMO@boolean_T?$AA@ 100462f8     FingerStrokeAssistance_capi.obj
 0002:00004304       ??_C@_0N@OFHMGPAL@unsigned?5int?$AA@ 10046304     FingerStrokeAssistance_capi.obj
 0002:00004314       ??_C@_08CCMIKNJF@uint32_T?$AA@ 10046314     FingerStrokeAssistance_capi.obj
 0002:00004320       ??_C@_05KNFBNCOH@float?$AA@ 10046320     FingerStrokeAssistance_capi.obj
 0002:00004328       ??_C@_0CJ@GGPBKPNK@Could?5not?5start?5ToAsyncQueue?5app@ 10046328     FingerStrokeAssistance_tgtconn.obj
 0002:00004bc0       ??_C@_0DJ@FHKINPLE@Unexpected?5itemKind?5?$DN?5DATA_ITEM?5@ 10046bc0     rt_logging.obj
 0002:00004c04       ??_C@_0DA@IEHFPFCJ@Unexpected?5itemKind?$DN?$CFd?5in?5rt_Pro@ 10046c04     rt_logging.obj
 0002:00004c40       ??_C@_0DA@IFLHJPBO@Unexpected?5itemKind?$DN?$CFd?5in?5rt_Pro@ 10046c40     rt_logging.obj
 0002:00004c7c       ??_C@_0DA@IAPIIJJL@Unexpected?5itemKind?$DN?$CFd?5in?5rt_Pro@ 10046c7c     rt_logging.obj
 0002:00004cb8       ??_C@_0BE@LCIGPJIG@MATLAB?55?40?5MAT?9file?$AA@ 10046cb8     rt_logging.obj
 0002:00004cd0       ??_C@_0FB@PCJEAJIB@?$CK?$CK?$CK?5Log?5variable?5?$CFs?5has?5wrapped?5@ 10046cd0     rt_logging.obj
 0002:00004d38       ??_C@_0MG@NKMLMOGF@?$CK?$CK?$CK?5To?5avoid?5wrapping?0?5explicitl@ 10046d38     rt_logging.obj
 0002:00004e28       ??_C@_0N@IPAEOLLP@_rtw_tmw?4tmw?$AA@ 10046e28     rt_logging.obj
 0002:00004e38       ??_C@_04HDOCAJNK@?$CFs?$CFs?$AA@ 10046e38     rt_logging.obj
 0002:00004e40       ??_C@_03ELIABIOC@w?$CLb?$AA@ 10046e40     rt_logging.obj
 0002:00004e44       ??_C@_0BF@JPILDDFA@?$CK?$CK?$CK?5Error?5opening?5?$CFs?$AA@ 10046e44     rt_logging.obj
 0002:00004e60       ??_C@_0BK@EEMDELA@unable?5to?5open?5data?5file?6?$AA@ 10046e60     rt_logging.obj
 0002:00004e80       ??_C@_04CGFJFPFD@none?$AA@ 10046e80     rt_logging.obj
 0002:00004e88       ??_C@_0EE@LCGFPNON@?$CK?$CK?$CK?5Error?5creating?5signals?5struc@ 10046e88     rt_logging.obj
 0002:00004edc       ??_C@_0CE@NHECEDMK@?$CK?$CK?$CK?5Error?5creating?5log?5variable?5@ 10046edc     rt_logging.obj
 0002:00004f08       ??_C@_0DB@IOCGKAGH@?$CK?$CK?$CK?5Errors?5occurred?5when?5startin@ 10046f08     rt_logging.obj
 0002:00004f44       ??_C@_0BO@BBLOGEBK@?$CK?$CK?$CK?5Memory?5allocation?5error?4?6?$AA@ 10046f44     rt_logging.obj
 0002:00004f68       ??_C@_0N@LGFBAGEL@?5?$CIreal?5part?$CJ?$AA@ 10046f68     rt_logging.obj
 0002:00004f78       ??_C@_0KH@CGNMHNFE@?5?5?5?5varName?5?5?5?5?5?5?5?5?5?5?$DN?5?$CFs?$CFs?6?5?5?5?5@ 10046f78     rt_logging.obj
 0002:00005040       ??_C@_0LE@OALKKEFM@?5?5?5?5varName?5?5?5?5?5?5?5?5?5?5?$DN?5?$CFs?5?$CIcompl@ 10047040     rt_logging.obj
 0002:00005118       ??_C@_0KF@JDDLEOKO@?5?5?5?5varName?5?5?5?5?5?5?5?5?5?5?$DN?5?$CFs?6?5?5?5?5nR@ 10047118     rt_logging.obj
 0002:000051e0       ??_C@_0DP@HPDMIOFM@?$CK?$CK?$CK?5Using?5a?5default?5buffer?5of?5si@ 100471e0     rt_logging.obj
 0002:00005230       ??_C@_0KE@JEFOLKNF@?6?$CK?$CK?$CK?5Memory?5required?5to?5log?5vari@ 10047230     rt_logging.obj
 0002:000052f8       ??_C@_0JP@DKLMHCBI@?$CK?$CK?$CK?5Details?3?6?5?5?5?5?5?5?5varName?5?5?5?5?5@ 100472f8     rt_logging.obj
 0002:000053b8       ??_C@_0CM@CAMILBED@?$CK?$CK?$CK?5Error?5allocating?5memory?5for?5@ 100473b8     rt_logging.obj
 0002:000053ec       ??_C@_0DF@BBCNMOPM@?$CK?$CK?$CK?5Error?5allocating?5memory?5for?5@ 100473ec     rt_logging.obj
 0002:00005430       ??_C@_0JP@DBCLPCCI@?$CK?$CK?$CK?5Details?3?6?5?5?5?5?5?5?5varName?5?5?5?5?5@ 10047430     rt_logging.obj
 0002:000054f0       ??_C@_0FK@DPGAOBGA@?$CK?$CK?$CK?5Error?5allocating?5memory?5for?5@ 100474f0     rt_logging.obj
 0002:0000555c       ??_C@_0BI@GGDNPHLJ@?$CK?$CK?$CK?5Error?5writing?5to?5?$CFs?$AA@ 1004755c     rt_logging.obj
 0002:00005578       ??_C@_0CB@IBGJGELG@?$CK?$CK?$CK?5Error?5writing?5?$CFs?5due?5to?3?5?$CFs?6@ 10047578     rt_logging.obj
 0002:000055a0       ??_C@_0CN@FLMCHCPB@?$CK?$CK?$CK?5Error?5writing?5log?5variable?5?$CF@ 100475a0     rt_logging.obj
 0002:000055d8       ??_C@_0DH@GAJCNOJP@?$CK?$CK?$CK?5Error?5writing?5structure?5log?5@ 100475d8     rt_logging.obj
 0002:0000561c       ??_C@_0BD@POEALECL@?$CK?$CK?5created?5?$CFs?5?$CK?$CK?6?6?$AA@ 1004761c     rt_logging.obj
 0002:00005638       __real@4020000000000000    10047638     rt_logging.obj
 0002:00005648       __real@41dfffffffc00000    10047648     rt_logging.obj
 0002:00005658       __real@41efffffffe00000    10047658     rt_logging.obj
 0002:00005668       __real@bfbf9add3afd2773    10047668     rt_logging.obj
 0002:00005678       __real@c000000000000000    10047678     rt_logging.obj
 0002:00005690       __xmm@20202020202020202020202020202020 10047690     rt_logging.obj
 0002:000056c0       __real@3cb0000000000000    100476c0     rt_matrx.obj
 0002:000056e0       ??_C@_0BI@INNPNFJN@Memory?5Allocation?5Error?$AA@ 100476e0     rtw_modelmap_utils.obj
 0002:00005700       ??_C@_1HC@OAPLBLFC@?$AAC?$AA?3?$AA?2?$AAP?$AAR?$AAO?$AAG?$AAR?$AAA?$AA?$HO?$AA1?$AA?2?$AAM?$AAA?$AAT?$AAL?$AAA?$AAB?$AA?2?$AAR?$AA2?$AA0?$AA1?$AA6?$AAa?$AA?2?$AAr?$AAt?$AAw?$AA?2?$AAc?$AA?2@ 10047700     rtw_modelmap_utils.obj
 0002:00005788       ??_C@_1CI@OEAJCJND@?$AAj?$AA?5?$AA?$DN?$AA?$DN?$AA?5?$AAe?$AAn?$AAc?$AAo?$AAd?$AAe?$AAd?$AAP?$AAa?$AAt?$AAh?$AAL?$AAe?$AAn?$AA?$AA@ 10047788     rtw_modelmap_utils.obj
 0002:000057b8       ??_C@_1DC@NFAOIFKB@?$AAe?$AAn?$AAc?$AAo?$AAd?$AAe?$AAd?$AAP?$AAa?$AAt?$AAh?$AA?$FL?$AAj?$AA?9?$AA1?$AA?$FN?$AA?5?$AA?$DN?$AA?$DN?$AA?5?$AA?8?$AA?2?$AA0?$AA?8?$AA?$AA@ 100477b8     rtw_modelmap_utils.obj
 0002:000057f4       ??_C@_1DI@FLNJGPEE@?$AAs?$AAi?$AAg?$AAC?$AAo?$AAm?$AAp?$AAl?$AAe?$AAx?$AAi?$AAt?$AAy?$AA?$FL?$AA?$CK?$AAs?$AAi?$AAg?$AAI?$AAd?$AAx?$AA?$FN?$AA?5?$AA?$CB?$AA?$DN?$AA?5?$AA1?$AA?$AA@ 100477f4     rtw_modelmap_utils.obj
 0002:00005838       ??_C@_1KI@OFELMGBG@?$AA?$CI?$AA?$CI?$AA?$CI?$AAd?$AAa?$AAt?$AAa?$AAT?$AAy?$AAp?$AAe?$AAM?$AAa?$AAp?$AA?$CJ?$AA?$FL?$AA?$CI?$AA?$CI?$AA?$CI?$AAs?$AAt?$AAa?$AAt?$AAe?$AAs?$AA?$CJ?$AA?$FL?$AA?$CI?$AAi?$AA?$CJ?$AA?$FN?$AA?4@ 10047838     rtw_modelmap_utils.obj
 0002:00005904       ??_C@_1DA@ILCMPHNE@?$AAf?$AAu?$AAl?$AAl?$AAP?$AAa?$AAt?$AAh?$AA?5?$AA?$CB?$AA?$DN?$AA?5?$AA?$CI?$AA?$CI?$AAv?$AAo?$AAi?$AAd?$AA?5?$AA?$CK?$AA?$CJ?$AA0?$AA?$CJ?$AA?$AA@ 10047904     rtw_modelmap_utils.obj
 0002:00005940       ??_C@_1CI@OEPPFCCA@?$AAp?$AAa?$AAt?$AAh?$AA?5?$AA?$CB?$AA?$DN?$AA?5?$AA?$CI?$AA?$CI?$AAv?$AAo?$AAi?$AAd?$AA?5?$AA?$CK?$AA?$CJ?$AA0?$AA?$CJ?$AA?$AA@ 10047940     rtw_modelmap_utils.obj
 0002:00005970       ??_C@_1FK@GLJIMFHB@?$AA?$CI?$AA?$CI?$AAm?$AAm?$AAi?$AA?$CJ?$AA?9?$AA?$DO?$AAI?$AAn?$AAs?$AAt?$AAa?$AAn?$AAc?$AAe?$AAM?$AAa?$AAp?$AA?4?$AAf?$AAu?$AAl?$AAl?$AAP?$AAa?$AAt?$AAh?$AA?$CJ?$AA?5?$AA?$DN?$AA?$DN@ 10047970     rtw_modelmap_utils.obj
 0002:000059dc       ??_C@_1DG@HPCJGNCE@?$AAm?$AAm?$AAi?$AAP?$AAa?$AAt?$AAh?$AA?$FL?$AAp?$AAa?$AAt?$AAh?$AAL?$AAe?$AAn?$AA?9?$AA1?$AA?$FN?$AA?5?$AA?$DN?$AA?$DN?$AA?5?$AA?8?$AA?2?$AA0?$AA?8?$AA?$AA@ 100479dc     rtw_modelmap_utils.obj
 0002:00005a1c       ??_C@_1DM@DBAOGGOO@?$AAm?$AAm?$AAi?$AAP?$AAa?$AAt?$AAh?$AA?$FL?$AAm?$AAm?$AAi?$AAP?$AAa?$AAt?$AAh?$AAL?$AAe?$AAn?$AA?9?$AA1?$AA?$FN?$AA?5?$AA?$DN?$AA?$DN?$AA?5?$AA?8?$AA?2?$AA0?$AA?8?$AA?$AA@ 10047a1c     rtw_modelmap_utils.obj
 0002:00005a64       ??_C@_1DC@LHIAKAFE@?$AAb?$AAl?$AAo?$AAc?$AAk?$AAP?$AAa?$AAt?$AAh?$AA?5?$AA?$CB?$AA?$DN?$AA?5?$AA?$CI?$AA?$CI?$AAv?$AAo?$AAi?$AAd?$AA?5?$AA?$CK?$AA?$CJ?$AA0?$AA?$CJ?$AA?$AA@ 10047a64     rtw_modelmap_utils.obj
 0002:00005aa0       ??_C@_1GI@KIEJKPGC@?$AAf?$AAu?$AAl?$AAl?$AAS?$AAt?$AAa?$AAt?$AAe?$AAB?$AAl?$AAo?$AAc?$AAk?$AAP?$AAa?$AAt?$AAh?$AA?$FL?$AAf?$AAu?$AAl?$AAl?$AAS?$AAt?$AAa?$AAt?$AAe?$AAB?$AAl?$AAo?$AAc@ 10047aa0     rtw_modelmap_utils.obj
 0002:00005b20       ??_C@_1EE@DNPIBJHC@?$AA?$CI?$AA?$CI?$AAd?$AAi?$AAm?$AAM?$AAa?$AAp?$AA?$CJ?$AA?$FL?$AA?$CI?$AAm?$AAa?$AAp?$AAI?$AAd?$AAx?$AA?$CJ?$AA?$FN?$AA?4?$AAn?$AAu?$AAm?$AAD?$AAi?$AAm?$AAs?$AA?$CJ?$AA?5?$AA?$DN?$AA?$DN?$AA?5@ 10047b20     rtw_modelmap_utils.obj
 0002:00005b74       ??_C@_06JFOKFOED@CSTATE?$AA@ 10047b74     rtw_modelmap_utils.obj
 0002:00005b7c       ??_C@_06FAENGAMN@DSTATE?$AA@ 10047b7c     rtw_modelmap_utils.obj
 0002:00005b84       ??_C@_1BI@LEBJNOGG@?$AAc?$AAs?$AAv?$AAI?$AAd?$AAx?$AA?5?$AA?$DO?$AA?$DN?$AA?5?$AA0?$AA?$AA@ 10047b84     rtw_modelmap_utils.obj
 0002:00005ba0       ??_C@_1BA@KDMGHCHP@?$AAT?$AAI?$AAD?$AA?$DN?$AA?$DN?$AA?9?$AA1?$AA?$AA@ 10047ba0     rtw_modelmap_utils.obj
 0002:00005bb4       ??_C@_1DM@DHGKBPCE@?$AAs?$AAi?$AAg?$AAP?$AAa?$AAt?$AAh?$AA?$FL?$AAs?$AAi?$AAg?$AAP?$AAa?$AAt?$AAh?$AAL?$AAe?$AAn?$AA?9?$AA1?$AA?$FN?$AA?5?$AA?$DN?$AA?$DN?$AA?5?$AA?8?$AA?2?$AA0?$AA?8?$AA?$AA@ 10047bb4     rtw_modelmap_utils.obj
 0002:00005bfc       _serialfifoground          10047bfc     xpc_datatype_ground.obj
 0002:00005c08       _bcmsg1553ground           10047c08     xpc_datatype_ground.obj
 0002:00005c18       _bcstatground              10047c18     xpc_datatype_ground.obj
 0002:00005c30       _bmmsg1553ground           10047c30     xpc_datatype_ground.obj
 0002:00005c50       _ptsetfilename             10047c50     xpctarget.obj
 0002:00005c54       _xmlfile                   10047c54     xpctarget.obj
 0002:00005c5c       ??_C@_0BH@DNMKOCPI@FingerStrokeAssistance?$AA@ 10047c5c     xpctarget.obj
 0002:00005c78       ??_C@_0L@CHBJKKFC@xpceSetVar?$AA@ 10047c78     xpctarget.obj
 0002:00005c88       ??_C@_03ICACBPID@6?44?$AA@ 10047c88     xpctarget.obj
 0002:00005c90       __real@408f400000000000    10047c90     xpctarget.obj
 0002:00005ca0       _FingerStrokeAssistance_BIOMAP 10047ca0     appmappingData.obj
 0002:0000624c       _FingerStrokeAssistance_dtmap 1004824c     appmappingData.obj
 0002:00006270       _FingerStrokeAssistance_LBLMAP 10048270     appmappingData.obj
 0002:00006820       _FingerStrokeAssistance_SIDMAP 10048820     appmappingData.obj
 0002:00006dd0       _FingerStrokeAssistance_SBIO 10048dd0     appmappingData.obj
 0002:00006fb8       _FingerStrokeAssistance_SLBL 10048fb8     appmappingData.obj
 0002:000071a0       _FingerStrokeAssistance_PTIDSMAP 100491a0     appmappingData.obj
 0002:00007548       _FingerStrokeAssistance_PTNAMESMAP 10049548     appmappingData.obj
 0002:000078f0       _FingerStrokeAssistance_SPTMAP 100498f0     appmappingData.obj
 0002:00007ac8       _appInfo                   10049ac8     appmappingData.obj
 0002:0000812c       ??_C@_0CC@FIFFDAB@?$CFd?5input?5args?5expected?0?5?$CFd?5passe@ 1004a12c     encnipcim.obj
 0002:00008154       ??_C@_0BN@JIEFLHEB@?$CFs?3?5Too?5many?5M?5series?5boards?$AA@ 1004a154     encnipcim.obj
 0002:00008178       ??_C@_0ED@LKHIFFLC@Wrong?5number?5of?5input?5arguments?5@ 1004a178     danipcim.obj
 0002:000081c8       ??_C@_0DB@HFHLNKLE@Channel?5?$CFd?5exceeds?5the?5max?5DA?5ch@ 1004a1c8     danipcim.obj
 0002:00008204       ??_C@_0CL@GCJHHCMG@Output?5range?5?$CFd?5is?5not?5supported@ 1004a204     danipcim.obj
 0002:00008238       ??_C@_0CI@FOFDKLAN@NI?5?$CFs?3?5Can?8t?5allocate?5temporary?5@ 1004a238     adnipcim.obj
 0002:00008268       ??_C@_0CK@PIIIKEIH@NI?5M?5series?3?5Channel?5?$CFf?5out?5of?5r@ 1004a268     adnipcim.obj
 0002:0000829c       ??_C@_0CF@LKNEFAOG@NI?5M?5series?3?5Timeout?5waiting?5for@ 1004a29c     adnipcim.obj
 0002:000082c8       __real@417312d000000000    1004a2c8     adnipcim.obj
 0002:000082d4       ??_C@_0M@IMCLKBPP@NI?5PCI?96220?$AA@ 1004a2d4     xpcionim.obj
 0002:000082e4       ??_C@_0M@JFDAJALO@NI?5PCI?96221?$AA@ 1004a2e4     xpcionim.obj
 0002:000082f4       ??_C@_0P@NGCDCNKM@NI?5PCI?96221?137?$AA@ 1004a2f4     xpcionim.obj
 0002:00008308       ??_C@_0M@OIEHGEPL@NI?5PCI?96224?$AA@ 1004a308     xpcionim.obj
 0002:00008318       ??_C@_0M@PBFMFFLK@NI?5PCI?96225?$AA@ 1004a318     xpcionim.obj
 0002:00008328       ??_C@_0M@FNOJBKLG@NI?5PCI?96229?$AA@ 1004a328     xpcionim.obj
 0002:00008338       ??_C@_0M@INOJMLMI@NI?5PCI?96230?$AA@ 1004a338     xpcionim.obj
 0002:00008348       ??_C@_0M@LPNPKJEK@NI?5PCI?96232?$AA@ 1004a348     xpcionim.obj
 0002:00008358       ??_C@_0M@KGMEJIAL@NI?5PCI?96233?$AA@ 1004a358     xpcionim.obj
 0002:00008368       ??_C@_0M@NLLDGMEO@NI?5PCI?96236?$AA@ 1004a368     xpcionim.obj
 0002:00008378       ??_C@_0M@EFDAEBMA@NI?5PCI?96238?$AA@ 1004a378     xpcionim.obj
 0002:00008388       ??_C@_0M@FMCLHAIB@NI?5PCI?96239?$AA@ 1004a388     xpcionim.obj
 0002:00008398       ??_C@_0M@IJGELHHK@NI?5PCI?96250?$AA@ 1004a398     xpcionim.obj
 0002:000083a8       ??_C@_0M@JAHPIGDL@NI?5PCI?96251?$AA@ 1004a3a8     xpcionim.obj
 0002:000083b8       ??_C@_0M@ONAIHCHO@NI?5PCI?96254?$AA@ 1004a3b8     xpcionim.obj
 0002:000083c8       ??_C@_0M@PEBDEDDP@NI?5PCI?96255?$AA@ 1004a3c8     xpcionim.obj
 0002:000083d8       ??_C@_0M@FIKGAMDD@NI?5PCI?96259?$AA@ 1004a3d8     xpcionim.obj
 0002:000083e8       ??_C@_0M@IBLMCECJ@NI?5PCI?96280?$AA@ 1004a3e8     xpcionim.obj
 0002:000083f8       ??_C@_0M@JIKHBFGI@NI?5PCI?96281?$AA@ 1004a3f8     xpcionim.obj
 0002:00008408       ??_C@_0M@OFNAOBCN@NI?5PCI?96284?$AA@ 1004a408     xpcionim.obj
 0002:00008418       ??_C@_0M@FAHOJPGA@NI?5PCI?96289?$AA@ 1004a418     xpcionim.obj
 0002:00008428       ??_C@_0CI@NFFNBHJA@?$CFs?5?$CIbus?5?$CFd?0?5slot?5?$CFd?$CJ?3?5board?5not?5@ 1004a428     xpcionim.obj
 0002:00008458       ??_C@_0CD@MBDNCLAI@NI?5M?5series?3?5Unknown?5board?5type?5@ 1004a458     xpcionim.obj
 0002:00008484       ??_C@_0CC@DMFKNLL@VendorId?5?$DN?50x?$CFx?0?5DeviceId?5?$DN?50x?$CFx@ 1004a484     xpcruntime:xpcimports.obj
 0002:000084a8       ??_C@_0DH@OHCBLNMG@Subsystem?5Device?5ID?5?$DN?50x?$CFx?6Subsy@ 1004a4a8     xpcruntime:xpcimports.obj
 0002:000084e0       ??_C@_0BD@MMMMEFCM@Class?5Code?5?$DN?50x?$CFx?6?$AA@ 1004a4e0     xpcruntime:xpcimports.obj
 0002:000084f4       ??_C@_0BE@OLDDDNHM@InterruptLine?5?$DN?5?$CFd?6?$AA@ 1004a4f4     xpcruntime:xpcimports.obj
 0002:00008508       ??_C@_0BF@OLKLEKBD@bus?5?$DN?5?$CFd?0?5slot?5?$DN?5?$CFd?6?$AA@ 1004a508     xpcruntime:xpcimports.obj
 0002:00008520       ??_C@_0CE@DGLLGDFH@?5?5?5?5Phys?5?5?5Virtual?5?5?5Length?5IO?1M@ 1004a520     xpcruntime:xpcimports.obj
 0002:00008544       ??_C@_0BI@FEOPLEMG@?$CF08x?5?$CF08x?5?$CF08x?5?5?5?5?5?5?$CFc?6?$AA@ 1004a544     xpcruntime:xpcimports.obj
 0002:0000855c       ??_C@_0BB@BNNCEDPC@rl32eScopeExists?$AA@ 1004a55c     xpcruntime:xpcimports.obj
 0002:00008570       ??_C@_0BM@FJBFEGFG@rl32eScopeExists?5not?5found?6?$AA@ 1004a570     xpcruntime:xpcimports.obj
 0002:0000858c       ??_C@_0O@BNNGKJEA@rl32eDefScope?$AA@ 1004a58c     xpcruntime:xpcimports.obj
 0002:0000859c       ??_C@_0BJ@CDNOENKA@rl32eDefScope?5not?5found?6?$AA@ 1004a59c     xpcruntime:xpcimports.obj
 0002:000085b8       ??_C@_0P@CKNKILDP@rl32eAddSignal?$AA@ 1004a5b8     xpcruntime:xpcimports.obj
 0002:000085c8       ??_C@_0BK@GMJAJBAI@rl32eAddSignal?5not?5found?6?$AA@ 1004a5c8     xpcruntime:xpcimports.obj
 0002:000085e4       ??_C@_0BB@LDMIHGCE@rl32eGetSignalNo?$AA@ 1004a5e4     xpcruntime:xpcimports.obj
 0002:000085f8       ??_C@_0BM@LGAMBAID@rl32eGetSignalNo?5not?5found?6?$AA@ 1004a5f8     xpcruntime:xpcimports.obj
 0002:00008614       ??_C@_0O@CFDGALBP@rl32eSetScope?$AA@ 1004a614     xpcruntime:xpcimports.obj
 0002:00008624       ??_C@_0BJ@JCLHHIN@rl32eSetScope?5not?5found?6?$AA@ 1004a624     xpcruntime:xpcimports.obj
 0002:00008640       ??_C@_0P@IKMCBMHH@xpceFSScopeSet?$AA@ 1004a640     xpcruntime:xpcimports.obj
 0002:00008650       ??_C@_0BK@JODJPNNH@xpceFSScopeSet?5not?5found?6?$AA@ 1004a650     xpcruntime:xpcimports.obj
 0002:0000866c       ??_C@_0BE@DLACEEJM@rl32eSetTargetScope?$AA@ 1004a66c     xpcruntime:xpcimports.obj
 0002:00008680       ??_C@_0BP@JCHFMKPJ@rl32eSetTargetScope?5not?5found?6?$AA@ 1004a680     xpcruntime:xpcimports.obj
 0002:000086a0       ??_C@_0BJ@LIDLNDHC@rl32eSetTargetScopeSigFt?$AA@ 1004a6a0     xpcruntime:xpcimports.obj
 0002:000086bc       ??_C@_0CE@JLGHCFHI@rl32eSetTargetScopeSigFt?5not?5fou@ 1004a6bc     xpcruntime:xpcimports.obj
 0002:000086e0       ??_C@_0BI@JAPOIDNG@rl32eRestartAcquisition?$AA@ 1004a6e0     xpcruntime:xpcimports.obj
 0002:000086f8       ??_C@_0CD@LLBEFFBO@rl32eRestartAcquisition?5not?5foun@ 1004a6f8     xpcruntime:xpcimports.obj
 0002:0000871c       ??_C@_0P@IEIIADJB@xpceScopeAcqOK?$AA@ 1004a71c     xpcruntime:xpcimports.obj
 0002:0000872c       ??_C@_0BK@NJCKNFPN@xpceScopeAcqOK?5not?5found?6?$AA@ 1004a72c     xpcruntime:xpcimports.obj
 0002:00008748       ??_C@_0BA@IJINKAHF@xpceRegisterISR?$AA@ 1004a748     xpcruntime:xpcimports.obj
 0002:00008758       ??_C@_0BL@NNDLOEJE@xpceRegisterISR?5not?5found?6?$AA@ 1004a758     xpcruntime:xpcimports.obj
 0002:00008774       ??_C@_0BC@NLBADGKF@xpceDeRegisterISR?$AA@ 1004a774     xpcruntime:xpcimports.obj
 0002:00008788       ??_C@_0BN@DCAIKFFD@xpceDeRegisterISR?5not?5found?6?$AA@ 1004a788     xpcruntime:xpcimports.obj
 0002:000087a8       ??_C@_0P@CPGPNKEB@xpceFTReadTime?$AA@ 1004a7a8     xpcruntime:xpcimports.obj
 0002:000087b8       ??_C@_0BK@NMABIODN@xpceFTReadTime?5not?5found?6?$AA@ 1004a7b8     xpcruntime:xpcimports.obj
 0002:000087d4       ??_C@_09PHNHCHFH@xpceFTAdd?$AA@ 1004a7d4     xpcruntime:xpcimports.obj
 0002:000087e0       ??_C@_0BF@FJLEIILA@xpceFTAdd?5not?5found?6?$AA@ 1004a7e0     xpcruntime:xpcimports.obj
 0002:000087f8       ??_C@_0P@KEODBLHO@xpceFTSubtract?$AA@ 1004a7f8     xpcruntime:xpcimports.obj
 0002:00008808       ??_C@_0BK@HONODOKP@xpceFTSubtract?5not?5found?6?$AA@ 1004a808     xpcruntime:xpcimports.obj
 0002:00008824       ??_C@_07JPMEPILD@xpcInpB?$AA@ 1004a824     xpcruntime:xpcimports.obj
 0002:0000882c       ??_C@_0BD@PGABEJOL@xpcInpB?5not?5found?6?$AA@ 1004a82c     xpcruntime:xpcimports.obj
 0002:00008840       ??_C@_07KIHBBOKH@xpcInpW?$AA@ 1004a840     xpcruntime:xpcimports.obj
 0002:00008848       ??_C@_0BD@FPCJFMCC@xpcInpW?5not?5found?6?$AA@ 1004a848     xpcruntime:xpcimports.obj
 0002:0000885c       ??_C@_08KDIAJBOP@xpcInpDW?$AA@ 1004a85c     xpcruntime:xpcimports.obj
 0002:00008868       ??_C@_0BE@PIELDNIL@xpcInpDW?5not?5found?6?$AA@ 1004a868     xpcruntime:xpcimports.obj
 0002:0000887c       ??_C@_08PJFMOIGO@xpcOutpB?$AA@ 1004a87c     xpcruntime:xpcimports.obj
 0002:00008888       ??_C@_0BE@HCKNCEKF@xpcOutpB?5not?5found?6?$AA@ 1004a888     xpcruntime:xpcimports.obj
 0002:0000889c       ??_C@_08MOOJAOHK@xpcOutpW?$AA@ 1004a89c     xpcruntime:xpcimports.obj
 0002:000088a8       ??_C@_0BE@NLIFDBGM@xpcOutpW?5not?5found?6?$AA@ 1004a8a8     xpcruntime:xpcimports.obj
 0002:000088bc       ??_C@_09FLIEKHJG@xpcOutpDW?$AA@ 1004a8bc     xpcruntime:xpcimports.obj
 0002:000088c8       ??_C@_0BF@GJKLPNHB@xpcOutpDW?5not?5found?6?$AA@ 1004a8c8     xpcruntime:xpcimports.obj
 0002:000088e0       ??_C@_0BH@EHOLELHH@xpcReserveMemoryRegion?$AA@ 1004a8e0     xpcruntime:xpcimports.obj
 0002:000088f8       ??_C@_0CC@KAAAGPI@xpcReserveMemoryRegion?5not?5found@ 1004a8f8     xpcruntime:xpcimports.obj
 0002:0000891c       ??_C@_0BA@JGPMHGAF@rl32eShowPCIDev?$AA@ 1004a91c     xpcruntime:xpcimports.obj
 0002:0000892c       ??_C@_0BL@DDFFLNHI@rl32eShowPCIDev?5not?5found?6?$AA@ 1004a92c     xpcruntime:xpcimports.obj
 0002:00008948       ??_C@_0BB@KBCOJPFB@rl32eShowPCIInfo?$AA@ 1004a948     xpcruntime:xpcimports.obj
 0002:0000895c       ??_C@_0BM@IFDMAGLO@rl32eShowPCIInfo?5not?5found?6?$AA@ 1004a95c     xpcruntime:xpcimports.obj
 0002:00008978       ??_C@_0BA@BGPAADB@rl32eGetPCIInfo?$AA@ 1004a978     xpcruntime:xpcimports.obj
 0002:00008988       ??_C@_0BL@IGOMLDCK@rl32eGetPCIInfo?5not?5found?6?$AA@ 1004a988     xpcruntime:xpcimports.obj
 0002:000089a4       ??_C@_0BG@NJPFKFDP@rl32eGetPCIInfoAtSlot?$AA@ 1004a9a4     xpcruntime:xpcimports.obj
 0002:000089bc       ??_C@_0CB@BBKIPMLA@rl32eGetPCIInfoAtSlot?5not?5found?6@ 1004a9bc     xpcruntime:xpcimports.obj
 0002:000089e0       ??_C@_0BH@OKBOPNFG@xpceAssignPCIInterrupt?$AA@ 1004a9e0     xpcruntime:xpcimports.obj
 0002:000089f8       ??_C@_0CC@CDNDNJBJ@xpceAssignPCIInterrupt?5not?5found@ 1004a9f8     xpcruntime:xpcimports.obj
 0002:00008a1c       ??_C@_0BB@FCHHFAAH@rl32eInitCOMPort?$AA@ 1004aa1c     xpcruntime:xpcimports.obj
 0002:00008a30       ??_C@_0BM@DDJGKAHB@rl32eInitCOMPort?5not?5found?6?$AA@ 1004aa30     xpcruntime:xpcimports.obj
 0002:00008a4c       ??_C@_0BC@CHEEFCP@rl32eCloseCOMPort?$AA@ 1004aa4c     xpcruntime:xpcimports.obj
 0002:00008a60       ??_C@_0BN@KCOFELEM@rl32eCloseCOMPort?5not?5found?6?$AA@ 1004aa60     xpcruntime:xpcimports.obj
 0002:00008a80       ??_C@_0O@LLJGKFOG@rl32eSendChar?$AA@ 1004aa80     xpcruntime:xpcimports.obj
 0002:00008a90       ??_C@_0BJ@JCJKDACJ@rl32eSendChar?5not?5found?6?$AA@ 1004aa90     xpcruntime:xpcimports.obj
 0002:00008aac       ??_C@_0BB@OMFKCOEK@rl32eReceiveChar?$AA@ 1004aaac     xpcruntime:xpcimports.obj
 0002:00008ac0       ??_C@_0BM@HGAIOAND@rl32eReceiveChar?5not?5found?6?$AA@ 1004aac0     xpcruntime:xpcimports.obj
 0002:00008adc       ??_C@_0BI@PKEJFHMJ@rl32eReceiveBufferCount?$AA@ 1004aadc     xpcruntime:xpcimports.obj
 0002:00008af4       ??_C@_0CD@LNMOFLAH@rl32eReceiveBufferCount?5not?5foun@ 1004aaf4     xpcruntime:xpcimports.obj
 0002:00008b18       ??_C@_0BA@CFIJOJPK@rl32eLineStatus?$AA@ 1004ab18     xpcruntime:xpcimports.obj
 0002:00008b28       ??_C@_0BL@PLIDKKGI@rl32eLineStatus?5not?5found?6?$AA@ 1004ab28     xpcruntime:xpcimports.obj
 0002:00008b44       ??_C@_0P@MDMKIJF@rl32eSendBlock?$AA@ 1004ab44     xpcruntime:xpcimports.obj
 0002:00008b54       ??_C@_0BK@KNBNFIKH@rl32eSendBlock?5not?5found?6?$AA@ 1004ab54     xpcruntime:xpcimports.obj
 0002:00008b70       ??_C@_0BD@PCKOKHO@xpceGetSignalValue?$AA@ 1004ab70     xpcruntime:xpcimports.obj
 0002:00008b84       ??_C@_0BO@GCBDJHMB@xpceGetSignalValue?5not?5found?6?$AA@ 1004ab84     xpcruntime:xpcimports.obj
 0002:00008ba4       ??_C@_0BB@BJONJAGA@xpceSetParameter?$AA@ 1004aba4     xpcruntime:xpcimports.obj
 0002:00008bb8       ??_C@_0BM@BJIKDLHA@xpceSetParameter?5not?5found?6?$AA@ 1004abb8     xpcruntime:xpcimports.obj
 0002:00008bd4       ??_C@_0BB@GNFDFMCM@xpceGetParameter?$AA@ 1004abd4     xpcruntime:xpcimports.obj
 0002:00008be8       ??_C@_0BM@POHNKBC@xpceGetParameter?5not?5found?6?$AA@ 1004abe8     xpcruntime:xpcimports.obj
 0002:00008c04       ??_C@_0BB@CEIJLFCD@xpceGetParamDims?$AA@ 1004ac04     xpcruntime:xpcimports.obj
 0002:00008c18       ??_C@_0BM@OABDBKAO@xpceGetParamDims?5not?5found?6?$AA@ 1004ac18     xpcruntime:xpcimports.obj
 0002:00008c34       ??_C@_0L@OCBLLHBM@xpceGetTET?$AA@ 1004ac34     xpcruntime:xpcimports.obj
 0002:00008c40       ??_C@_0BG@HNOFBOB@xpceGetTET?5not?5found?6?$AA@ 1004ac40     xpcruntime:xpcimports.obj
 0002:00008c58       ??_C@_0BA@FHMIOKFL@xpceUDPOpenSend?$AA@ 1004ac58     xpcruntime:xpcimports.obj
 0002:00008c68       ??_C@_0BL@HNLPFEK@xpceUDPOpenSend?5not?5found?6?$AA@ 1004ac68     xpcruntime:xpcimports.obj
 0002:00008c84       ??_C@_0BD@BCELJJJL@xpceUDPOpenReceive?$AA@ 1004ac84     xpcruntime:xpcimports.obj
 0002:00008c98       ??_C@_0BO@IFKJBHKC@xpceUDPOpenReceive?5not?5found?6?$AA@ 1004ac98     xpcruntime:xpcimports.obj
 0002:00008cb8       ??_C@_0M@OFPFLJGN@xpceUDPSend?$AA@ 1004acb8     xpcruntime:xpcimports.obj
 0002:00008cc4       ??_C@_0BH@NOIKLPAB@xpceUDPSend?5not?5found?6?$AA@ 1004acc4     xpcruntime:xpcimports.obj
 0002:00008cdc       ??_C@_0P@PLFDECIN@xpceUDPReceive?$AA@ 1004acdc     xpcruntime:xpcimports.obj
 0002:00008cec       ??_C@_0BK@OPJMLDLH@xpceUDPReceive?5not?5found?6?$AA@ 1004acec     xpcruntime:xpcimports.obj
 0002:00008d08       ??_C@_0N@IEHPMFME@xpceUDPClose?$AA@ 1004ad08     xpcruntime:xpcimports.obj
 0002:00008d18       ??_C@_0BI@FHPFHECO@xpceUDPClose?5not?5found?6?$AA@ 1004ad18     xpcruntime:xpcimports.obj
 0002:00008d30       ??_C@_0P@OKGNGAGH@xpcIsModelInit?$AA@ 1004ad30     xpcruntime:xpcimports.obj
 0002:00008d40       ??_C@_0BK@DHEMLBIM@xpcIsModelInit?5not?5found?6?$AA@ 1004ad40     xpcruntime:xpcimports.obj
 0002:00008d5c       ??_C@_0BH@KJJLCAOJ@xpcAllocPhysicalMemory?$AA@ 1004ad5c     xpcruntime:xpcimports.obj
 0002:00008d74       ??_C@_0CC@MOJPNHKL@xpcAllocPhysicalMemory?5not?5found@ 1004ad74     xpcruntime:xpcimports.obj
 0002:00008d98       ??_C@_0BG@CBNPGAEL@xpcFreePhysicalMemory?$AA@ 1004ad98     xpcruntime:xpcimports.obj
 0002:00008db0       ??_C@_0CB@PKJEBPOG@xpcFreePhysicalMemory?5not?5found?6@ 1004adb0     xpcruntime:xpcimports.obj
 0002:00008dd4       ??_C@_0BC@JGKNLICL@xpcGetElapsedTime?$AA@ 1004add4     xpcruntime:xpcimports.obj
 0002:00008de8       ??_C@_0BN@OEOAHCIO@xpcGetElapsedTime?5not?5found?6?$AA@ 1004ade8     xpcruntime:xpcimports.obj
 0002:00008e08       ??_C@_0M@ICBLMODA@xpcBusyWait?$AA@ 1004ae08     xpcruntime:xpcimports.obj
 0002:00008e14       ??_C@_0BH@FBOPECBI@xpcBusyWait?5not?5found?6?$AA@ 1004ae14     xpcruntime:xpcimports.obj
 0002:00008e2c       ??_C@_0N@LKKJEKKA@TBCreateSpin?$AA@ 1004ae2c     xpcruntime:xpcimports.obj
 0002:00008e3c       ??_C@_0BI@FHKMLKOE@TBCreateSpin?5not?5found?6?$AA@ 1004ae3c     xpcruntime:xpcimports.obj
 0002:00008e54       ??_C@_0N@HOAJHNBD@TBDeleteSpin?$AA@ 1004ae54     xpcruntime:xpcimports.obj
 0002:00008e64       ??_C@_0BI@BKCPAAG@TBDeleteSpin?5not?5found?6?$AA@ 1004ae64     xpcruntime:xpcimports.obj
 0002:00008e7c       ??_C@_0P@DAHDDBJG@TBTakeSpinFast?$AA@ 1004ae7c     xpcruntime:xpcimports.obj
 0002:00008e8c       ??_C@_0BK@NKAIBHGB@TBTakeSpinFast?5not?5found?6?$AA@ 1004ae8c     xpcruntime:xpcimports.obj
 0002:00008ea8       ??_C@_0P@FKNAAELA@TBGiveSpinFast?$AA@ 1004aea8     xpcruntime:xpcimports.obj
 0002:00008eb8       ??_C@_0BK@KGPJBJND@TBGiveSpinFast?5not?5found?6?$AA@ 1004aeb8     xpcruntime:xpcimports.obj
 0002:00008ed4       ??_C@_0BE@IIGBFDHK@xpceCreateSemaphore?$AA@ 1004aed4     xpcruntime:xpcimports.obj
 0002:00008ee8       ??_C@_0BP@KFBAFFKJ@xpceCreateSemaphore?5not?5found?6?$AA@ 1004aee8     xpcruntime:xpcimports.obj
 0002:00008f08       ??_C@_0BC@IFNIONKJ@xpceWaitSemaphore?$AA@ 1004af08     xpcruntime:xpcimports.obj
 0002:00008f1c       ??_C@_0BN@NMFAADIO@xpceWaitSemaphore?5not?5found?6?$AA@ 1004af1c     xpcruntime:xpcimports.obj
 0002:00008f3c       ??_C@_0BE@NNDIOBKE@xpceSignalSemaphore?$AA@ 1004af3c     xpcruntime:xpcimports.obj
 0002:00008f50       ??_C@_0BP@LBANMHJP@xpceSignalSemaphore?5not?5found?6?$AA@ 1004af50     xpcruntime:xpcimports.obj
 0002:00008f70       ??_C@_0BE@MEBEKOIM@xpceDeleteSemaphore?$AA@ 1004af70     xpcruntime:xpcimports.obj
 0002:00008f84       ??_C@_0BP@OFNCKOJH@xpceDeleteSemaphore?5not?5found?6?$AA@ 1004af84     xpcruntime:xpcimports.obj
 0002:00008fa4       ??_C@_0BD@MFNDMBOF@FindUsbVideoDevice?$AA@ 1004afa4     xpcruntime:xpcimports.obj
 0002:00008fb8       ??_C@_0BO@POKLDHMI@FindUsbVideoDevice?5not?5found?6?$AA@ 1004afb8     xpcruntime:xpcimports.obj
 0002:00008fd8       ??_C@_0BA@PLPAPNAB@GetVideoConfigs?$AA@ 1004afd8     xpcruntime:xpcimports.obj
 0002:00008fe8       ??_C@_0BL@DALDHKHC@GetVideoConfigs?5not?5found?6?$AA@ 1004afe8     xpcruntime:xpcimports.obj
 0002:00009004       ??_C@_0L@GBAEMHMH@StartVideo?$AA@ 1004b004     xpcruntime:xpcimports.obj
 0002:00009010       ??_C@_0BG@HDCELEBP@StartVideo?5not?5found?6?$AA@ 1004b010     xpcruntime:xpcimports.obj
 0002:00009028       ??_C@_0BA@FDNPOCLN@ReadFrameBuffer?$AA@ 1004b028     xpcruntime:xpcimports.obj
 0002:00009038       ??_C@_0BL@JHGHPNBI@ReadFrameBuffer?5not?5found?6?$AA@ 1004b038     xpcruntime:xpcimports.obj
 0002:00009054       ??_C@_09FAHCLKAG@StopVideo?$AA@ 1004b054     xpcruntime:xpcimports.obj
 0002:00009060       ??_C@_0BF@NKGKKADL@StopVideo?5not?5found?6?$AA@ 1004b060     xpcruntime:xpcimports.obj
 0002:00009078       ??_C@_0O@MCPKDLLL@ConvertUImage?$AA@ 1004b078     xpcruntime:xpcimports.obj
 0002:00009088       ??_C@_0BJ@PHJKOAFL@ConvertUImage?5not?5found?6?$AA@ 1004b088     xpcruntime:xpcimports.obj
 0002:000090a4       ??_C@_0BD@NKCBPBJJ@CreateVideoDisplay?$AA@ 1004b0a4     xpcruntime:xpcimports.obj
 0002:000090b8       ??_C@_0BO@HPPLLNFP@CreateVideoDisplay?5not?5found?6?$AA@ 1004b0b8     xpcruntime:xpcimports.obj
 0002:000090d8       ??_C@_0BE@KJCKGPHA@DestroyVideoDisplay?$AA@ 1004b0d8     xpcruntime:xpcimports.obj
 0002:000090ec       ??_C@_0BP@FMGLJAIJ@DestroyVideoDisplay?5not?5found?6?$AA@ 1004b0ec     xpcruntime:xpcimports.obj
 0002:0000910c       ??_C@_0BC@HCMIMIDN@StartVideoDisplay?$AA@ 1004b10c     xpcruntime:xpcimports.obj
 0002:00009120       ??_C@_0BN@EFIEBGOO@StartVideoDisplay?5not?5found?6?$AA@ 1004b120     xpcruntime:xpcimports.obj
 0002:00009140       ??_C@_0BB@JBBLMILG@StopVideoDisplay?$AA@ 1004b140     xpcruntime:xpcimports.obj
 0002:00009154       ??_C@_0BM@DBJBPLEL@StopVideoDisplay?5not?5found?6?$AA@ 1004b154     xpcruntime:xpcimports.obj
 0002:00009170       ??_C@_0M@MFJEGMHC@StreamVideo?$AA@ 1004b170     xpcruntime:xpcimports.obj
 0002:0000917c       ??_C@_0BH@OINCDMLA@StreamVideo?5not?5found?6?$AA@ 1004b17c     xpcruntime:xpcimports.obj
 0002:00009194       ??_C@_0N@IGGLCIGE@xpceaddEvent?$AA@ 1004b194     xpcruntime:xpcimports.obj
 0002:000091a4       ??_C@_0BI@NHJNFMKH@xpceaddEvent?5not?5found?6?$AA@ 1004b1a4     xpcruntime:xpcimports.obj
 0002:000091bc       ??_C@_0BB@LCMHHHFN@getMemoryService?$AA@ 1004b1bc     xpcruntime:xpcimports.obj
 0002:000091d0       ??_C@_0BM@MPLCNIIE@getMemoryService?5not?5found?6?$AA@ 1004b1d0     xpcruntime:xpcimports.obj
 0002:000091ec       ??_C@_0P@KIKONDKK@getCommService?$AA@ 1004b1ec     xpcruntime:xpcimports.obj
 0002:000091fc       ??_C@_0BK@NCECBKNM@getCommService?5not?5found?6?$AA@ 1004b1fc     xpcruntime:xpcimports.obj
 0002:00009218       ??_C@_0P@GDLHFECE@getStatusFlags?$AA@ 1004b218     xpcruntime:xpcimports.obj
 0002:00009228       ??_C@_0BK@NEKDLJHG@getStatusFlags?5not?5found?6?$AA@ 1004b228     xpcruntime:xpcimports.obj
 0002:00009244       ??_C@_0BL@CDFCLKOL@startToAsyncQueueTgtAppSvc?$AA@ 1004b244     xpcruntime:xpcimports.obj
 0002:00009260       ??_C@_0CG@JGOFFKEL@startToAsyncQueueTgtAppSvc?5not?5f@ 1004b260     xpcruntime:xpcimports.obj
 0002:00009288       ??_C@_0BP@IJNGPPPE@terminateToAsyncQueueTgtAppSvc?$AA@ 1004b288     xpcruntime:xpcimports.obj
 0002:000092a8       ??_C@_0CK@NDEMAMKF@terminateToAsyncQueueTgtAppSvc?5n@ 1004b2a8     xpcruntime:xpcimports.obj
 0002:000092d4       ??_C@_0BK@IDACEHAO@sendToAsyncQueueTgtAppSvc?$AA@ 1004b2d4     xpcruntime:xpcimports.obj
 0002:000092f0       ??_C@_0CF@PNCKPEHN@sendToAsyncQueueTgtAppSvc?5not?5fo@ 1004b2f0     xpcruntime:xpcimports.obj
 0002:00009318       ??_C@_0BN@HJOHIFOM@xpceGetIntTimerGranularityNS?$AA@ 1004b318     xpcruntime:xpcimports.obj
 0002:00009338       ??_C@_0CI@OADDPMKB@xpceGetIntTimerGranularityNS?5not@ 1004b338     xpcruntime:xpcimports.obj
 0002:00009360       ??_C@_0BG@CCHICKPN@slrteSetStepSizeDelta?$AA@ 1004b360     xpcruntime:xpcimports.obj
 0002:00009378       ??_C@_0CB@MKHINEIJ@slrteSetStepSizeDelta?5not?5found?6@ 1004b378     xpcruntime:xpcimports.obj
 0002:0000939c       ??_C@_0BI@CLNBLDKJ@slrteGetCurrentStepSize?$AA@ 1004b39c     xpcruntime:xpcimports.obj
 0002:000093b4       ??_C@_0CD@GIOJPGJA@slrteGetCurrentStepSize?5not?5foun@ 1004b3b4     xpcruntime:xpcimports.obj
 0002:000093d8       ??_C@_0BE@FCLCBOC@registerPTPTimeRead?$AA@ 1004b3d8     xpcruntime:xpcimports.obj
 0002:000093ec       ??_C@_0BP@LHPKAJIP@registerPTPTimeRead?5not?5found?6?$AA@ 1004b3ec     xpcruntime:xpcimports.obj
 0002:0000940c       ??_C@_0BG@KIGCDDJI@unRegisterPTPTimeRead?$AA@ 1004b40c     xpcruntime:xpcimports.obj
 0002:00009424       ??_C@_0CB@MLFFBFCM@unRegisterPTPTimeRead?5not?5found?6@ 1004b424     xpcruntime:xpcimports.obj
 0002:00009448       ??_C@_0BB@IPMDDBHK@slTestInitialize?$AA@ 1004b448     xpcruntime:xpcimports.obj
 0002:0000945c       ??_C@_0BM@LAJFCCJH@slTestInitialize?5not?5found?6?$AA@ 1004b45c     xpcruntime:xpcimports.obj
 0002:00009478       ??_C@_0BF@OOMPMEBC@slTestLogAssessments?$AA@ 1004b478     xpcruntime:xpcimports.obj
 0002:00009490       ??_C@_0CA@FGJCEBAG@slTestLogAssessments?5not?5found?6?$AA@ 1004b490     xpcruntime:xpcimports.obj
 0002:000094b0       ??_C@_0BB@HJHKONHO@slTestEvalOnFail?$AA@ 1004b4b0     xpcruntime:xpcimports.obj
 0002:000094c4       ??_C@_0BM@JIKCFFNJ@slTestEvalOnFail?5not?5found?6?$AA@ 1004b4c4     xpcruntime:xpcimports.obj
 0002:000094e0       ??_C@_0BA@LBHLABFP@slTestTerminate?$AA@ 1004b4e0     xpcruntime:xpcimports.obj
 0002:000094f0       ??_C@_0BL@EMFGKAPA@slTestTerminate?5not?5found?6?$AA@ 1004b4f0     xpcruntime:xpcimports.obj
 0002:0000950c       ??_C@_0BE@JPNPBBEO@slTestRegAssessment?$AA@ 1004b50c     xpcruntime:xpcimports.obj
 0002:00009520       ??_C@_0BP@FBDEJJJH@slTestRegAssessment?5not?5found?6?$AA@ 1004b520     xpcruntime:xpcimports.obj
 0002:0000cea8       __FPinit                   1004eea8     LIBCMT:fpinit.obj
 0002:0000ceb4       ??_C@_1BI@BGOHAHKC@?$AAm?$AAs?$AAc?$AAo?$AAr?$AAe?$AAe?$AA?4?$AAd?$AAl?$AAl?$AA?$AA@ 1004eeb4     LIBCMT:crt0dat.obj
 0002:0000cecc       ??_C@_0P@MIGLKIOC@CorExitProcess?$AA@ 1004eecc     LIBCMT:crt0dat.obj
 0002:0000cf64       ??_C@_17LGKOMLJ@?$AA?4?$AA?4?$AA?4?$AA?$AA@ 1004ef64     LIBCMT:wassert.obj
 0002:0000cf6c       ??_C@_13LBAGMAIH@?$AA?6?$AA?$AA@ 1004ef6c     LIBCMT:wassert.obj
 0002:0000cf70       ??_C@_15IABLJNFO@?$AA?6?$AA?6?$AA?$AA@ 1004ef70     LIBCMT:wassert.obj
 0002:0000cf78       ??_C@_1CE@OJBNHDMO@?$AAA?$AAs?$AAs?$AAe?$AAr?$AAt?$AAi?$AAo?$AAn?$AA?5?$AAf?$AAa?$AAi?$AAl?$AAe?$AAd?$AA?$CB?$AA?$AA@ 1004ef78     LIBCMT:wassert.obj
 0002:0000cf9c       ??_C@_1BE@PHKBBGE@?$AAP?$AAr?$AAo?$AAg?$AAr?$AAa?$AAm?$AA?3?$AA?5?$AA?$AA@ 1004ef9c     LIBCMT:wassert.obj
 0002:0000cfb0       ??_C@_1CO@EAEJAADC@?$AA?$DM?$AAp?$AAr?$AAo?$AAg?$AAr?$AAa?$AAm?$AA?5?$AAn?$AAa?$AAm?$AAe?$AA?5?$AAu?$AAn?$AAk?$AAn?$AAo?$AAw?$AAn?$AA?$DO?$AA?$AA@ 1004efb0     LIBCMT:wassert.obj
 0002:0000cfe0       ??_C@_1O@HEMHKNDC@?$AAF?$AAi?$AAl?$AAe?$AA?3?$AA?5?$AA?$AA@ 1004efe0     LIBCMT:wassert.obj
 0002:0000cff0       ??_C@_1O@KCAFKHJE@?$AAL?$AAi?$AAn?$AAe?$AA?3?$AA?5?$AA?$AA@ 1004eff0     LIBCMT:wassert.obj
 0002:0000d000       ??_C@_1BK@PEDCIPMA@?$AAE?$AAx?$AAp?$AAr?$AAe?$AAs?$AAs?$AAi?$AAo?$AAn?$AA?3?$AA?5?$AA?$AA@ 1004f000     LIBCMT:wassert.obj
 0002:0000d020       ??_C@_1OA@EGMLFBHJ@?$AAF?$AAo?$AAr?$AA?5?$AAi?$AAn?$AAf?$AAo?$AAr?$AAm?$AAa?$AAt?$AAi?$AAo?$AAn?$AA?5?$AAo?$AAn?$AA?5?$AAh?$AAo?$AAw?$AA?5?$AAy?$AAo?$AAu?$AAr?$AA?5?$AAp?$AAr?$AAo?$AAg@ 1004f020     LIBCMT:wassert.obj
 0002:0000d100       ??_C@_1HK@POCJMFGK@?$AA?$CI?$AAP?$AAr?$AAe?$AAs?$AAs?$AA?5?$AAR?$AAe?$AAt?$AAr?$AAy?$AA?5?$AAt?$AAo?$AA?5?$AAd?$AAe?$AAb?$AAu?$AAg?$AA?5?$AAt?$AAh?$AAe?$AA?5?$AAa?$AAp?$AAp?$AAl?$AAi?$AAc@ 1004f100     LIBCMT:wassert.obj
 0002:0000d180       ??_C@_1EK@MBDPDCGA@?$AAM?$AAi?$AAc?$AAr?$AAo?$AAs?$AAo?$AAf?$AAt?$AA?5?$AAV?$AAi?$AAs?$AAu?$AAa?$AAl?$AA?5?$AAC?$AA?$CL?$AA?$CL?$AA?5?$AAR?$AAu?$AAn?$AAt?$AAi?$AAm?$AAe?$AA?5?$AAL?$AAi?$AAb@ 1004f180     LIBCMT:wassert.obj
 0002:0000d1cc       __pRawDllMain              1004f1cc     LIBCMT:dllcrt0.obj
 0002:0000d1cc       __pDefaultRawDllMain       1004f1cc     LIBCMT:dllcrt0.obj
 0002:0000d1d0       ?ProcessDetach@NativeDll@<CrtImplementationDetails>@@0IB 1004f1d0     LIBCMT:handler.obj
 0002:0000d1d4       ?ProcessAttach@NativeDll@<CrtImplementationDetails>@@0IB 1004f1d4     LIBCMT:handler.obj
 0002:0000d1d8       ?ThreadAttach@NativeDll@<CrtImplementationDetails>@@0IB 1004f1d8     LIBCMT:handler.obj
 0002:0000d1dc       ?ThreadDetach@NativeDll@<CrtImplementationDetails>@@0IB 1004f1dc     LIBCMT:handler.obj
 0002:0000d1e0       ?ProcessVerifier@NativeDll@<CrtImplementationDetails>@@0IB 1004f1e0     LIBCMT:handler.obj
 0002:0000d2a0       ??_C@_1FK@PGACCAFB@?$AAR?$AA6?$AA0?$AA0?$AA2?$AA?$AN?$AA?6?$AA?9?$AA?5?$AAf?$AAl?$AAo?$AAa?$AAt?$AAi?$AAn?$AAg?$AA?5?$AAp?$AAo?$AAi?$AAn?$AAt?$AA?5?$AAs?$AAu?$AAp?$AAp?$AAo?$AAr?$AAt?$AA?5@ 1004f2a0     LIBCMT:crt0msg.obj
 0002:0000d300       ??_C@_1FE@LLNEDJMD@?$AAR?$AA6?$AA0?$AA0?$AA8?$AA?$AN?$AA?6?$AA?9?$AA?5?$AAn?$AAo?$AAt?$AA?5?$AAe?$AAn?$AAo?$AAu?$AAg?$AAh?$AA?5?$AAs?$AAp?$AAa?$AAc?$AAe?$AA?5?$AAf?$AAo?$AAr?$AA?5?$AAa?$AAr@ 1004f300     LIBCMT:crt0msg.obj
 0002:0000d358       ??_C@_1FI@HONFMGBI@?$AAR?$AA6?$AA0?$AA0?$AA9?$AA?$AN?$AA?6?$AA?9?$AA?5?$AAn?$AAo?$AAt?$AA?5?$AAe?$AAn?$AAo?$AAu?$AAg?$AAh?$AA?5?$AAs?$AAp?$AAa?$AAc?$AAe?$AA?5?$AAf?$AAo?$AAr?$AA?5?$AAe?$AAn@ 1004f358     LIBCMT:crt0msg.obj
 0002:0000d3b0       ??_C@_1EG@BEHAGFJD@?$AAR?$AA6?$AA0?$AA1?$AA0?$AA?$AN?$AA?6?$AA?9?$AA?5?$AAa?$AAb?$AAo?$AAr?$AAt?$AA?$CI?$AA?$CJ?$AA?5?$AAh?$AAa?$AAs?$AA?5?$AAb?$AAe?$AAe?$AAn?$AA?5?$AAc?$AAa?$AAl?$AAl?$AAe?$AAd@ 1004f3b0     LIBCMT:crt0msg.obj
 0002:0000d3f8       ??_C@_1FI@LOGNIKDM@?$AAR?$AA6?$AA0?$AA1?$AA6?$AA?$AN?$AA?6?$AA?9?$AA?5?$AAn?$AAo?$AAt?$AA?5?$AAe?$AAn?$AAo?$AAu?$AAg?$AAh?$AA?5?$AAs?$AAp?$AAa?$AAc?$AAe?$AA?5?$AAf?$AAo?$AAr?$AA?5?$AAt?$AAh@ 1004f3f8     LIBCMT:crt0msg.obj
 0002:0000d450       ??_C@_1FK@BEOGODMC@?$AAR?$AA6?$AA0?$AA1?$AA7?$AA?$AN?$AA?6?$AA?9?$AA?5?$AAu?$AAn?$AAe?$AAx?$AAp?$AAe?$AAc?$AAt?$AAe?$AAd?$AA?5?$AAm?$AAu?$AAl?$AAt?$AAi?$AAt?$AAh?$AAr?$AAe?$AAa?$AAd?$AA?5@ 1004f450     LIBCMT:crt0msg.obj
 0002:0000d4b0       ??_C@_1EC@JIBHAOPH@?$AAR?$AA6?$AA0?$AA1?$AA8?$AA?$AN?$AA?6?$AA?9?$AA?5?$AAu?$AAn?$AAe?$AAx?$AAp?$AAe?$AAc?$AAt?$AAe?$AAd?$AA?5?$AAh?$AAe?$AAa?$AAp?$AA?5?$AAe?$AAr?$AAr?$AAo?$AAr?$AA?$AN?$AA?6@ 1004f4b0     LIBCMT:crt0msg.obj
 0002:0000d4f8       ??_C@_1FC@ECHBIFBC@?$AAR?$AA6?$AA0?$AA1?$AA9?$AA?$AN?$AA?6?$AA?9?$AA?5?$AAu?$AAn?$AAa?$AAb?$AAl?$AAe?$AA?5?$AAt?$AAo?$AA?5?$AAo?$AAp?$AAe?$AAn?$AA?5?$AAc?$AAo?$AAn?$AAs?$AAo?$AAl?$AAe?$AA?5@ 1004f4f8     LIBCMT:crt0msg.obj
 0002:0000d550       ??_C@_1GK@FHCKBEFA@?$AAR?$AA6?$AA0?$AA2?$AA4?$AA?$AN?$AA?6?$AA?9?$AA?5?$AAn?$AAo?$AAt?$AA?5?$AAe?$AAn?$AAo?$AAu?$AAg?$AAh?$AA?5?$AAs?$AAp?$AAa?$AAc?$AAe?$AA?5?$AAf?$AAo?$AAr?$AA?5?$AA_?$AAo@ 1004f550     LIBCMT:crt0msg.obj
 0002:0000d5c0       ??_C@_1EM@MAADIHMB@?$AAR?$AA6?$AA0?$AA2?$AA5?$AA?$AN?$AA?6?$AA?9?$AA?5?$AAp?$AAu?$AAr?$AAe?$AA?5?$AAv?$AAi?$AAr?$AAt?$AAu?$AAa?$AAl?$AA?5?$AAf?$AAu?$AAn?$AAc?$AAt?$AAi?$AAo?$AAn?$AA?5?$AAc@ 1004f5c0     LIBCMT:crt0msg.obj
 0002:0000d610       ??_C@_1GK@MCAAGJMO@?$AAR?$AA6?$AA0?$AA2?$AA6?$AA?$AN?$AA?6?$AA?9?$AA?5?$AAn?$AAo?$AAt?$AA?5?$AAe?$AAn?$AAo?$AAu?$AAg?$AAh?$AA?5?$AAs?$AAp?$AAa?$AAc?$AAe?$AA?5?$AAf?$AAo?$AAr?$AA?5?$AAs?$AAt@ 1004f610     LIBCMT:crt0msg.obj
 0002:0000d680       ??_C@_1GK@MFGOKLAG@?$AAR?$AA6?$AA0?$AA2?$AA7?$AA?$AN?$AA?6?$AA?9?$AA?5?$AAn?$AAo?$AAt?$AA?5?$AAe?$AAn?$AAo?$AAu?$AAg?$AAh?$AA?5?$AAs?$AAp?$AAa?$AAc?$AAe?$AA?5?$AAf?$AAo?$AAr?$AA?5?$AAl?$AAo@ 1004f680     LIBCMT:crt0msg.obj
 0002:0000d6f0       ??_C@_1EK@HHFLMAOL@?$AAR?$AA6?$AA0?$AA2?$AA8?$AA?$AN?$AA?6?$AA?9?$AA?5?$AAu?$AAn?$AAa?$AAb?$AAl?$AAe?$AA?5?$AAt?$AAo?$AA?5?$AAi?$AAn?$AAi?$AAt?$AAi?$AAa?$AAl?$AAi?$AAz?$AAe?$AA?5?$AAh?$AAe@ 1004f6f0     LIBCMT:crt0msg.obj
 0002:0000d73c       ??_C@_1DO@BMFCDCD@?$AAR?$AA6?$AA0?$AA3?$AA0?$AA?$AN?$AA?6?$AA?9?$AA?5?$AAC?$AAR?$AAT?$AA?5?$AAn?$AAo?$AAt?$AA?5?$AAi?$AAn?$AAi?$AAt?$AAi?$AAa?$AAl?$AAi?$AAz?$AAe?$AAd?$AA?$AN?$AA?6?$AA?$AA@ 1004f73c     LIBCMT:crt0msg.obj
 0002:0000d780       ??_C@_1MG@ENCOOIDF@?$AAR?$AA6?$AA0?$AA3?$AA1?$AA?$AN?$AA?6?$AA?9?$AA?5?$AAA?$AAt?$AAt?$AAe?$AAm?$AAp?$AAt?$AA?5?$AAt?$AAo?$AA?5?$AAi?$AAn?$AAi?$AAt?$AAi?$AAa?$AAl?$AAi?$AAz?$AAe?$AA?5?$AAt@ 1004f780     LIBCMT:crt0msg.obj
 0002:0000d848       ??_C@_1GG@GOPILAJP@?$AAR?$AA6?$AA0?$AA3?$AA2?$AA?$AN?$AA?6?$AA?9?$AA?5?$AAn?$AAo?$AAt?$AA?5?$AAe?$AAn?$AAo?$AAu?$AAg?$AAh?$AA?5?$AAs?$AAp?$AAa?$AAc?$AAe?$AA?5?$AAf?$AAo?$AAr?$AA?5?$AAl?$AAo@ 1004f848     LIBCMT:crt0msg.obj
 0002:0000d8b0       ??_C@_1BOO@KGEDBGAJ@?$AAR?$AA6?$AA0?$AA3?$AA3?$AA?$AN?$AA?6?$AA?9?$AA?5?$AAA?$AAt?$AAt?$AAe?$AAm?$AAp?$AAt?$AA?5?$AAt?$AAo?$AA?5?$AAu?$AAs?$AAe?$AA?5?$AAM?$AAS?$AAI?$AAL?$AA?5?$AAc?$AAo?$AAd@ 1004f8b0     LIBCMT:crt0msg.obj
 0002:0000daa0       ??_C@_1GG@MKFPEKFO@?$AAR?$AA6?$AA0?$AA3?$AA4?$AA?$AN?$AA?6?$AA?9?$AA?5?$AAi?$AAn?$AAc?$AAo?$AAn?$AAs?$AAi?$AAs?$AAt?$AAe?$AAn?$AAt?$AA?5?$AAo?$AAn?$AAe?$AAx?$AAi?$AAt?$AA?5?$AAb?$AAe?$AAg@ 1004faa0     LIBCMT:crt0msg.obj
 0002:0000db08       ??_C@_1BO@BFCDCGC@?$AAD?$AAO?$AAM?$AAA?$AAI?$AAN?$AA?5?$AAe?$AAr?$AAr?$AAo?$AAr?$AA?$AN?$AA?6?$AA?$AA@ 1004fb08     LIBCMT:crt0msg.obj
 0002:0000db28       ??_C@_1BK@KMOMNAAI@?$AAS?$AAI?$AAN?$AAG?$AA?5?$AAe?$AAr?$AAr?$AAo?$AAr?$AA?$AN?$AA?6?$AA?$AA@ 1004fb28     LIBCMT:crt0msg.obj
 0002:0000db44       ??_C@_1BM@JBBEPPHI@?$AAT?$AAL?$AAO?$AAS?$AAS?$AA?5?$AAe?$AAr?$AAr?$AAo?$AAr?$AA?$AN?$AA?6?$AA?$AA@ 1004fb44     LIBCMT:crt0msg.obj
 0002:0000db60       ??_C@_15JNBOKNOG@?$AA?$AN?$AA?6?$AA?$AA@ 1004fb60     LIBCMT:crt0msg.obj
 0002:0000db68       ??_C@_1BO@BKOMIGKJ@?$AAr?$AAu?$AAn?$AAt?$AAi?$AAm?$AAe?$AA?5?$AAe?$AAr?$AAr?$AAo?$AAr?$AA?5?$AA?$AA@ 1004fb68     LIBCMT:crt0msg.obj
 0002:0000db88       ??_C@_1DE@JNGNBFGO@?$AAR?$AAu?$AAn?$AAt?$AAi?$AAm?$AAe?$AA?5?$AAE?$AAr?$AAr?$AAo?$AAr?$AA?$CB?$AA?6?$AA?6?$AAP?$AAr?$AAo?$AAg?$AAr?$AAa?$AAm?$AA?3?$AA?5?$AA?$AA@ 1004fb88     LIBCMT:crt0msg.obj
 0002:0000dbbc       ??_C@_06OJHGLDPL@?$CInull?$CJ?$AA@ 1004fbbc     LIBCMT:output.obj
 0002:0000dbc4       ??_C@_1O@CEDCILHN@?$AA?$CI?$AAn?$AAu?$AAl?$AAl?$AA?$CJ?$AA?$AA@ 1004fbc4     LIBCMT:output.obj
 0002:0000dbd8       ___lookuptable             1004fbd8     LIBCMT:output.obj
 0002:0000dca0       ??_C@_03MGHMBJCF@log?$AA@  1004fca0     LIBCMT:libm_error.obj
 0002:0000dca4       ??_C@_05HGHHAHAP@log10?$AA@ 1004fca4     LIBCMT:libm_error.obj
 0002:0000dcac       ??_C@_03KHJOGHMM@exp?$AA@  1004fcac     LIBCMT:libm_error.obj
 0002:0000dcb0       ??_C@_03JGHBODFD@pow?$AA@  1004fcb0     LIBCMT:libm_error.obj
 0002:0000dcb4       ??_C@_04FIHNOPOL@asin?$AA@ 1004fcb4     LIBCMT:libm_error.obj
 0002:0000dcbc       ??_C@_04PDIFKINK@acos?$AA@ 1004fcbc     LIBCMT:libm_error.obj
 0002:0000dcc4       ??_C@_05EOHGHCHD@exp10?$AA@ 1004fcc4     LIBCMT:libm_error.obj
 0002:0000dccc       ??_C@_04MLLJIGOK@atan?$AA@ 1004fccc     LIBCMT:libm_error.obj
 0002:0000dcd4       ??_C@_04GFPJNGEK@ceil?$AA@ 1004fcd4     LIBCMT:libm_error.obj
 0002:0000dcdc       ??_C@_05PBJFFIGL@floor?$AA@ 1004fcdc     LIBCMT:libm_error.obj
 0002:0000dce4       ??_C@_04EHEDPDJG@modf?$AA@ 1004fce4     LIBCMT:libm_error.obj
 0002:0000dcec       ??_C@_03BLEJJJBH@sin?$AA@  1004fcec     LIBCMT:libm_error.obj
 0002:0000dcf0       ??_C@_03LALBNOCG@cos?$AA@  1004fcf0     LIBCMT:libm_error.obj
 0002:0000dcf4       ??_C@_03IIINPABG@tan?$AA@  1004fcf4     LIBCMT:libm_error.obj
 0002:0000dcf8       ??_C@_04EIAKFFMI@sqrt?$AA@ 1004fcf8     LIBCMT:libm_error.obj
 0002:0000dd00       ??_C@_05KLBDPFGC@e?$CL000?$AA@ 1004fd00     LIBCMT:cvt.obj
 0002:0000dd08       ??_C@_1BK@MGMFAEKH@?$AAk?$AAe?$AAr?$AAn?$AAe?$AAl?$AA3?$AA2?$AA?4?$AAd?$AAl?$AAl?$AA?$AA@ 1004fd08     LIBCMT:winapisupp.obj
 0002:0000dd24       ??_C@_08KNHFBNJ@FlsAlloc?$AA@ 1004fd24     LIBCMT:winapisupp.obj
 0002:0000dd30       ??_C@_07PEJMOBNF@FlsFree?$AA@ 1004fd30     LIBCMT:winapisupp.obj
 0002:0000dd38       ??_C@_0M@GDNOONDI@FlsGetValue?$AA@ 1004fd38     LIBCMT:winapisupp.obj
 0002:0000dd44       ??_C@_0M@JCPCPOEF@FlsSetValue?$AA@ 1004fd44     LIBCMT:winapisupp.obj
 0002:0000dd50       ??_C@_0BM@HCFOFFN@InitializeCriticalSectionEx?$AA@ 1004fd50     LIBCMT:winapisupp.obj
 0002:0000dd6c       ??_C@_0P@DLHPPCNH@CreateEventExW?$AA@ 1004fd6c     LIBCMT:winapisupp.obj
 0002:0000dd7c       ??_C@_0BD@KIEEOEEH@CreateSemaphoreExW?$AA@ 1004fd7c     LIBCMT:winapisupp.obj
 0002:0000dd90       ??_C@_0BI@BKLFFAPO@SetThreadStackGuarantee?$AA@ 1004fd90     LIBCMT:winapisupp.obj
 0002:0000dda8       ??_C@_0BG@OGFAJCKC@CreateThreadpoolTimer?$AA@ 1004fda8     LIBCMT:winapisupp.obj
 0002:0000ddc0       ??_C@_0BD@LPLEMMDI@SetThreadpoolTimer?$AA@ 1004fdc0     LIBCMT:winapisupp.obj
 0002:0000ddd4       ??_C@_0CA@FMNJENH@WaitForThreadpoolTimerCallbacks?$AA@ 1004fdd4     LIBCMT:winapisupp.obj
 0002:0000ddf4       ??_C@_0BF@DCFCCNOC@CloseThreadpoolTimer?$AA@ 1004fdf4     LIBCMT:winapisupp.obj
 0002:0000de0c       ??_C@_0BF@FLABGKKM@CreateThreadpoolWait?$AA@ 1004fe0c     LIBCMT:winapisupp.obj
 0002:0000de24       ??_C@_0BC@MGCOHNA@SetThreadpoolWait?$AA@ 1004fe24     LIBCMT:winapisupp.obj
 0002:0000de38       ??_C@_0BE@OCIOMIMP@CloseThreadpoolWait?$AA@ 1004fe38     LIBCMT:winapisupp.obj
 0002:0000de4c       ??_C@_0BJ@LKGHFHBO@FlushProcessWriteBuffers?$AA@ 1004fe4c     LIBCMT:winapisupp.obj
 0002:0000de68       ??_C@_0BP@KALKKPMO@FreeLibraryWhenCallbackReturns?$AA@ 1004fe68     LIBCMT:winapisupp.obj
 0002:0000de88       ??_C@_0BK@DFNBACLA@GetCurrentProcessorNumber?$AA@ 1004fe88     LIBCMT:winapisupp.obj
 0002:0000dea4       ??_C@_0BP@KHGALBC@GetLogicalProcessorInformation?$AA@ 1004fea4     LIBCMT:winapisupp.obj
 0002:0000dec4       ??_C@_0BE@FKKLLFLM@CreateSymbolicLinkW?$AA@ 1004fec4     LIBCMT:winapisupp.obj
 0002:0000ded8       ??_C@_0BJ@OHNKDLIJ@SetDefaultDllDirectories?$AA@ 1004fed8     LIBCMT:winapisupp.obj
 0002:0000def4       ??_C@_0BE@LJANKFHF@EnumSystemLocalesEx?$AA@ 1004fef4     LIBCMT:winapisupp.obj
 0002:0000df08       ??_C@_0BA@IHGNDAEB@CompareStringEx?$AA@ 1004ff08     LIBCMT:winapisupp.obj
 0002:0000df18       ??_C@_0BA@EPCJIIPD@GetDateFormatEx?$AA@ 1004ff18     LIBCMT:winapisupp.obj
 0002:0000df28       ??_C@_0BA@ONOKGCMP@GetLocaleInfoEx?$AA@ 1004ff28     LIBCMT:winapisupp.obj
 0002:0000df38       ??_C@_0BA@CIJJKCJJ@GetTimeFormatEx?$AA@ 1004ff38     LIBCMT:winapisupp.obj
 0002:0000df48       ??_C@_0BJ@PBCCBIPI@GetUserDefaultLocaleName?$AA@ 1004ff48     LIBCMT:winapisupp.obj
 0002:0000df64       ??_C@_0BC@CELBKLLA@IsValidLocaleName?$AA@ 1004ff64     LIBCMT:winapisupp.obj
 0002:0000df78       ??_C@_0O@KKBNKAPF@LCMapStringEx?$AA@ 1004ff78     LIBCMT:winapisupp.obj
 0002:0000df88       ??_C@_0BE@JOGNEJCI@GetCurrentPackageId?$AA@ 1004ff88     LIBCMT:winapisupp.obj
 0002:0000df9c       ??_C@_0P@CDHHOHKP@GetTickCount64?$AA@ 1004ff9c     LIBCMT:winapisupp.obj
 0002:0000dfac       ??_C@_0BO@KPCLFDJJ@GetFileInformationByHandleExW?$AA@ 1004ffac     LIBCMT:winapisupp.obj
 0002:0000dfcc       ??_C@_0BM@MHIDLABK@SetFileInformationByHandleW?$AA@ 1004ffcc     LIBCMT:winapisupp.obj
 0002:0000dfe8       ??_C@_1BK@GAEMIDIL@?$AAA?$AAD?$AAV?$AAA?$AAP?$AAI?$AA3?$AA2?$AA?4?$AAD?$AAL?$AAL?$AA?$AA@ 1004ffe8     LIBCMT:rand_s.obj
 0002:0000e004       ??_C@_0BC@JEAENNKH@SystemFunction036?$AA@ 10050004     LIBCMT:rand_s.obj
 0002:0000e028       ??_C@_1M@HPNHIDJI@?$AAj?$AAa?$AA?9?$AAJ?$AAP?$AA?$AA@ 10050028     LIBCMT:mbctype.obj
 0002:0000e034       ??_C@_1M@BIBDDEMK@?$AAz?$AAh?$AA?9?$AAC?$AAN?$AA?$AA@ 10050034     LIBCMT:mbctype.obj
 0002:0000e040       ??_C@_1M@JLOOOEGK@?$AAk?$AAo?$AA?9?$AAK?$AAR?$AA?$AA@ 10050040     LIBCMT:mbctype.obj
 0002:0000e04c       ??_C@_1M@CLNBBOPM@?$AAz?$AAh?$AA?9?$AAT?$AAW?$AA?$AA@ 1005004c     LIBCMT:mbctype.obj
 0002:0000e078       ??_C@_04FJHINJAO@tanh?$AA@ 10050078     LIBCMT:fpexcept.obj
 0002:0000e080       ??_C@_05KNGEOGJB@atan2?$AA@ 10050080     LIBCMT:fpexcept.obj
 0002:0000e088       ??_C@_04ODHECPBC@fabs?$AA@ 10050088     LIBCMT:fpexcept.obj
 0002:0000e090       ??_C@_05CEJMAHNP@ldexp?$AA@ 10050090     LIBCMT:fpexcept.obj
 0002:0000e098       ??_C@_05KBKMEMPO@_cabs?$AA@ 10050098     LIBCMT:fpexcept.obj
 0002:0000e0a0       ??_C@_06MEIMCGCF@_hypot?$AA@ 100500a0     LIBCMT:fpexcept.obj
 0002:0000e0a8       ??_C@_04KEPJIHGP@fmod?$AA@ 100500a8     LIBCMT:fpexcept.obj
 0002:0000e0b0       ??_C@_05GKKHEGJL@frexp?$AA@ 100500b0     LIBCMT:fpexcept.obj
 0002:0000e0b8       ??_C@_03MJLDFKDL@_y0?$AA@  100500b8     LIBCMT:fpexcept.obj
 0002:0000e0bc       ??_C@_03NAKIGLHK@_y1?$AA@  100500bc     LIBCMT:fpexcept.obj
 0002:0000e0c0       ??_C@_03ONILCKOB@_yn?$AA@  100500c0     LIBCMT:fpexcept.obj
 0002:0000e0c4       ??_C@_05JGDBENOH@_logb?$AA@ 100500c4     LIBCMT:fpexcept.obj
 0002:0000e0cc       ??_C@_0L@KDOEJCKC@_nextafter?$AA@ 100500cc     LIBCMT:fpexcept.obj
 0002:0000e0d8       ??_C@_04COOMCNPB@sinh?$AA@ 100500d8     LIBCMT:fpexcept.obj
 0002:0000e0e0       ??_C@_04HPJJNFIM@cosh?$AA@ 100500e0     LIBCMT:fpexcept.obj
 0002:0000e0e8       ??_C@_1BG@GOEBHBDC@?$AAU?$AAS?$AAE?$AAR?$AA3?$AA2?$AA?4?$AAD?$AAL?$AAL?$AA?$AA@ 100500e8     LIBCMT:crtmboxw.obj
 0002:0000e100       ??_C@_0M@DLDCCGNP@MessageBoxW?$AA@ 10050100     LIBCMT:crtmboxw.obj
 0002:0000e10c       ??_C@_0BA@HNOPNCHB@GetActiveWindow?$AA@ 1005010c     LIBCMT:crtmboxw.obj
 0002:0000e11c       ??_C@_0BD@HHGDFDBJ@GetLastActivePopup?$AA@ 1005011c     LIBCMT:crtmboxw.obj
 0002:0000e130       ??_C@_0BK@DEKFELLI@GetUserObjectInformationW?$AA@ 10050130     LIBCMT:crtmboxw.obj
 0002:0000e14c       ??_C@_0BI@DFKBFLJE@GetProcessWindowStation?$AA@ 1005014c     LIBCMT:crtmboxw.obj
 0002:0000e168       __XcptActTab               10050168     LIBCMT:winxfltr.obj
 0002:0000e1f8       __XcptActTabCount          100501f8     LIBCMT:winxfltr.obj
 0002:0000e1fc       __XcptActTabSize           100501fc     LIBCMT:winxfltr.obj
 0002:0000e200       __First_FPE_Indx           10050200     LIBCMT:winxfltr.obj
 0002:0000e204       __Num_FPE                  10050204     LIBCMT:winxfltr.obj
 0002:0000e208       ___lookuptable_s           10050208     LIBCMT:outputs.obj
 0002:0000e264       ??_C@_03KOEHGMDN@Sun?$AA@  10050264     LIBCMT:nlsdata.obj
 0002:0000e268       ??_C@_03PDAGKDH@Mon?$AA@   10050268     LIBCMT:nlsdata.obj
 0002:0000e26c       ??_C@_03NAGEINEP@Tue?$AA@  1005026c     LIBCMT:nlsdata.obj
 0002:0000e270       ??_C@_03MHOMLAJA@Wed?$AA@  10050270     LIBCMT:nlsdata.obj
 0002:0000e274       ??_C@_03IOFIKPDN@Thu?$AA@  10050274     LIBCMT:nlsdata.obj
 0002:0000e278       ??_C@_03IDIOELNC@Fri?$AA@  10050278     LIBCMT:nlsdata.obj
 0002:0000e27c       ??_C@_03FEFJNEK@Sat?$AA@   1005027c     LIBCMT:nlsdata.obj
 0002:0000e280       ??_C@_06OOPIFAJ@Sunday?$AA@ 10050280     LIBCMT:nlsdata.obj
 0002:0000e288       ??_C@_06JLEDEDGH@Monday?$AA@ 10050288     LIBCMT:nlsdata.obj
 0002:0000e290       ??_C@_07BAAGCFCM@Tuesday?$AA@ 10050290     LIBCMT:nlsdata.obj
 0002:0000e298       ??_C@_09DLIGFAKA@Wednesday?$AA@ 10050298     LIBCMT:nlsdata.obj
 0002:0000e2a4       ??_C@_08HACCIKIA@Thursday?$AA@ 100502a4     LIBCMT:nlsdata.obj
 0002:0000e2b0       ??_C@_06JECMNKMI@Friday?$AA@ 100502b0     LIBCMT:nlsdata.obj
 0002:0000e2b8       ??_C@_08INBOOONO@Saturday?$AA@ 100502b8     LIBCMT:nlsdata.obj
 0002:0000e2c4       ??_C@_03JIHJHPIE@Jan?$AA@  100502c4     LIBCMT:nlsdata.obj
 0002:0000e2c8       ??_C@_03HJBDCHOM@Feb?$AA@  100502c8     LIBCMT:nlsdata.obj
 0002:0000e2cc       ??_C@_03ODNJBKGA@Mar?$AA@  100502cc     LIBCMT:nlsdata.obj
 0002:0000e2d0       ??_C@_03LEOLGMJP@Apr?$AA@  100502d0     LIBCMT:nlsdata.obj
 0002:0000e2d4       ??_C@_03CNMDKL@May?$AA@    100502d4     LIBCMT:nlsdata.obj
 0002:0000e2d8       ??_C@_03IDFGHECI@Jun?$AA@  100502d8     LIBCMT:nlsdata.obj
 0002:0000e2dc       ??_C@_03LBGABGKK@Jul?$AA@  100502dc     LIBCMT:nlsdata.obj
 0002:0000e2e0       ??_C@_03IFJFEIGA@Aug?$AA@  100502e0     LIBCMT:nlsdata.obj
 0002:0000e2e4       ??_C@_03GGCAPAJC@Sep?$AA@  100502e4     LIBCMT:nlsdata.obj
 0002:0000e2e8       ??_C@_03BMAOKBAD@Oct?$AA@  100502e8     LIBCMT:nlsdata.obj
 0002:0000e2ec       ??_C@_03JPJOFNIA@Nov?$AA@  100502ec     LIBCMT:nlsdata.obj
 0002:0000e2f0       ??_C@_03MKABNOCG@Dec?$AA@  100502f0     LIBCMT:nlsdata.obj
 0002:0000e2f4       ??_C@_07CGJPFGJA@January?$AA@ 100502f4     LIBCMT:nlsdata.obj
 0002:0000e2fc       ??_C@_08GNJGEPFN@February?$AA@ 100502fc     LIBCMT:nlsdata.obj
 0002:0000e308       ??_C@_05HPCKOFNC@March?$AA@ 10050308     LIBCMT:nlsdata.obj
 0002:0000e310       ??_C@_05DMJDNLEJ@April?$AA@ 10050310     LIBCMT:nlsdata.obj
 0002:0000e318       ??_C@_04CNLMGBGM@June?$AA@ 10050318     LIBCMT:nlsdata.obj
 0002:0000e320       ??_C@_04MIEPOIFP@July?$AA@ 10050320     LIBCMT:nlsdata.obj
 0002:0000e328       ??_C@_06LBBHFDDG@August?$AA@ 10050328     LIBCMT:nlsdata.obj
 0002:0000e330       ??_C@_09BHHEALKD@September?$AA@ 10050330     LIBCMT:nlsdata.obj
 0002:0000e33c       ??_C@_07JJNFCEND@October?$AA@ 1005033c     LIBCMT:nlsdata.obj
 0002:0000e344       ??_C@_08HCHEGEOA@November?$AA@ 10050344     LIBCMT:nlsdata.obj
 0002:0000e350       ??_C@_08EDHMEBNP@December?$AA@ 10050350     LIBCMT:nlsdata.obj
 0002:0000e35c       ??_C@_02DEDBPAFC@AM?$AA@   1005035c     LIBCMT:nlsdata.obj
 0002:0000e360       ??_C@_02CJNFDJBF@PM?$AA@   10050360     LIBCMT:nlsdata.obj
 0002:0000e364       ??_C@_08BPBNCDIB@MM?1dd?1yy?$AA@ 10050364     LIBCMT:nlsdata.obj
 0002:0000e370       ??_C@_0BE@CKGJFCPC@dddd?0?5MMMM?5dd?0?5yyyy?$AA@ 10050370     LIBCMT:nlsdata.obj
 0002:0000e384       ??_C@_08JCCMCCIL@HH?3mm?3ss?$AA@ 10050384     LIBCMT:nlsdata.obj
 0002:0000e390       ??_C@_17MBGCMIPB@?$AAS?$AAu?$AAn?$AA?$AA@ 10050390     LIBCMT:nlsdata.obj
 0002:0000e398       ??_C@_17KBOMKBF@?$AAM?$AAo?$AAn?$AA?$AA@ 10050398     LIBCMT:nlsdata.obj
 0002:0000e3a0       ??_C@_17BMKGEGOJ@?$AAT?$AAu?$AAe?$AA?$AA@ 100503a0     LIBCMT:nlsdata.obj
 0002:0000e3a8       ??_C@_17CJEDCEPE@?$AAW?$AAe?$AAd?$AA?$AA@ 100503a8     LIBCMT:nlsdata.obj
 0002:0000e3b0       ??_C@_17PDPHAADD@?$AAT?$AAh?$AAu?$AA?$AA@ 100503b0     LIBCMT:nlsdata.obj
 0002:0000e3b8       ??_C@_17HFOLPPLP@?$AAF?$AAr?$AAi?$AA?$AA@ 100503b8     LIBCMT:nlsdata.obj
 0002:0000e3c0       ??_C@_17GGIBDPIH@?$AAS?$AAa?$AAt?$AA?$AA@ 100503c0     LIBCMT:nlsdata.obj
 0002:0000e3c8       ??_C@_1O@IHNHDHPB@?$AAS?$AAu?$AAn?$AAd?$AAa?$AAy?$AA?$AA@ 100503c8     LIBCMT:nlsdata.obj
 0002:0000e3d8       ??_C@_1O@MMNBFLIA@?$AAM?$AAo?$AAn?$AAd?$AAa?$AAy?$AA?$AA@ 100503d8     LIBCMT:nlsdata.obj
 0002:0000e3e8       ??_C@_1BA@ENFBFFEK@?$AAT?$AAu?$AAe?$AAs?$AAd?$AAa?$AAy?$AA?$AA@ 100503e8     LIBCMT:nlsdata.obj
 0002:0000e3f8       ??_C@_1BE@EBOGMDOH@?$AAW?$AAe?$AAd?$AAn?$AAe?$AAs?$AAd?$AAa?$AAy?$AA?$AA@ 100503f8     LIBCMT:nlsdata.obj
 0002:0000e40c       ??_C@_1BC@HHMNLIHE@?$AAT?$AAh?$AAu?$AAr?$AAs?$AAd?$AAa?$AAy?$AA?$AA@ 1005040c     LIBCMT:nlsdata.obj
 0002:0000e420       ??_C@_1O@PDICJHAG@?$AAF?$AAr?$AAi?$AAd?$AAa?$AAy?$AA?$AA@ 10050420     LIBCMT:nlsdata.obj
 0002:0000e430       ??_C@_1BC@ENMNNPAJ@?$AAS?$AAa?$AAt?$AAu?$AAr?$AAd?$AAa?$AAy?$AA?$AA@ 10050430     LIBCMT:nlsdata.obj
 0002:0000e444       ??_C@_17DKNBKCHM@?$AAJ?$AAa?$AAn?$AA?$AA@ 10050444     LIBCMT:nlsdata.obj
 0002:0000e44c       ??_C@_17LMDJEKJN@?$AAF?$AAe?$AAb?$AA?$AA@ 1005044c     LIBCMT:nlsdata.obj
 0002:0000e454       ??_C@_17CKNLEDEC@?$AAM?$AAa?$AAr?$AA?$AA@ 10050454     LIBCMT:nlsdata.obj
 0002:0000e45c       ??_C@_17LFPOIHDD@?$AAA?$AAp?$AAr?$AA?$AA@ 1005045c     LIBCMT:nlsdata.obj
 0002:0000e464       ??_C@_17PNNKMEED@?$AAM?$AAa?$AAy?$AA?$AA@ 10050464     LIBCMT:nlsdata.obj
 0002:0000e46c       ??_C@_17KCJGOCPB@?$AAJ?$AAu?$AAn?$AA?$AA@ 1005046c     LIBCMT:nlsdata.obj
 0002:0000e474       ??_C@_17IJPCKHK@?$AAJ?$AAu?$AAl?$AA?$AA@ 10050474     LIBCMT:nlsdata.obj
 0002:0000e47c       ??_C@_17ICPELBCN@?$AAA?$AAu?$AAg?$AA?$AA@ 1005047c     LIBCMT:nlsdata.obj
 0002:0000e484       ??_C@_17HCHCOKMG@?$AAS?$AAe?$AAp?$AA?$AA@ 10050484     LIBCMT:nlsdata.obj
 0002:0000e48c       ??_C@_17FNLKOI@?$AAO?$AAc?$AAt?$AA?$AA@ 1005048c     LIBCMT:nlsdata.obj
 0002:0000e494       ??_C@_17BBDMLCIG@?$AAN?$AAo?$AAv?$AA?$AA@ 10050494     LIBCMT:nlsdata.obj
 0002:0000e49c       ??_C@_17EGKACKIF@?$AAD?$AAe?$AAc?$AA?$AA@ 1005049c     LIBCMT:nlsdata.obj
 0002:0000e4a4       ??_C@_1BA@EFMEIEBA@?$AAJ?$AAa?$AAn?$AAu?$AAa?$AAr?$AAy?$AA?$AA@ 100504a4     LIBCMT:nlsdata.obj
 0002:0000e4b4       ??_C@_1BC@JGDDFFAM@?$AAF?$AAe?$AAb?$AAr?$AAu?$AAa?$AAr?$AAy?$AA?$AA@ 100504b4     LIBCMT:nlsdata.obj
 0002:0000e4c8       ??_C@_1M@IKEENEDF@?$AAM?$AAa?$AAr?$AAc?$AAh?$AA?$AA@ 100504c8     LIBCMT:nlsdata.obj
 0002:0000e4d4       ??_C@_1M@GJNLMHFD@?$AAA?$AAp?$AAr?$AAi?$AAl?$AA?$AA@ 100504d4     LIBCMT:nlsdata.obj
 0002:0000e4e0       ??_C@_19EPFLPGAP@?$AAJ?$AAu?$AAn?$AAe?$AA?$AA@ 100504e0     LIBCMT:nlsdata.obj
 0002:0000e4ec       ??_C@_19BIFMLPCD@?$AAJ?$AAu?$AAl?$AAy?$AA?$AA@ 100504ec     LIBCMT:nlsdata.obj
 0002:0000e4f8       ??_C@_1O@PAHLKOAC@?$AAA?$AAu?$AAg?$AAu?$AAs?$AAt?$AA?$AA@ 100504f8     LIBCMT:nlsdata.obj
 0002:0000e508       ??_C@_1BE@DKAAMBJL@?$AAS?$AAe?$AAp?$AAt?$AAe?$AAm?$AAb?$AAe?$AAr?$AA?$AA@ 10050508     LIBCMT:nlsdata.obj
 0002:0000e51c       ??_C@_1BA@EPANDLNG@?$AAO?$AAc?$AAt?$AAo?$AAb?$AAe?$AAr?$AA?$AA@ 1005051c     LIBCMT:nlsdata.obj
 0002:0000e52c       ??_C@_1BC@BGLIFPF@?$AAN?$AAo?$AAv?$AAe?$AAm?$AAb?$AAe?$AAr?$AA?$AA@ 1005052c     LIBCMT:nlsdata.obj
 0002:0000e540       ??_C@_1BC@FEMKIFH@?$AAD?$AAe?$AAc?$AAe?$AAm?$AAb?$AAe?$AAr?$AA?$AA@ 10050540     LIBCMT:nlsdata.obj
 0002:0000e554       ??_C@_15ODEHAHHF@?$AAA?$AAM?$AA?$AA@ 10050554     LIBCMT:nlsdata.obj
 0002:0000e55c       ??_C@_15CLMNNGEL@?$AAP?$AAM?$AA?$AA@ 1005055c     LIBCMT:nlsdata.obj
 0002:0000e564       ??_C@_1BC@IEBCMHCM@?$AAM?$AAM?$AA?1?$AAd?$AAd?$AA?1?$AAy?$AAy?$AA?$AA@ 10050564     LIBCMT:nlsdata.obj
 0002:0000e578       ??_C@_1CI@KNAKOEBC@?$AAd?$AAd?$AAd?$AAd?$AA?0?$AA?5?$AAM?$AAM?$AAM?$AAM?$AA?5?$AAd?$AAd?$AA?0?$AA?5?$AAy?$AAy?$AAy?$AAy?$AA?$AA@ 10050578     LIBCMT:nlsdata.obj
 0002:0000e5a0       ??_C@_1BC@GDGBMEMK@?$AAH?$AAH?$AA?3?$AAm?$AAm?$AA?3?$AAs?$AAs?$AA?$AA@ 100505a0     LIBCMT:nlsdata.obj
 0002:0000e5b4       ??_C@_1M@BMHNFIME@?$AAe?$AAn?$AA?9?$AAU?$AAS?$AA?$AA@ 100505b4     LIBCMT:nlsdata.obj
 0002:0000e5c0       _LcidToLocaleNameTable     100505c0     LIBCMT:winapinls.obj
 0002:0000ece0       _LocaleNameToIndexTable    10050ce0     LIBCMT:winapinls.obj
 0002:0000f400       ??_C@_15EMKDOKLE@?$AAa?$AAr?$AA?$AA@ 10051400     LIBCMT:winapinls.obj
 0002:0000f408       ??_C@_15KNPADPLH@?$AAb?$AAg?$AA?$AA@ 10051408     LIBCMT:winapinls.obj
 0002:0000f410       ??_C@_15EDMHLDMO@?$AAc?$AAa?$AA?$AA@ 10051410     LIBCMT:winapinls.obj
 0002:0000f418       ??_C@_1O@BPEAJADD@?$AAz?$AAh?$AA?9?$AAC?$AAH?$AAS?$AA?$AA@ 10051418     LIBCMT:winapinls.obj
 0002:0000f428       ??_C@_15LJNHCMNK@?$AAc?$AAs?$AA?$AA@ 10051428     LIBCMT:winapinls.obj
 0002:0000f430       ??_C@_15FOMCIDHG@?$AAd?$AAa?$AA?$AA@ 10051430     LIBCMT:winapinls.obj
 0002:0000f438       ??_C@_15NBKABECB@?$AAd?$AAe?$AA?$AA@ 10051438     LIBCMT:winapinls.obj
 0002:0000f440       ??_C@_15GHPEIIAO@?$AAe?$AAl?$AA?$AA@ 10051440     LIBCMT:winapinls.obj
 0002:0000f448       ??_C@_15MNPNEAIF@?$AAe?$AAn?$AA?$AA@ 10051448     LIBCMT:winapinls.obj
 0002:0000f450       ??_C@_15GPIOMPMH@?$AAe?$AAs?$AA?$AA@ 10051450     LIBCMT:winapinls.obj
 0002:0000f458       ??_C@_15NGLOAKJC@?$AAf?$AAi?$AA?$AA@ 10051458     LIBCMT:winapinls.obj
 0002:0000f460       ??_C@_15FBKGNKAM@?$AAf?$AAr?$AA?$AA@ 10051460     LIBCMT:winapinls.obj
 0002:0000f468       ??_C@_15KGGCNEFK@?$AAh?$AAe?$AA?$AA@ 10051468     LIBCMT:winapinls.obj
 0002:0000f470       ??_C@_15PGHLIDMF@?$AAh?$AAu?$AA?$AA@ 10051470     LIBCMT:winapinls.obj
 0002:0000f478       ??_C@_15BIEMAPLM@?$AAi?$AAs?$AA?$AA@ 10051478     LIBCMT:winapinls.obj
 0002:0000f480       ??_C@_15IFJLDHAF@?$AAi?$AAt?$AA?$AA@ 10051480     LIBCMT:winapinls.obj
 0002:0000f488       ??_C@_15GEMIOCAG@?$AAj?$AAa?$AA?$AA@ 10051488     LIBCMT:winapinls.obj
 0002:0000f490       ??_C@_15EPELEGJA@?$AAk?$AAo?$AA?$AA@ 10051490     LIBCMT:winapinls.obj
 0002:0000f498       ??_C@_15NDDHIMN@?$AAn?$AAl?$AA?$AA@ 10051498     LIBCMT:winapinls.obj
 0002:0000f4a0       ??_C@_15BPIGNHCD@?$AAn?$AAo?$AA?$AA@ 100514a0     LIBCMT:winapinls.obj
 0002:0000f4a8       ??_C@_15DEOPBLCG@?$AAp?$AAl?$AA?$AA@ 100514a8     LIBCMT:winapinls.obj
 0002:0000f4b0       ??_C@_15KBECGEFG@?$AAp?$AAt?$AA?$AA@ 100514b0     LIBCMT:winapinls.obj
 0002:0000f4b8       ??_C@_15GLJCBFMD@?$AAr?$AAo?$AA?$AA@ 100514b8     LIBCMT:winapinls.obj
 0002:0000f4c0       ??_C@_15FEDGKCDI@?$AAr?$AAu?$AA?$AA@ 100514c0     LIBCMT:winapinls.obj
 0002:0000f4c8       ??_C@_15GLKMLLHM@?$AAh?$AAr?$AA?$AA@ 100514c8     LIBCMT:winapinls.obj
 0002:0000f4d0       ??_C@_15CPKMFBDB@?$AAs?$AAk?$AA?$AA@ 100514d0     LIBCMT:winapinls.obj
 0002:0000f4d8       ??_C@_15BAAIOGMK@?$AAs?$AAq?$AA?$AA@ 100514d8     LIBCMT:winapinls.obj
 0002:0000f4e0       ??_C@_15INNPNOHD@?$AAs?$AAv?$AA?$AA@ 100514e0     LIBCMT:winapinls.obj
 0002:0000f4e8       ??_C@_15CABMMOGH@?$AAt?$AAh?$AA?$AA@ 100514e8     LIBCMT:winapinls.obj
 0002:0000f4f0       ??_C@_15BPLIHJJM@?$AAt?$AAr?$AA?$AA@ 100514f0     LIBCMT:winapinls.obj
 0002:0000f4f8       ??_C@_15NEOEKKDJ@?$AAu?$AAr?$AA?$AA@ 100514f8     LIBCMT:winapinls.obj
 0002:0000f500       ??_C@_15NFICGAJK@?$AAi?$AAd?$AA?$AA@ 10051500     LIBCMT:winapinls.obj
 0002:0000f508       ??_C@_15PJPFLCCM@?$AAu?$AAk?$AA?$AA@ 10051508     LIBCMT:winapinls.obj
 0002:0000f510       ??_C@_15HPJPHDM@?$AAb?$AAe?$AA?$AA@ 10051510     LIBCMT:winapinls.obj
 0002:0000f518       ??_C@_15LCHLGJII@?$AAs?$AAl?$AA?$AA@ 10051518     LIBCMT:winapinls.obj
 0002:0000f520       ??_C@_15PCFJPHHO@?$AAe?$AAt?$AA?$AA@ 10051520     LIBCMT:winapinls.obj
 0002:0000f528       ??_C@_15HPFPGODN@?$AAl?$AAv?$AA?$AA@ 10051528     LIBCMT:winapinls.obj
 0002:0000f530       ??_C@_15NFFGKGLG@?$AAl?$AAt?$AA?$AA@ 10051530     LIBCMT:winapinls.obj
 0002:0000f538       ??_C@_15BDAKCCHN@?$AAf?$AAa?$AA?$AA@ 10051538     LIBCMT:winapinls.obj
 0002:0000f540       ??_C@_15NFGIAIAJ@?$AAv?$AAi?$AA?$AA@ 10051540     LIBCMT:winapinls.obj
 0002:0000f548       ??_C@_15LMKNDMHN@?$AAh?$AAy?$AA?$AA@ 10051548     LIBCMT:winapinls.obj
 0002:0000f550       ??_C@_15IJBHMCFL@?$AAa?$AAz?$AA?$AA@ 10051550     LIBCMT:winapinls.obj
 0002:0000f558       ??_C@_15EKOFJABL@?$AAe?$AAu?$AA?$AA@ 10051558     LIBCMT:winapinls.obj
 0002:0000f560       ??_C@_15BGHADCNK@?$AAm?$AAk?$AA?$AA@ 10051560     LIBCMT:winapinls.obj
 0002:0000f568       ??_C@_15JDNICKHM@?$AAa?$AAf?$AA?$AA@ 10051568     LIBCMT:winapinls.obj
 0002:0000f570       ??_C@_15KPJEDBKD@?$AAk?$AAa?$AA?$AA@ 10051570     LIBCMT:winapinls.obj
 0002:0000f578       ??_C@_15PDNFFFEO@?$AAf?$AAo?$AA?$AA@ 10051578     LIBCMT:winapinls.obj
 0002:0000f580       ??_C@_15OMLEGLOC@?$AAh?$AAi?$AA?$AA@ 10051580     LIBCMT:winapinls.obj
 0002:0000f588       ??_C@_15IDNNENKK@?$AAm?$AAs?$AA?$AA@ 10051588     LIBCMT:winapinls.obj
 0002:0000f590       ??_C@_15MACJNBMH@?$AAk?$AAk?$AA?$AA@ 10051590     LIBCMT:winapinls.obj
 0002:0000f598       ??_C@_15DKDJEOND@?$AAk?$AAy?$AA?$AA@ 10051598     LIBCMT:winapinls.obj
 0002:0000f5a0       ??_C@_15DFGDLJBG@?$AAs?$AAw?$AA?$AA@ 100515a0     LIBCMT:winapinls.obj
 0002:0000f5a8       ??_C@_15BBFAICNG@?$AAu?$AAz?$AA?$AA@ 100515a8     LIBCMT:winapinls.obj
 0002:0000f5b0       ??_C@_15DKNDCGEA@?$AAt?$AAt?$AA?$AA@ 100515b0     LIBCMT:winapinls.obj
 0002:0000f5b8       ??_C@_15MGIFMDPL@?$AAp?$AAa?$AA?$AA@ 100515b8     LIBCMT:winapinls.obj
 0002:0000f5c0       ??_C@_15HCNDBBA@?$AAg?$AAu?$AA?$AA@ 100515c0     LIBCMT:winapinls.obj
 0002:0000f5c8       ??_C@_15FNBEIBON@?$AAt?$AAa?$AA?$AA@ 100515c8     LIBCMT:winapinls.obj
 0002:0000f5d0       ??_C@_15NCHGBGLK@?$AAt?$AAe?$AA?$AA@ 100515d0     LIBCMT:winapinls.obj
 0002:0000f5d8       ??_C@_15PHPHCBPF@?$AAk?$AAn?$AA?$AA@ 100515d8     LIBCMT:winapinls.obj
 0002:0000f5e0       ??_C@_15DLGBCKMP@?$AAm?$AAr?$AA?$AA@ 100515e0     LIBCMT:winapinls.obj
 0002:0000f5e8       ??_C@_15EABBLBFF@?$AAs?$AAa?$AA?$AA@ 100515e8     LIBCMT:winapinls.obj
 0002:0000f5f0       ??_C@_15CBKOMCOI@?$AAm?$AAn?$AA?$AA@ 100515f0     LIBCMT:winapinls.obj
 0002:0000f5f8       ??_C@_15CKDMCJAF@?$AAg?$AAl?$AA?$AA@ 100515f8     LIBCMT:winapinls.obj
 0002:0000f600       ??_C@_17CNJFBPG@?$AAk?$AAo?$AAk?$AA?$AA@ 10051600     LIBCMT:winapinls.obj
 0002:0000f608       ??_C@_17FFBJICPL@?$AAs?$AAy?$AAr?$AA?$AA@ 10051608     LIBCMT:winapinls.obj
 0002:0000f610       ??_C@_17KPNDCPAF@?$AAd?$AAi?$AAv?$AA?$AA@ 10051610     LIBCMT:winapinls.obj
 0002:0000f618       ??_C@_11LOCGONAA@?$AA?$AA@ 10051618     LIBCMT:winapinls.obj
 0002:0000f61c       ??_C@_1M@OKAHONE@?$AAa?$AAr?$AA?9?$AAS?$AAA?$AA?$AA@ 1005161c     LIBCMT:winapinls.obj
 0002:0000f628       ??_C@_1M@FFFIGIGK@?$AAb?$AAg?$AA?9?$AAB?$AAG?$AA?$AA@ 10051628     LIBCMT:winapinls.obj
 0002:0000f634       ??_C@_1M@BJNKEDC@?$AAc?$AAa?$AA?9?$AAE?$AAS?$AA?$AA@ 10051634     LIBCMT:winapinls.obj
 0002:0000f640       ??_C@_1M@IJJHFJHA@?$AAc?$AAs?$AA?9?$AAC?$AAZ?$AA?$AA@ 10051640     LIBCMT:winapinls.obj
 0002:0000f64c       ??_C@_1M@CLPEOBGI@?$AAd?$AAa?$AA?9?$AAD?$AAK?$AA?$AA@ 1005164c     LIBCMT:winapinls.obj
 0002:0000f658       ??_C@_1M@MCMADGCB@?$AAd?$AAe?$AA?9?$AAD?$AAE?$AA?$AA@ 10051658     LIBCMT:winapinls.obj
 0002:0000f664       ??_C@_1M@OOCKEMAM@?$AAe?$AAl?$AA?9?$AAG?$AAR?$AA?$AA@ 10051664     LIBCMT:winapinls.obj
 0002:0000f670       ??_C@_1M@DDNJFGID@?$AAf?$AAi?$AA?9?$AAF?$AAI?$AA?$AA@ 10051670     LIBCMT:winapinls.obj
 0002:0000f67c       ??_C@_1M@GLIPPMAC@?$AAf?$AAr?$AA?9?$AAF?$AAR?$AA?$AA@ 1005167c     LIBCMT:winapinls.obj
 0002:0000f688       ??_C@_1M@GFMCHPE@?$AAh?$AAe?$AA?9?$AAI?$AAL?$AA?$AA@ 10051688     LIBCMT:winapinls.obj
 0002:0000f694       ??_C@_1M@MHLPGNKM@?$AAh?$AAu?$AA?9?$AAH?$AAU?$AA?$AA@ 10051694     LIBCMT:winapinls.obj
 0002:0000f6a0       ??_C@_1M@LPDDNNPN@?$AAi?$AAs?$AA?9?$AAI?$AAS?$AA?$AA@ 100516a0     LIBCMT:winapinls.obj
 0002:0000f6ac       ??_C@_1M@MADIPODN@?$AAi?$AAt?$AA?9?$AAI?$AAT?$AA?$AA@ 100516ac     LIBCMT:winapinls.obj
 0002:0000f6b8       ??_C@_1M@IHBJJGG@?$AAn?$AAl?$AA?9?$AAN?$AAL?$AA?$AA@ 100516b8     LIBCMT:winapinls.obj
 0002:0000f6c4       ??_C@_1M@EANAGDL@?$AAn?$AAb?$AA?9?$AAN?$AAO?$AA?$AA@ 100516c4     LIBCMT:winapinls.obj
 0002:0000f6d0       ??_C@_1M@NEIEMEGP@?$AAp?$AAl?$AA?9?$AAP?$AAL?$AA?$AA@ 100516d0     LIBCMT:winapinls.obj
 0002:0000f6dc       ??_C@_1M@BOCFIGEP@?$AAp?$AAt?$AA?9?$AAB?$AAR?$AA?$AA@ 100516dc     LIBCMT:winapinls.obj
 0002:0000f6e8       ??_C@_1M@IMPFOPBG@?$AAr?$AAo?$AA?9?$AAR?$AAO?$AA?$AA@ 100516e8     LIBCMT:winapinls.obj
 0002:0000f6f4       ??_C@_1M@IDNNEJMM@?$AAr?$AAu?$AA?9?$AAR?$AAU?$AA?$AA@ 100516f4     LIBCMT:winapinls.obj
 0002:0000f700       ??_C@_1M@LILEEOGM@?$AAh?$AAr?$AA?9?$AAH?$AAR?$AA?$AA@ 10051700     LIBCMT:winapinls.obj
 0002:0000f70c       ??_C@_1M@FKIFEHPB@?$AAs?$AAk?$AA?9?$AAS?$AAK?$AA?$AA@ 1005170c     LIBCMT:winapinls.obj
 0002:0000f718       ??_C@_1M@LJMAMNPJ@?$AAs?$AAq?$AA?9?$AAA?$AAL?$AA?$AA@ 10051718     LIBCMT:winapinls.obj
 0002:0000f724       ??_C@_1M@GIAKDKJK@?$AAs?$AAv?$AA?9?$AAS?$AAE?$AA?$AA@ 10051724     LIBCMT:winapinls.obj
 0002:0000f730       ??_C@_1M@MKJKIKCL@?$AAt?$AAh?$AA?9?$AAT?$AAH?$AA?$AA@ 10051730     LIBCMT:winapinls.obj
 0002:0000f73c       ??_C@_1M@MFLCCMPB@?$AAt?$AAr?$AA?9?$AAT?$AAR?$AA?$AA@ 1005173c     LIBCMT:winapinls.obj
 0002:0000f748       ??_C@_1M@OIJHDKJN@?$AAu?$AAr?$AA?9?$AAP?$AAK?$AA?$AA@ 10051748     LIBCMT:winapinls.obj
 0002:0000f754       ??_C@_1M@LHIPCIEK@?$AAi?$AAd?$AA?9?$AAI?$AAD?$AA?$AA@ 10051754     LIBCMT:winapinls.obj
 0002:0000f760       ??_C@_1M@MFMOBGI@?$AAu?$AAk?$AA?9?$AAU?$AAA?$AA?$AA@ 10051760     LIBCMT:winapinls.obj
 0002:0000f76c       ??_C@_1M@OBGLJIPL@?$AAb?$AAe?$AA?9?$AAB?$AAY?$AA?$AA@ 1005176c     LIBCMT:winapinls.obj
 0002:0000f778       ??_C@_1M@BCFAJEAD@?$AAs?$AAl?$AA?9?$AAS?$AAI?$AA?$AA@ 10051778     LIBCMT:winapinls.obj
 0002:0000f784       ??_C@_1M@FKFFEDDN@?$AAe?$AAt?$AA?9?$AAE?$AAE?$AA?$AA@ 10051784     LIBCMT:winapinls.obj
 0002:0000f790       ??_C@_1M@KGKKAACI@?$AAl?$AAv?$AA?9?$AAL?$AAV?$AA?$AA@ 10051790     LIBCMT:winapinls.obj
 0002:0000f79c       ??_C@_1M@IFGBIJO@?$AAl?$AAt?$AA?9?$AAL?$AAT?$AA?$AA@ 1005179c     LIBCMT:winapinls.obj
 0002:0000f7a8       ??_C@_1M@FGEAHEDM@?$AAf?$AAa?$AA?9?$AAI?$AAR?$AA?$AA@ 100517a8     LIBCMT:winapinls.obj
 0002:0000f7b4       ??_C@_1M@KBMAIBFN@?$AAv?$AAi?$AA?9?$AAV?$AAN?$AA?$AA@ 100517b4     LIBCMT:winapinls.obj
 0002:0000f7c0       ??_C@_1M@GPCBKDJK@?$AAh?$AAy?$AA?9?$AAA?$AAM?$AA?$AA@ 100517c0     LIBCMT:winapinls.obj
 0002:0000f7cc       ??_C@_1BG@BECMDDJB@?$AAa?$AAz?$AA?9?$AAA?$AAZ?$AA?9?$AAL?$AAa?$AAt?$AAn?$AA?$AA@ 100517cc     LIBCMT:winapinls.obj
 0002:0000f7e4       ??_C@_1M@MAOFCAEA@?$AAe?$AAu?$AA?9?$AAE?$AAS?$AA?$AA@ 100517e4     LIBCMT:winapinls.obj
 0002:0000f7f0       ??_C@_1M@IGHABKPI@?$AAm?$AAk?$AA?9?$AAM?$AAK?$AA?$AA@ 100517f0     LIBCMT:winapinls.obj
 0002:0000f7fc       ??_C@_1M@IAIGNEJG@?$AAt?$AAn?$AA?9?$AAZ?$AAA?$AA?$AA@ 100517fc     LIBCMT:winapinls.obj
 0002:0000f808       ??_C@_1M@IIJCOJFA@?$AAx?$AAh?$AA?9?$AAZ?$AAA?$AA?$AA@ 10051808     LIBCMT:winapinls.obj
 0002:0000f814       ??_C@_1M@LGPJHNJH@?$AAz?$AAu?$AA?9?$AAZ?$AAA?$AA?$AA@ 10051814     LIBCMT:winapinls.obj
 0002:0000f820       ??_C@_1M@HOKAOIO@?$AAa?$AAf?$AA?9?$AAZ?$AAA?$AA?$AA@ 10051820     LIBCMT:winapinls.obj
 0002:0000f82c       ??_C@_1M@DPCLHLIE@?$AAk?$AAa?$AA?9?$AAG?$AAE?$AA?$AA@ 1005182c     LIBCMT:winapinls.obj
 0002:0000f838       ??_C@_1M@BLKMHJBI@?$AAf?$AAo?$AA?9?$AAF?$AAO?$AA?$AA@ 10051838     LIBCMT:winapinls.obj
 0002:0000f844       ??_C@_1M@LGGJAPPB@?$AAh?$AAi?$AA?9?$AAI?$AAN?$AA?$AA@ 10051844     LIBCMT:winapinls.obj
 0002:0000f850       ??_C@_1M@FIKPIHFE@?$AAm?$AAt?$AA?9?$AAM?$AAT?$AA?$AA@ 10051850     LIBCMT:winapinls.obj
 0002:0000f85c       ??_C@_1M@HEGGPBFA@?$AAs?$AAe?$AA?9?$AAN?$AAO?$AA?$AA@ 1005185c     LIBCMT:winapinls.obj
 0002:0000f868       ??_C@_1M@EIBJEEPA@?$AAm?$AAs?$AA?9?$AAM?$AAY?$AA?$AA@ 10051868     LIBCMT:winapinls.obj
 0002:0000f874       ??_C@_1M@FHLBGMPP@?$AAk?$AAk?$AA?9?$AAK?$AAZ?$AA?$AA@ 10051874     LIBCMT:winapinls.obj
 0002:0000f880       ??_C@_1M@NGJJLCGI@?$AAk?$AAy?$AA?9?$AAK?$AAG?$AA?$AA@ 10051880     LIBCMT:winapinls.obj
 0002:0000f88c       ??_C@_1M@GIENNBFC@?$AAs?$AAw?$AA?9?$AAK?$AAE?$AA?$AA@ 1005188c     LIBCMT:winapinls.obj
 0002:0000f898       ??_C@_1BG@NDGMJIMJ@?$AAu?$AAz?$AA?9?$AAU?$AAZ?$AA?9?$AAL?$AAa?$AAt?$AAn?$AA?$AA@ 10051898     LIBCMT:winapinls.obj
 0002:0000f8b0       ??_C@_1M@IDCCIHBC@?$AAt?$AAt?$AA?9?$AAR?$AAU?$AA?$AA@ 100518b0     LIBCMT:winapinls.obj
 0002:0000f8bc       ??_C@_1M@LOICPMOJ@?$AAb?$AAn?$AA?9?$AAI?$AAN?$AA?$AA@ 100518bc     LIBCMT:winapinls.obj
 0002:0000f8c8       ??_C@_1M@KPKKNEAH@?$AAp?$AAa?$AA?9?$AAI?$AAN?$AA?$AA@ 100518c8     LIBCMT:winapinls.obj
 0002:0000f8d4       ??_C@_1M@PJGPPBOG@?$AAg?$AAu?$AA?9?$AAI?$AAN?$AA?$AA@ 100518d4     LIBCMT:winapinls.obj
 0002:0000f8e0       ??_C@_1M@KMKMOPHI@?$AAt?$AAa?$AA?9?$AAI?$AAN?$AA?$AA@ 100518e0     LIBCMT:winapinls.obj
 0002:0000f8ec       ??_C@_1M@KFEHEPAC@?$AAt?$AAe?$AA?9?$AAI?$AAN?$AA?$AA@ 100518ec     LIBCMT:winapinls.obj
 0002:0000f8f8       ??_C@_1M@CDCLMGHI@?$AAk?$AAn?$AA?9?$AAI?$AAN?$AA?$AA@ 100518f8     LIBCMT:winapinls.obj
 0002:0000f904       ??_C@_1M@MIODLDKF@?$AAm?$AAl?$AA?9?$AAI?$AAN?$AA?$AA@ 10051904     LIBCMT:winapinls.obj
 0002:0000f910       ??_C@_1M@PBIEACPO@?$AAm?$AAr?$AA?9?$AAI?$AAN?$AA?$AA@ 10051910     LIBCMT:winapinls.obj
 0002:0000f91c       ??_C@_1M@NIDEAGPH@?$AAs?$AAa?$AA?9?$AAI?$AAN?$AA?$AA@ 1005191c     LIBCMT:winapinls.obj
 0002:0000f928       ??_C@_1M@FHIHCBIO@?$AAm?$AAn?$AA?9?$AAM?$AAN?$AA?$AA@ 10051928     LIBCMT:winapinls.obj
 0002:0000f934       ??_C@_1M@JAIJPENP@?$AAc?$AAy?$AA?9?$AAG?$AAB?$AA?$AA@ 10051934     LIBCMT:winapinls.obj
 0002:0000f940       ??_C@_1M@PHGFBEPN@?$AAg?$AAl?$AA?9?$AAE?$AAS?$AA?$AA@ 10051940     LIBCMT:winapinls.obj
 0002:0000f94c       ??_C@_1O@KPIPDNCP@?$AAk?$AAo?$AAk?$AA?9?$AAI?$AAN?$AA?$AA@ 1005194c     LIBCMT:winapinls.obj
 0002:0000f95c       ??_C@_1O@KNHJLDJA@?$AAs?$AAy?$AAr?$AA?9?$AAS?$AAY?$AA?$AA@ 1005195c     LIBCMT:winapinls.obj
 0002:0000f96c       ??_C@_1O@MKEKBLAH@?$AAd?$AAi?$AAv?$AA?9?$AAM?$AAV?$AA?$AA@ 1005196c     LIBCMT:winapinls.obj
 0002:0000f97c       ??_C@_1O@OHDCKDDF@?$AAq?$AAu?$AAz?$AA?9?$AAB?$AAO?$AA?$AA@ 1005197c     LIBCMT:winapinls.obj
 0002:0000f98c       ??_C@_1M@LEPJNLFD@?$AAn?$AAs?$AA?9?$AAZ?$AAA?$AA?$AA@ 1005198c     LIBCMT:winapinls.obj
 0002:0000f998       ??_C@_1M@OMLEIIJB@?$AAm?$AAi?$AA?9?$AAN?$AAZ?$AA?$AA@ 10051998     LIBCMT:winapinls.obj
 0002:0000f9a4       ??_C@_1M@PMPEAILG@?$AAa?$AAr?$AA?9?$AAI?$AAQ?$AA?$AA@ 100519a4     LIBCMT:winapinls.obj
 0002:0000f9b0       ??_C@_1M@CNKPNOEE@?$AAd?$AAe?$AA?9?$AAC?$AAH?$AA?$AA@ 100519b0     LIBCMT:winapinls.obj
 0002:0000f9bc       ??_C@_1M@LKMGMLKO@?$AAe?$AAn?$AA?9?$AAG?$AAB?$AA?$AA@ 100519bc     LIBCMT:winapinls.obj
 0002:0000f9c8       ??_C@_1M@PGKJFFGL@?$AAe?$AAs?$AA?9?$AAM?$AAX?$AA?$AA@ 100519c8     LIBCMT:winapinls.obj
 0002:0000f9d4       ??_C@_1M@DNNANBDC@?$AAf?$AAr?$AA?9?$AAB?$AAE?$AA?$AA@ 100519d4     LIBCMT:winapinls.obj
 0002:0000f9e0       ??_C@_1M@HLGMDFHM@?$AAi?$AAt?$AA?9?$AAC?$AAH?$AA?$AA@ 100519e0     LIBCMT:winapinls.obj
 0002:0000f9ec       ??_C@_1M@CLLBGJH@?$AAn?$AAl?$AA?9?$AAB?$AAE?$AA?$AA@ 100519ec     LIBCMT:winapinls.obj
 0002:0000f9f8       ??_C@_1M@BODBOGLF@?$AAn?$AAn?$AA?9?$AAN?$AAO?$AA?$AA@ 100519f8     LIBCMT:winapinls.obj
 0002:0000fa04       ??_C@_1M@HFFAHKAD@?$AAp?$AAt?$AA?9?$AAP?$AAT?$AA?$AA@ 10051a04     LIBCMT:winapinls.obj
 0002:0000fa10       ??_C@_1BG@LNOAKHIE@?$AAs?$AAr?$AA?9?$AAS?$AAP?$AA?9?$AAL?$AAa?$AAt?$AAn?$AA?$AA@ 10051a10     LIBCMT:winapinls.obj
 0002:0000fa28       ??_C@_1M@HBMHBGAK@?$AAs?$AAv?$AA?9?$AAF?$AAI?$AA?$AA@ 10051a28     LIBCMT:winapinls.obj
 0002:0000fa34       ??_C@_1BG@DGCJGJBE@?$AAa?$AAz?$AA?9?$AAA?$AAZ?$AA?9?$AAC?$AAy?$AAr?$AAl?$AA?$AA@ 10051a34     LIBCMT:winapinls.obj
 0002:0000fa4c       ??_C@_1M@KEJDAAHB@?$AAs?$AAe?$AA?9?$AAS?$AAE?$AA?$AA@ 10051a4c     LIBCMT:winapinls.obj
 0002:0000fa58       ??_C@_1M@HEIBJJAD@?$AAm?$AAs?$AA?9?$AAB?$AAN?$AA?$AA@ 10051a58     LIBCMT:winapinls.obj
 0002:0000fa64       ??_C@_1BG@PBGJMCEM@?$AAu?$AAz?$AA?9?$AAU?$AAZ?$AA?9?$AAC?$AAy?$AAr?$AAl?$AA?$AA@ 10051a64     LIBCMT:winapinls.obj
 0002:0000fa7c       ??_C@_1O@LAOBCMDF@?$AAq?$AAu?$AAz?$AA?9?$AAE?$AAC?$AA?$AA@ 10051a7c     LIBCMT:winapinls.obj
 0002:0000fa8c       ??_C@_1M@POEEMAIO@?$AAa?$AAr?$AA?9?$AAE?$AAG?$AA?$AA@ 10051a8c     LIBCMT:winapinls.obj
 0002:0000fa98       ??_C@_1M@EFAKDEDL@?$AAz?$AAh?$AA?9?$AAH?$AAK?$AA?$AA@ 10051a98     LIBCMT:winapinls.obj
 0002:0000faa4       ??_C@_1M@HKKIJHGI@?$AAd?$AAe?$AA?9?$AAA?$AAT?$AA?$AA@ 10051aa4     LIBCMT:winapinls.obj
 0002:0000fab0       ??_C@_1M@KBFBEHJF@?$AAe?$AAn?$AA?9?$AAA?$AAU?$AA?$AA@ 10051ab0     LIBCMT:winapinls.obj
 0002:0000fabc       ??_C@_1M@MNPLFAAH@?$AAe?$AAs?$AA?9?$AAE?$AAS?$AA?$AA@ 10051abc     LIBCMT:winapinls.obj
 0002:0000fac8       ??_C@_1M@HJOOJFMA@?$AAf?$AAr?$AA?9?$AAC?$AAA?$AA?$AA@ 10051ac8     LIBCMT:winapinls.obj
 0002:0000fad4       ??_C@_1BG@JPOFPNAB@?$AAs?$AAr?$AA?9?$AAS?$AAP?$AA?9?$AAC?$AAy?$AAr?$AAl?$AA?$AA@ 10051ad4     LIBCMT:winapinls.obj
 0002:0000faec       ??_C@_1M@LNFOCMOB@?$AAs?$AAe?$AA?9?$AAF?$AAI?$AA?$AA@ 10051aec     LIBCMT:winapinls.obj
 0002:0000faf8       ??_C@_1O@MGJBOAMB@?$AAq?$AAu?$AAz?$AA?9?$AAP?$AAE?$AA?$AA@ 10051af8     LIBCMT:winapinls.obj
 0002:0000fb08       ??_C@_1M@GJINLBOK@?$AAa?$AAr?$AA?9?$AAL?$AAY?$AA?$AA@ 10051b08     LIBCMT:winapinls.obj
 0002:0000fb14       ??_C@_1M@GGMNHJNL@?$AAz?$AAh?$AA?9?$AAS?$AAG?$AA?$AA@ 10051b14     LIBCMT:winapinls.obj
 0002:0000fb20       ??_C@_1M@HOIKODND@?$AAd?$AAe?$AA?9?$AAL?$AAU?$AA?$AA@ 10051b20     LIBCMT:winapinls.obj
 0002:0000fb2c       ??_C@_1M@DDOCCGFG@?$AAe?$AAn?$AA?9?$AAC?$AAA?$AA?$AA@ 10051b2c     LIBCMT:winapinls.obj
 0002:0000fb38       ??_C@_1M@BNOEMJLF@?$AAe?$AAs?$AA?9?$AAG?$AAT?$AA?$AA@ 10051b38     LIBCMT:winapinls.obj
 0002:0000fb44       ??_C@_1M@EOGNKEK@?$AAf?$AAr?$AA?9?$AAC?$AAH?$AA?$AA@ 10051b44     LIBCMT:winapinls.obj
 0002:0000fb50       ??_C@_1M@FLIDJFHL@?$AAh?$AAr?$AA?9?$AAB?$AAA?$AA?$AA@ 10051b50     LIBCMT:winapinls.obj
 0002:0000fb5c       ??_C@_1O@FMCELNAJ@?$AAs?$AAm?$AAj?$AA?9?$AAN?$AAO?$AA?$AA@ 10051b5c     LIBCMT:winapinls.obj
 0002:0000fb6c       ??_C@_1M@JHGLJMGJ@?$AAa?$AAr?$AA?9?$AAD?$AAZ?$AA?$AA@ 10051b6c     LIBCMT:winapinls.obj
 0002:0000fb78       ??_C@_1M@JKKFDCNP@?$AAz?$AAh?$AA?9?$AAM?$AAO?$AA?$AA@ 10051b78     LIBCMT:winapinls.obj
 0002:0000fb84       ??_C@_1M@GEEFALPE@?$AAd?$AAe?$AA?9?$AAL?$AAI?$AA?$AA@ 10051b84     LIBCMT:winapinls.obj
 0002:0000fb90       ??_C@_1M@IGEOFBG@?$AAe?$AAn?$AA?9?$AAN?$AAZ?$AA?$AA@ 10051b90     LIBCMT:winapinls.obj
 0002:0000fb9c       ??_C@_1M@KDBONEHP@?$AAe?$AAs?$AA?9?$AAC?$AAR?$AA?$AA@ 10051b9c     LIBCMT:winapinls.obj
 0002:0000fba8       ??_C@_1M@FHMDOHNN@?$AAf?$AAr?$AA?9?$AAL?$AAU?$AA?$AA@ 10051ba8     LIBCMT:winapinls.obj
 0002:0000fbb4       ??_C@_1BG@NFKKMAFG@?$AAb?$AAs?$AA?9?$AAB?$AAA?$AA?9?$AAL?$AAa?$AAt?$AAn?$AA?$AA@ 10051bb4     LIBCMT:winapinls.obj
 0002:0000fbcc       ??_C@_1O@IMNBEMCI@?$AAs?$AAm?$AAj?$AA?9?$AAS?$AAE?$AA?$AA@ 10051bcc     LIBCMT:winapinls.obj
 0002:0000fbdc       ??_C@_1M@DHHMBNDP@?$AAa?$AAr?$AA?9?$AAM?$AAA?$AA?$AA@ 10051bdc     LIBCMT:winapinls.obj
 0002:0000fbe8       ??_C@_1M@BNBLJCGH@?$AAe?$AAn?$AA?9?$AAI?$AAE?$AA?$AA@ 10051be8     LIBCMT:winapinls.obj
 0002:0000fbf4       ??_C@_1M@GEPAFMDL@?$AAe?$AAs?$AA?9?$AAP?$AAA?$AA?$AA@ 10051bf4     LIBCMT:winapinls.obj
 0002:0000fc00       ??_C@_1M@OJONDMDL@?$AAf?$AAr?$AA?9?$AAM?$AAC?$AA?$AA@ 10051c00     LIBCMT:winapinls.obj
 0002:0000fc0c       ??_C@_1BG@OBCNFJB@?$AAs?$AAr?$AA?9?$AAB?$AAA?$AA?9?$AAL?$AAa?$AAt?$AAn?$AA?$AA@ 10051c0c     LIBCMT:winapinls.obj
 0002:0000fc24       ??_C@_1O@KEMEEGPO@?$AAs?$AAm?$AAa?$AA?9?$AAN?$AAO?$AA?$AA@ 10051c24     LIBCMT:winapinls.obj
 0002:0000fc34       ??_C@_1M@ELMGFODK@?$AAa?$AAr?$AA?9?$AAT?$AAN?$AA?$AA@ 10051c34     LIBCMT:winapinls.obj
 0002:0000fc40       ??_C@_1M@BHDLHFAF@?$AAe?$AAn?$AA?9?$AAZ?$AAA?$AA?$AA@ 10051c40     LIBCMT:winapinls.obj
 0002:0000fc4c       ??_C@_1M@BMGIGLIF@?$AAe?$AAs?$AA?9?$AAD?$AAO?$AA?$AA@ 10051c4c     LIBCMT:winapinls.obj
 0002:0000fc58       ??_C@_1BG@CMBHIPBE@?$AAs?$AAr?$AA?9?$AAB?$AAA?$AA?9?$AAC?$AAy?$AAr?$AAl?$AA?$AA@ 10051c58     LIBCMT:winapinls.obj
 0002:0000fc70       ??_C@_1O@HEDBLHNP@?$AAs?$AAm?$AAa?$AA?9?$AAS?$AAE?$AA?$AA@ 10051c70     LIBCMT:winapinls.obj
 0002:0000fc80       ??_C@_1M@DAGCADIM@?$AAa?$AAr?$AA?9?$AAO?$AAM?$AA?$AA@ 10051c80     LIBCMT:winapinls.obj
 0002:0000fc8c       ??_C@_1M@FODLMICG@?$AAe?$AAn?$AA?9?$AAJ?$AAM?$AA?$AA@ 10051c8c     LIBCMT:winapinls.obj
 0002:0000fc98       ??_C@_1M@DNMLCIHB@?$AAe?$AAs?$AA?9?$AAV?$AAE?$AA?$AA@ 10051c98     LIBCMT:winapinls.obj
 0002:0000fca4       ??_C@_1O@EOKHMKJK@?$AAs?$AAm?$AAs?$AA?9?$AAF?$AAI?$AA?$AA@ 10051ca4     LIBCMT:winapinls.obj
 0002:0000fcb4       ??_C@_1M@CAFJMKOF@?$AAa?$AAr?$AA?9?$AAY?$AAE?$AA?$AA@ 10051cb4     LIBCMT:winapinls.obj
 0002:0000fcc0       ??_C@_1M@CBFHIJLI@?$AAe?$AAn?$AA?9?$AAC?$AAB?$AA?$AA@ 10051cc0     LIBCMT:winapinls.obj
 0002:0000fccc       ??_C@_1M@BGNFLDN@?$AAe?$AAs?$AA?9?$AAC?$AAO?$AA?$AA@ 10051ccc     LIBCMT:winapinls.obj
 0002:0000fcd8       ??_C@_1O@JMPHMAMC@?$AAs?$AAm?$AAn?$AA?9?$AAF?$AAI?$AA?$AA@ 10051cd8     LIBCMT:winapinls.obj
 0002:0000fce8       ??_C@_1M@JLANABKE@?$AAa?$AAr?$AA?9?$AAS?$AAY?$AA?$AA@ 10051ce8     LIBCMT:winapinls.obj
 0002:0000fcf4       ??_C@_1M@HPKGCFGN@?$AAe?$AAn?$AA?9?$AAB?$AAZ?$AA?$AA@ 10051cf4     LIBCMT:winapinls.obj
 0002:0000fd00       ??_C@_1M@OLJCMLGM@?$AAe?$AAs?$AA?9?$AAP?$AAE?$AA?$AA@ 10051d00     LIBCMT:winapinls.obj
 0002:0000fd0c       ??_C@_1M@MKKGFKLE@?$AAa?$AAr?$AA?9?$AAJ?$AAO?$AA?$AA@ 10051d0c     LIBCMT:winapinls.obj
 0002:0000fd18       ??_C@_1M@EKPGLDNI@?$AAe?$AAn?$AA?9?$AAT?$AAT?$AA?$AA@ 10051d18     LIBCMT:winapinls.obj
 0002:0000fd24       ??_C@_1M@OONGHFHE@?$AAe?$AAs?$AA?9?$AAA?$AAR?$AA?$AA@ 10051d24     LIBCMT:winapinls.obj
 0002:0000fd30       ??_C@_1M@OOJFGBHE@?$AAa?$AAr?$AA?9?$AAL?$AAB?$AA?$AA@ 10051d30     LIBCMT:winapinls.obj
 0002:0000fd3c       ??_C@_1M@GCEJHNEG@?$AAe?$AAn?$AA?9?$AAZ?$AAW?$AA?$AA@ 10051d3c     LIBCMT:winapinls.obj
 0002:0000fd48       ??_C@_1M@JNOCAHJI@?$AAe?$AAs?$AA?9?$AAE?$AAC?$AA?$AA@ 10051d48     LIBCMT:winapinls.obj
 0002:0000fd54       ??_C@_1M@JEFHPGGB@?$AAa?$AAr?$AA?9?$AAK?$AAW?$AA?$AA@ 10051d54     LIBCMT:winapinls.obj
 0002:0000fd60       ??_C@_1M@MLKIBJOJ@?$AAe?$AAn?$AA?9?$AAP?$AAH?$AA?$AA@ 10051d60     LIBCMT:winapinls.obj
 0002:0000fd6c       ??_C@_1M@BDNIPEND@?$AAe?$AAs?$AA?9?$AAC?$AAL?$AA?$AA@ 10051d6c     LIBCMT:winapinls.obj
 0002:0000fd78       ??_C@_1M@MPNMEKBD@?$AAa?$AAr?$AA?9?$AAA?$AAE?$AA?$AA@ 10051d78     LIBCMT:winapinls.obj
 0002:0000fd84       ??_C@_1M@KBJALCPI@?$AAe?$AAs?$AA?9?$AAU?$AAY?$AA?$AA@ 10051d84     LIBCMT:winapinls.obj
 0002:0000fd90       ??_C@_1M@LLCCOAGA@?$AAa?$AAr?$AA?9?$AAB?$AAH?$AA?$AA@ 10051d90     LIBCMT:winapinls.obj
 0002:0000fd9c       ??_C@_1M@PBFNCDEL@?$AAe?$AAs?$AA?9?$AAP?$AAY?$AA?$AA@ 10051d9c     LIBCMT:winapinls.obj
 0002:0000fda8       ??_C@_1M@EDGINPNP@?$AAa?$AAr?$AA?9?$AAQ?$AAA?$AA?$AA@ 10051da8     LIBCMT:winapinls.obj
 0002:0000fdb4       ??_C@_1M@MKDBIIJI@?$AAe?$AAs?$AA?9?$AAB?$AAO?$AA?$AA@ 10051db4     LIBCMT:winapinls.obj
 0002:0000fdc0       ??_C@_1M@CPKKEBLD@?$AAe?$AAs?$AA?9?$AAS?$AAV?$AA?$AA@ 10051dc0     LIBCMT:winapinls.obj
 0002:0000fdcc       ??_C@_1M@NDBGMMJL@?$AAe?$AAs?$AA?9?$AAH?$AAN?$AA?$AA@ 10051dcc     LIBCMT:winapinls.obj
 0002:0000fdd8       ??_C@_1M@JIJIBHDP@?$AAe?$AAs?$AA?9?$AAN?$AAI?$AA?$AA@ 10051dd8     LIBCMT:winapinls.obj
 0002:0000fde4       ??_C@_1M@CGFMKEEK@?$AAe?$AAs?$AA?9?$AAP?$AAR?$AA?$AA@ 10051de4     LIBCMT:winapinls.obj
 0002:0000fdf0       ??_C@_1O@ICJHKIIK@?$AAz?$AAh?$AA?9?$AAC?$AAH?$AAT?$AA?$AA@ 10051df0     LIBCMT:winapinls.obj
 0002:0000fe00       ??_C@_15CLNEJCE@?$AAs?$AAr?$AA?$AA@ 10051e00     LIBCMT:winapinls.obj
 0002:0000fe08       ??_C@_1M@KAHEKEIG@?$AAa?$AAf?$AA?9?$AAz?$AAa?$AA?$AA@ 10051e08     LIBCMT:winapinls.obj
 0002:0000fe14       ??_C@_1M@GIECOABL@?$AAa?$AAr?$AA?9?$AAa?$AAe?$AA?$AA@ 10051e14     LIBCMT:winapinls.obj
 0002:0000fe20       ??_C@_1M@BMLMEKGI@?$AAa?$AAr?$AA?9?$AAb?$AAh?$AA?$AA@ 10051e20     LIBCMT:winapinls.obj
 0002:0000fe2c       ??_C@_1M@DAPFDGGB@?$AAa?$AAr?$AA?9?$AAd?$AAz?$AA?$AA@ 10051e2c     LIBCMT:winapinls.obj
 0002:0000fe38       ??_C@_1M@FJNKGKIG@?$AAa?$AAr?$AA?9?$AAe?$AAg?$AA?$AA@ 10051e38     LIBCMT:winapinls.obj
 0002:0000fe44       ??_C@_1M@FLGKKCLO@?$AAa?$AAr?$AA?9?$AAi?$AAq?$AA?$AA@ 10051e44     LIBCMT:winapinls.obj
 0002:0000fe50       ??_C@_1M@GNDIPALM@?$AAa?$AAr?$AA?9?$AAj?$AAo?$AA?$AA@ 10051e50     LIBCMT:winapinls.obj
 0002:0000fe5c       ??_C@_1M@DDMJFMGJ@?$AAa?$AAr?$AA?9?$AAk?$AAw?$AA?$AA@ 10051e5c     LIBCMT:winapinls.obj
 0002:0000fe68       ??_C@_1M@EJALMLHM@?$AAa?$AAr?$AA?9?$AAl?$AAb?$AA?$AA@ 10051e68     LIBCMT:winapinls.obj
 0002:0000fe74       ??_C@_1M@MOBDBLOC@?$AAa?$AAr?$AA?9?$AAl?$AAy?$AA?$AA@ 10051e74     LIBCMT:winapinls.obj
 0002:0000fe80       ??_C@_1M@JAOCLHDH@?$AAa?$AAr?$AA?9?$AAm?$AAa?$AA?$AA@ 10051e80     LIBCMT:winapinls.obj
 0002:0000fe8c       ??_C@_1M@JHPMKJIE@?$AAa?$AAr?$AA?9?$AAo?$AAm?$AA?$AA@ 10051e8c     LIBCMT:winapinls.obj
 0002:0000fe98       ??_C@_1M@OEPGHFNH@?$AAa?$AAr?$AA?9?$AAq?$AAa?$AA?$AA@ 10051e98     LIBCMT:winapinls.obj
 0002:0000fea4       ??_C@_1M@KJDONENM@?$AAa?$AAr?$AA?9?$AAs?$AAa?$AA?$AA@ 10051ea4     LIBCMT:winapinls.obj
 0002:0000feb0       ??_C@_1M@DMJDKLKM@?$AAa?$AAr?$AA?9?$AAs?$AAy?$AA?$AA@ 10051eb0     LIBCMT:winapinls.obj
 0002:0000febc       ??_C@_1M@OMFIPEDC@?$AAa?$AAr?$AA?9?$AAt?$AAn?$AA?$AA@ 10051ebc     LIBCMT:winapinls.obj
 0002:0000fec8       ??_C@_1M@IHMHGAON@?$AAa?$AAr?$AA?9?$AAy?$AAe?$AA?$AA@ 10051ec8     LIBCMT:winapinls.obj
 0002:0000fed4       ??_C@_1BG@KDCPGJGB@?$AAa?$AAz?$AA?9?$AAa?$AAz?$AA?9?$AAc?$AAy?$AAr?$AAl?$AA?$AA@ 10051ed4     LIBCMT:winapinls.obj
 0002:0000feec       ??_C@_1BG@IBCKDDOE@?$AAa?$AAz?$AA?9?$AAa?$AAz?$AA?9?$AAl?$AAa?$AAt?$AAn?$AA?$AA@ 10051eec     LIBCMT:winapinls.obj
 0002:0000ff04       ??_C@_1M@EGPFDCPD@?$AAb?$AAe?$AA?9?$AAb?$AAy?$AA?$AA@ 10051f04     LIBCMT:winapinls.obj
 0002:0000ff10       ??_C@_1M@PCMGMCGC@?$AAb?$AAg?$AA?9?$AAb?$AAg?$AA?$AA@ 10051f10     LIBCMT:winapinls.obj
 0002:0000ff1c       ??_C@_1M@BJBMFGOB@?$AAb?$AAn?$AA?9?$AAi?$AAn?$AA?$AA@ 10051f1c     LIBCMT:winapinls.obj
 0002:0000ff28       ??_C@_1BG@EAKMMACD@?$AAb?$AAs?$AA?9?$AAb?$AAa?$AA?9?$AAl?$AAa?$AAt?$AAn?$AA?$AA@ 10051f28     LIBCMT:winapinls.obj
 0002:0000ff40       ??_C@_1M@KGADAODK@?$AAc?$AAa?$AA?9?$AAe?$AAs?$AA?$AA@ 10051f40     LIBCMT:winapinls.obj
 0002:0000ff4c       ??_C@_1M@COAJPDHI@?$AAc?$AAs?$AA?9?$AAc?$AAz?$AA?$AA@ 10051f4c     LIBCMT:winapinls.obj
 0002:0000ff58       ??_C@_1M@DHBHFONH@?$AAc?$AAy?$AA?9?$AAg?$AAb?$AA?$AA@ 10051f58     LIBCMT:winapinls.obj
 0002:0000ff64       ??_C@_1M@IMGKELGA@?$AAd?$AAa?$AA?9?$AAd?$AAk?$AA?$AA@ 10051f64     LIBCMT:winapinls.obj
 0002:0000ff70       ??_C@_1M@NNDGDNGA@?$AAd?$AAe?$AA?9?$AAa?$AAt?$AA?$AA@ 10051f70     LIBCMT:winapinls.obj
 0002:0000ff7c       ??_C@_1M@IKDBHEEM@?$AAd?$AAe?$AA?9?$AAc?$AAh?$AA?$AA@ 10051f7c     LIBCMT:winapinls.obj
 0002:0000ff88       ??_C@_1M@GFFOJMCJ@?$AAd?$AAe?$AA?9?$AAd?$AAe?$AA?$AA@ 10051f88     LIBCMT:winapinls.obj
 0002:0000ff94       ??_C@_1M@MDNLKBPM@?$AAd?$AAe?$AA?9?$AAl?$AAi?$AA?$AA@ 10051f94     LIBCMT:winapinls.obj
 0002:0000ffa0       ??_C@_1M@NJBEEJNL@?$AAd?$AAe?$AA?9?$AAl?$AAu?$AA?$AA@ 10051fa0     LIBCMT:winapinls.obj
 0002:0000ffac       ??_C@_1O@GNNELBAP@?$AAd?$AAi?$AAv?$AA?9?$AAm?$AAv?$AA?$AA@ 10051fac     LIBCMT:winapinls.obj
 0002:0000ffbc       ??_C@_1M@EJLEOGAE@?$AAe?$AAl?$AA?9?$AAg?$AAr?$AA?$AA@ 10051fbc     LIBCMT:winapinls.obj
 0002:0000ffc8       ??_C@_1M@GMPONJN@?$AAe?$AAn?$AA?9?$AAa?$AAu?$AA?$AA@ 10051fc8     LIBCMT:winapinls.obj
 0002:0000ffd4       ??_C@_1M@NIDIIPGF@?$AAe?$AAn?$AA?9?$AAb?$AAz?$AA?$AA@ 10051fd4     LIBCMT:winapinls.obj
 0002:0000ffe0       ??_C@_1M@JEHMIMFO@?$AAe?$AAn?$AA?9?$AAc?$AAa?$AA?$AA@ 10051fe0     LIBCMT:winapinls.obj
 0002:0000ffec       ??_C@_1M@IGMJCDLA@?$AAe?$AAn?$AA?9?$AAc?$AAb?$AA?$AA@ 10051fec     LIBCMT:winapinls.obj
 0002:0000fff8       ??_C@_1M@BNFIGBKG@?$AAe?$AAn?$AA?9?$AAg?$AAb?$AA?$AA@ 10051ff8     LIBCMT:winapinls.obj
 0002:00010004       ??_C@_1M@LKIFDIGP@?$AAe?$AAn?$AA?9?$AAi?$AAe?$AA?$AA@ 10052004     LIBCMT:winapinls.obj
 0002:00010010       ??_C@_1M@PJKFGCCO@?$AAe?$AAn?$AA?9?$AAj?$AAm?$AA?$AA@ 10052010     LIBCMT:winapinls.obj
 0002:0001001c       ??_C@_1M@KPPKEPBO@?$AAe?$AAn?$AA?9?$AAn?$AAz?$AA?$AA@ 1005201c     LIBCMT:winapinls.obj
 0002:00010028       ??_C@_1M@GMDGLDOB@?$AAe?$AAn?$AA?9?$AAp?$AAh?$AA?$AA@ 10052028     LIBCMT:winapinls.obj
 0002:00010034       ??_C@_1M@ONGIBJNA@?$AAe?$AAn?$AA?9?$AAt?$AAt?$AA?$AA@ 10052034     LIBCMT:winapinls.obj
 0002:00010040       ??_C@_1M@LLODPCMM@?$AAe?$AAn?$AA?9?$AAu?$AAs?$AA?$AA@ 10052040     LIBCMT:winapinls.obj
 0002:0001004c       ??_C@_1M@LAKFNPAN@?$AAe?$AAn?$AA?9?$AAz?$AAa?$AA?$AA@ 1005204c     LIBCMT:winapinls.obj
 0002:00010058       ??_C@_1M@MFNHNHEO@?$AAe?$AAn?$AA?9?$AAz?$AAw?$AA?$AA@ 10052058     LIBCMT:winapinls.obj
 0002:00010064       ??_C@_1M@EJEINPHM@?$AAe?$AAs?$AA?9?$AAa?$AAr?$AA?$AA@ 10052064     LIBCMT:winapinls.obj
 0002:00010070       ??_C@_1M@GNKPCCJA@?$AAe?$AAs?$AA?9?$AAb?$AAo?$AA?$AA@ 10052070     LIBCMT:winapinls.obj
 0002:0001007c       ??_C@_1M@LEEGFONL@?$AAe?$AAs?$AA?9?$AAc?$AAl?$AA?$AA@ 1005207c     LIBCMT:winapinls.obj
 0002:00010088       ??_C@_1M@KGPDPBDF@?$AAe?$AAs?$AA?9?$AAc?$AAo?$AA?$AA@ 10052088     LIBCMT:winapinls.obj
 0002:00010094       ??_C@_1M@EIAHOHH@?$AAe?$AAs?$AA?9?$AAc?$AAr?$AA?$AA@ 10052094     LIBCMT:winapinls.obj
 0002:000100a0       ??_C@_1M@LLPGMBIN@?$AAe?$AAs?$AA?9?$AAd?$AAo?$AA?$AA@ 100520a0     LIBCMT:winapinls.obj
 0002:000100ac       ??_C@_1M@DKHMKNJA@?$AAe?$AAs?$AA?9?$AAe?$AAc?$AA?$AA@ 100520ac     LIBCMT:winapinls.obj
 0002:000100b8       ??_C@_1M@GKGFPKAP@?$AAe?$AAs?$AA?9?$AAe?$AAs?$AA?$AA@ 100520b8     LIBCMT:winapinls.obj
 0002:000100c4       ??_C@_1M@LKHKGDLN@?$AAe?$AAs?$AA?9?$AAg?$AAt?$AA?$AA@ 100520c4     LIBCMT:winapinls.obj
 0002:000100d0       ??_C@_1M@HEIIGGJD@?$AAe?$AAs?$AA?9?$AAh?$AAn?$AA?$AA@ 100520d0     LIBCMT:winapinls.obj
 0002:000100dc       ??_C@_1M@FBDHPPGD@?$AAe?$AAs?$AA?9?$AAm?$AAx?$AA?$AA@ 100520dc     LIBCMT:winapinls.obj
 0002:000100e8       ??_C@_1M@DPAGLNDH@?$AAe?$AAs?$AA?9?$AAn?$AAi?$AA?$AA@ 100520e8     LIBCMT:winapinls.obj
 0002:000100f4       ??_C@_1M@MDGOPGDD@?$AAe?$AAs?$AA?9?$AAp?$AAa?$AA?$AA@ 100520f4     LIBCMT:winapinls.obj
 0002:00010100       ??_C@_1M@EMAMGBGE@?$AAe?$AAs?$AA?9?$AAp?$AAe?$AA?$AA@ 10052100     LIBCMT:winapinls.obj
 0002:0001010c       ??_C@_1M@IBMCAOEC@?$AAe?$AAs?$AA?9?$AAp?$AAr?$AA?$AA@ 1005210c     LIBCMT:winapinls.obj
 0002:00010118       ??_C@_1M@FGMDIJED@?$AAe?$AAs?$AA?9?$AAp?$AAy?$AA?$AA@ 10052118     LIBCMT:winapinls.obj
 0002:00010124       ??_C@_1M@IIDEOLLL@?$AAe?$AAs?$AA?9?$AAs?$AAv?$AA?$AA@ 10052124     LIBCMT:winapinls.obj
 0002:00010130       ??_C@_1M@GAOBIPA@?$AAe?$AAs?$AA?9?$AAu?$AAy?$AA?$AA@ 10052130     LIBCMT:winapinls.obj
 0002:0001013c       ??_C@_1M@JKFFICHJ@?$AAe?$AAs?$AA?9?$AAv?$AAe?$AA?$AA@ 1005213c     LIBCMT:winapinls.obj
 0002:00010148       ??_C@_1M@PNMLOJDF@?$AAe?$AAt?$AA?9?$AAe?$AAe?$AA?$AA@ 10052148     LIBCMT:winapinls.obj
 0002:00010154       ??_C@_1M@GHHLIKEI@?$AAe?$AAu?$AA?9?$AAe?$AAs?$AA?$AA@ 10052154     LIBCMT:winapinls.obj
 0002:00010160       ??_C@_1M@PBNONODE@?$AAf?$AAa?$AA?9?$AAi?$AAr?$AA?$AA@ 10052160     LIBCMT:winapinls.obj
 0002:0001016c       ??_C@_1M@JEEHPMIL@?$AAf?$AAi?$AA?9?$AAf?$AAi?$AA?$AA@ 1005216c     LIBCMT:winapinls.obj
 0002:00010178       ??_C@_1M@LMDCNDBA@?$AAf?$AAo?$AA?9?$AAf?$AAo?$AA?$AA@ 10052178     LIBCMT:winapinls.obj
 0002:00010184       ??_C@_1M@JKEOHLDK@?$AAf?$AAr?$AA?9?$AAb?$AAe?$AA?$AA@ 10052184     LIBCMT:winapinls.obj
 0002:00010190       ??_C@_1M@NOHADPMI@?$AAf?$AAr?$AA?9?$AAc?$AAa?$AA?$AA@ 10052190     LIBCMT:winapinls.obj
 0002:0001019c       ??_C@_1M@KDHIHAEC@?$AAf?$AAr?$AA?9?$AAc?$AAh?$AA?$AA@ 1005219c     LIBCMT:winapinls.obj
 0002:000101a8       ??_C@_1M@MMBBFGAK@?$AAf?$AAr?$AA?9?$AAf?$AAr?$AA?$AA@ 100521a8     LIBCMT:winapinls.obj
 0002:000101b4       ??_C@_1M@PAFNENNF@?$AAf?$AAr?$AA?9?$AAl?$AAu?$AA?$AA@ 100521b4     LIBCMT:winapinls.obj
 0002:000101c0       ??_C@_1M@EOHDJGDD@?$AAf?$AAr?$AA?9?$AAm?$AAc?$AA?$AA@ 100521c0     LIBCMT:winapinls.obj
 0002:000101cc       ??_C@_1M@FAPLLOPF@?$AAg?$AAl?$AA?9?$AAe?$AAs?$AA?$AA@ 100521cc     LIBCMT:winapinls.obj
 0002:000101d8       ??_C@_1M@FOPBFLOO@?$AAg?$AAu?$AA?9?$AAi?$AAn?$AA?$AA@ 100521d8     LIBCMT:winapinls.obj
 0002:000101e4       ??_C@_1M@KBMCINPM@?$AAh?$AAe?$AA?9?$AAi?$AAl?$AA?$AA@ 100521e4     LIBCMT:winapinls.obj
 0002:000101f0       ??_C@_1M@BBPHKFPJ@?$AAh?$AAi?$AA?9?$AAi?$AAn?$AA?$AA@ 100521f0     LIBCMT:winapinls.obj
 0002:000101fc       ??_C@_1M@PMBNDPHD@?$AAh?$AAr?$AA?9?$AAb?$AAa?$AA?$AA@ 100521fc     LIBCMT:winapinls.obj
 0002:00010208       ??_C@_1M@BPCKOEGE@?$AAh?$AAr?$AA?9?$AAh?$AAr?$AA?$AA@ 10052208     LIBCMT:winapinls.obj
 0002:00010214       ??_C@_1M@GACBMHKE@?$AAh?$AAu?$AA?9?$AAh?$AAu?$AA?$AA@ 10052214     LIBCMT:winapinls.obj
 0002:00010220       ??_C@_1M@MILPAJJC@?$AAh?$AAy?$AA?9?$AAa?$AAm?$AA?$AA@ 10052220     LIBCMT:winapinls.obj
 0002:0001022c       ??_C@_1M@BABBICEC@?$AAi?$AAd?$AA?9?$AAi?$AAd?$AA?$AA@ 1005222c     LIBCMT:winapinls.obj
 0002:00010238       ??_C@_1M@BIKNHHPF@?$AAi?$AAs?$AA?9?$AAi?$AAs?$AA?$AA@ 10052238     LIBCMT:winapinls.obj
 0002:00010244       ??_C@_1M@NMPCJPHE@?$AAi?$AAt?$AA?9?$AAc?$AAh?$AA?$AA@ 10052244     LIBCMT:winapinls.obj
 0002:00010250       ??_C@_1M@GHKGFEDF@?$AAi?$AAt?$AA?9?$AAi?$AAt?$AA?$AA@ 10052250     LIBCMT:winapinls.obj
 0002:0001025c       ??_C@_1M@NIEJCJJA@?$AAj?$AAa?$AA?9?$AAj?$AAp?$AA?$AA@ 1005225c     LIBCMT:winapinls.obj
 0002:00010268       ??_C@_1M@JILFNBIM@?$AAk?$AAa?$AA?9?$AAg?$AAe?$AA?$AA@ 10052268     LIBCMT:winapinls.obj
 0002:00010274       ??_C@_1M@PACPMGPH@?$AAk?$AAk?$AA?9?$AAk?$AAz?$AA?$AA@ 10052274     LIBCMT:winapinls.obj
 0002:00010280       ??_C@_1M@IELFGMHA@?$AAk?$AAn?$AA?9?$AAi?$AAn?$AA?$AA@ 10052280     LIBCMT:winapinls.obj
 0002:0001028c       ??_C@_1O@IBBJHCH@?$AAk?$AAo?$AAk?$AA?9?$AAi?$AAn?$AA?$AA@ 1005228c     LIBCMT:winapinls.obj
 0002:0001029c       ??_C@_1M@DMHAEOGC@?$AAk?$AAo?$AA?9?$AAk?$AAr?$AA?$AA@ 1005229c     LIBCMT:winapinls.obj
 0002:000102a8       ??_C@_1M@HBAHBIGA@?$AAk?$AAy?$AA?9?$AAk?$AAg?$AA?$AA@ 100522a8     LIBCMT:winapinls.obj
 0002:000102b4       ??_C@_1M@KPMILCJG@?$AAl?$AAt?$AA?9?$AAl?$AAt?$AA?$AA@ 100522b4     LIBCMT:winapinls.obj
 0002:000102c0       ??_C@_1M@BDEKKCA@?$AAl?$AAv?$AA?9?$AAl?$AAv?$AA?$AA@ 100522c0     LIBCMT:winapinls.obj
 0002:000102cc       ??_C@_1M@ELCKCCJJ@?$AAm?$AAi?$AA?9?$AAn?$AAz?$AA?$AA@ 100522cc     LIBCMT:winapinls.obj
 0002:000102d8       ??_C@_1M@CBOOLAPA@?$AAm?$AAk?$AA?9?$AAm?$AAk?$AA?$AA@ 100522d8     LIBCMT:winapinls.obj
 0002:000102e4       ??_C@_1M@GPHNBJKN@?$AAm?$AAl?$AA?9?$AAi?$AAn?$AA?$AA@ 100522e4     LIBCMT:winapinls.obj
 0002:000102f0       ??_C@_1M@PABJILIG@?$AAm?$AAn?$AA?9?$AAm?$AAn?$AA?$AA@ 100522f0     LIBCMT:winapinls.obj
 0002:000102fc       ??_C@_1M@FGBKKIPG@?$AAm?$AAr?$AA?9?$AAi?$AAn?$AA?$AA@ 100522fc     LIBCMT:winapinls.obj
 0002:00010308       ??_C@_1M@NDBPDDAL@?$AAm?$AAs?$AA?9?$AAb?$AAn?$AA?$AA@ 10052308     LIBCMT:winapinls.obj
 0002:00010314       ??_C@_1M@OPIHOOPI@?$AAm?$AAs?$AA?9?$AAm?$AAy?$AA?$AA@ 10052314     LIBCMT:winapinls.obj
 0002:00010320       ??_C@_1M@PPDBCNFM@?$AAm?$AAt?$AA?9?$AAm?$AAt?$AA?$AA@ 10052320     LIBCMT:winapinls.obj
 0002:0001032c       ??_C@_1M@KDJDKMDD@?$AAn?$AAb?$AA?9?$AAn?$AAo?$AA?$AA@ 1005232c     LIBCMT:winapinls.obj
 0002:00010338       ??_C@_1M@KFCFLMJP@?$AAn?$AAl?$AA?9?$AAb?$AAe?$AA?$AA@ 10052338     LIBCMT:winapinls.obj
 0002:00010344       ??_C@_1M@KPOPDDGO@?$AAn?$AAl?$AA?9?$AAn?$AAl?$AA?$AA@ 10052344     LIBCMT:winapinls.obj
 0002:00010350       ??_C@_1M@LJKPEMLN@?$AAn?$AAn?$AA?9?$AAn?$AAo?$AA?$AA@ 10052350     LIBCMT:winapinls.obj
 0002:0001035c       ??_C@_1M@BDGHHBFL@?$AAn?$AAs?$AA?9?$AAz?$AAa?$AA?$AA@ 1005235c     LIBCMT:winapinls.obj
 0002:00010368       ??_C@_1M@IDEHOAP@?$AAp?$AAa?$AA?9?$AAi?$AAn?$AA?$AA@ 10052368     LIBCMT:winapinls.obj
 0002:00010374       ??_C@_1M@HDBKGOGH@?$AAp?$AAl?$AA?9?$AAp?$AAl?$AA?$AA@ 10052374     LIBCMT:winapinls.obj
 0002:00010380       ??_C@_1M@LJLLCMEH@?$AAp?$AAt?$AA?9?$AAb?$AAr?$AA?$AA@ 10052380     LIBCMT:winapinls.obj
 0002:0001038c       ??_C@_1M@NCMONAAL@?$AAp?$AAt?$AA?9?$AAp?$AAt?$AA?$AA@ 1005238c     LIBCMT:winapinls.obj
 0002:00010398       ??_C@_1O@EAKMAJDN@?$AAq?$AAu?$AAz?$AA?9?$AAb?$AAo?$AA?$AA@ 10052398     LIBCMT:winapinls.obj
 0002:000103a8       ??_C@_1O@BHHPIGDN@?$AAq?$AAu?$AAz?$AA?9?$AAe?$AAc?$AA?$AA@ 100523a8     LIBCMT:winapinls.obj
 0002:000103b8       ??_C@_1O@GBAPEKMJ@?$AAq?$AAu?$AAz?$AA?9?$AAp?$AAe?$AA?$AA@ 100523b8     LIBCMT:winapinls.obj
 0002:000103c8       ??_C@_1M@CLGLEFBO@?$AAr?$AAo?$AA?9?$AAr?$AAo?$AA?$AA@ 100523c8     LIBCMT:winapinls.obj
 0002:000103d4       ??_C@_1M@CEEDODME@?$AAr?$AAu?$AA?9?$AAr?$AAu?$AA?$AA@ 100523d4     LIBCMT:winapinls.obj
 0002:000103e0       ??_C@_1M@HPKKKMPP@?$AAs?$AAa?$AA?9?$AAi?$AAn?$AA?$AA@ 100523e0     LIBCMT:winapinls.obj
 0002:000103ec       ??_C@_1M@BKMAIGOJ@?$AAs?$AAe?$AA?9?$AAf?$AAi?$AA?$AA@ 100523ec     LIBCMT:winapinls.obj
 0002:000103f8       ??_C@_1M@NDPIFLFI@?$AAs?$AAe?$AA?9?$AAn?$AAo?$AA?$AA@ 100523f8     LIBCMT:winapinls.obj
 0002:00010404       ??_C@_1M@DANKKHJ@?$AAs?$AAe?$AA?9?$AAs?$AAe?$AA?$AA@ 10052404     LIBCMT:winapinls.obj
 0002:00010410       ??_C@_1M@PNBLONPJ@?$AAs?$AAk?$AA?9?$AAs?$AAk?$AA?$AA@ 10052410     LIBCMT:winapinls.obj
 0002:0001041c       ??_C@_1M@LFMODOAL@?$AAs?$AAl?$AA?9?$AAs?$AAi?$AA?$AA@ 1005241c     LIBCMT:winapinls.obj
 0002:00010428       ??_C@_1O@DFKOMPG@?$AAs?$AAm?$AAa?$AA?9?$AAn?$AAo?$AA?$AA@ 10052428     LIBCMT:winapinls.obj
 0002:00010438       ??_C@_1O@NDKPBNNH@?$AAs?$AAm?$AAa?$AA?9?$AAs?$AAe?$AA?$AA@ 10052438     LIBCMT:winapinls.obj
 0002:00010448       ??_C@_1O@PLLKBHAB@?$AAs?$AAm?$AAj?$AA?9?$AAn?$AAo?$AA?$AA@ 10052448     LIBCMT:winapinls.obj
 0002:00010458       ??_C@_1O@CLEPOGCA@?$AAs?$AAm?$AAj?$AA?9?$AAs?$AAe?$AA?$AA@ 10052458     LIBCMT:winapinls.obj
 0002:00010468       ??_C@_1O@DLGJGKMK@?$AAs?$AAm?$AAn?$AA?9?$AAf?$AAi?$AA?$AA@ 10052468     LIBCMT:winapinls.obj
 0002:00010478       ??_C@_1O@OJDJGAJC@?$AAs?$AAm?$AAs?$AA?9?$AAf?$AAi?$AA?$AA@ 10052478     LIBCMT:winapinls.obj
 0002:00010488       ??_C@_1M@BOFOGHPB@?$AAs?$AAq?$AA?9?$AAa?$AAl?$AA?$AA@ 10052488     LIBCMT:winapinls.obj
 0002:00010494       ??_C@_1BG@LJBBIPGB@?$AAs?$AAr?$AA?9?$AAb?$AAa?$AA?9?$AAc?$AAy?$AAr?$AAl?$AA?$AA@ 10052494     LIBCMT:winapinls.obj
 0002:000104ac       ??_C@_1BG@JLBENFOE@?$AAs?$AAr?$AA?9?$AAb?$AAa?$AA?9?$AAl?$AAa?$AAt?$AAn?$AA?$AA@ 100524ac     LIBCMT:winapinls.obj
 0002:000104c4       ??_C@_1BG@KODPNHE@?$AAs?$AAr?$AA?9?$AAs?$AAp?$AA?9?$AAc?$AAy?$AAr?$AAl?$AA?$AA@ 100524c4     LIBCMT:winapinls.obj
 0002:000104dc       ??_C@_1BG@CIOGKHPB@?$AAs?$AAr?$AA?9?$AAs?$AAp?$AA?9?$AAl?$AAa?$AAt?$AAn?$AA?$AA@ 100524dc     LIBCMT:winapinls.obj
 0002:000104f4       ??_C@_1M@NGFJLMAC@?$AAs?$AAv?$AA?9?$AAf?$AAi?$AA?$AA@ 100524f4     LIBCMT:winapinls.obj
 0002:00010500       ??_C@_1M@MPJEJAJC@?$AAs?$AAv?$AA?9?$AAs?$AAe?$AA?$AA@ 10052500     LIBCMT:winapinls.obj
 0002:0001050c       ??_C@_1M@MPNDHLFK@?$AAs?$AAw?$AA?9?$AAk?$AAe?$AA?$AA@ 1005250c     LIBCMT:winapinls.obj
 0002:00010518       ??_C@_1O@KOHBJJI@?$AAs?$AAy?$AAr?$AA?9?$AAs?$AAy?$AA?$AA@ 10052518     LIBCMT:winapinls.obj
 0002:00010528       ??_C@_1M@LDCEFHA@?$AAt?$AAa?$AA?9?$AAi?$AAn?$AA?$AA@ 10052528     LIBCMT:winapinls.obj
 0002:00010534       ??_C@_1M@CNJOFAK@?$AAt?$AAe?$AA?9?$AAi?$AAn?$AA?$AA@ 10052534     LIBCMT:winapinls.obj
 0002:00010540       ??_C@_1M@GNAECACD@?$AAt?$AAh?$AA?9?$AAt?$AAh?$AA?$AA@ 10052540     LIBCMT:winapinls.obj
 0002:0001054c       ??_C@_1M@CHBIHOJO@?$AAt?$AAn?$AA?9?$AAz?$AAa?$AA?$AA@ 1005254c     LIBCMT:winapinls.obj
 0002:00010558       ??_C@_1M@GCCMIGPJ@?$AAt?$AAr?$AA?9?$AAt?$AAr?$AA?$AA@ 10052558     LIBCMT:winapinls.obj
 0002:00010564       ??_C@_1M@CELMCNBK@?$AAt?$AAt?$AA?9?$AAr?$AAu?$AA?$AA@ 10052564     LIBCMT:winapinls.obj
 0002:00010570       ??_C@_1M@KLMCELGA@?$AAu?$AAk?$AA?9?$AAu?$AAa?$AA?$AA@ 10052570     LIBCMT:winapinls.obj
 0002:0001057c       ??_C@_1M@EPAJJAJF@?$AAu?$AAr?$AA?9?$AAp?$AAk?$AA?$AA@ 1005257c     LIBCMT:winapinls.obj
 0002:00010588       ??_C@_1BG@GEGPMCDJ@?$AAu?$AAz?$AA?9?$AAu?$AAz?$AA?9?$AAc?$AAy?$AAr?$AAl?$AA?$AA@ 10052588     LIBCMT:winapinls.obj
 0002:000105a0       ??_C@_1BG@EGGKJILM@?$AAu?$AAz?$AA?9?$AAu?$AAz?$AA?9?$AAl?$AAa?$AAt?$AAn?$AA?$AA@ 100525a0     LIBCMT:winapinls.obj
 0002:000105b8       ??_C@_1M@GFOCLFF@?$AAv?$AAi?$AA?9?$AAv?$AAn?$AA?$AA@ 100525b8     LIBCMT:winapinls.obj
 0002:000105c4       ??_C@_1M@CPAMEDFI@?$AAx?$AAh?$AA?9?$AAz?$AAa?$AA?$AA@ 100525c4     LIBCMT:winapinls.obj
 0002:000105d0       ??_C@_1O@EBKIFIGN@?$AAz?$AAh?$AA?9?$AAc?$AAh?$AAs?$AA?$AA@ 100525d0     LIBCMT:winapinls.obj
 0002:000105e0       ??_C@_1O@NMHPGANE@?$AAz?$AAh?$AA?9?$AAc?$AAh?$AAt?$AA?$AA@ 100525e0     LIBCMT:winapinls.obj
 0002:000105f0       ??_C@_1M@LPINJOMC@?$AAz?$AAh?$AA?9?$AAc?$AAn?$AA?$AA@ 100525f0     LIBCMT:winapinls.obj
 0002:000105fc       ??_C@_1M@OCJEJODD@?$AAz?$AAh?$AA?9?$AAh?$AAk?$AA?$AA@ 100525fc     LIBCMT:winapinls.obj
 0002:00010608       ??_C@_1M@DNDLJINH@?$AAz?$AAh?$AA?9?$AAm?$AAo?$AA?$AA@ 10052608     LIBCMT:winapinls.obj
 0002:00010614       ??_C@_1M@MBFDNDND@?$AAz?$AAh?$AA?9?$AAs?$AAg?$AA?$AA@ 10052614     LIBCMT:winapinls.obj
 0002:00010620       ??_C@_1M@IMEPLEPE@?$AAz?$AAh?$AA?9?$AAt?$AAw?$AA?$AA@ 10052620     LIBCMT:winapinls.obj
 0002:0001062c       ??_C@_1M@BBGHNHJP@?$AAz?$AAu?$AA?9?$AAz?$AAa?$AA?$AA@ 1005262c     LIBCMT:winapinls.obj
 0002:00010638       ___newctype                10052638     LIBCMT:ctype.obj
 0002:00010938       __wctype                   10052938     LIBCMT:ctype.obj
 0002:00010b40       ___newclmap                10052b40     LIBCMT:ctype.obj
 0002:00010cc0       ___newcumap                10052cc0     LIBCMT:ctype.obj
 0002:00010e40       ___lc_category             10052e40     LIBCMT:wsetloca.obj
 0002:00010e88       ??_C@_1O@GIFLHMA@?$AAL?$AAC?$AA_?$AAA?$AAL?$AAL?$AA?$AA@ 10052e88     LIBCMT:wsetloca.obj
 0002:00010e98       ??_C@_1BG@PPOMIBNJ@?$AAL?$AAC?$AA_?$AAC?$AAO?$AAL?$AAL?$AAA?$AAT?$AAE?$AA?$AA@ 10052e98     LIBCMT:wsetloca.obj
 0002:00010eb0       ??_C@_1BC@FFJGAPJM@?$AAL?$AAC?$AA_?$AAC?$AAT?$AAY?$AAP?$AAE?$AA?$AA@ 10052eb0     LIBCMT:wsetloca.obj
 0002:00010ec4       ??_C@_1BI@PCKFNJFB@?$AAL?$AAC?$AA_?$AAM?$AAO?$AAN?$AAE?$AAT?$AAA?$AAR?$AAY?$AA?$AA@ 10052ec4     LIBCMT:wsetloca.obj
 0002:00010edc       ??_C@_1BG@ENIEDKID@?$AAL?$AAC?$AA_?$AAN?$AAU?$AAM?$AAE?$AAR?$AAI?$AAC?$AA?$AA@ 10052edc     LIBCMT:wsetloca.obj
 0002:00010ef4       ??_C@_1BA@HAAOMIIG@?$AAL?$AAC?$AA_?$AAT?$AAI?$AAM?$AAE?$AA?$AA@ 10052ef4     LIBCMT:wsetloca.obj
 0002:00010f88       ??_C@_15NBPDDFIP@?$AA?$DN?$AA?$DL?$AA?$AA@ 10052f88     LIBCMT:wsetloca.obj
 0002:00010f90       ??_C@_13PJJBFPED@?$AA?$DL?$AA?$AA@ 10052f90     LIBCMT:wsetloca.obj
 0002:00010f94       ??_C@_13NMPKAAJP@?$AA?$DN?$AA?$AA@ 10052f94     LIBCMT:wsetloca.obj
 0002:00010f98       ??_C@_13FHBKNHDA@?$AAC?$AA?$AA@ 10052f98     LIBCMT:wsetloca.obj
 0002:00010f9c       ??_C@_17MBJJLFDM@?$AA_?$AA?4?$AA?0?$AA?$AA@ 10052f9c     LIBCMT:wsetloca.obj
 0002:00010fa4       ??_C@_13ENNFDPBH@?$AA_?$AA?$AA@ 10052fa4     LIBCMT:wsetloca.obj
 0002:00010fa8       ??_C@_13JOFGPIOO@?$AA?4?$AA?$AA@ 10052fa8     LIBCMT:wsetloca.obj
 0002:00010fac       ??_C@_06PGGFOGJG@1?$CDSNAN?$AA@ 10052fac     LIBCMT:x10fout.obj
 0002:00010fb4       ??_C@_05PHHOCPM@1?$CDIND?$AA@ 10052fb4     LIBCMT:x10fout.obj
 0002:00010fbc       ??_C@_05DNEBIAHO@1?$CDINF?$AA@ 10052fbc     LIBCMT:x10fout.obj
 0002:00010fc4       ??_C@_06IMKFLFPG@1?$CDQNAN?$AA@ 10052fc4     LIBCMT:x10fout.obj
 0002:00010fcc       ??_C@_0M@HHGEPIBF@CreateFile2?$AA@ 10052fcc     LIBCMT:wopen.obj
 0002:00010fd8       ??_C@_1BA@BALFACEM@?$AAC?$AAO?$AAN?$AAO?$AAU?$AAT?$AA$?$AA?$AA@ 10052fd8     LIBCMT:initcon.obj
 0002:00010fe8       ___rg_language             10052fe8     LIBCMT:getqloc.obj
 0002:000112f4       ??_C@_1BC@LLOKLNP@?$AAa?$AAm?$AAe?$AAr?$AAi?$AAc?$AAa?$AAn?$AA?$AA@ 100532f4     LIBCMT:getqloc.obj
 0002:00011308       ??_C@_1CC@HEIGCDGG@?$AAa?$AAm?$AAe?$AAr?$AAi?$AAc?$AAa?$AAn?$AA?5?$AAe?$AAn?$AAg?$AAl?$AAi?$AAs?$AAh?$AA?$AA@ 10053308     LIBCMT:getqloc.obj
 0002:0001132c       ??_C@_1CC@IHCNOMIN@?$AAa?$AAm?$AAe?$AAr?$AAi?$AAc?$AAa?$AAn?$AA?9?$AAe?$AAn?$AAg?$AAl?$AAi?$AAs?$AAh?$AA?$AA@ 1005332c     LIBCMT:getqloc.obj
 0002:00011350       ??_C@_1BG@GKAGPCGG@?$AAa?$AAu?$AAs?$AAt?$AAr?$AAa?$AAl?$AAi?$AAa?$AAn?$AA?$AA@ 10053350     LIBCMT:getqloc.obj
 0002:00011368       ??_C@_1BA@GMENCENF@?$AAb?$AAe?$AAl?$AAg?$AAi?$AAa?$AAn?$AA?$AA@ 10053368     LIBCMT:getqloc.obj
 0002:00011378       ??_C@_1BC@PJMIIAAN@?$AAc?$AAa?$AAn?$AAa?$AAd?$AAi?$AAa?$AAn?$AA?$AA@ 10053378     LIBCMT:getqloc.obj
 0002:0001138c       ??_C@_17NOIMNFBF@?$AAc?$AAh?$AAh?$AA?$AA@ 1005338c     LIBCMT:getqloc.obj
 0002:00011394       ??_C@_17GGDALCHA@?$AAc?$AAh?$AAi?$AA?$AA@ 10053394     LIBCMT:getqloc.obj
 0002:0001139c       ??_C@_1BA@NPNJKIBL@?$AAc?$AAh?$AAi?$AAn?$AAe?$AAs?$AAe?$AA?$AA@ 1005339c     LIBCMT:getqloc.obj
 0002:000113ac       ??_C@_1CC@DINBAMMJ@?$AAc?$AAh?$AAi?$AAn?$AAe?$AAs?$AAe?$AA?9?$AAh?$AAo?$AAn?$AAg?$AAk?$AAo?$AAn?$AAg?$AA?$AA@ 100533ac     LIBCMT:getqloc.obj
 0002:000113d0       ??_C@_1CG@IOBJPACO@?$AAc?$AAh?$AAi?$AAn?$AAe?$AAs?$AAe?$AA?9?$AAs?$AAi?$AAm?$AAp?$AAl?$AAi?$AAf?$AAi?$AAe?$AAd?$AA?$AA@ 100533d0     LIBCMT:getqloc.obj
 0002:000113f8       ??_C@_1CE@GAJNDCKG@?$AAc?$AAh?$AAi?$AAn?$AAe?$AAs?$AAe?$AA?9?$AAs?$AAi?$AAn?$AAg?$AAa?$AAp?$AAo?$AAr?$AAe?$AA?$AA@ 100533f8     LIBCMT:getqloc.obj
 0002:0001141c       ??_C@_1CI@PAJPIOOD@?$AAc?$AAh?$AAi?$AAn?$AAe?$AAs?$AAe?$AA?9?$AAt?$AAr?$AAa?$AAd?$AAi?$AAt?$AAi?$AAo?$AAn?$AAa?$AAl?$AA?$AA@ 1005341c     LIBCMT:getqloc.obj
 0002:00011444       ??_C@_1BM@NILJBMMD@?$AAd?$AAu?$AAt?$AAc?$AAh?$AA?9?$AAb?$AAe?$AAl?$AAg?$AAi?$AAa?$AAn?$AA?$AA@ 10053444     LIBCMT:getqloc.obj
 0002:00011460       ??_C@_1CC@OOJPJNEJ@?$AAe?$AAn?$AAg?$AAl?$AAi?$AAs?$AAh?$AA?9?$AAa?$AAm?$AAe?$AAr?$AAi?$AAc?$AAa?$AAn?$AA?$AA@ 10053460     LIBCMT:getqloc.obj
 0002:00011484       ??_C@_1BI@IOLFEEM@?$AAe?$AAn?$AAg?$AAl?$AAi?$AAs?$AAh?$AA?9?$AAa?$AAu?$AAs?$AA?$AA@ 10053484     LIBCMT:getqloc.obj
 0002:0001149c       ??_C@_1BO@HFFNLENJ@?$AAe?$AAn?$AAg?$AAl?$AAi?$AAs?$AAh?$AA?9?$AAb?$AAe?$AAl?$AAi?$AAz?$AAe?$AA?$AA@ 1005349c     LIBCMT:getqloc.obj
 0002:000114bc       ??_C@_1BI@HAPKJMPO@?$AAe?$AAn?$AAg?$AAl?$AAi?$AAs?$AAh?$AA?9?$AAc?$AAa?$AAn?$AA?$AA@ 100534bc     LIBCMT:getqloc.obj
 0002:000114d4       ??_C@_1CE@HLNDMIOJ@?$AAe?$AAn?$AAg?$AAl?$AAi?$AAs?$AAh?$AA?9?$AAc?$AAa?$AAr?$AAi?$AAb?$AAb?$AAe?$AAa?$AAn?$AA?$AA@ 100534d4     LIBCMT:getqloc.obj
 0002:000114f8       ??_C@_1BI@LDHJHHAC@?$AAe?$AAn?$AAg?$AAl?$AAi?$AAs?$AAh?$AA?9?$AAi?$AAr?$AAe?$AA?$AA@ 100534f8     LIBCMT:getqloc.obj
 0002:00011510       ??_C@_1CA@NJMMCFOC@?$AAe?$AAn?$AAg?$AAl?$AAi?$AAs?$AAh?$AA?9?$AAj?$AAa?$AAm?$AAa?$AAi?$AAc?$AAa?$AA?$AA@ 10053510     LIBCMT:getqloc.obj
 0002:00011530       ??_C@_1BG@BHJEBBGG@?$AAe?$AAn?$AAg?$AAl?$AAi?$AAs?$AAh?$AA?9?$AAn?$AAz?$AA?$AA@ 10053530     LIBCMT:getqloc.obj
 0002:00011548       ??_C@_1CK@FGOEJJCO@?$AAe?$AAn?$AAg?$AAl?$AAi?$AAs?$AAh?$AA?9?$AAs?$AAo?$AAu?$AAt?$AAh?$AA?5?$AAa?$AAf?$AAr?$AAi?$AAc?$AAa?$AA?$AA@ 10053548     LIBCMT:getqloc.obj
 0002:00011574       ??_C@_1DE@PDBJPCJ@?$AAe?$AAn?$AAg?$AAl?$AAi?$AAs?$AAh?$AA?9?$AAt?$AAr?$AAi?$AAn?$AAi?$AAd?$AAa?$AAd?$AA?5?$AAy?$AA?5?$AAt?$AAo?$AAb?$AAa?$AAg?$AAo?$AA?$AA@ 10053574     LIBCMT:getqloc.obj
 0002:000115a8       ??_C@_1BG@JGCANDME@?$AAe?$AAn?$AAg?$AAl?$AAi?$AAs?$AAh?$AA?9?$AAu?$AAk?$AA?$AA@ 100535a8     LIBCMT:getqloc.obj
 0002:000115c0       ??_C@_1BG@DINKMLE@?$AAe?$AAn?$AAg?$AAl?$AAi?$AAs?$AAh?$AA?9?$AAu?$AAs?$AA?$AA@ 100535c0     LIBCMT:getqloc.obj
 0002:000115d8       ??_C@_1BI@NMFDBHJE@?$AAe?$AAn?$AAg?$AAl?$AAi?$AAs?$AAh?$AA?9?$AAu?$AAs?$AAa?$AA?$AA@ 100535d8     LIBCMT:getqloc.obj
 0002:000115f0       ??_C@_1BO@OIHKJKII@?$AAf?$AAr?$AAe?$AAn?$AAc?$AAh?$AA?9?$AAb?$AAe?$AAl?$AAg?$AAi?$AAa?$AAn?$AA?$AA@ 100535f0     LIBCMT:getqloc.obj
 0002:00011610       ??_C@_1CA@NKAELJKI@?$AAf?$AAr?$AAe?$AAn?$AAc?$AAh?$AA?9?$AAc?$AAa?$AAn?$AAa?$AAd?$AAi?$AAa?$AAn?$AA?$AA@ 10053610     LIBCMT:getqloc.obj
 0002:00011630       ??_C@_1CE@MGKCNLGN@?$AAf?$AAr?$AAe?$AAn?$AAc?$AAh?$AA?9?$AAl?$AAu?$AAx?$AAe?$AAm?$AAb?$AAo?$AAu?$AAr?$AAg?$AA?$AA@ 10053630     LIBCMT:getqloc.obj
 0002:00011654       ??_C@_1BK@CEGEAILM@?$AAf?$AAr?$AAe?$AAn?$AAc?$AAh?$AA?9?$AAs?$AAw?$AAi?$AAs?$AAs?$AA?$AA@ 10053654     LIBCMT:getqloc.obj
 0002:00011670       ??_C@_1CA@PAFKEOCC@?$AAg?$AAe?$AAr?$AAm?$AAa?$AAn?$AA?9?$AAa?$AAu?$AAs?$AAt?$AAr?$AAi?$AAa?$AAn?$AA?$AA@ 10053670     LIBCMT:getqloc.obj
 0002:00011690       ??_C@_1CI@HCFHGOFD@?$AAg?$AAe?$AAr?$AAm?$AAa?$AAn?$AA?9?$AAl?$AAi?$AAc?$AAh?$AAt?$AAe?$AAn?$AAs?$AAt?$AAe?$AAi?$AAn?$AA?$AA@ 10053690     LIBCMT:getqloc.obj
 0002:000116b8       ??_C@_1CE@FEDDNPDG@?$AAg?$AAe?$AAr?$AAm?$AAa?$AAn?$AA?9?$AAl?$AAu?$AAx?$AAe?$AAm?$AAb?$AAo?$AAu?$AAr?$AAg?$AA?$AA@ 100536b8     LIBCMT:getqloc.obj
 0002:000116dc       ??_C@_1BK@LIMINNMN@?$AAg?$AAe?$AAr?$AAm?$AAa?$AAn?$AA?9?$AAs?$AAw?$AAi?$AAs?$AAs?$AA?$AA@ 100536dc     LIBCMT:getqloc.obj
 0002:000116f8       ??_C@_1BM@LGMDBEPD@?$AAi?$AAr?$AAi?$AAs?$AAh?$AA?9?$AAe?$AAn?$AAg?$AAl?$AAi?$AAs?$AAh?$AA?$AA@ 100536f8     LIBCMT:getqloc.obj
 0002:00011714       ??_C@_1BM@NNCFBAEE@?$AAi?$AAt?$AAa?$AAl?$AAi?$AAa?$AAn?$AA?9?$AAs?$AAw?$AAi?$AAs?$AAs?$AA?$AA@ 10053714     LIBCMT:getqloc.obj
 0002:00011730       ??_C@_1BE@FEDJNPIB@?$AAn?$AAo?$AAr?$AAw?$AAe?$AAg?$AAi?$AAa?$AAn?$AA?$AA@ 10053730     LIBCMT:getqloc.obj
 0002:00011744       ??_C@_1CC@CILKDEIE@?$AAn?$AAo?$AAr?$AAw?$AAe?$AAg?$AAi?$AAa?$AAn?$AA?9?$AAb?$AAo?$AAk?$AAm?$AAa?$AAl?$AA?$AA@ 10053744     LIBCMT:getqloc.obj
 0002:00011768       ??_C@_1CE@DHMMHEPL@?$AAn?$AAo?$AAr?$AAw?$AAe?$AAg?$AAi?$AAa?$AAn?$AA?9?$AAn?$AAy?$AAn?$AAo?$AAr?$AAs?$AAk?$AA?$AA@ 10053768     LIBCMT:getqloc.obj
 0002:0001178c       ??_C@_1CK@OPNMHECD@?$AAp?$AAo?$AAr?$AAt?$AAu?$AAg?$AAu?$AAe?$AAs?$AAe?$AA?9?$AAb?$AAr?$AAa?$AAz?$AAi?$AAl?$AAi?$AAa?$AAn?$AA?$AA@ 1005378c     LIBCMT:getqloc.obj
 0002:000117b8       ??_C@_1CE@KEEHCDB@?$AAs?$AAp?$AAa?$AAn?$AAi?$AAs?$AAh?$AA?9?$AAa?$AAr?$AAg?$AAe?$AAn?$AAt?$AAi?$AAn?$AAa?$AA?$AA@ 100537b8     LIBCMT:getqloc.obj
 0002:000117dc       ??_C@_1CA@GIAOLHJD@?$AAs?$AAp?$AAa?$AAn?$AAi?$AAs?$AAh?$AA?9?$AAb?$AAo?$AAl?$AAi?$AAv?$AAi?$AAa?$AA?$AA@ 100537dc     LIBCMT:getqloc.obj
 0002:000117fc       ??_C@_1BM@OJNDFNPD@?$AAs?$AAp?$AAa?$AAn?$AAi?$AAs?$AAh?$AA?9?$AAc?$AAh?$AAi?$AAl?$AAe?$AA?$AA@ 100537fc     LIBCMT:getqloc.obj
 0002:00011818       ??_C@_1CC@OCOLPALL@?$AAs?$AAp?$AAa?$AAn?$AAi?$AAs?$AAh?$AA?9?$AAc?$AAo?$AAl?$AAo?$AAm?$AAb?$AAi?$AAa?$AA?$AA@ 10053818     LIBCMT:getqloc.obj
 0002:0001183c       ??_C@_1CG@BPOFMKBB@?$AAs?$AAp?$AAa?$AAn?$AAi?$AAs?$AAh?$AA?9?$AAc?$AAo?$AAs?$AAt?$AAa?$AA?5?$AAr?$AAi?$AAc?$AAa?$AA?$AA@ 1005383c     LIBCMT:getqloc.obj
 0002:00011864       ??_C@_1DG@IGOBAPBB@?$AAs?$AAp?$AAa?$AAn?$AAi?$AAs?$AAh?$AA?9?$AAd?$AAo?$AAm?$AAi?$AAn?$AAi?$AAc?$AAa?$AAn?$AA?5?$AAr?$AAe?$AAp?$AAu?$AAb?$AAl?$AAi?$AAc?$AA?$AA@ 10053864     LIBCMT:getqloc.obj
 0002:0001189c       ??_C@_1CA@JHAPGEGI@?$AAs?$AAp?$AAa?$AAn?$AAi?$AAs?$AAh?$AA?9?$AAe?$AAc?$AAu?$AAa?$AAd?$AAo?$AAr?$AA?$AA@ 1005389c     LIBCMT:getqloc.obj
 0002:000118bc       ??_C@_1CI@LAPALJPP@?$AAs?$AAp?$AAa?$AAn?$AAi?$AAs?$AAh?$AA?9?$AAe?$AAl?$AA?5?$AAs?$AAa?$AAl?$AAv?$AAa?$AAd?$AAo?$AAr?$AA?$AA@ 100538bc     LIBCMT:getqloc.obj
 0002:000118e4       ??_C@_1CE@PDGBOFOM@?$AAs?$AAp?$AAa?$AAn?$AAi?$AAs?$AAh?$AA?9?$AAg?$AAu?$AAa?$AAt?$AAe?$AAm?$AAa?$AAl?$AAa?$AA?$AA@ 100538e4     LIBCMT:getqloc.obj
 0002:00011908       ??_C@_1CC@NBEBAODI@?$AAs?$AAp?$AAa?$AAn?$AAi?$AAs?$AAh?$AA?9?$AAh?$AAo?$AAn?$AAd?$AAu?$AAr?$AAa?$AAs?$AA?$AA@ 10053908     LIBCMT:getqloc.obj
 0002:0001192c       ??_C@_1CA@LLKGHBMF@?$AAs?$AAp?$AAa?$AAn?$AAi?$AAs?$AAh?$AA?9?$AAm?$AAe?$AAx?$AAi?$AAc?$AAa?$AAn?$AA?$AA@ 1005392c     LIBCMT:getqloc.obj
 0002:0001194c       ??_C@_1BO@LKNDOIGD@?$AAs?$AAp?$AAa?$AAn?$AAi?$AAs?$AAh?$AA?9?$AAm?$AAo?$AAd?$AAe?$AAr?$AAn?$AA?$AA@ 1005394c     LIBCMT:getqloc.obj
 0002:0001196c       ??_C@_1CE@NMDMOEEB@?$AAs?$AAp?$AAa?$AAn?$AAi?$AAs?$AAh?$AA?9?$AAn?$AAi?$AAc?$AAa?$AAr?$AAa?$AAg?$AAu?$AAa?$AA?$AA@ 1005396c     LIBCMT:getqloc.obj
 0002:00011990       ??_C@_1BO@LLCBEJGB@?$AAs?$AAp?$AAa?$AAn?$AAi?$AAs?$AAh?$AA?9?$AAp?$AAa?$AAn?$AAa?$AAm?$AAa?$AA?$AA@ 10053990     LIBCMT:getqloc.obj
 0002:000119b0       ??_C@_1CC@FKPGGIHO@?$AAs?$AAp?$AAa?$AAn?$AAi?$AAs?$AAh?$AA?9?$AAp?$AAa?$AAr?$AAa?$AAg?$AAu?$AAa?$AAy?$AA?$AA@ 100539b0     LIBCMT:getqloc.obj
 0002:000119d4       ??_C@_1BK@CDEIHOOP@?$AAs?$AAp?$AAa?$AAn?$AAi?$AAs?$AAh?$AA?9?$AAp?$AAe?$AAr?$AAu?$AA?$AA@ 100539d4     LIBCMT:getqloc.obj
 0002:000119f0       ??_C@_1CI@GAHAKKGP@?$AAs?$AAp?$AAa?$AAn?$AAi?$AAs?$AAh?$AA?9?$AAp?$AAu?$AAe?$AAr?$AAt?$AAo?$AA?5?$AAr?$AAi?$AAc?$AAo?$AA?$AA@ 100539f0     LIBCMT:getqloc.obj
 0002:00011a18       ??_C@_1CA@NKJBCAGP@?$AAs?$AAp?$AAa?$AAn?$AAi?$AAs?$AAh?$AA?9?$AAu?$AAr?$AAu?$AAg?$AAu?$AAa?$AAy?$AA?$AA@ 10053a18     LIBCMT:getqloc.obj
 0002:00011a38       ??_C@_1CE@ODILCONM@?$AAs?$AAp?$AAa?$AAn?$AAi?$AAs?$AAh?$AA?9?$AAv?$AAe?$AAn?$AAe?$AAz?$AAu?$AAe?$AAl?$AAa?$AA?$AA@ 10053a38     LIBCMT:getqloc.obj
 0002:00011a5c       ??_C@_1CA@OBNMCGFO@?$AAs?$AAw?$AAe?$AAd?$AAi?$AAs?$AAh?$AA?9?$AAf?$AAi?$AAn?$AAl?$AAa?$AAn?$AAd?$AA?$AA@ 10053a5c     LIBCMT:getqloc.obj
 0002:00011a7c       ??_C@_1M@PIPDDPPI@?$AAs?$AAw?$AAi?$AAs?$AAs?$AA?$AA@ 10053a7c     LIBCMT:getqloc.obj
 0002:00011a88       ??_C@_15GMFIMNFM@?$AAu?$AAs?$AA?$AA@ 10053a88     LIBCMT:getqloc.obj
 0002:00011a90       ??_C@_17HAEBFAGL@?$AAu?$AAs?$AAa?$AA?$AA@ 10053a90     LIBCMT:getqloc.obj
 0002:00011a98       ___rg_country              10053a98     LIBCMT:getqloc.obj
 0002:00011bac       ??_C@_1BA@DPFJEPHB@?$AAa?$AAm?$AAe?$AAr?$AAi?$AAc?$AAa?$AA?$AA@ 10053bac     LIBCMT:getqloc.obj
 0002:00011bbc       ??_C@_1BA@ELOGGFK@?$AAb?$AAr?$AAi?$AAt?$AAa?$AAi?$AAn?$AA?$AA@ 10053bbc     LIBCMT:getqloc.obj
 0002:00011bcc       ??_C@_1M@GHBGIGDA@?$AAc?$AAh?$AAi?$AAn?$AAa?$AA?$AA@ 10053bcc     LIBCMT:getqloc.obj
 0002:00011bd8       ??_C@_1M@NCHEJOPO@?$AAc?$AAz?$AAe?$AAc?$AAh?$AA?$AA@ 10053bd8     LIBCMT:getqloc.obj
 0002:00011be4       ??_C@_1BA@BKPAPBLA@?$AAe?$AAn?$AAg?$AAl?$AAa?$AAn?$AAd?$AA?$AA@ 10053be4     LIBCMT:getqloc.obj
 0002:00011bf4       ??_C@_1BM@HKBCKIPC@?$AAg?$AAr?$AAe?$AAa?$AAt?$AA?5?$AAb?$AAr?$AAi?$AAt?$AAa?$AAi?$AAn?$AA?$AA@ 10053bf4     LIBCMT:getqloc.obj
 0002:00011c10       ??_C@_1BA@PPCHPGJB@?$AAh?$AAo?$AAl?$AAl?$AAa?$AAn?$AAd?$AA?$AA@ 10053c10     LIBCMT:getqloc.obj
 0002:00011c20       ??_C@_1BE@JBMPEGDG@?$AAh?$AAo?$AAn?$AAg?$AA?9?$AAk?$AAo?$AAn?$AAg?$AA?$AA@ 10053c20     LIBCMT:getqloc.obj
 0002:00011c34       ??_C@_1BI@KOELBBPJ@?$AAn?$AAe?$AAw?$AA?9?$AAz?$AAe?$AAa?$AAl?$AAa?$AAn?$AAd?$AA?$AA@ 10053c34     LIBCMT:getqloc.obj
 0002:00011c4c       ??_C@_15HIEBHAIO@?$AAn?$AAz?$AA?$AA@ 10053c4c     LIBCMT:getqloc.obj
 0002:00011c54       ??_C@_1BC@CHBCPFPI@?$AAp?$AAr?$AA?5?$AAc?$AAh?$AAi?$AAn?$AAa?$AA?$AA@ 10053c54     LIBCMT:getqloc.obj
 0002:00011c68       ??_C@_1BC@JAOIIFKD@?$AAp?$AAr?$AA?9?$AAc?$AAh?$AAi?$AAn?$AAa?$AA?$AA@ 10053c68     LIBCMT:getqloc.obj
 0002:00011c7c       ??_C@_1BI@BEHPPHKC@?$AAp?$AAu?$AAe?$AAr?$AAt?$AAo?$AA?9?$AAr?$AAi?$AAc?$AAo?$AA?$AA@ 10053c7c     LIBCMT:getqloc.obj
 0002:00011c94       ??_C@_1O@PAEOFKDI@?$AAs?$AAl?$AAo?$AAv?$AAa?$AAk?$AA?$AA@ 10053c94     LIBCMT:getqloc.obj
 0002:00011ca4       ??_C@_1BK@FIHMCKAM@?$AAs?$AAo?$AAu?$AAt?$AAh?$AA?5?$AAa?$AAf?$AAr?$AAi?$AAc?$AAa?$AA?$AA@ 10053ca4     LIBCMT:getqloc.obj
 0002:00011cc0       ??_C@_1BI@NAEOODKB@?$AAs?$AAo?$AAu?$AAt?$AAh?$AA?5?$AAk?$AAo?$AAr?$AAe?$AAa?$AA?$AA@ 10053cc0     LIBCMT:getqloc.obj
 0002:00011cd8       ??_C@_1BK@FBDGGIFF@?$AAs?$AAo?$AAu?$AAt?$AAh?$AA?9?$AAa?$AAf?$AAr?$AAi?$AAc?$AAa?$AA?$AA@ 10053cd8     LIBCMT:getqloc.obj
 0002:00011cf4       ??_C@_1BI@GHLEJDPK@?$AAs?$AAo?$AAu?$AAt?$AAh?$AA?9?$AAk?$AAo?$AAr?$AAe?$AAa?$AA?$AA@ 10053cf4     LIBCMT:getqloc.obj
 0002:00011d0c       ??_C@_1CE@PLHLOMJF@?$AAt?$AAr?$AAi?$AAn?$AAi?$AAd?$AAa?$AAd?$AA?5?$AA?$CG?$AA?5?$AAt?$AAo?$AAb?$AAa?$AAg?$AAo?$AA?$AA@ 10053d0c     LIBCMT:getqloc.obj
 0002:00011d30       ??_C@_1BO@MODIMHHI@?$AAu?$AAn?$AAi?$AAt?$AAe?$AAd?$AA?9?$AAk?$AAi?$AAn?$AAg?$AAd?$AAo?$AAm?$AA?$AA@ 10053d30     LIBCMT:getqloc.obj
 0002:00011d50       ??_C@_1BM@FFHJONBJ@?$AAu?$AAn?$AAi?$AAt?$AAe?$AAd?$AA?9?$AAs?$AAt?$AAa?$AAt?$AAe?$AAs?$AA?$AA@ 10053d50     LIBCMT:getqloc.obj
 0002:00011d6c       ___rg_language_count       10053d6c     LIBCMT:getqloc.obj
 0002:00011d70       ___rg_country_count        10053d70     LIBCMT:getqloc.obj
 0002:00011d74       ??_C@_17DNCLJFIF@?$AAA?$AAC?$AAP?$AA?$AA@ 10053d74     LIBCMT:getqloc.obj
 0002:00011d7c       ??_C@_17CIKBIHLH@?$AAO?$AAC?$AAP?$AA?$AA@ 10053d7c     LIBCMT:getqloc.obj
 0002:00011d84       ___rglangidNotDefault      10053d84     LIBCMT:getqloc_downlevel.obj
 0002:00011d98       __real@00000000            10053d98     LIBCMT:wcstoq.obj
 0002:00011da0       __load_config_used         10053da0     LIBCMT:loadcfg.obj
 0002:000140a0       ___safe_se_handler_table   100560a0     <linker-defined>
 0002:000141b0       ___rtc_iaa                 100561b0     LIBCMT:initsect.obj
 0002:000142b4       ___rtc_izz                 100562b4     LIBCMT:initsect.obj
 0002:000143b8       ___rtc_taa                 100563b8     LIBCMT:initsect.obj
 0002:000144bc       ___rtc_tzz                 100564bc     LIBCMT:initsect.obj
 0003:000004f0       _FingerStrokeAssistance_P  100584f0     FingerStrokeAssistance_data.obj
 0003:00000dc0       _pci20041digout            10058dc0     xpctarget.obj
 0003:00000dc4       _nipcdio24cnfg             10058dc4     xpctarget.obj
 0003:00000dc8       _rtddm6604cnfg             10058dc8     xpctarget.obj
 0003:000014f0       _DefaultCOMIOBase          100594f0     xpcruntime:xpcimports.obj
 0003:00001500       _DefaultCOMIRQ             10059500     xpcruntime:xpcimports.obj
 0003:00001510       __fltused                  10059510     LIBCMT:fpinit.obj
 0003:00001514       __ldused                   10059514     LIBCMT:fpinit.obj
 0003:00001520       __iob                      10059520     LIBCMT:_file.obj
 0003:000017a0       ___isa_enabled             100597a0     LIBCMT:cpu_disp.obj
 0003:000017a4       ___security_cookie         100597a4     LIBCMT:gs_cookie.obj
 0003:000017a8       ___security_cookie_complement 100597a8     LIBCMT:gs_cookie.obj
 0003:00001980       ___nullstring              10059980     LIBCMT:output.obj
 0003:00001984       ___wnullstring             10059984     LIBCMT:output.obj
 0003:00001994       __cfltcvt_tab              10059994     LIBCMT:cmiscdat.obj
 0003:00001ae0       __mbctype                  10059ae0     LIBCMT:mbctype.obj
 0003:00001be8       __mbcasemap                10059be8     LIBCMT:mbctype.obj
 0003:00001ce8       ___initialmbcinfo          10059ce8     LIBCMT:mbctype.obj
 0003:00001f0c       ___ptmbcinfo               10059f0c     LIBCMT:mbctype.obj
 0003:00002000       ___badioinfo               1005a000     LIBCMT:ioinit.obj
 0003:00002040       __lookuptrailbytes         1005a040     LIBCMT:read.obj
 0003:00002140       __d_inf                    1005a140     LIBCMT:util.obj
 0003:00002148       __d_ind                    1005a148     LIBCMT:util.obj
 0003:00002150       __d_max                    1005a150     LIBCMT:util.obj
 0003:00002158       __d_min                    1005a158     LIBCMT:util.obj
 0003:00002160       __d_mzero                  1005a160     LIBCMT:util.obj
 0003:0000226c       ___abort_behavior          1005a26c     LIBCMT:abort.obj
 0003:00002270       ___flsindex                1005a270     LIBCMT:tidtable.obj
 0003:00002280       ___mb_cur_max              1005a280     LIBCMT:nlsdata.obj
 0003:00002284       ___wclocalestr             1005a284     LIBCMT:nlsdata.obj
 0003:00002288       ___lc_time_c               1005a288     LIBCMT:nlsdata.obj
 0003:000023ec       ___ptlocinfo               1005a3ec     LIBCMT:nlsdata.obj
 0003:000023f0       ___initiallocinfo          1005a3f0     LIBCMT:nlsdata.obj
 0003:000024a8       ___initiallocalestructinfo 1005a4a8     LIBCMT:nlsdata.obj
 0003:000024b0       ___globallocalestatus      1005a4b0     LIBCMT:glstatus.obj
 0003:000024b4       __matherr_flag             1005a4b4     LIBCMT:matherr.obj
 0003:000024c0       __NLG_Destination          1005a4c0     LIBCMT:exsup.obj
 0003:000024d0       ___lconv                   1005a4d0     LIBCMT:lconv.obj
 0003:000024d4       ___lconv_static_decimal    1005a4d4     LIBCMT:lconv.obj
 0003:000024d8       ___lconv_c                 1005a4d8     LIBCMT:lconv.obj
 0003:00002528       ___lconv_static_W_decimal  1005a528     LIBCMT:lconv.obj
 0003:0000252c       __pctype                   1005a52c     LIBCMT:ctype.obj
 0003:00002530       __pwctype                  1005a530     LIBCMT:ctype.obj
 0003:00002570       __confh                    1005a570     LIBCMT:initcon.obj
 0003:00002578       __pow10pos                 1005a578     LIBCMT:constpow.obj
 0003:000026d8       __pow10neg                 1005a6d8     LIBCMT:constpow.obj
 0003:00002840       __HUGE                     1005a840     LIBCMT:huge.obj
 0003:00002d9c       ___isa_available_default   1005ad9c     rt_logging.obj
 0003:00002dac       _pci20098PortA             1005adac     xpctarget.obj
 0003:00002db0       _pci20098PortB             1005adb0     xpctarget.obj
 0003:00002db4       _siepowercan_firmware_initialized 1005adb4     xpctarget.obj
 0003:00002db8       _siepowercan_port1_configured 1005adb8     xpctarget.obj
 0003:00002dbc       _siepowercan_port2_configured 1005adbc     xpctarget.obj
 0003:00002dc0       _CANAC2_FIRMWARE_LOADED    1005adc0     xpctarget.obj
 0003:00002dc4       _rs232ports                1005adc4     xpctarget.obj
 0003:00002dd4       _NI_AT_MIO_16F_5_commreg2  1005add4     xpctarget.obj
 0003:00002dd8       _RTD_DM6430_init           1005add8     xpctarget.obj
 0003:00002ddc       _RTD_DM6420_init           1005addc     xpctarget.obj
 0003:00002de0       _CANAC2_FIRMWARE_LOADED_mb1 1005ade0     xpctarget.obj
 0003:00002de4       _CANAC2_FIRMWARE_LOADED_mb2 1005ade4     xpctarget.obj
 0003:00002de8       _CANAC2_FIRMWARE_LOADED_mb3 1005ade8     xpctarget.obj
 0003:00002dec       _xmlsize                   1005adec     xpctarget.obj
 0003:000034f8       ___fastflag                1005b4f8     LIBCMT:fpinit.obj
 0003:00003820       __C_Exit_Done              1005b820     LIBCMT:crt0dat.obj
 0003:00003824       ___argc                    1005b824     LIBCMT:crt0dat.obj
 0003:00003828       ___argv                    1005b828     LIBCMT:crt0dat.obj
 0003:0000382c       ___wargv                   1005b82c     LIBCMT:crt0dat.obj
 0003:00003830       __environ                  1005b830     LIBCMT:crt0dat.obj
 0003:00003834       __wenviron                 1005b834     LIBCMT:crt0dat.obj
 0003:00003838       __pgmptr                   1005b838     LIBCMT:crt0dat.obj
 0003:0000383c       __wpgmptr                  1005b83c     LIBCMT:crt0dat.obj
 0003:00003840       __umaskval                 1005b840     LIBCMT:crt0dat.obj
 0003:00003844       __exitflag                 1005b844     LIBCMT:crt0dat.obj
 0003:00003848       __C_Termination_Done       1005b848     LIBCMT:crt0dat.obj
 0003:0000384c       ___winitenv                1005b84c     LIBCMT:crt0dat.obj
 0003:00003850       ___initenv                 1005b850     LIBCMT:crt0dat.obj
 0003:00003854       __cflush                   1005b854     LIBCMT:_file.obj
 0003:00003858       ___isa_available           1005b858     LIBCMT:cpu_disp.obj
 0003:0000385c       ___favor                   1005b85c     LIBCMT:cpu_disp.obj
 0003:00003864       __aenvptr                  1005b864     LIBCMT:dllcrt0.obj
 0003:00003868       __wenvptr                  1005b868     LIBCMT:dllcrt0.obj
 0003:0000386c       ?_pnhHeap@@3P6AHI@ZA       1005b86c     LIBCMT:handler.obj
 0003:00003870       ___app_type                1005b870     LIBCMT:crt0msg.obj
 0003:00003ea0       __newmode                  1005bea0     LIBCMT:_newmode.obj
 0003:00003ea4       __crtheap                  1005bea4     LIBCMT:heapinit.obj
 0003:00003ea8       ___pInvalidArgHandler      1005bea8     LIBCMT:invarg.obj
 0003:00003eac       __stdbuf                   1005beac     LIBCMT:_sftbuf.obj
 0003:00004008       __maxwait                  1005c008     LIBCMT:crtheap.obj
 0003:0000400c       ?__pInconsistency@@3P6AXXZA 1005c00c     LIBCMT:hooks.obj
 0003:00004010       ___pPurecall               1005c010     LIBCMT:inithelp.obj
 0003:0000402c       ___mbcodepage              1005c02c     LIBCMT:mbctype.obj
 0003:00004030       ___ismbcodepage            1005c030     LIBCMT:mbctype.obj
 0003:00004034       ___mbulinfo                1005c034     LIBCMT:mbctype.obj
 0003:00004040       ___mblocalename            1005c040     LIBCMT:mbctype.obj
 0003:00004048       ___pioinfo                 1005c048     LIBCMT:ioinit.obj
 0003:00004148       ___error_mode              1005c148     LIBCMT:errmode.obj
 0003:00004268       __outputformat             1005c268     LIBCMT:outputformat.obj
 0003:00004270       __commode                  1005c270     LIBCMT:ncommode.obj
 0003:00004274       ___lconv_static_null       1005c274     LIBCMT:lconv.obj
 0003:00004278       ___lconv_static_W_null     1005c278     LIBCMT:lconv.obj
 0003:0000427c       ___locale_changed          1005c27c     LIBCMT:wsetloca.obj
 0003:00004280       __fmode                    1005c280     LIBCMT:txtmode.obj
 0003:000042a0       _CANAC2_2_receiveindex_mb3 1005c2a0     <common>
 0003:00007374       _CANAC2_2_receivemaxindex_mb3 1005f374     <common>
 0003:00007380       _CANAC2_2_sendindex_mb3    1005f380     <common>
 0003:000076a0       _CANAC2_2_sendmaxindex_mb3 1005f6a0     <common>
 0003:000076c0       _CANAC2_1_receiveindex_mb3 1005f6c0     <common>
 0003:000079e0       _CANAC2_1_receivemaxindex_mb3 1005f9e0     <common>
 0003:00007a00       _CANAC2_1_sendindex_mb3    1005fa00     <common>
 0003:00007d20       _CANAC2_1_sendmaxindex_mb3 1005fd20     <common>
 0003:00007d40       _CANAC2_2_receive_mb3      1005fd40     <common>
 0003:00008060       _CANAC2_2_send_mb3         10060060     <common>
 0003:00008380       _CANAC2_1_receive_mb3      10060380     <common>
 0003:000086a0       _CANAC2_1_send_mb3         100606a0     <common>
 0003:000089c0       _CANAC2_2_receiveindex_mb2 100609c0     <common>
 0003:00008ce0       _CANAC2_2_receivemaxindex_mb2 10060ce0     <common>
 0003:00008d00       _CANAC2_2_sendindex_mb2    10060d00     <common>
 0003:00009020       _CANAC2_2_sendmaxindex_mb2 10061020     <common>
 0003:00009040       _CANAC2_1_receiveindex_mb2 10061040     <common>
 0003:00009360       _CANAC2_1_receivemaxindex_mb2 10061360     <common>
 0003:00009380       _CANAC2_1_sendindex_mb2    10061380     <common>
 0003:000096a0       _CANAC2_1_sendmaxindex_mb2 100616a0     <common>
 0003:000096c0       _CANAC2_2_receive_mb2      100616c0     <common>
 0003:000099e0       _CANAC2_2_send_mb2         100619e0     <common>
 0003:00009d00       _CANAC2_1_receive_mb2      10061d00     <common>
 0003:0000a020       _CANAC2_1_send_mb2         10062020     <common>
 0003:0000a340       _CANAC2_2_receiveindex_mb1 10062340     <common>
 0003:0000a660       _CANAC2_2_receivemaxindex_mb1 10062660     <common>
 0003:0000a680       _CANAC2_2_sendindex_mb1    10062680     <common>
 0003:0000a9a0       _CANAC2_2_sendmaxindex_mb1 100629a0     <common>
 0003:0000a9c0       _CANAC2_1_receiveindex_mb1 100629c0     <common>
 0003:0000ace0       _CANAC2_1_receivemaxindex_mb1 10062ce0     <common>
 0003:0000ad00       _CANAC2_1_sendindex_mb1    10062d00     <common>
 0003:0000b020       _CANAC2_1_sendmaxindex_mb1 10063020     <common>
 0003:0000b040       _CANAC2_2_receive_mb1      10063040     <common>
 0003:0000b360       _CANAC2_2_send_mb1         10063360     <common>
 0003:0000b680       _CANAC2_1_receive_mb1      10063680     <common>
 0003:0000b9a0       _CANAC2_1_send_mb1         100639a0     <common>
 0003:0000bcc0       _CANAC2_2_receiveindex     10063cc0     <common>
 0003:0000bfe0       _CANAC2_2_receivemaxindex  10063fe0     <common>
 0003:0000c000       _CANAC2_2_sendindex        10064000     <common>
 0003:0000c320       _CANAC2_2_sendmaxindex     10064320     <common>
 0003:0000c340       _CANAC2_1_receiveindex     10064340     <common>
 0003:0000c660       _CANAC2_1_receivemaxindex  10064660     <common>
 0003:0000c680       _CANAC2_1_sendindex        10064680     <common>
 0003:0000c9a0       _CANAC2_1_sendmaxindex     100649a0     <common>
 0003:0000c9c0       _CANAC2_2_receive          100649c0     <common>
 0003:0000cce0       _CANAC2_2_send             10064ce0     <common>
 0003:0000d000       _CANAC2_1_receive          10065000     <common>
 0003:0000d320       _CANAC2_1_send             10065320     <common>
 0003:0000d640       _siepowercan_can_object_buffer_port2 10065640     <common>
 0003:00011660       _siepowercan_can_object_buffer_port1 10069660     <common>
 0003:00015660       _rtNaNF                    1006d660     <common>
 0003:00015674       _rtMinusInfF               1006d674     <common>
 0003:00015678       _rtInfF                    1006d678     <common>
 0003:00015680       _rtNaN                     1006d680     <common>
 0003:00015688       _rtMinusInf                1006d688     <common>
 0003:00015690       _rtInf                     1006d690     <common>
 0003:000156a0       _FingerStrokeAssistance_M_ 1006d6a0     <common>
 0003:0001728b       _FingerStrokeAssistance_PrevZCX 1006f28b     <common>
 0003:000172a0       _FingerStrokeAssistance_DW 1006f2a0     <common>
 0003:00017600       _FingerStrokeAssistance_B  1006f600     <common>
 0003:00017bc0       _xpceaddEvent              1006fbc0     <common>
 0003:00017c10       _xpceDeRegisterISR         1006fc10     <common>
 0003:00017c14       _xpceRegisterISR           1006fc14     <common>
 0003:00017c18       _xpcIsModelInit            1006fc18     <common>
 0003:00017c1c       _xpcGetElapsedTime         1006fc1c     <common>
 0003:00017c20       _xpcBusyWait               1006fc20     <common>
 0003:00017c24       _xpcFreePhysicalMemory     1006fc24     <common>
 0003:00017c28       _xpcAllocPhysicalMemory    1006fc28     <common>
 0003:00017c2c       _xpcReserveMemoryRegion    1006fc2c     <common>
 0003:00017c30       _xpcOutpB                  1006fc30     <common>
 0003:00017c34       _xpcOutpW                  1006fc34     <common>
 0003:00017c38       _xpcOutpDW                 1006fc38     <common>
 0003:00017c3c       _xpcInpB                   1006fc3c     <common>
 0003:00017c40       _xpcInpW                   1006fc40     <common>
 0003:00017c44       _xpcInpDW                  1006fc44     <common>
 0003:00017c48       _slTestRegAssessment       1006fc48     <common>
 0003:00017c4c       _slTestTerminate           1006fc4c     <common>
 0003:00017c50       _slTestEvalOnFail          1006fc50     <common>
 0003:00017c54       _slTestLogAssessments      1006fc54     <common>
 0003:00017c58       _slTestInitialize          1006fc58     <common>
 0003:00017c5c       _unRegisterPTPTimeRead     1006fc5c     <common>
 0003:00017c60       _registerPTPTimeRead       1006fc60     <common>
 0003:00017c64       _slrteGetCurrentStepSize   1006fc64     <common>
 0003:00017c68       _slrteSetStepSizeDelta     1006fc68     <common>
 0003:00017c6c       _xpceGetIntTimerGranularityNS 1006fc6c     <common>
 0003:00017c70       _sendToAsyncQueueTgtAppSvc 1006fc70     <common>
 0003:00017c74       _terminateToAsyncQueueTgtAppSvc 1006fc74     <common>
 0003:00017c78       _startToAsyncQueueTgtAppSvc 1006fc78     <common>
 0003:00017c7c       _getStatusFlags            1006fc7c     <common>
 0003:00017c80       _getCommService            1006fc80     <common>
 0003:00017c84       _getMemoryService          1006fc84     <common>
 0003:00017c88       _StreamVideo               1006fc88     <common>
 0003:00017c8c       _StopVideoDisplay          1006fc8c     <common>
 0003:00017c90       _StartVideoDisplay         1006fc90     <common>
 0003:00017c94       _DestroyVideoDisplay       1006fc94     <common>
 0003:00017c98       _CreateVideoDisplay        1006fc98     <common>
 0003:00017c9c       _ConvertUImage             1006fc9c     <common>
 0003:00017ca0       _StopVideo                 1006fca0     <common>
 0003:00017ca4       _ReadFrameBuffer           1006fca4     <common>
 0003:00017ca8       _StartVideo                1006fca8     <common>
 0003:00017cac       _GetVideoConfigs           1006fcac     <common>
 0003:00017cb0       _FindUsbVideoDevice        1006fcb0     <common>
 0003:00017cb4       _xpceDeleteSemaphore       1006fcb4     <common>
 0003:00017cb8       _xpceSignalSemaphore       1006fcb8     <common>
 0003:00017cbc       _xpceWaitSemaphore         1006fcbc     <common>
 0003:00017cc0       _xpceCreateSemaphore       1006fcc0     <common>
 0003:00017cc4       _TBGiveSpinFast            1006fcc4     <common>
 0003:00017cc8       _TBTakeSpinFast            1006fcc8     <common>
 0003:00017ccc       _TBDeleteSpin              1006fccc     <common>
 0003:00017cd0       _TBCreateSpin              1006fcd0     <common>
 0003:00017cd4       _xpceScopeAcqOK            1006fcd4     <common>
 0003:00017cd8       _rl32eRestartAcquisition   1006fcd8     <common>
 0003:00017cdc       _rl32eSetTargetScopeSigFt  1006fcdc     <common>
 0003:00017ce0       _rl32eSetTargetScope       1006fce0     <common>
 0003:00017ce4       _xpceFSScopeSet            1006fce4     <common>
 0003:00017ce8       _rl32eSetScope             1006fce8     <common>
 0003:00017cec       _rl32eAddSignal            1006fcec     <common>
 0003:00017cf0       _rl32eGetSignalNo          1006fcf0     <common>
 0003:00017cf4       _rl32eDefScope             1006fcf4     <common>
 0003:00017cf8       _rl32eScopeExists          1006fcf8     <common>
 0003:00017cfc       _xpceUDPClose              1006fcfc     <common>
 0003:00017d00       _xpceUDPReceive            1006fd00     <common>
 0003:00017d04       _xpceUDPSend               1006fd04     <common>
 0003:00017d08       _xpceUDPOpenReceive        1006fd08     <common>
 0003:00017d0c       _xpceUDPOpenSend           1006fd0c     <common>
 0003:00017d10       _rl32eSendBlock            1006fd10     <common>
 0003:00017d14       _rl32eLineStatus           1006fd14     <common>
 0003:00017d18       _rl32eReceiveBufferCount   1006fd18     <common>
 0003:00017d1c       _rl32eReceiveChar          1006fd1c     <common>
 0003:00017d20       _rl32eSendChar             1006fd20     <common>
 0003:00017d24       _rl32eCloseCOMPort         1006fd24     <common>
 0003:00017d28       _rl32eInitCOMPort          1006fd28     <common>
 0003:00017d2c       _xpceGetParamDims          1006fd2c     <common>
 0003:00017d30       _xpceGetParameter          1006fd30     <common>
 0003:00017d34       _xpceSetParameter          1006fd34     <common>
 0003:00017d38       _xpceGetSignalValue        1006fd38     <common>
 0003:00017d3c       _xpceAssignPCIInterrupt    1006fd3c     <common>
 0003:00017d40       _rl32eGetPCIInfoAtSlot     1006fd40     <common>
 0003:00017d44       _rl32eGetPCIInfo           1006fd44     <common>
 0003:00017d48       _rl32eShowPCIInfo          1006fd48     <common>
 0003:00017d4c       _rl32eShowPCIDev           1006fd4c     <common>
 0003:00017d50       _xpceGetTET                1006fd50     <common>
 0003:00017d54       _xpceFTSubtract            1006fd54     <common>
 0003:00017d58       _xpceFTAdd                 1006fd58     <common>
 0003:00017d5c       _xpceFTReadTime            1006fd5c     <common>
 0003:00017d60       ___unguarded_readlc_active 1006fd60     <common>
 0003:00017d70       ___setlc_active            1006fd70     <common>
 0003:00017d74       __nhandle                  1006fd74     <common>
 0003:00017d80       _encodedKERNEL32Functions  1006fd80     <common>
 0003:00017e28       __debugger_hook_dummy      1006fe28     <common>
 0003:00017e34       ___use_sse2_mathfcns       1006fe34     <common>
 0003:00017e40       __pmatherr                 1006fe40     <common>
 0003:00017e4c       __pDestructExceptionObject 1006fe4c     <common>
 0003:00017e58       __acmdln                   1006fe58     <common>
 0003:00017e80       __bufin                    1006fe80     <common>
 0003:000191bc       ___piob                    100711bc     <common>
 0003:000191c0       __nstream                  100711c0     <common>
 0003:000191c4       ___dyn_tls_init_callback   100711c4     <common>
 0003:000191d4       ___onexitend               100711d4     <common>
 0003:000191d8       ___onexitbegin             100711d8     <common>
 0003:000191dc       ___mbctype_initialized     100711dc     <common>
 0003:000191e0       ___env_initialized         100711e0     <common>
 0004:00000000       __imp__GetModuleHandleA@4  10072000     kernel32:KERNEL32.dll
 0004:00000004       __imp__GetProcAddress@8    10072004     kernel32:KERNEL32.dll
 0004:00000008       __imp__HeapAlloc@12        10072008     kernel32:KERNEL32.dll
 0004:0000000c       __imp__IsDebuggerPresent@0 1007200c     kernel32:KERNEL32.dll
 0004:00000010       __imp__IsProcessorFeaturePresent@4 10072010     kernel32:KERNEL32.dll
 0004:00000014       __imp__EncodePointer@4     10072014     kernel32:KERNEL32.dll
 0004:00000018       __imp__DecodePointer@4     10072018     kernel32:KERNEL32.dll
 0004:0000001c       __imp__GetLastError@0      1007201c     kernel32:KERNEL32.dll
 0004:00000020       __imp__ExitProcess@4       10072020     kernel32:KERNEL32.dll
 0004:00000024       __imp__GetModuleHandleExW@12 10072024     kernel32:KERNEL32.dll
 0004:00000028       __imp__AreFileApisANSI@0   10072028     kernel32:KERNEL32.dll
 0004:0000002c       __imp__MultiByteToWideChar@24 1007202c     kernel32:KERNEL32.dll
 0004:00000030       __imp__WideCharToMultiByte@32 10072030     kernel32:KERNEL32.dll
 0004:00000034       __imp__HeapFree@12         10072034     kernel32:KERNEL32.dll
 0004:00000038       __imp__HeapReAlloc@16      10072038     kernel32:KERNEL32.dll
 0004:0000003c       __imp__EnterCriticalSection@4 1007203c     kernel32:KERNEL32.dll
 0004:00000040       __imp__LeaveCriticalSection@4 10072040     kernel32:KERNEL32.dll
 0004:00000044       __imp__GetStdHandle@4      10072044     kernel32:KERNEL32.dll
 0004:00000048       __imp__GetFileType@4       10072048     kernel32:KERNEL32.dll
 0004:0000004c       __imp__GetModuleFileNameW@12 1007204c     kernel32:KERNEL32.dll
 0004:00000050       __imp__WriteConsoleW@20    10072050     kernel32:KERNEL32.dll
 0004:00000054       __imp__GetCommandLineA@0   10072054     kernel32:KERNEL32.dll
 0004:00000058       __imp__GetCurrentThreadId@0 10072058     kernel32:KERNEL32.dll
 0004:0000005c       __imp__WriteFile@20        1007205c     kernel32:KERNEL32.dll
 0004:00000060       __imp__GetProcessHeap@0    10072060     kernel32:KERNEL32.dll
 0004:00000064       __imp__UnhandledExceptionFilter@4 10072064     kernel32:KERNEL32.dll
 0004:00000068       __imp__SetUnhandledExceptionFilter@4 10072068     kernel32:KERNEL32.dll
 0004:0000006c       __imp__SetLastError@4      1007206c     kernel32:KERNEL32.dll
 0004:00000070       __imp__InitializeCriticalSectionAndSpinCount@8 10072070     kernel32:KERNEL32.dll
 0004:00000074       __imp__CreateEventW@16     10072074     kernel32:KERNEL32.dll
 0004:00000078       __imp__Sleep@4             10072078     kernel32:KERNEL32.dll
 0004:0000007c       __imp__GetCurrentProcess@0 1007207c     kernel32:KERNEL32.dll
 0004:00000080       __imp__TerminateProcess@8  10072080     kernel32:KERNEL32.dll
 0004:00000084       __imp__TlsAlloc@0          10072084     kernel32:KERNEL32.dll
 0004:00000088       __imp__TlsGetValue@4       10072088     kernel32:KERNEL32.dll
 0004:0000008c       __imp__TlsSetValue@8       1007208c     kernel32:KERNEL32.dll
 0004:00000090       __imp__TlsFree@4           10072090     kernel32:KERNEL32.dll
 0004:00000094       __imp__GetStartupInfoW@4   10072094     kernel32:KERNEL32.dll
 0004:00000098       __imp__GetTickCount@0      10072098     kernel32:KERNEL32.dll
 0004:0000009c       __imp__GetModuleHandleW@4  1007209c     kernel32:KERNEL32.dll
 0004:000000a0       __imp__CreateSemaphoreW@16 100720a0     kernel32:KERNEL32.dll
 0004:000000a4       __imp__DeleteCriticalSection@4 100720a4     kernel32:KERNEL32.dll
 0004:000000a8       __imp__FatalAppExitA@8     100720a8     kernel32:KERNEL32.dll
 0004:000000ac       __imp__SetConsoleCtrlHandler@8 100720ac     kernel32:KERNEL32.dll
 0004:000000b0       __imp__FreeLibrary@4       100720b0     kernel32:KERNEL32.dll
 0004:000000b4       __imp__LoadLibraryExW@12   100720b4     kernel32:KERNEL32.dll
 0004:000000b8       __imp__IsValidCodePage@4   100720b8     kernel32:KERNEL32.dll
 0004:000000bc       __imp__GetACP@0            100720bc     kernel32:KERNEL32.dll
 0004:000000c0       __imp__GetOEMCP@0          100720c0     kernel32:KERNEL32.dll
 0004:000000c4       __imp__GetCPInfo@8         100720c4     kernel32:KERNEL32.dll
 0004:000000c8       __imp__CloseHandle@4       100720c8     kernel32:KERNEL32.dll
 0004:000000cc       __imp__RtlUnwind@16        100720cc     kernel32:KERNEL32.dll
 0004:000000d0       __imp__ReadFile@20         100720d0     kernel32:KERNEL32.dll
 0004:000000d4       __imp__GetConsoleMode@8    100720d4     kernel32:KERNEL32.dll
 0004:000000d8       __imp__ReadConsoleW@20     100720d8     kernel32:KERNEL32.dll
 0004:000000dc       __imp__GetConsoleCP@0      100720dc     kernel32:KERNEL32.dll
 0004:000000e0       __imp__DeleteFileW@4       100720e0     kernel32:KERNEL32.dll
 0004:000000e4       __imp__SetFilePointerEx@20 100720e4     kernel32:KERNEL32.dll
 0004:000000e8       __imp__RaiseException@16   100720e8     kernel32:KERNEL32.dll
 0004:000000ec       __imp__OutputDebugStringW@4 100720ec     kernel32:KERNEL32.dll
 0004:000000f0       __imp__GetCurrentThread@0  100720f0     kernel32:KERNEL32.dll
 0004:000000f4       __imp__GetModuleFileNameA@12 100720f4     kernel32:KERNEL32.dll
 0004:000000f8       __imp__QueryPerformanceCounter@4 100720f8     kernel32:KERNEL32.dll
 0004:000000fc       __imp__GetCurrentProcessId@0 100720fc     kernel32:KERNEL32.dll
 0004:00000100       __imp__GetSystemTimeAsFileTime@4 10072100     kernel32:KERNEL32.dll
 0004:00000104       __imp__GetEnvironmentStringsW@0 10072104     kernel32:KERNEL32.dll
 0004:00000108       __imp__FreeEnvironmentStringsW@4 10072108     kernel32:KERNEL32.dll
 0004:0000010c       __imp__HeapSize@12         1007210c     kernel32:KERNEL32.dll
 0004:00000110       __imp__GetDateFormatW@24   10072110     kernel32:KERNEL32.dll
 0004:00000114       __imp__GetTimeFormatW@24   10072114     kernel32:KERNEL32.dll
 0004:00000118       __imp__CompareStringW@24   10072118     kernel32:KERNEL32.dll
 0004:0000011c       __imp__LCMapStringW@24     1007211c     kernel32:KERNEL32.dll
 0004:00000120       __imp__GetLocaleInfoW@16   10072120     kernel32:KERNEL32.dll
 0004:00000124       __imp__IsValidLocale@8     10072124     kernel32:KERNEL32.dll
 0004:00000128       __imp__GetUserDefaultLCID@0 10072128     kernel32:KERNEL32.dll
 0004:0000012c       __imp__EnumSystemLocalesW@8 1007212c     kernel32:KERNEL32.dll
 0004:00000130       __imp__GetStringTypeW@16   10072130     kernel32:KERNEL32.dll
 0004:00000134       __imp__FlushFileBuffers@4  10072134     kernel32:KERNEL32.dll
 0004:00000138       __imp__SetStdHandle@8      10072138     kernel32:KERNEL32.dll
 0004:0000013c       __imp__CreateFileW@28      1007213c     kernel32:KERNEL32.dll
 0004:00000140       __imp__SetEndOfFile@4      10072140     kernel32:KERNEL32.dll
 0004:00000144       \177KERNEL32_NULL_THUNK_DATA 10072144     kernel32:KERNEL32.dll
 0004:000001b0       __IMPORT_DESCRIPTOR_KERNEL32 100721b0     kernel32:KERNEL32.dll
 0004:000001c4       __NULL_IMPORT_DESCRIPTOR   100721c4     kernel32:KERNEL32.dll

 entry point at        0001:000169f3

