 FingerStrokeAssistance_xpc

 Timestamp is 58b7316e (Wed Mar 01 12:39:10 2017)

 Preferred load address is 10000000

 Start         Length     Name                   Class
 0001:00000000 00040defH .text$mn                CODE
 0002:00000000 00000104H .CRT$XCA                DATA
 0002:00000104 00000104H .CRT$XCZ                DATA
 0002:00000208 00000104H .CRT$XIA                DATA
 0002:0000030c 00000118H .CRT$XIC                DATA
 0002:00000424 00000104H .CRT$XIZ                DATA
 0002:00000528 00000104H .CRT$XPA                DATA
 0002:0000062c 00000109H .CRT$XPX                DATA
 0002:00000738 00000104H .CRT$XPXA               DATA
 0002:0000083c 00000104H .CRT$XPZ                DATA
 0002:00000940 00000104H .CRT$XTA                DATA
 0002:00000a44 00000104H .CRT$XTZ                DATA
 0002:00000b50 00013f22H .rdata                  DATA
 0002:00014a74 000001c4H .rdata$debug            DATA
 0002:00014c40 0000010eH .rdata$sxdata           DATA
 0002:00014d50 00000104H .rtc$IAA                DATA
 0002:00014e54 00000104H .rtc$IZZ                DATA
 0002:00014f58 00000104H .rtc$TAA                DATA
 0002:0001505c 00000104H .rtc$TZZ                DATA
 0002:00015160 00000991H .xdata$x                DATA
 0002:00015b00 00000226H .edata                  DATA
 0003:00000000 00002e60H .data                   DATA
 0003:00002e60 00016584H .bss                    DATA
 0004:00000000 000001b0H .idata$5                DATA
 0004:000001b0 00000014H .idata$2                DATA
 0004:000001c4 00000014H .idata$3                DATA
 0004:000001d8 000001b0H .idata$4                DATA
 0004:00000388 0000076bH .idata$6                DATA

  Address         Publics by Value              Rva+Base       Lib:Object

 0000:00000000       ___guard_fids_count        00000000     <absolute>
 0000:00000000       ___guard_flags             00000000     <absolute>
 0000:00000000       __except_list              00000000     <absolute>
 0000:00000000       ___guard_fids_table        00000000     <absolute>
 0000:00000003       ___safe_se_handler_count   00000003     <absolute>
 0000:00000000       ___ImageBase               10000000     <linker-defined>
 0001:00000460       _FingerStrokeAssi_MATLABFunction 10001460 f   FingerStrokeAssistance.obj
 0001:000004c0       _FingerStrokeAssistance    100014c0 f   FingerStrokeAssistance.obj
 0001:00001680       _FingerStrokeAssistance_gainramp 10002680 f   FingerStrokeAssistance.obj
 0001:00004520       _MdlInitialize             10005520 f   FingerStrokeAssistance.obj
 0001:00004530       _MdlInitializeSampleTimes  10005530 f   FingerStrokeAssistance.obj
 0001:00004540       _MdlInitializeSizes        10005540 f   FingerStrokeAssistance.obj
 0001:00004550       _MdlOutputs                10005550 f   FingerStrokeAssistance.obj
 0001:00004560       _MdlStart                  10005560 f   FingerStrokeAssistance.obj
 0001:00004570       _MdlTerminate              10005570 f   FingerStrokeAssistance.obj
 0001:000045d0       _MdlUpdate                 100055d0 f   FingerStrokeAssistance.obj
 0001:000045e0       _rt_powd_snf               100055e0 f   FingerStrokeAssistance.obj
 0001:00004870       _rt_roundd_snf             10005870 f   FingerStrokeAssistance.obj
 0001:00004970       _FingerStrokeAssistance_GetCAPIStaticMap 10005970 f   FingerStrokeAssistance_capi.obj
 0001:00004980       _FingerStrokeAssistance_InitializeDataMapInfo 10005980 f   FingerStrokeAssistance_capi.obj
 0001:00004a10       _TgtConnBackgroundTask     10005a10 f   FingerStrokeAssistance_tgtconn.obj
 0001:00004a20       _TgtConnInit               10005a20 f   FingerStrokeAssistance_tgtconn.obj
 0001:00004a40       _TgtConnPostStep           10005a40 f   FingerStrokeAssistance_tgtconn.obj
 0001:00004a50       _TgtConnPreStep            10005a50 f   FingerStrokeAssistance_tgtconn.obj
 0001:00004a60       _TgtConnTerm               10005a60 f   FingerStrokeAssistance_tgtconn.obj
 0001:00004a70       _rtGetInf                  10005a70 f   rtGetInf.obj
 0001:00004aa0       _rtGetInfF                 10005aa0 f   rtGetInf.obj
 0001:00004ac0       _rtGetMinusInf             10005ac0 f   rtGetInf.obj
 0001:00004af0       _rtGetMinusInfF            10005af0 f   rtGetInf.obj
 0001:00004b10       _rtGetNaN                  10005b10 f   rtGetNaN.obj
 0001:00004b40       _rtGetNaNF                 10005b40 f   rtGetNaN.obj
 0001:00005470       _rt_CreateLogVar           10006470 f   rt_logging.obj
 0001:00005500       _rt_CreateLogVarWithConvert 10006500 f   rt_logging.obj
 0001:00005e80       _rt_CreateStructLogVar     10006e80 f   rt_logging.obj
 0001:00006bf0       _rt_GetMxIdFromDTypeId     10007bf0 f   rt_logging.obj
 0001:00006c20       _rt_GetMxIdFromDTypeIdForRSim 10007c20 f   rt_logging.obj
 0001:00009560       _rt_StartDataLogging       1000a560 f   rt_logging.obj
 0001:00009a20       _rt_StartDataLoggingWithStartTime 1000aa20 f   rt_logging.obj
 0001:0000a380       _rt_StopDataLogging        1000b380 f   rt_logging.obj
 0001:0000a3a0       _rt_StopDataLoggingImpl    1000b3a0 f   rt_logging.obj
 0001:0000a6c0       _rt_UpdateLogVar           1000b6c0 f   rt_logging.obj
 0001:0000ba80       _rt_UpdateStructLogVar     1000ca80 f   rt_logging.obj
 0001:0000bb10       _rt_UpdateTXXFYLogVars     1000cb10 f   rt_logging.obj
 0001:0000be50       _rt_UpdateTXYLogVars       1000ce50 f   rt_logging.obj
 0001:0000c0a0       _rt_CleanUpForStateLogWithMMI 1000d0a0 f   rt_logging_mmi.obj
 0001:0000c1b0       _rt_FillStateSigInfoFromMMI 1000d1b0 f   rt_logging_mmi.obj
 0001:0000c560       _rt_mxCreateCharMatrixFromStrings 1000d560 f   rt_matrx.obj
 0001:0000c6b0       _rt_mxCreateDoubleMatrix   1000d6b0 f   rt_matrx.obj
 0001:0000c710       _rt_mxCreateNumericArray   1000d710 f   rt_matrx.obj
 0001:0000c790       _rt_mxCreateString         1000d790 f   rt_matrx.obj
 0001:0000c820       _rt_mxDuplicateArray       1000d820 f   rt_matrx.obj
 0001:0000c880       _rt_mxGetDimensions        1000d880 f   rt_matrx.obj
 0001:0000c8c0       _rt_mxGetEps               1000d8c0 f   rt_matrx.obj
 0001:0000c8d0       _rt_mxGetString            1000d8d0 f   rt_matrx.obj
 0001:0000c950       _rtIsInf                   1000d950 f   rt_nonfinite.obj
 0001:0000c990       _rtIsInfF                  1000d990 f   rt_nonfinite.obj
 0001:0000c9d0       _rtIsNaN                   1000d9d0 f   rt_nonfinite.obj
 0001:0000c9f0       _rtIsNaNF                  1000d9f0 f   rt_nonfinite.obj
 0001:0000ca10       _rt_InitInfAndNaN          1000da10 f   rt_nonfinite.obj
 0001:0000ca70       _rtPrintfNoOp              1000da70 f   rt_printf.obj
 0001:0000ca80       _rt_ZCFcn                  1000da80 f   rt_zcfcn.obj
 0001:0000cb40       _rtwCAPI_CountSysRan       1000db40 f   rtw_modelmap_utils.obj
 0001:0000cbe0       _rtwCAPI_EncodePath        1000dbe0 f   rtw_modelmap_utils.obj
 0001:0000ccd0       _rtwCAPI_FillSysRan        1000dcd0 f   rtw_modelmap_utils.obj
 0001:0000cdc0       _rtwCAPI_FreeFullPaths     1000ddc0 f   rtw_modelmap_utils.obj
 0001:0000ce50       _rtwCAPI_GetFullStateBlockPath 1000de50 f   rtw_modelmap_utils.obj
 0001:0000d000       _rtwCAPI_GetNumContStateRecords 1000e000 f   rtw_modelmap_utils.obj
 0001:0000d0c0       _rtwCAPI_GetNumSigLogRecords 1000e0c0 f   rtw_modelmap_utils.obj
 0001:0000d110       _rtwCAPI_GetNumSigLogRecordsForRTWLogging 1000e110 f   rtw_modelmap_utils.obj
 0001:0000d1a0       _rtwCAPI_GetNumStateRecords 1000e1a0 f   rtw_modelmap_utils.obj
 0001:0000d1f0       _rtwCAPI_GetNumStateRecordsForRTWLogging 1000e1f0 f   rtw_modelmap_utils.obj
 0001:0000d280       _rtwCAPI_GetSigAddrFromMap 1000e280 f   rtw_modelmap_utils.obj
 0001:0000d340       _rtwCAPI_GetSigLogRecordInfo 1000e340 f   rtw_modelmap_utils.obj
 0001:0000d770       _rtwCAPI_GetStateRecordInfo 1000e770 f   rtw_modelmap_utils.obj
 0001:0000dc20       _rtwCAPI_GetStateWidth     1000ec20 f   rtw_modelmap_utils.obj
 0001:0000dc80       _rtwCAPI_HasStates         1000ec80 f   rtw_modelmap_utils.obj
 0001:0000dcf0       _rtwCAPI_UpdateFullPaths   1000ecf0 f   rtw_modelmap_utils.obj
 0001:0000ded0       _DllMain@12                1000eed0 f   xpctarget.obj
 0001:0000dee0       _FingerStrokeAssistance_ChangeStepSize 1000eee0 f   xpctarget.obj
 0001:0000df30       _SLRTSetErrorStatus        1000ef30 f   xpctarget.obj
 0001:0000df50       _changeStepSize            1000ef50 f   xpctarget.obj
 0001:0000dfa0       _getDLMVersion             1000efa0 f   xpctarget.obj
 0001:0000dfb0       _getRefMdlPath             1000efb0 f   xpctarget.obj
 0001:0000e030       _getRefMdlSignalNumber     1000f030 f   xpctarget.obj
 0001:0000e0e0       _getrlmdlinfo              1000f0e0 f   xpctarget.obj
 0001:0000e2c0       _updateDiscreteEvents      1000f2c0 f   xpctarget.obj
 0001:0000e2d0       _getNumRef                 1000f2d0 f   appmappingData.obj
 0001:0000e2e0       _encnipcim                 1000f2e0 f   encnipcim.obj
 0001:0000e910       _danipcim                  1000f910 f   danipcim.obj
 0001:0000f0b0       _adnipcim                  100100b0 f   adnipcim.obj
 0001:0000fae0       _niMIdentify               10010ae0 f   xpcionim.obj
 0001:0000fc60       _niM_AISetup               10010c60 f   xpcionim.obj
 0001:00010070       _niM_AO_Setup              10011070 f   xpcionim.obj
 0001:00010200       _niM_Cont_Pulse_Train_Generation 10011200 f   xpcionim.obj
 0001:00010340       _niM_Counter_Reset_All     10011340 f   xpcionim.obj
 0001:000103f0       _niM_CtrArm                100113f0 f   xpcionim.obj
 0001:00010410       _niM_CtrDisarm             10011410 f   xpcionim.obj
 0001:00010430       _niM_CtrReadArm            10011430 f   xpcionim.obj
 0001:00010450       _niM_CtrReadDisarm         10011450 f   xpcionim.obj
 0001:00010470       _niM_PeriodConfigure       10011470 f   xpcionim.obj
 0001:000105e0       _niM_Private_Data          100115e0 f   xpcionim.obj
 0001:00010bc0       _niM_SetPFIFilter          10011bc0 f   xpcionim.obj
 0001:00010c40       _niM_SetPFI_DO             10011c40 f   xpcionim.obj
 0001:00010c90       _niM_SetPFI_Select         10011c90 f   xpcionim.obj
 0001:00010d10       _niM_aiConfigureChannel    10011d10 f   xpcionim.obj
 0001:00010d80       _niM_aiGetScalingCoefficients 10011d80 f   xpcionim.obj
 0001:00010f60       _niM_aiPolynomialScaler    10011f60 f   xpcionim.obj
 0001:00011080       _niM_analogTriggerReset    10012080 f   xpcionim.obj
 0001:000110d0       _niM_aoConfigureDAC        100120d0 f   xpcionim.obj
 0001:00011120       _niM_aoGetScalingCoefficients 10012120 f   xpcionim.obj
 0001:000111d0       _niM_aoLinearScaler        100121d0 f   xpcionim.obj
 0001:00011200       _niM_configureTimebase     10012200 f   xpcionim.obj
 0001:00011220       _niM_eepromReadMSeries     10012220 f   xpcionim.obj
 0001:000112f0       _niM_pllReset              100122f0 f   xpcionim.obj
 0001:00011320       _niM_resetCtr              10012320 f   xpcionim.obj
 0001:00011340       _niM_whichBank             10012340 f   xpcionim.obj
 0001:00011380       _niMconfig                 10012380 f   xpcionim.obj
 0001:00011420       _GetPCIDeviceFull          10012420 f   xpcruntime:xpcimports.obj
 0001:00011450       _ShowPCIDevice             10012450 f   xpcruntime:xpcimports.obj
 0001:00011ac0       _xpcGetPciConfigAtSlot     10012ac0 f   xpcruntime:xpcimports.obj
 0001:00011d40       _xpcInitProcs              10012d40 f   xpcruntime:xpcimports.obj
 0001:000128a0       _xpceuploadevent           100138a0 f   xpcruntime:xpcimports.obj
 0001:000128a1       __heap_alloc               100138a1 f i LIBCMT:malloc.obj
 0001:000128de       _malloc                    100138de f   LIBCMT:malloc.obj
 0001:00012970       __get_printf_count_output  10013970 f   LIBCMT:printf.obj
 0001:00012985       __printf_l                 10013985 f   LIBCMT:printf.obj
 0001:0001299c       __printf_p                 1001399c f   LIBCMT:printf.obj
 0001:000129b2       __printf_p_l               100139b2 f   LIBCMT:printf.obj
 0001:000129c9       __printf_s_l               100139c9 f   LIBCMT:printf.obj
 0001:000129e0       __set_printf_count_output  100139e0 f   LIBCMT:printf.obj
 0001:00012a08       _printf                    10013a08 f   LIBCMT:printf.obj
 0001:00012ab7       _printf_s                  10013ab7 f   LIBCMT:printf.obj
 0001:00012acd       ___libm_sse2_pow           10013acd f   LIBCMT:pow_sse2.obj
 0001:00013550       _ceil                      10014550 f   LIBCMT:ceil_pentium4.obj
 0001:00013590       __ceil_pentium4            10014590 f   LIBCMT:ceil_pentium4.obj
 0001:00013670       _memset                    10014670 f   LIBCMT:memset.obj
 0001:00013700       __fpmath                   10014700 f   LIBCMT:fpinit.obj
 0001:00013717       ___setfflag                10014717 f   LIBCMT:fpinit.obj
 0001:0001372a       __cfltcvt_init             1001472a f   LIBCMT:fpinit.obj
 0001:0001378a       ___raise_securityfailure   1001478a f   LIBCMT:gs_report.obj
 0001:000137c7       ___report_gsfailure        100147c7 f   LIBCMT:gs_report.obj
 0001:000138c2       ___report_rangecheckfailure 100148c2 f   LIBCMT:gs_report.obj
 0001:000138ce       ___report_securityfailure  100148ce f   LIBCMT:gs_report.obj
 0001:0001399e       ___report_securityfailureEx 1001499e f   LIBCMT:gs_report.obj
 0001:00013ab4       ___copy_path_to_wide_string 10014ab4 f   LIBCMT:crt0dat.obj
 0001:00013b66       ___copy_to_char            10014b66 f   LIBCMT:crt0dat.obj
 0001:00013c1b       ___crtCorExitProcess       10014c1b f   LIBCMT:crt0dat.obj
 0001:00013c4f       ___crtExitProcess          10014c4f f   LIBCMT:crt0dat.obj
 0001:00013c65       ___freeCrtMemory           10014c65 f   LIBCMT:crt0dat.obj
 0001:00013d72       __amsg_exit                10014d72 f   LIBCMT:crt0dat.obj
 0001:00013d8e       __c_exit                   10014d8e f   LIBCMT:crt0dat.obj
 0001:00013d9d       __cexit                    10014d9d f   LIBCMT:crt0dat.obj
 0001:00013dac       __cinit                    10014dac f   LIBCMT:crt0dat.obj
 0001:00013e30       __exit                     10014e30 f   LIBCMT:crt0dat.obj
 0001:00013e44       __exit_app                 10014e44 f   LIBCMT:crt0dat.obj
 0001:00013e52       __get_pgmptr               10014e52 f   LIBCMT:crt0dat.obj
 0001:00013e81       __get_wpgmptr              10014e81 f   LIBCMT:crt0dat.obj
 0001:00013eb0       __init_pointers            10014eb0 f   LIBCMT:crt0dat.obj
 0001:00013f1e       __initterm_e               10014f1e f   LIBCMT:crt0dat.obj
 0001:00013f40       __lockexit                 10014f40 f   LIBCMT:crt0dat.obj
 0001:00013f49       __unlockexit               10014f49 f   LIBCMT:crt0dat.obj
 0001:00014081       _exit                      10015081 f   LIBCMT:crt0dat.obj
 0001:00014095       _calloc                    10015095 f   LIBCMT:calloc.obj
 0001:000140d5       _free                      100150d5 f   LIBCMT:free.obj
 0001:0001410d       _realloc                   1001510d f   LIBCMT:realloc.obj
 0001:000141c0       _memmove                   100151c0 f   LIBCMT:memmove.obj
 0001:00014810       _strchr                    10015810 f   LIBCMT:strchr.obj
 0001:0001487e       ___from_strstr_to_strchr   1001587e     LIBCMT:strchr.obj
 0001:00014940       _strncat                   10015940 f   LIBCMT:strncat.obj
 0001:00014a80       _strncpy                   10015a80 f   LIBCMT:strncpy.obj
 0001:00014ba4       ___initstdio               10015ba4 f   LIBCMT:_file.obj
 0001:00014c17       ___endstdio                10015c17 f   LIBCMT:_file.obj
 0001:00014c3e       ___iob_func                10015c3e f   LIBCMT:_file.obj
 0001:00014c44       __lock_file                10015c44 f   LIBCMT:_file.obj
 0001:00014c83       __lock_file2               10015c83 f   LIBCMT:_file.obj
 0001:00014cb3       __unlock_file              10015cb3 f   LIBCMT:_file.obj
 0001:00014ced       __unlock_file2             10015ced f   LIBCMT:_file.obj
 0001:00014d1a       __fclose_nolock            10015d1a f   LIBCMT:fclose.obj
 0001:00014d86       _fclose                    10015d86 f   LIBCMT:fclose.obj
 0001:00014dfd       __fsopen                   10015dfd f   LIBCMT:fopen.obj
 0001:00014ec1       _fopen                     10015ec1 f   LIBCMT:fopen.obj
 0001:00014ed6       _fopen_s                   10015ed6 f   LIBCMT:fopen.obj
 0001:00014f1b       __fprintf_l                10015f1b f   LIBCMT:fprintf.obj
 0001:00014f35       __fprintf_p                10015f35 f   LIBCMT:fprintf.obj
 0001:00014f4e       __fprintf_p_l              10015f4e f   LIBCMT:fprintf.obj
 0001:00014f68       __fprintf_s_l              10015f68 f   LIBCMT:fprintf.obj
 0001:00014f82       _fprintf                   10015f82 f   LIBCMT:fprintf.obj
 0001:00015094       _fprintf_s                 10016094 f   LIBCMT:fprintf.obj
 0001:000150ad       __fread_nolock             100160ad f   LIBCMT:fread.obj
 0001:000150c8       __fread_nolock_s           100160c8 f   LIBCMT:fread.obj
 0001:0001528d       _fread                     1001628d f   LIBCMT:fread.obj
 0001:000152a8       _fread_s                   100162a8 f   LIBCMT:fread.obj
 0001:00015339       __fwrite_nolock            10016339 f   LIBCMT:fwrite.obj
 0001:00015492       _fwrite                    10016492 f   LIBCMT:fwrite.obj
 0001:00015514       __unlink                   10016514 f   LIBCMT:unlink.obj
 0001:0001551d       _remove                    1001651d f   LIBCMT:unlink.obj
 0001:0001555f       _rewind                    1001655f f   LIBCMT:rewind.obj
 0001:0001561e       __scprintf                 1001661e f   LIBCMT:sprintf.obj
 0001:00015631       __scprintf_l               10016631 f   LIBCMT:sprintf.obj
 0001:00015648       __scprintf_p               10016648 f   LIBCMT:sprintf.obj
 0001:0001565b       __scprintf_p_l             1001665b f   LIBCMT:sprintf.obj
 0001:00015672       __snprintf_s               10016672 f   LIBCMT:sprintf.obj
 0001:00015691       __snprintf_s_l             10016691 f   LIBCMT:sprintf.obj
 0001:000156b1       __sprintf_l                100166b1 f   LIBCMT:sprintf.obj
 0001:000156cb       __sprintf_p                100166cb f   LIBCMT:sprintf.obj
 0001:000156e7       __sprintf_p_l              100166e7 f   LIBCMT:sprintf.obj
 0001:00015704       __sprintf_s_l              10016704 f   LIBCMT:sprintf.obj
 0001:00015721       _sprintf                   10016721 f   LIBCMT:sprintf.obj
 0001:000157a5       _sprintf_s                 100167a5 f   LIBCMT:sprintf.obj
 0001:000157c1       _ldexp                     100167c1 f   LIBCMT:ldexp.obj
 0001:000159ad       @__security_check_cookie@4 100169ad f   LIBCMT:secchk.obj
 0001:000159c0       __ftoui3                   100169c0 f   LIBCMT:ftol3.obj
 0001:000159cf       __ftoul3                   100169cf f   LIBCMT:ftol3.obj
 0001:000159de       __ftol3                    100169de f   LIBCMT:ftol3.obj
 0001:000159eb       __ftol3_NaN                100169eb f   LIBCMT:ftol3.obj
 0001:00015a03       __ftol3_work               10016a03 f   LIBCMT:ftol3.obj
 0001:00015a89       __ftol3_common             10016a89 f   LIBCMT:ftol3.obj
 0001:00015b4b       __ftol3_arg_error          10016b4b f   LIBCMT:ftol3.obj
 0001:00015b5d       __ftol3_except             10016b5d f   LIBCMT:ftol3.obj
 0001:00015b9f       __dtoui3                   10016b9f f   LIBCMT:ftol3.obj
 0001:00015bae       __dtoul3                   10016bae f   LIBCMT:ftol3.obj
 0001:00015bbd       __dtol3                    10016bbd f   LIBCMT:ftol3.obj
 0001:00015bca       __dtol3_NaN                10016bca f   LIBCMT:ftol3.obj
 0001:00015be7       __dtol3_work               10016be7 f   LIBCMT:ftol3.obj
 0001:00015ccc       __ultod3                   10016ccc f   LIBCMT:ftol3.obj
 0001:00015d5d       __ltod3                    10016d5d f   LIBCMT:ftol3.obj
 0001:00015d90       _memcpy                    10016d90 f   LIBCMT:memcpy.obj
 0001:000163d4       ___isa_available_init      100173d4 f   LIBCMT:cpu_disp.obj
 0001:0001654d       __invoke_watson_if_error   1001754d f i LIBCMT:wassert.obj
 0001:0001656d       __wassert                  1001756d f   LIBCMT:wassert.obj
 0001:00016c11       __CRT_INIT@12              10017c11 f   LIBCMT:dllcrt0.obj
 0001:00016d83       __DllMainCRTStartup@12     10017d83 f   LIBCMT:dllcrt0.obj
 0001:00016eb4       ___DllXcptFilter           10017eb4 f   LIBCMT:dllcrt0.obj
 0001:00016ed9       ?_query_new_handler@@YAP6AHI@ZXZ 10017ed9 f   LIBCMT:handler.obj
 0001:00016ee6       ?_set_new_handler@@YAP6AHI@ZH@Z 10017ee6 f   LIBCMT:handler.obj
 0001:00016eef       ?_set_new_handler@@YAP6AHI@ZP6AHI@Z@Z 10017eef f   LIBCMT:handler.obj
 0001:00016f24       __callnewh                 10017f24 f   LIBCMT:handler.obj
 0001:00016f4a       __initp_heap_handler       10017f4a f   LIBCMT:handler.obj
 0001:00016f57       __FF_MSGBANNER             10017f57 f   LIBCMT:crt0msg.obj
 0001:00016f90       __GET_RTERRMSG             10017f90 f   LIBCMT:crt0msg.obj
 0001:00016fb4       __NMSG_WRITE               10017fb4 f   LIBCMT:crt0msg.obj
 0001:00017171       ___doserrno                10018171 f   LIBCMT:dosmap.obj
 0001:00017184       __dosmaperr                10018184 f   LIBCMT:dosmap.obj
 0001:000171a5       __errno                    100181a5 f   LIBCMT:dosmap.obj
 0001:000171b8       __get_doserrno             100181b8 f   LIBCMT:dosmap.obj
 0001:000171db       __get_errno                100181db f   LIBCMT:dosmap.obj
 0001:000171fe       __get_errno_from_oserr     100181fe f   LIBCMT:dosmap.obj
 0001:0001723f       __set_doserrno             1001823f f   LIBCMT:dosmap.obj
 0001:0001725e       __set_errno                1001825e f   LIBCMT:dosmap.obj
 0001:0001727d       __get_heap_handle          1001827d f   LIBCMT:heapinit.obj
 0001:00017283       __heap_init                10018283 f   LIBCMT:heapinit.obj
 0001:00017298       __heap_term                10018298 f   LIBCMT:heapinit.obj
 0001:000172a0       ?_invalid_parameter@@YAXPBG00II@Z 100182a0 f   LIBCMT:invarg.obj
 0001:000172a5       ?_invoke_watson@@YAXPBG00II@Z 100182a5 f   LIBCMT:invarg.obj
 0001:000172bd       __call_reportfault         100182bd f   LIBCMT:invarg.obj
 0001:000173e2       __get_invalid_parameter_handler 100183e2 f   LIBCMT:invarg.obj
 0001:000173ef       __initp_misc_invarg        100183ef f   LIBCMT:invarg.obj
 0001:000173fc       __invalid_parameter        100183fc f   LIBCMT:invarg.obj
 0001:00017427       __invalid_parameter_noinfo 10018427 f   LIBCMT:invarg.obj
 0001:00017437       __invalid_parameter_noinfo_noreturn 10018437 f   LIBCMT:invarg.obj
 0001:00017452       __invoke_watson            10018452 f   LIBCMT:invarg.obj
 0001:0001747d       __set_invalid_parameter_handler 1001847d f   LIBCMT:invarg.obj
 0001:000174a2       __vprintf_l                100184a2 f   LIBCMT:vprintf.obj
 0001:000174bd       __vprintf_p                100184bd f   LIBCMT:vprintf.obj
 0001:000174d7       __vprintf_p_l              100184d7 f   LIBCMT:vprintf.obj
 0001:000174f2       __vprintf_s_l              100184f2 f   LIBCMT:vprintf.obj
 0001:0001750d       _vprintf                   1001850d f   LIBCMT:vprintf.obj
 0001:00017527       _vprintf_helper            10018527 f   LIBCMT:vprintf.obj
 0001:000175b4       _vprintf_s                 100185b4 f   LIBCMT:vprintf.obj
 0001:000175ce       __ftbuf                    100185ce f   LIBCMT:_sftbuf.obj
 0001:000175ff       __stbuf                    100185ff f   LIBCMT:_sftbuf.obj
 0001:000176a5       ??0_LocaleUpdate@@QAE@PAUlocaleinfo_struct@@@Z 100186a5 f i LIBCMT:output.obj
 0001:0001772d       ??1_LocaleUpdate@@QAE@XZ   1001872d f i LIBCMT:output.obj
 0001:0001773b       ?GetLocaleT@_LocaleUpdate@@QAEPAUlocaleinfo_struct@@XZ 1001873b f i LIBCMT:output.obj
 0001:0001773e       __output_l                 1001873e f   LIBCMT:output.obj
 0001:000182be       _get_int64_arg             100192be f i LIBCMT:output.obj
 0001:000182d1       _get_int_arg               100192d1 f i LIBCMT:output.obj
 0001:000182e1       _get_short_arg             100192e1 f i LIBCMT:output.obj
 0001:000183e0       __SEH_prolog4              100193e0 f   LIBCMT:sehprolg4.obj
 0001:00018425       __SEH_epilog4              10019425 f   LIBCMT:sehprolg4.obj
 0001:00018480       __except_handler4          10019480 f   LIBCMT:chandler4.obj
 0001:00018614       ___libm_error_support      10019614 f   LIBCMT:libm_error.obj
 0001:000188fc       ___libm_setusermatherr     100198fc f   LIBCMT:libm_error.obj
 0001:00018928       __sse2_mathfcns_init       10019928 f   LIBCMT:mathfcns.obj
 0001:00018937       __set_SSE2_enable          10019937 f   LIBCMT:mathfcns.obj
 0001:00018956       __ceil_default             10019956 f   LIBCMT:ceil.obj
 0001:00018a2d       __VEC_memset               10019a2d f   LIBCMT:p4_memset.obj
 0001:00018af5       ?strrchr@@YAPADPADH@Z      10019af5 f i LIBCMT:cvt.obj
 0001:00018afe       __cfltcvt                  10019afe f   LIBCMT:cvt.obj
 0001:00018b1f       __cfltcvt_l                10019b1f f   LIBCMT:cvt.obj
 0001:00018ba5       __cftoa                    10019ba5 f   LIBCMT:cvt.obj
 0001:00018bc3       __cftoa_l                  10019bc3 f   LIBCMT:cvt.obj
 0001:00018f1f       __cftoe                    10019f1f f   LIBCMT:cvt.obj
 0001:0001908e       __cftoe_l                  1001a08e f   LIBCMT:cvt.obj
 0001:0001915c       __cftof                    1001a15c f   LIBCMT:cvt.obj
 0001:00019263       __cftof_l                  1001a263 f   LIBCMT:cvt.obj
 0001:00019324       __cftog                    1001a324 f   LIBCMT:cvt.obj
 0001:00019342       __cftog_l                  1001a342 f   LIBCMT:cvt.obj
 0001:00019441       __cropzeros                1001a441 f   LIBCMT:cvt.obj
 0001:00019452       __cropzeros_l              1001a452 f   LIBCMT:cvt.obj
 0001:000194d2       __fassign                  1001a4d2 f   LIBCMT:cvt.obj
 0001:000194ea       __fassign_l                1001a4ea f   LIBCMT:cvt.obj
 0001:0001952c       __forcdecpt                1001a52c f   LIBCMT:cvt.obj
 0001:0001953d       __forcdecpt_l              1001a53d f   LIBCMT:cvt.obj
 0001:000195b1       __positive                 1001a5b1 f   LIBCMT:cvt.obj
 0001:000195f3       __setdefaultprecision      1001a5f3 f   LIBCMT:fp8.obj
 0001:0001961a       __initp_misc_cfltcvt_tab   1001a61a f   LIBCMT:cmiscdat.obj
 0001:00019639       __crt_debugger_hook        1001a639 f   LIBCMT:dbghook.obj
 0001:0001966e       ___crtCloseThreadpoolTimer 1001a66e f   LIBCMT:winapisupp.obj
 0001:00019685       ___crtCloseThreadpoolWait  1001a685 f   LIBCMT:winapisupp.obj
 0001:0001969c       ___crtCreateEventExW       1001a69c f   LIBCMT:winapisupp.obj
 0001:000196d7       ___crtCreateSemaphoreExW   1001a6d7 f   LIBCMT:winapisupp.obj
 0001:00019711       ___crtCreateSymbolicLinkW  1001a711 f   LIBCMT:winapisupp.obj
 0001:0001973a       ___crtCreateThreadpoolTimer 1001a73a f   LIBCMT:winapisupp.obj
 0001:0001975b       ___crtCreateThreadpoolWait 1001a75b f   LIBCMT:winapisupp.obj
 0001:0001977c       ___crtFlsAlloc             1001a77c f   LIBCMT:winapisupp.obj
 0001:0001979a       ___crtFlsFree              1001a79a f   LIBCMT:winapisupp.obj
 0001:000197b9       ___crtFlsGetValue          1001a7b9 f   LIBCMT:winapisupp.obj
 0001:000197d8       ___crtFlsSetValue          1001a7d8 f   LIBCMT:winapisupp.obj
 0001:000197fa       ___crtFlushProcessWriteBuffers 1001a7fa f   LIBCMT:winapisupp.obj
 0001:0001980a       ___crtFreeLibraryWhenCallbackReturns 1001a80a f   LIBCMT:winapisupp.obj
 0001:00019824       ___crtGetCurrentProcessorNumber 1001a824 f   LIBCMT:winapisupp.obj
 0001:00019836       ___crtGetFileInformationByHandleEx 1001a836 f   LIBCMT:winapisupp.obj
 0001:00019862       ___crtGetLogicalProcessorInformation 1001a862 f   LIBCMT:winapisupp.obj
 0001:00019888       ___crtGetShowWindowMode    1001a888 f   LIBCMT:winapisupp.obj
 0001:000198ab       ___crtGetTickCount64       1001a8ab f   LIBCMT:winapisupp.obj
 0001:000198c3       ___crtInitializeCriticalSectionEx 1001a8c3 f   LIBCMT:winapisupp.obj
 0001:000198f1       ___crtIsPackagedApp        1001a8f1 f   LIBCMT:winapisupp.obj
 0001:00019931       ___crtLoadWinApiPointers   1001a931 f   LIBCMT:winapisupp.obj
 0001:00019bbc       ___crtSetFileInformationByHandle 1001abbc f   LIBCMT:winapisupp.obj
 0001:00019be8       ___crtSetThreadStackGuarantee 1001abe8 f   LIBCMT:winapisupp.obj
 0001:00019c03       ___crtSetThreadpoolTimer   1001ac03 f   LIBCMT:winapisupp.obj
 0001:00019c23       ___crtSetThreadpoolWait    1001ac23 f   LIBCMT:winapisupp.obj
 0001:00019c40       ___crtSetUnhandledExceptionFilter 1001ac40 f   LIBCMT:winapisupp.obj
 0001:00019c4e       ___crtSleep                1001ac4e f   LIBCMT:winapisupp.obj
 0001:00019c5c       ___crtTerminateProcess     1001ac5c f   LIBCMT:winapisupp.obj
 0001:00019c71       ___crtUnhandledException   1001ac71 f   LIBCMT:winapisupp.obj
 0001:00019c87       ___crtWaitForThreadpoolTimerCallbacks 1001ac87 f   LIBCMT:winapisupp.obj
 0001:00019ca1       __RTC_Initialize           1001aca1 f   LIBCMT:initsect.obj
 0001:00019cc1       __RTC_Terminate            1001acc1 f   LIBCMT:initsect.obj
 0001:00019ce1       __lock                     1001ace1 f   LIBCMT:mlock.obj
 0001:00019d15       __lockerr_exit             1001ad15 f   LIBCMT:mlock.obj
 0001:00019d35       __mtdeletelocks            1001ad35 f   LIBCMT:mlock.obj
 0001:00019d89       __mtinitlocknum            1001ad89 f   LIBCMT:mlock.obj
 0001:00019e32       __mtinitlocks              1001ae32 f   LIBCMT:mlock.obj
 0001:00019e6b       __unlock                   1001ae6b f   LIBCMT:mlock.obj
 0001:00019e80       __FindPESection            1001ae80 f   LIBCMT:pesect.obj
 0001:00019ed0       __IsNonwritableInCurrentImage 1001aed0 f   LIBCMT:pesect.obj
 0001:00019f90       __ValidateImageBase        1001af90 f   LIBCMT:pesect.obj
 0001:00019fc1       ___onexitinit              1001afc1 f   LIBCMT:onexit.obj
 0001:00019ff0       __onexit                   1001aff0 f   LIBCMT:onexit.obj
 0001:0001a0ec       _atexit                    1001b0ec f   LIBCMT:onexit.obj
 0001:0001a101       __calloc_crt               1001b101 f   LIBCMT:crtheap.obj
 0001:0001a149       __malloc_crt               1001b149 f   LIBCMT:crtheap.obj
 0001:0001a190       __realloc_crt              1001b190 f   LIBCMT:crtheap.obj
 0001:0001a1da       __recalloc_crt             1001b1da f   LIBCMT:crtheap.obj
 0001:0001a228       __set_malloc_crt_max_wait  1001b228 f   LIBCMT:crtheap.obj
 0001:0001a23b       _wait_a_bit                1001b23b f i LIBCMT:crtheap.obj
 0001:0001a25f       ?_inconsistency@@YAXXZ     1001b25f f   LIBCMT:hooks.obj
 0001:0001a297       ?terminate@@YAXXZ          1001b297 f   LIBCMT:hooks.obj
 0001:0001a2cb       ?unexpected@@YAXXZ         1001b2cb f   LIBCMT:hooks.obj
 0001:0001a2de       __initp_eh_hooks           1001b2de f   LIBCMT:hooks.obj
 0001:0001a2ef       ___getlocaleinfo           1001b2ef f   LIBCMT:inithelp.obj
 0001:0001a4c8       __initp_misc_purevirt      1001b4c8 f   LIBCMT:inithelp.obj
 0001:0001a4d5       ___fpecode                 1001b4d5 f   LIBCMT:winsig.obj
 0001:0001a4de       ___get_sigabrt             1001b4de f   LIBCMT:winsig.obj
 0001:0001a4eb       ___pxcptinfoptrs           1001b4eb f   LIBCMT:winsig.obj
 0001:0001a4f4       __initp_misc_winsig        1001b4f4 f   LIBCMT:winsig.obj
 0001:0001a5b5       _raise                     1001b5b5 f   LIBCMT:winsig.obj
 0001:0001a7aa       _signal                    1001b7aa f   LIBCMT:winsig.obj
 0001:0001aa01       __initp_misc_rand_s        1001ba01 f   LIBCMT:rand_s.obj
 0001:0001aa0e       _rand_s                    1001ba0e f   LIBCMT:rand_s.obj
 0001:0001ab14       ___initmbctable            1001bb14 f   LIBCMT:mbctype.obj
 0001:0001adcb       ___updatetmbcinfo          1001bdcb f   LIBCMT:mbctype.obj
 0001:0001ae71       __getmbcp                  1001be71 f   LIBCMT:mbctype.obj
 0001:0001aea2       __setmbcp                  1001bea2 f   LIBCMT:mbctype.obj
 0001:0001b04a       __setmbcp_nolock           1001c04a f   LIBCMT:mbctype.obj
 0001:0001b235       __calloc_impl              1001c235 f   LIBCMT:calloc_impl.obj
 0001:0001b2af       __fcloseall                1001c2af f   LIBCMT:closeall.obj
 0001:0001b34c       __fflush_nolock            1001c34c f   LIBCMT:fflush.obj
 0001:0001b392       __flush                    1001c392 f   LIBCMT:fflush.obj
 0001:0001b3f6       __flushall                 1001c3f6 f   LIBCMT:fflush.obj
 0001:0001b3ff       _fflush                    1001c3ff f   LIBCMT:fflush.obj
 0001:0001b53c       __fileno                   1001c53c f   LIBCMT:fileno.obj
 0001:0001b560       __close                    1001c560 f   LIBCMT:close.obj
 0001:0001b63b       __close_nolock             1001c63b f   LIBCMT:close.obj
 0001:0001b6d5       __freebuf                  1001c6d5 f   LIBCMT:_freebuf.obj
 0001:0001b705       __getstream                1001c705 f   LIBCMT:stream.obj
 0001:0001b824       __openfile                 1001c824 f   LIBCMT:_open.obj
 0001:0001baa0       __local_unwind4            1001caa0 f   LIBCMT:exsup4.obj
 0001:0001bb76       __seh_longjmp_unwind4@4    1001cb76 f   LIBCMT:exsup4.obj
 0001:0001bb92       @_EH4_CallFilterFunc@8     1001cb92 f   LIBCMT:exsup4.obj
 0001:0001bba9       @_EH4_TransferToHandler@8  1001cba9 f   LIBCMT:exsup4.obj
 0001:0001bbc2       @_EH4_GlobalUnwind2@8      1001cbc2 f   LIBCMT:exsup4.obj
 0001:0001bbdb       @_EH4_LocalUnwind@16       1001cbdb f   LIBCMT:exsup4.obj
 0001:0001bbf2       __vfprintf_l               1001cbf2 f   LIBCMT:vfprintf.obj
 0001:0001bc10       __vfprintf_p               1001cc10 f   LIBCMT:vfprintf.obj
 0001:0001bc2d       __vfprintf_p_l             1001cc2d f   LIBCMT:vfprintf.obj
 0001:0001bc4b       __vfprintf_s_l             1001cc4b f   LIBCMT:vfprintf.obj
 0001:0001bc69       _vfprintf                  1001cc69 f   LIBCMT:vfprintf.obj
 0001:0001bc86       _vfprintf_helper           1001cc86 f   LIBCMT:vfprintf.obj
 0001:0001bd97       _vfprintf_s                1001cd97 f   LIBCMT:vfprintf.obj
 0001:0001bdb4       __ioinit                   1001cdb4 f   LIBCMT:ioinit.obj
 0001:0001c068       __ioterm                   1001d068 f   LIBCMT:ioinit.obj
 0001:0001c0ba       __filbuf                   1001d0ba f   LIBCMT:_filbuf.obj
 0001:0001c1db       _memcpy_s                  1001d1db f   LIBCMT:memcpy_s.obj
 0001:0001c25a       __read                     1001d25a f   LIBCMT:read.obj
 0001:0001c36e       __read_nolock              1001d36e f   LIBCMT:read.obj
 0001:0001caff       __flsbuf                   1001daff f   LIBCMT:_flsbuf.obj
 0001:0001cc4e       __write                    1001dc4e f   LIBCMT:write.obj
 0001:0001cd3d       __write_nolock             1001dd3d f   LIBCMT:write.obj
 0001:0001d5a2       __wremove                  1001e5a2 f   LIBCMT:wunlink.obj
 0001:0001d5d0       __wunlink                  1001e5d0 f   LIBCMT:wunlink.obj
 0001:0001d5d9       __lseek                    1001e5d9 f   LIBCMT:lseek.obj
 0001:0001d6c8       __lseek_nolock             1001e6c8 f   LIBCMT:lseek.obj
 0001:0001d76f       __vscprintf                1001e76f f   LIBCMT:vsprintf.obj
 0001:0001d789       __vscprintf_helper         1001e789 f   LIBCMT:vsprintf.obj
 0001:0001d7e5       __vscprintf_l              1001e7e5 f   LIBCMT:vsprintf.obj
 0001:0001d800       __vscprintf_p              1001e800 f   LIBCMT:vsprintf.obj
 0001:0001d81a       __vscprintf_p_l            1001e81a f   LIBCMT:vsprintf.obj
 0001:0001d835       __vsprintf_l               1001e835 f   LIBCMT:vsprintf.obj
 0001:0001d8b9       _vsprintf                  1001e8b9 f   LIBCMT:vsprintf.obj
 0001:0001d8d1       __vsnprintf_c              1001e8d1 f   LIBCMT:vsnprnc.obj
 0001:0001d8f8       __vsnprintf_c_l            1001e8f8 f   LIBCMT:vsnprnc.obj
 0001:0001d920       __vsnprintf_helper         1001e920 f   LIBCMT:vsnprnc.obj
 0001:0001d9ea       __vsnprintf_s              1001e9ea f   LIBCMT:vsnprnc.obj
 0001:0001da08       __vsnprintf_s_l            1001ea08 f   LIBCMT:vsnprnc.obj
 0001:0001db08       __vsprintf_p               1001eb08 f   LIBCMT:vsnprnc.obj
 0001:0001db2f       __vsprintf_p_l             1001eb2f f   LIBCMT:vsnprnc.obj
 0001:0001db57       __vsprintf_s_l             1001eb57 f   LIBCMT:vsnprnc.obj
 0001:0001dbcc       _vsprintf_s                1001ebcc f   LIBCMT:vsnprnc.obj
 0001:0001dbe7       __chgsign                  1001ebe7 f   LIBCMT:ieeemisc.obj
 0001:0001dc14       __chgsignf                 1001ec14 f   LIBCMT:ieeemisc.obj
 0001:0001dc35       __copysign                 1001ec35 f   LIBCMT:ieeemisc.obj
 0001:0001dc5d       __copysignf                1001ec5d f   LIBCMT:ieeemisc.obj
 0001:0001dc79       __finite                   1001ec79 f   LIBCMT:ieeemisc.obj
 0001:0001dc91       __fpclass                  1001ec91 f   LIBCMT:ieeemisc.obj
 0001:0001dd2d       __isnan                    1001ed2d f   LIBCMT:ieeemisc.obj
 0001:0001dd60       __logb                     1001ed60 f   LIBCMT:ieeemisc.obj
 0001:0001de41       __nextafter                1001ee41 f   LIBCMT:ieeemisc.obj
 0001:0001e0e1       __scalb                    1001f0e1 f   LIBCMT:ieeemisc.obj
 0001:0001e0f9       __add_exp                  1001f0f9 f   LIBCMT:util.obj
 0001:0001e128       __decomp                   1001f128 f   LIBCMT:util.obj
 0001:0001e1fa       __get_exp                  1001f1fa f   LIBCMT:util.obj
 0001:0001e213       __set_bexp                 1001f213 f   LIBCMT:util.obj
 0001:0001e23c       __set_exp                  1001f23c f   LIBCMT:util.obj
 0001:0001e26b       __sptype                   1001f26b f   LIBCMT:util.obj
 0001:0001e2c6       __errcode                  1001f2c6 f   LIBCMT:fpexcept.obj
 0001:0001e2f8       __except1                  1001f2f8 f   LIBCMT:fpexcept.obj
 0001:0001e3c0       __except2                  1001f3c0 f   LIBCMT:fpexcept.obj
 0001:0001e4c0       __handle_exc               1001f4c0 f   LIBCMT:fpexcept.obj
 0001:0001e69e       __handle_qnan1             1001f69e f   LIBCMT:fpexcept.obj
 0001:0001e6ee       __handle_qnan2             1001f6ee f   LIBCMT:fpexcept.obj
 0001:0001e74e       __raise_exc                1001f74e f   LIBCMT:fpexcept.obj
 0001:0001e76f       __raise_exc_ex             1001f76f f   LIBCMT:fpexcept.obj
 0001:0001ea54       __raise_excf               1001fa54 f   LIBCMT:fpexcept.obj
 0001:0001ea75       __set_errno_from_matherr   1001fa75 f   LIBCMT:fpexcept.obj
 0001:0001eaa2       __umatherr                 1001faa2 f   LIBCMT:fpexcept.obj
 0001:0001eb42       ___clrfp_sse2              1001fb42 f   LIBCMT:fpctrl.obj
 0001:0001eb63       ___ctrlfp_sse2             1001fb63 f   LIBCMT:fpctrl.obj
 0001:0001eb9c       ___fclrf_sse2              1001fb9c f   LIBCMT:fpctrl.obj
 0001:0001ebb9       ___get_fpsr_sse2           1001fbb9 f   LIBCMT:fpctrl.obj
 0001:0001ebd5       ___set_fpsr_sse2           1001fbd5 f   LIBCMT:fpctrl.obj
 0001:0001ec4b       ___set_statfp_sse2         1001fc4b f   LIBCMT:fpctrl.obj
 0001:0001ec64       ___statfp_sse2             1001fc64 f   LIBCMT:fpctrl.obj
 0001:0001ec79       __clrfp                    1001fc79 f   LIBCMT:fpctrl.obj
 0001:0001ec8a       __ctrlfp                   1001fc8a f   LIBCMT:fpctrl.obj
 0001:0001ecb5       __set_statfp               1001fcb5 f   LIBCMT:fpctrl.obj
 0001:0001ed0d       __statfp                   1001fd0d f   LIBCMT:fpctrl.obj
 0001:0001ed1d       _wcscat_s                  1001fd1d f   LIBCMT:wcscat_s.obj
 0001:0001ed89       _wcscpy_s                  1001fd89 f   LIBCMT:wcscpy_s.obj
 0001:0001ede5       _wcslen                    1001fde5 f   LIBCMT:wcslen.obj
 0001:0001edfe       _wcsncat_s                 1001fdfe f   LIBCMT:wcsncat_s.obj
 0001:0001eecc       __set_abort_behavior       1001fecc f   LIBCMT:abort.obj
 0001:0001eeeb       _abort                     1001feeb f   LIBCMT:abort.obj
 0001:0001ef2e       ___set_app_type            1001ff2e f   LIBCMT:errmode.obj
 0001:0001ef3b       __set_error_mode           1001ff3b f   LIBCMT:errmode.obj
 0001:0001f097       __i64tow_s                 10020097 f   LIBCMT:xtows.obj
 0001:0001f0c8       __itow_s                   100200c8 f   LIBCMT:xtows.obj
 0001:0001f0f1       __ltow_s                   100200f1 f   LIBCMT:xtows.obj
 0001:0001f11b       __ui64tow_s                1002011b f   LIBCMT:xtows.obj
 0001:0001f136       __ultow_s                  10020136 f   LIBCMT:xtows.obj
 0001:0001f241       _setvbuf                   10020241 f   LIBCMT:setvbuf.obj
 0001:0001f347       __fwprintf_l               10020347 f   LIBCMT:fwprintf.obj
 0001:0001f361       __fwprintf_p               10020361 f   LIBCMT:fwprintf.obj
 0001:0001f37a       __fwprintf_p_l             1002037a f   LIBCMT:fwprintf.obj
 0001:0001f394       __fwprintf_s_l             10020394 f   LIBCMT:fwprintf.obj
 0001:0001f3ae       _fwprintf                  100203ae f   LIBCMT:fwprintf.obj
 0001:0001f442       _fwprintf_s                10020442 f   LIBCMT:fwprintf.obj
 0001:0001f45b       __vsnwprintf_s             1002045b f   LIBCMT:vswprnc.obj
 0001:0001f479       __vsnwprintf_s_l           10020479 f   LIBCMT:vswprnc.obj
 0001:0001f57d       __vswprintf_c              1002057d f   LIBCMT:vswprnc.obj
 0001:0001f5a4       __vswprintf_c_l            100205a4 f   LIBCMT:vswprnc.obj
 0001:0001f5cc       __vswprintf_helper         100205cc f   LIBCMT:vswprnc.obj
 0001:0001f6c7       __vswprintf_p              100206c7 f   LIBCMT:vswprnc.obj
 0001:0001f6ee       __vswprintf_p_l            100206ee f   LIBCMT:vswprnc.obj
 0001:0001f716       __vswprintf_s_l            10020716 f   LIBCMT:vswprnc.obj
 0001:0001f78d       _vswprintf_s               1002078d f   LIBCMT:vswprnc.obj
 0001:0001f7a8       ___crtMessageBoxW          100207a8 f   LIBCMT:crtmboxw.obj
 0001:0001f98e       ___crtMessageBoxWaitThreadW@4 1002098e f   LIBCMT:crtmboxw.obj
 0001:0001f9ac       __XcptFilter               100209ac f   LIBCMT:winxfltr.obj
 0001:0001fb07       ___CppXcptFilter           10020b07 f   LIBCMT:winxfltr.obj
 0001:0001fb59       ___get_flsindex            10020b59 f   LIBCMT:tidtable.obj
 0001:0001fb5f       ___threadhandle            10020b5f f   LIBCMT:tidtable.obj
 0001:0001fb65       ___threadid                10020b65 f   LIBCMT:tidtable.obj
 0001:0001fb6b       __freefls@4                10020b6b f   LIBCMT:tidtable.obj
 0001:0001fca0       __freeptd                  10020ca0 f   LIBCMT:tidtable.obj
 0001:0001fcd6       __getptd                   10020cd6 f   LIBCMT:tidtable.obj
 0001:0001fcee       __getptd_noexit            10020cee f   LIBCMT:tidtable.obj
 0001:0001fd5d       __initptd                  10020d5d f   LIBCMT:tidtable.obj
 0001:0001fe10       __mtinit                   10020e10 f   LIBCMT:tidtable.obj
 0001:0001fe86       __mtterm                   10020e86 f   LIBCMT:tidtable.obj
 0001:0001fea3       __set_pgmptr               10020ea3 f i LIBCMT:stdargv.obj
 0001:0001feb0       __setargv                  10020eb0 f   LIBCMT:stdargv.obj
 0001:000200df       __setenvp                  100210df f   LIBCMT:stdenvp.obj
 0001:000201c0       ___security_init_cookie    100211c0 f   LIBCMT:gs_support.obj
 0001:0002025c       ___crtGetEnvironmentStringsA 1002125c f   LIBCMT:a_env.obj
 0001:000202f0       _strlen                    100212f0 f   LIBCMT:strlen.obj
 0001:0002037b       _wcsncpy_s                 1002137b f   LIBCMT:wcsncpy_s.obj
 0001:00020439       __output_s_l               10021439 f   LIBCMT:outputs.obj
 0001:000210c1       __output_p_l               100220c1 f   LIBCMT:outputp.obj
 0001:000223f9       __validate_param_reuseA    100233f9 f   LIBCMT:outputp.obj
 0001:0002252f       _get_crtdouble_arg         1002352f f i LIBCMT:outputp.obj
 0001:0002262e       __isatty                   1002362e f   LIBCMT:isatty.obj
 0001:00022682       ___addlocaleref            10023682 f   LIBCMT:localref.obj
 0001:00022717       ___freetlocinfo            10023717 f   LIBCMT:localref.obj
 0001:00022871       ___removelocaleref         10023871 f   LIBCMT:localref.obj
 0001:00022911       ___updatetlocinfo          10023911 f   LIBCMT:localref.obj
 0001:00022991       __updatetlocinfoEx_nolock  10023991 f   LIBCMT:localref.obj
 0001:000229dc       ___iswcsym                 100239dc f i LIBCMT:_wctype.obj
 0001:00022a00       ___iswcsymf                10023a00 f i LIBCMT:_wctype.obj
 0001:00022a24       __isleadbyte_l             10023a24 f i LIBCMT:_wctype.obj
 0001:00022a5e       __iswalnum_l               10023a5e f i LIBCMT:_wctype.obj
 0001:00022a72       __iswalpha_l               10023a72 f i LIBCMT:_wctype.obj
 0001:00022a86       __iswblank_l               10023a86 f i LIBCMT:_wctype.obj
 0001:00022aa1       __iswcntrl_l               10023aa1 f i LIBCMT:_wctype.obj
 0001:00022ab2       __iswcsym_l                10023ab2 f i LIBCMT:_wctype.obj
 0001:00022ad6       __iswcsymf_l               10023ad6 f i LIBCMT:_wctype.obj
 0001:00022afa       __iswdigit_l               10023afa f i LIBCMT:_wctype.obj
 0001:00022b0b       __iswgraph_l               10023b0b f i LIBCMT:_wctype.obj
 0001:00022b1f       __iswlower_l               10023b1f f i LIBCMT:_wctype.obj
 0001:00022b30       __iswprint_l               10023b30 f i LIBCMT:_wctype.obj
 0001:00022b44       __iswpunct_l               10023b44 f i LIBCMT:_wctype.obj
 0001:00022b55       __iswspace_l               10023b55 f i LIBCMT:_wctype.obj
 0001:00022b66       __iswupper_l               10023b66 f i LIBCMT:_wctype.obj
 0001:00022b77       __iswxdigit_l              10023b77 f i LIBCMT:_wctype.obj
 0001:00022b8b       _isleadbyte                10023b8b f i LIBCMT:_wctype.obj
 0001:00022b9c       _iswalnum                  10023b9c f i LIBCMT:_wctype.obj
 0001:00022bb0       _iswalpha                  10023bb0 f i LIBCMT:_wctype.obj
 0001:00022bc4       _iswascii                  10023bc4 f i LIBCMT:_wctype.obj
 0001:00022bd6       _iswblank                  10023bd6 f i LIBCMT:_wctype.obj
 0001:00022bf1       _iswcntrl                  10023bf1 f i LIBCMT:_wctype.obj
 0001:00022c02       _iswdigit                  10023c02 f i LIBCMT:_wctype.obj
 0001:00022c13       _iswgraph                  10023c13 f i LIBCMT:_wctype.obj
 0001:00022c27       _iswlower                  10023c27 f i LIBCMT:_wctype.obj
 0001:00022c38       _iswprint                  10023c38 f i LIBCMT:_wctype.obj
 0001:00022c4c       _iswpunct                  10023c4c f i LIBCMT:_wctype.obj
 0001:00022c5d       _iswspace                  10023c5d f i LIBCMT:_wctype.obj
 0001:00022c6e       _iswupper                  10023c6e f i LIBCMT:_wctype.obj
 0001:00022c7f       _iswxdigit                 10023c7f f i LIBCMT:_wctype.obj
 0001:00022c93       __wctomb_l                 10023c93 f   LIBCMT:wctomb.obj
 0001:00022ce2       __wctomb_s_l               10023ce2 f   LIBCMT:wctomb.obj
 0001:00022e06       _wctomb                    10023e06 f   LIBCMT:wctomb.obj
 0001:00022e39       _wctomb_s                  10023e39 f   LIBCMT:wctomb.obj
 0001:00022e60       __aulldvrm                 10023e60 f   LIBCMT:ulldvrm.obj
 0001:00022ef5       __matherr                  10023ef5 f   LIBCMT:matherr.obj
 0001:00022ef8       __frnd                     10023ef8 f   LIBCMT:frnd.obj
 0001:00022f0c       ___isascii                 10023f0c f i LIBCMT:_ctype.obj
 0001:00022f1c       ___iscsym                  10023f1c f i LIBCMT:_ctype.obj
 0001:00022f3c       ___iscsymf                 10023f3c f i LIBCMT:_ctype.obj
 0001:00022f59       ___toascii                 10023f59 f i LIBCMT:_ctype.obj
 0001:00022f64       __isalnum_l                10023f64 f i LIBCMT:_ctype.obj
 0001:00022fbc       __isalpha_l                10023fbc f i LIBCMT:_ctype.obj
 0001:00023014       __isblank_l                10024014 f i LIBCMT:_ctype.obj
 0001:0002306e       __iscntrl_l                1002406e f i LIBCMT:_ctype.obj
 0001:000230c0       __iscsym_l                 100240c0 f i LIBCMT:_ctype.obj
 0001:000230e1       __iscsymf_l                100240e1 f i LIBCMT:_ctype.obj
 0001:00023102       __isdigit_l                10024102 f i LIBCMT:_ctype.obj
 0001:00023154       __isgraph_l                10024154 f i LIBCMT:_ctype.obj
 0001:000231ac       __islower_l                100241ac f i LIBCMT:_ctype.obj
 0001:000231fe       __isprint_l                100241fe f i LIBCMT:_ctype.obj
 0001:00023256       __ispunct_l                10024256 f i LIBCMT:_ctype.obj
 0001:000232a8       __isspace_l                100242a8 f i LIBCMT:_ctype.obj
 0001:000232fa       __isupper_l                100242fa f i LIBCMT:_ctype.obj
 0001:0002334c       __isxdigit_l               1002434c f i LIBCMT:_ctype.obj
 0001:000233a4       _isalnum                   100243a4 f i LIBCMT:_ctype.obj
 0001:000233d1       _isalpha                   100243d1 f i LIBCMT:_ctype.obj
 0001:000233fe       _isblank                   100243fe f i LIBCMT:_ctype.obj
 0001:00023433       _iscntrl                   10024433 f i LIBCMT:_ctype.obj
 0001:0002345e       _isdigit                   1002445e f i LIBCMT:_ctype.obj
 0001:00023489       _isgraph                   10024489 f i LIBCMT:_ctype.obj
 0001:000234b6       _islower                   100244b6 f i LIBCMT:_ctype.obj
 0001:000234e1       _isprint                   100244e1 f i LIBCMT:_ctype.obj
 0001:0002350e       _ispunct                   1002450e f i LIBCMT:_ctype.obj
 0001:00023539       _isspace                   10024539 f i LIBCMT:_ctype.obj
 0001:00023564       _isupper                   10024564 f i LIBCMT:_ctype.obj
 0001:0002358f       _isxdigit                  1002458f f i LIBCMT:_ctype.obj
 0001:000235bc       __tolower                  100245bc f   LIBCMT:tolower.obj
 0001:000235c7       __tolower_l                100245c7 f   LIBCMT:tolower.obj
 0001:0002370a       _tolower                   1002470a f   LIBCMT:tolower.obj
 0001:00023736       _strcpy_s                  10024736 f   LIBCMT:strcpy_s.obj
 0001:00023790       _strrchr                   10024790 f   LIBCMT:strrchr.obj
 0001:000238c7       __fptostr                  100248c7 f   LIBCMT:_fptostr.obj
 0001:00023977       ___crt_atoflt_l            10024977 f   LIBCMT:atodbl.obj
 0001:00023a1b       __atodbl                   10024a1b f   LIBCMT:atodbl.obj
 0001:00023a30       __atodbl_l                 10024a30 f   LIBCMT:atodbl.obj
 0001:00023abe       __atoflt                   10024abe f   LIBCMT:atodbl.obj
 0001:00023ad3       __atoflt_l                 10024ad3 f   LIBCMT:atodbl.obj
 0001:00023aeb       __atoldbl                  10024aeb f   LIBCMT:atodbl.obj
 0001:00023b00       __atoldbl_l                10024b00 f   LIBCMT:atodbl.obj
 0001:00023b8f       ___dtold                   10024b8f f   LIBCMT:cfout.obj
 0001:00023c57       __fltout2                  10024c57 f   LIBCMT:cfout.obj
 0001:00023cf0       __alldvrm                  10024cf0 f   LIBCMT:lldvrm.obj
 0001:00023dd0       __aullshr                  10024dd0 f   LIBCMT:ullshr.obj
 0001:00023def       __get_output_format        10024def f   LIBCMT:outputformat.obj
 0001:00023df5       __set_output_format        10024df5 f   LIBCMT:outputformat.obj
 0001:00023e27       __controlfp_s              10024e27 f   LIBCMT:contrlfp.obj
 0001:00023e84       __fptrap                   10024e84 f   LIBCMT:crt0fp.obj
 0001:00023e8d       __msize                    10024e8d f   LIBCMT:msize.obj
 0001:00023ebe       __recalloc                 10024ebe f   LIBCMT:recalloc.obj
 0001:00023f27       _strncpy_s                 10024f27 f   LIBCMT:strncpy_s.obj
 0001:000240af       __MallocaIsSizeInRange     100250af f i LIBCMT:a_loc.obj
 0001:000240c0       __MarkAllocaS              100250c0 f i LIBCMT:a_loc.obj
 0001:000240d4       ___crtGetLocaleInfoA       100250d4 f   LIBCMT:a_loc.obj
 0001:0002410e       __freea                    1002510e f i LIBCMT:a_loc.obj
 0001:0002412c       _GetTableIndexFromLcid     1002512c f   LIBCMT:winapinls.obj
 0001:00024161       _GetTableIndexFromLocaleName 10025161 f   LIBCMT:winapinls.obj
 0001:000241af       ___crtCompareStringEx      100251af f   LIBCMT:winapinls.obj
 0001:000241fb       ___crtDownlevelLCIDToLocaleName 100251fb f   LIBCMT:winapinls.obj
 0001:00024277       ___crtDownlevelLocaleNameToLCID 10025277 f   LIBCMT:winapinls.obj
 0001:000242b5       ___crtEnumSystemLocalesEx  100252b5 f   LIBCMT:winapinls.obj
 0001:000242f2       ___crtGetDateFormatEx      100252f2 f   LIBCMT:winapinls.obj
 0001:0002433b       ___crtGetLocaleInfoEx      1002533b f   LIBCMT:winapinls.obj
 0001:0002436a       ___crtGetTimeFormatEx      1002536a f   LIBCMT:winapinls.obj
 0001:0002439f       ___crtGetUserDefaultLocaleName 1002539f f   LIBCMT:winapinls.obj
 0001:000243ca       ___crtIsValidLocaleName    100253ca f   LIBCMT:winapinls.obj
 0001:000243f5       ___crtLCMapStringEx        100253f5 f   LIBCMT:winapinls.obj
 0001:00024441       ___wcsnicmp_ascii          10025441 f   LIBCMT:winapinls.obj
 0001:000246d3       ___crtLCMapStringA         100256d3 f   LIBCMT:a_map.obj
 0001:00024811       ___crtGetStringTypeA       10025811 f   LIBCMT:a_str.obj
 0001:00024851       __commit                   10025851 f   LIBCMT:commit.obj
 0001:0002493a       ___lock_fhandle            1002593a f   LIBCMT:osfinfo.obj
 0001:000249c8       __alloc_osfhnd             100259c8 f   LIBCMT:osfinfo.obj
 0001:00024b71       __free_osfhnd              10025b71 f   LIBCMT:osfinfo.obj
 0001:00024bf7       __get_osfhandle            10025bf7 f   LIBCMT:osfinfo.obj
 0001:00024c5e       __open_osfhandle           10025c5e f   LIBCMT:osfinfo.obj
 0001:00024d74       __set_osfhnd               10025d74 f   LIBCMT:osfinfo.obj
 0001:00024df6       __unlock_fhandle           10025df6 f   LIBCMT:osfinfo.obj
 0001:00024e1c       __open                     10025e1c f   LIBCMT:open.obj
 0001:00024ecc       __sopen                    10025ecc f   LIBCMT:open.obj
 0001:00024eff       __sopen_helper             10025eff f   LIBCMT:open.obj
 0001:00024fc8       __sopen_nolock             10025fc8 f   LIBCMT:open.obj
 0001:00025016       __sopen_s                  10026016 f   LIBCMT:open.obj
 0001:00025034       __mbsnbcmp                 10026034 f   LIBCMT:mbsnbcmp.obj
 0001:0002504c       __mbsnbcmp_l               1002604c f   LIBCMT:mbsnbcmp.obj
 0001:00025163       __mbsnbicmp                10026163 f   LIBCMT:mbsnbicm.obj
 0001:0002517b       __mbsnbicmp_l              1002617b f   LIBCMT:mbsnbicm.obj
 0001:00025340       __global_unwind2           10026340 f   LIBCMT:exsup.obj
 0001:000253a5       __local_unwind2            100263a5 f   LIBCMT:exsup.obj
 0001:00025429       __abnormal_termination     10026429 f   LIBCMT:exsup.obj
 0001:0002544c       __NLG_Notify1              1002644c f   LIBCMT:exsup.obj
 0001:00025455       __NLG_Notify               10026455 f   LIBCMT:exsup.obj
 0001:0002546c       __NLG_Dispatch2            1002646c     LIBCMT:exsup.obj
 0001:0002546c       __NLG_Dispatch             1002646c     LIBCMT:exsup.obj
 0001:00025474       __NLG_Call                 10026474 f   LIBCMT:exsup.obj
 0001:00025476       __NLG_Return2              10026476     LIBCMT:exsup.obj
 0001:00025477       __getbuf                   10026477 f   LIBCMT:_getbuf.obj
 0001:000254bd       __lseeki64                 100264bd f   LIBCMT:lseeki64.obj
 0001:000255b9       __lseeki64_nolock          100265b9 f   LIBCMT:lseeki64.obj
 0001:0002562c       __mbtowc_l                 1002662c f   LIBCMT:mbtowc.obj
 0001:00025721       _mbtowc                    10026721 f   LIBCMT:mbtowc.obj
 0001:00025739       __putwch                   10026739 f   LIBCMT:putwch.obj
 0001:00025785       __putwch_nolock            10026785 f   LIBCMT:putwch.obj
 0001:000257d0       __chkstk                   100267d0 f   LIBCMT:chkstk.obj
 0001:000257d0       __alloca_probe             100267d0 f   LIBCMT:chkstk.obj
 0001:000257fb       __vfwprintf_l              100267fb f   LIBCMT:vfwprint.obj
 0001:00025819       __vfwprintf_p              10026819 f   LIBCMT:vfwprint.obj
 0001:00025836       __vfwprintf_p_l            10026836 f   LIBCMT:vfwprint.obj
 0001:00025854       __vfwprintf_s_l            10026854 f   LIBCMT:vfwprint.obj
 0001:00025872       _vfwprintf                 10026872 f   LIBCMT:vfwprint.obj
 0001:0002588f       _vfwprintf_helper          1002688f f   LIBCMT:vfwprint.obj
 0001:00025922       _vfwprintf_s               10026922 f   LIBCMT:vfwprint.obj
 0001:0002593f       __woutput_l                1002693f f   LIBCMT:woutput.obj
 0001:0002661e       __woutput_s_l              1002761e f   LIBCMT:woutputs.obj
 0001:00027335       __validate_param_reuseW    10028335 f   LIBCMT:woutputp.obj
 0001:000274ad       __woutput_p_l              100284ad f   LIBCMT:woutputp.obj
 0001:000288d6       __ismbbalnum               100298d6 f   LIBCMT:ismbbyte.obj
 0001:000288ef       __ismbbalnum_l             100298ef f   LIBCMT:ismbbyte.obj
 0001:00028909       __ismbbalpha               10029909 f   LIBCMT:ismbbyte.obj
 0001:00028922       __ismbbalpha_l             10029922 f   LIBCMT:ismbbyte.obj
 0001:0002893c       __ismbbblank               1002993c f   LIBCMT:ismbbyte.obj
 0001:0002895d       __ismbbblank_l             1002995d f   LIBCMT:ismbbyte.obj
 0001:0002897f       __ismbbgraph               1002997f f   LIBCMT:ismbbyte.obj
 0001:00028998       __ismbbgraph_l             10029998 f   LIBCMT:ismbbyte.obj
 0001:000289b2       __ismbbkalnum              100299b2 f   LIBCMT:ismbbyte.obj
 0001:000289c8       __ismbbkalnum_l            100299c8 f   LIBCMT:ismbbyte.obj
 0001:000289df       __ismbbkana                100299df f   LIBCMT:ismbbyte.obj
 0001:000289f0       __ismbbkana_l              100299f0 f   LIBCMT:ismbbyte.obj
 0001:00028a3c       __ismbbkprint              10029a3c f   LIBCMT:ismbbyte.obj
 0001:00028a52       __ismbbkprint_l            10029a52 f   LIBCMT:ismbbyte.obj
 0001:00028a69       __ismbbkpunct              10029a69 f   LIBCMT:ismbbyte.obj
 0001:00028a7f       __ismbbkpunct_l            10029a7f f   LIBCMT:ismbbyte.obj
 0001:00028a96       __ismbblead                10029a96 f   LIBCMT:ismbbyte.obj
 0001:00028aac       __ismbblead_l              10029aac f   LIBCMT:ismbbyte.obj
 0001:00028ac3       __ismbbprint               10029ac3 f   LIBCMT:ismbbyte.obj
 0001:00028adc       __ismbbprint_l             10029adc f   LIBCMT:ismbbyte.obj
 0001:00028af6       __ismbbpunct               10029af6 f   LIBCMT:ismbbyte.obj
 0001:00028b0c       __ismbbpunct_l             10029b0c f   LIBCMT:ismbbyte.obj
 0001:00028b23       __ismbbtrail               10029b23 f   LIBCMT:ismbbyte.obj
 0001:00028b39       __ismbbtrail_l             10029b39 f   LIBCMT:ismbbyte.obj
 0001:00028d76       __strtol_l                 10029d76 f   LIBCMT:strtol.obj
 0001:00028d91       __strtoul_l                10029d91 f   LIBCMT:strtol.obj
 0001:00028dac       _strtol                    10029dac f   LIBCMT:strtol.obj
 0001:00028dd6       _strtoul                   10029dd6 f   LIBCMT:strtol.obj
 0001:00028e00       ___free_lconv_mon          10029e00 f   LIBCMT:initmon.obj
 0001:00028efc       ___init_monetary           10029efc f   LIBCMT:initmon.obj
 0001:000292d5       ___free_lconv_num          1002a2d5 f   LIBCMT:initnum.obj
 0001:0002933c       ___init_numeric            1002a33c f   LIBCMT:initnum.obj
 0001:0002957a       ___free_lc_time            1002a57a f   LIBCMT:inittime.obj
 0001:000298fa       ___init_time               1002a8fa f   LIBCMT:inittime.obj
 0001:0002a169       _localeconv                1002b169 f   LIBCMT:lconv.obj
 0001:0002a18f       __iswctype_l               1002b18f f   LIBCMT:iswctype.obj
 0001:0002a1a1       _is_wctype                 1002b1a1 f   LIBCMT:iswctype.obj
 0001:0002a1aa       _iswctype                  1002b1aa f   LIBCMT:iswctype.obj
 0001:0002a200       ____lc_codepage_func       1002b200 f   LIBCMT:initctyp.obj
 0001:0002a226       ____lc_collate_cp_func     1002b226 f   LIBCMT:initctyp.obj
 0001:0002a24c       ____lc_locale_name_func    1002b24c f   LIBCMT:initctyp.obj
 0001:0002a274       ____mb_cur_max_func        1002b274 f   LIBCMT:initctyp.obj
 0001:0002a29a       ____mb_cur_max_l_func      1002b29a f   LIBCMT:initctyp.obj
 0001:0002a2b1       ___init_ctype              1002b2b1 f   LIBCMT:initctyp.obj
 0001:0002a649       ___pctype_func             1002b649 f   LIBCMT:ctype.obj
 0001:0002a672       ___pwctype_func            1002b672 f   LIBCMT:ctype.obj
 0001:0002a678       __isctype                  1002b678 f   LIBCMT:isctype.obj
 0001:0002a6a7       __isctype_l                1002b6a7 f   LIBCMT:isctype.obj
 0001:0002a758       ___init_dummy              1002b758 f   LIBCMT:wsetloca.obj
 0001:0002a75b       __locterm                  1002b75b f   LIBCMT:wsetloca.obj
 0001:0002a7ad       ____setlc_active_func      1002b7ad f   LIBCMT:wsetloca.obj
 0001:0002a7b3       ____unguarded_readlc_active_add_func 1002b7b3 f   LIBCMT:wsetloca.obj
 0001:0002a7b9       ___copy_locale_name        1002b7b9 f   LIBCMT:wsetloca.obj
 0001:0002a81d       ___create_locale           1002b81d f   LIBCMT:wsetloca.obj
 0001:0002a826       ___free_locale             1002b826 f   LIBCMT:wsetloca.obj
 0001:0002a82b       ___get_current_locale      1002b82b f   LIBCMT:wsetloca.obj
 0001:0002a830       ___lc_lctowcs              1002b830 f   LIBCMT:wsetloca.obj
 0001:0002a89e       ___lc_wcstolc              1002b89e f   LIBCMT:wsetloca.obj
 0001:0002a9ca       __configthreadlocale       1002b9ca f   LIBCMT:wsetloca.obj
 0001:0002aa50       __create_locale            1002ba50 f   LIBCMT:wsetloca.obj
 0001:0002aab2       __expandlocale             1002bab2 f   LIBCMT:wsetloca.obj
 0001:0002ada9       __free_locale              1002bda9 f   LIBCMT:wsetloca.obj
 0001:0002ae60       __get_current_locale       1002be60 f   LIBCMT:wsetloca.obj
 0001:0002af0f       __wcreate_locale           1002bf0f f   LIBCMT:wsetloca.obj
 0001:0002afe6       __wcscats                  1002bfe6 f   LIBCMT:wsetloca.obj
 0001:0002b025       __wsetlocale               1002c025 f   LIBCMT:wsetloca.obj
 0001:0002b967       __CopyMan                  1002c967 f i LIBCMT:intrncvt.obj
 0001:0002b984       __FillZeroMan              1002c984 f i LIBCMT:intrncvt.obj
 0001:0002b993       __IncMan                   1002c993 f i LIBCMT:intrncvt.obj
 0001:0002b9f5       __IsZeroMan                1002c9f5 f i LIBCMT:intrncvt.obj
 0001:0002ba12       __RoundMan                 1002ca12 f i LIBCMT:intrncvt.obj
 0001:0002bb13       __ShrMan                   1002cb13 f i LIBCMT:intrncvt.obj
 0001:0002bba1       __ZeroTail                 1002cba1 f i LIBCMT:intrncvt.obj
 0001:0002bbe9       ___addl                    1002cbe9 f i LIBCMT:intrncvt.obj
 0001:0002bc0d       __ld12cvt                  1002cc0d f i LIBCMT:intrncvt.obj
 0001:0002c178       __ld12tod                  1002d178 f   LIBCMT:intrncvt.obj
 0001:0002c6ea       __ld12tof                  1002d6ea f   LIBCMT:intrncvt.obj
 0001:0002cc5c       __ld12told                 1002dc5c f   LIBCMT:intrncvt.obj
 0001:0002cd2b       ___STRINGTOLD_L            1002dd2b f   LIBCMT:strgtold.obj
 0001:0002cd86       ___ld12mul                 1002dd86 f i LIBCMT:strgtold.obj
 0001:0002d052       ___multtenpow12            1002e052 f i LIBCMT:strgtold.obj
 0001:0002d3a5       ___shl_12                  1002e3a5 f i LIBCMT:strgtold.obj
 0001:0002d3d6       ___shr_12                  1002e3d6 f i LIBCMT:strgtold.obj
 0001:0002d406       ___strgtold12_l            1002e406 f   LIBCMT:strgtold.obj
 0001:0002dbae       _$I10_OUTPUT               1002ebae f   LIBCMT:x10fout.obj
 0001:0002e582       ___add_12                  1002f582 f i LIBCMT:x10fout.obj
 0001:0002e72e       ___control87_2             1002f72e f   LIBCMT:ieee87.obj
 0001:0002eda2       __clearfp                  1002fda2 f   LIBCMT:ieee87.obj
 0001:0002ee82       __control87                1002fe82 f i LIBCMT:ieee87.obj
 0001:0002f184       __controlfp                10030184 f   LIBCMT:ieee87.obj
 0001:0002f48f       __fpreset                  1003048f f   LIBCMT:ieee87.obj
 0001:0002f55c       __set_controlfp            1003055c f   LIBCMT:ieee87.obj
 0001:0002f5cf       __statusfp                 100305cf f   LIBCMT:ieee87.obj
 0001:0002f669       __statusfp2                10030669 f   LIBCMT:ieee87.obj
 0001:0002f6d0       __alloca_probe_16          100306d0 f   LIBCMT:alloca16.obj
 0001:0002f6e6       __alloca_probe_8           100306e6     LIBCMT:alloca16.obj
 0001:0002f6fc       _wcsnlen                   100306fc f   LIBCMT:wcslen_s.obj
 0001:0002f7a3       __wopen                    100307a3 f   LIBCMT:wopen.obj
 0001:0002f853       __wsopen                   10030853 f   LIBCMT:wopen.obj
 0001:0002f886       __wsopen_helper            10030886 f   LIBCMT:wopen.obj
 0001:0002f94f       __wsopen_nolock            1003094f f   LIBCMT:wopen.obj
 0001:000300a2       __wsopen_s                 100310a2 f   LIBCMT:wopen.obj
 0001:000300c0       _strncmp                   100310c0 f   LIBCMT:strncmp.obj
 0001:00030138       __strnicmp                 10031138 f   LIBCMT:strnicmp.obj
 0001:000301a3       __strnicmp_l               100311a3 f   LIBCMT:strnicmp.obj
 0001:00030254       ___termconout              10031254 f   LIBCMT:initcon.obj
 0001:0003026b       ___initconout              1003126b f   LIBCMT:initcon.obj
 0001:0003028a       __fputwc_nolock            1003128a f   LIBCMT:fputwc.obj
 0001:00030410       _fputwc                    10031410 f   LIBCMT:fputwc.obj
 0001:00030487       _putwc                     10031487 f   LIBCMT:fputwc.obj
 0001:00030671       __wcstol_l                 10031671 f   LIBCMT:wcstol.obj
 0001:00030689       __wcstoul_l                10031689 f   LIBCMT:wcstol.obj
 0001:000306a1       _wcstol                    100316a1 f   LIBCMT:wcstol.obj
 0001:000306b9       _wcstoul                   100316b9 f   LIBCMT:wcstol.obj
 0001:000306d1       ___init_collate            100316d1 f   LIBCMT:initcoll.obj
 0001:000307f1       _memcmp                    100317f1 f   LIBCMT:memcmp.obj
 0001:00033705       _wcscmp                    10034705 f   LIBCMT:wcscmp.obj
 0001:00033743       _wcscspn                   10034743 f   LIBCMT:wcscspn.obj
 0001:0003378e       _wcsncmp                   1003478e f   LIBCMT:wcsncmp.obj
 0001:000337c4       _wcspbrk                   100347c4 f   LIBCMT:wcspbrk.obj
 0001:00033dc8       ___get_qualified_locale    10034dc8 f   LIBCMT:getqloc.obj
 0001:00034638       ___get_qualified_locale_downlevel 10035638 f   LIBCMT:getqloc_downlevel.obj
 0001:00034854       ___mtold12                 10035854 f   LIBCMT:mantold.obj
 0001:00034a34       __chsize                   10035a34 f   LIBCMT:chsize.obj
 0001:00034a4e       __chsize_nolock            10035a4e f   LIBCMT:chsize.obj
 0001:00034c04       __chsize_s                 10035c04 f   LIBCMT:chsize.obj
 0001:00034cf2       __get_fmode                10035cf2 f   LIBCMT:setmode.obj
 0001:00034d1c       __set_fmode                10035d1c f   LIBCMT:setmode.obj
 0001:00034d57       __setmode                  10035d57 f   LIBCMT:setmode.obj
 0001:00034e5c       __setmode_nolock           10035e5c f   LIBCMT:setmode.obj
 0001:00034f30       ___ascii_strnicmp          10035f30 f   LIBCMT:_strnicm.obj
 0001:00034f91       __flswbuf                  10035f91 f   LIBCMT:_flswbuf.obj
 0001:000350f3       __wchartodigit             100360f3 f   LIBCMT:wchtodig.obj
 0001:00035292       __wtoi                     10036292 f   LIBCMT:wtox.obj
 0001:0003529b       __wtoi64                   1003629b f   LIBCMT:wtox.obj
 0001:000352af       __wtoi64_l                 100362af f   LIBCMT:wtox.obj
 0001:000352c6       __wtoi_l                   100362c6 f   LIBCMT:wtox.obj
 0001:000352cf       __wtol                     100362cf f   LIBCMT:wtox.obj
 0001:000352e3       __wtol_l                   100362e3 f   LIBCMT:wtox.obj
 0001:000352fa       __wtoll                    100362fa f   LIBCMT:wtox.obj
 0001:0003530e       __wtoll_l                  1003630e f   LIBCMT:wtox.obj
 0001:00035325       _wcschr                    10036325 f   LIBCMT:wcschr.obj
 0001:000353d3       __wcsicmp                  100363d3 f   LIBCMT:wcsicmp.obj
 0001:00035466       __wcsicmp_l                10036466 f   LIBCMT:wcsicmp.obj
 0001:00035541       __wcsnicmp                 10036541 f   LIBCMT:wcsnicmp.obj
 0001:000355f7       __wcsnicmp_l               100365f7 f   LIBCMT:wcsnicmp.obj
 0001:000359c0       __wcstof_l                 100369c0 f   LIBCMT:wcstoq.obj
 0001:00035a73       __wcstoi64                 10036a73 f   LIBCMT:wcstoq.obj
 0001:00035a9d       __wcstoi64_l               10036a9d f   LIBCMT:wcstoq.obj
 0001:00035ab8       __wcstoimax_l              10036ab8 f   LIBCMT:wcstoq.obj
 0001:00035ac1       __wcstold_l                10036ac1 f   LIBCMT:wcstoq.obj
 0001:00035aca       __wcstoll_l                10036aca f   LIBCMT:wcstoq.obj
 0001:00035ad3       __wcstoui64                10036ad3 f   LIBCMT:wcstoq.obj
 0001:00035afd       __wcstoui64_l              10036afd f   LIBCMT:wcstoq.obj
 0001:00035b18       __wcstoull_l               10036b18 f   LIBCMT:wcstoq.obj
 0001:00035b21       __wcstoumax_l              10036b21 f   LIBCMT:wcstoq.obj
 0001:00035b2a       _wcstof                    10036b2a f   LIBCMT:wcstoq.obj
 0001:00035b3f       _wcstoimax                 10036b3f f   LIBCMT:wcstoq.obj
 0001:00035b48       _wcstold                   10036b48 f   LIBCMT:wcstoq.obj
 0001:00035b51       _wcstoll                   10036b51 f   LIBCMT:wcstoq.obj
 0001:00035b5a       _wcstoull                  10036b5a f   LIBCMT:wcstoq.obj
 0001:00035b63       _wcstoumax                 10036b63 f   LIBCMT:wcstoq.obj
 0001:00035b6c       __towlower_l               10036b6c f   LIBCMT:towlower.obj
 0001:00035c1d       _towlower                  10036c1d f   LIBCMT:towlower.obj
 0001:00035c2e       __wcstod_l                 10036c2e f   LIBCMT:wcstod.obj
 0001:00035d29       _wcstod                    10036d29 f   LIBCMT:wcstod.obj
 0001:00035d40       __allmul                   10036d40 f   LIBCMT:llmul.obj
 0001:00035d74       ___crtLCMapStringW         10036d74 f   LIBCMT:w_map.obj
 0001:00035da3       __wfltin2                  10036da3 f   LIBCMT:wcfin.obj
 0001:00035e50       ___WSTRINGTOLD_L           10036e50 f   LIBCMT:wstrgtold.obj
 0001:00035eab       ___wstrgtold12_l           10036eab f   LIBCMT:wstrgtold.obj
 0001:000366fc       _GetModuleHandleA@4        100376fc f   kernel32:KERNEL32.dll
 0001:00036702       _GetProcAddress@8          10037702 f   kernel32:KERNEL32.dll
 0001:00036708       _HeapAlloc@12              10037708 f   kernel32:KERNEL32.dll
 0001:0003670e       _IsDebuggerPresent@0       1003770e f   kernel32:KERNEL32.dll
 0001:00036714       _IsProcessorFeaturePresent@4 10037714 f   kernel32:KERNEL32.dll
 0001:0003671a       _EncodePointer@4           1003771a f   kernel32:KERNEL32.dll
 0001:00036720       _DecodePointer@4           10037720 f   kernel32:KERNEL32.dll
 0001:00036726       _GetLastError@0            10037726 f   kernel32:KERNEL32.dll
 0001:0003672c       _ExitProcess@4             1003772c f   kernel32:KERNEL32.dll
 0001:00036732       _GetModuleHandleExW@12     10037732 f   kernel32:KERNEL32.dll
 0001:00036738       _AreFileApisANSI@0         10037738 f   kernel32:KERNEL32.dll
 0001:0003673e       _MultiByteToWideChar@24    1003773e f   kernel32:KERNEL32.dll
 0001:00036744       _WideCharToMultiByte@32    10037744 f   kernel32:KERNEL32.dll
 0001:0003674a       _HeapFree@12               1003774a f   kernel32:KERNEL32.dll
 0001:00036750       _HeapReAlloc@16            10037750 f   kernel32:KERNEL32.dll
 0001:00036756       _EnterCriticalSection@4    10037756 f   kernel32:KERNEL32.dll
 0001:0003675c       _LeaveCriticalSection@4    1003775c f   kernel32:KERNEL32.dll
 0001:00036762       _GetStdHandle@4            10037762 f   kernel32:KERNEL32.dll
 0001:00036768       _GetFileType@4             10037768 f   kernel32:KERNEL32.dll
 0001:0003676e       _GetModuleFileNameW@12     1003776e f   kernel32:KERNEL32.dll
 0001:00036774       _WriteConsoleW@20          10037774 f   kernel32:KERNEL32.dll
 0001:0003677a       _GetCommandLineA@0         1003777a f   kernel32:KERNEL32.dll
 0001:00036780       _GetCurrentThreadId@0      10037780 f   kernel32:KERNEL32.dll
 0001:00036786       _WriteFile@20              10037786 f   kernel32:KERNEL32.dll
 0001:0003678c       _GetProcessHeap@0          1003778c f   kernel32:KERNEL32.dll
 0001:00036792       _UnhandledExceptionFilter@4 10037792 f   kernel32:KERNEL32.dll
 0001:00036798       _SetUnhandledExceptionFilter@4 10037798 f   kernel32:KERNEL32.dll
 0001:0003679e       _SetLastError@4            1003779e f   kernel32:KERNEL32.dll
 0001:000367a4       _InitializeCriticalSectionAndSpinCount@8 100377a4 f   kernel32:KERNEL32.dll
 0001:000367aa       _CreateEventW@16           100377aa f   kernel32:KERNEL32.dll
 0001:000367b0       _Sleep@4                   100377b0 f   kernel32:KERNEL32.dll
 0001:000367b6       _GetCurrentProcess@0       100377b6 f   kernel32:KERNEL32.dll
 0001:000367bc       _TerminateProcess@8        100377bc f   kernel32:KERNEL32.dll
 0001:000367c2       _TlsAlloc@0                100377c2 f   kernel32:KERNEL32.dll
 0001:000367c8       _TlsGetValue@4             100377c8 f   kernel32:KERNEL32.dll
 0001:000367ce       _TlsSetValue@8             100377ce f   kernel32:KERNEL32.dll
 0001:000367d4       _TlsFree@4                 100377d4 f   kernel32:KERNEL32.dll
 0001:000367da       _GetStartupInfoW@4         100377da f   kernel32:KERNEL32.dll
 0001:000367e0       _GetTickCount@0            100377e0 f   kernel32:KERNEL32.dll
 0001:000367e6       _GetModuleHandleW@4        100377e6 f   kernel32:KERNEL32.dll
 0001:000367ec       _CreateSemaphoreW@16       100377ec f   kernel32:KERNEL32.dll
 0001:000367f2       _DeleteCriticalSection@4   100377f2 f   kernel32:KERNEL32.dll
 0001:000367f8       _FatalAppExitA@8           100377f8 f   kernel32:KERNEL32.dll
 0001:000367fe       _SetConsoleCtrlHandler@8   100377fe f   kernel32:KERNEL32.dll
 0001:00036804       _FreeLibrary@4             10037804 f   kernel32:KERNEL32.dll
 0001:0003680a       _LoadLibraryExW@12         1003780a f   kernel32:KERNEL32.dll
 0001:00036810       _IsValidCodePage@4         10037810 f   kernel32:KERNEL32.dll
 0001:00036816       _GetACP@0                  10037816 f   kernel32:KERNEL32.dll
 0001:0003681c       _GetOEMCP@0                1003781c f   kernel32:KERNEL32.dll
 0001:00036822       _GetCPInfo@8               10037822 f   kernel32:KERNEL32.dll
 0001:00036828       _CloseHandle@4             10037828 f   kernel32:KERNEL32.dll
 0001:0003682e       _RtlUnwind@16              1003782e f   kernel32:KERNEL32.dll
 0001:00036834       _ReadFile@20               10037834 f   kernel32:KERNEL32.dll
 0001:0003683a       _GetConsoleMode@8          1003783a f   kernel32:KERNEL32.dll
 0001:00036840       _ReadConsoleW@20           10037840 f   kernel32:KERNEL32.dll
 0001:00036846       _GetConsoleCP@0            10037846 f   kernel32:KERNEL32.dll
 0001:0003684c       _DeleteFileW@4             1003784c f   kernel32:KERNEL32.dll
 0001:00036852       _SetFilePointerEx@20       10037852 f   kernel32:KERNEL32.dll
 0001:00036858       _RaiseException@16         10037858 f   kernel32:KERNEL32.dll
 0001:0003685e       _OutputDebugStringW@4      1003785e f   kernel32:KERNEL32.dll
 0001:00036864       _GetCurrentThread@0        10037864 f   kernel32:KERNEL32.dll
 0001:0003686a       _GetModuleFileNameA@12     1003786a f   kernel32:KERNEL32.dll
 0001:00036870       _QueryPerformanceCounter@4 10037870 f   kernel32:KERNEL32.dll
 0001:00036876       _GetCurrentProcessId@0     10037876 f   kernel32:KERNEL32.dll
 0001:0003687c       _GetSystemTimeAsFileTime@4 1003787c f   kernel32:KERNEL32.dll
 0001:00036882       _GetEnvironmentStringsW@0  10037882 f   kernel32:KERNEL32.dll
 0001:00036888       _FreeEnvironmentStringsW@4 10037888 f   kernel32:KERNEL32.dll
 0001:0003688e       _HeapSize@12               1003788e f   kernel32:KERNEL32.dll
 0001:00036894       _GetDateFormatW@24         10037894 f   kernel32:KERNEL32.dll
 0001:0003689a       _GetTimeFormatW@24         1003789a f   kernel32:KERNEL32.dll
 0001:000368a0       _CompareStringW@24         100378a0 f   kernel32:KERNEL32.dll
 0001:000368a6       _LCMapStringW@24           100378a6 f   kernel32:KERNEL32.dll
 0001:000368ac       _GetLocaleInfoW@16         100378ac f   kernel32:KERNEL32.dll
 0001:000368b2       _IsValidLocale@8           100378b2 f   kernel32:KERNEL32.dll
 0001:000368b8       _GetUserDefaultLCID@0      100378b8 f   kernel32:KERNEL32.dll
 0001:000368be       _EnumSystemLocalesW@8      100378be f   kernel32:KERNEL32.dll
 0001:000368c4       _GetStringTypeW@16         100378c4 f   kernel32:KERNEL32.dll
 0001:000368ca       _FlushFileBuffers@4        100378ca f   kernel32:KERNEL32.dll
 0001:000368d0       _SetStdHandle@8            100378d0 f   kernel32:KERNEL32.dll
 0001:000368d6       _CreateFileW@28            100378d6 f   kernel32:KERNEL32.dll
 0001:000368dc       _SetEndOfFile@4            100378dc f   kernel32:KERNEL32.dll
 0002:00000000       ___xc_a                    10042000     LIBCMT:crt0init.obj
 0002:00000104       ___xc_z                    10042104     LIBCMT:crt0init.obj
 0002:00000208       ___xi_a                    10042208     LIBCMT:crt0init.obj
 0002:00000424       ___xi_z                    10042424     LIBCMT:crt0init.obj
 0002:00000528       ___xp_a                    10042528     LIBCMT:crt0init.obj
 0002:0000083c       ___xp_z                    1004283c     LIBCMT:crt0init.obj
 0002:00000940       ___xt_a                    10042940     LIBCMT:crt0init.obj
 0002:00000a44       ___xt_z                    10042a44     LIBCMT:crt0init.obj
 0002:00000b88       _FingerStrokeAssistance_M  10042b88     FingerStrokeAssistance.obj
 0002:00000b8c       ??_C@_0BI@PBFPDHLE@Error?5creating?5scope?54?6?$AA@ 10042b8c     FingerStrokeAssistance.obj
 0002:00000ba8       ??_C@_0BG@FLOHFMFJ@MATLAB?5Function?1p2?1s2?$AA@ 10042ba8     FingerStrokeAssistance.obj
 0002:00000bc4       ??_C@_0DB@ENPBKHPM@Robot?1account?5for?5handedness1?1MA@ 10042bc4     FingerStrokeAssistance.obj
 0002:00000c00       ??_C@_0O@CAPLFIJB@Robot?1Gain?1s2?$AA@ 10042c00     FingerStrokeAssistance.obj
 0002:00000c10       ??_C@_0BG@JDAHNDCJ@MATLAB?5Function?1p7?1s2?$AA@ 10042c10     FingerStrokeAssistance.obj
 0002:00000c2c       ??_C@_0N@NDALLKN@Robot?1Sum?1s2?$AA@ 10042c2c     FingerStrokeAssistance.obj
 0002:00000c3c       ??_C@_0O@DNKOCOOP@f_ref2?3?$CF15?46f?$AA@ 10042c3c     FingerStrokeAssistance.obj
 0002:00000c4c       ??_C@_0BA@BAONOGED@enc_raw2?3?$CF15?46f?$AA@ 10042c4c     FingerStrokeAssistance.obj
 0002:00000c60       ??_C@_0BB@NKMEAAFC@enc_norm2?3?$CF15?46f?$AA@ 10042c60     FingerStrokeAssistance.obj
 0002:00000c74       ??_C@_0BB@GFJCGJHB@pos_ref_2?3?$CF15?46f?$AA@ 10042c74     FingerStrokeAssistance.obj
 0002:00000c88       ??_C@_0BC@IDGACA@pos_meas_2?3?$CF15?46f?$AA@ 10042c88     FingerStrokeAssistance.obj
 0002:00000ca0       ??_C@_0BI@PEBACBDB@Error?5creating?5scope?53?6?$AA@ 10042ca0     FingerStrokeAssistance.obj
 0002:00000cbc       ??_C@_0BG@HAMKAPJK@MATLAB?5Function?1p2?1s1?$AA@ 10042cbc     FingerStrokeAssistance.obj
 0002:00000cd8       ??_C@_0DB@GGNMPEDP@Robot?1account?5for?5handedness1?1MA@ 10042cd8     FingerStrokeAssistance.obj
 0002:00000d14       ??_C@_0O@LNGALFC@Robot?1Gain?1s1?$AA@ 10042d14     FingerStrokeAssistance.obj
 0002:00000d24       ??_C@_0BG@LICKIAOK@MATLAB?5Function?1p7?1s1?$AA@ 10042d24     FingerStrokeAssistance.obj
 0002:00000d40       ??_C@_0N@CGBNOIGO@Robot?1Sum?1s1?$AA@ 10042d40     FingerStrokeAssistance.obj
 0002:00000d50       ??_C@_0O@ECDBCCK@f_ref1?3?$CF15?46f?$AA@ 10042d50     FingerStrokeAssistance.obj
 0002:00000d60       ??_C@_0P@JDGPLDCK@enc_raw?3?$CF15?46f?$AA@ 10042d60     FingerStrokeAssistance.obj
 0002:00000d74       ??_C@_0BA@ELCINL@enc_norm?3?$CF15?46f?$AA@ 10042d74     FingerStrokeAssistance.obj
 0002:00000d88       ??_C@_0BB@FMBPFFLE@pos_ref_1?3?$CF15?46f?$AA@ 10042d88     FingerStrokeAssistance.obj
 0002:00000d9c       ??_C@_0BC@DJAOFMOF@pos_meas_1?3?$CF15?46f?$AA@ 10042d9c     FingerStrokeAssistance.obj
 0002:00000db4       ??_C@_0BI@PHJEPFFP@Error?5creating?5scope?51?6?$AA@ 10042db4     FingerStrokeAssistance.obj
 0002:00000dd0       ??_C@_0BD@KDGDPNDI@MATLAB?5Function?1p1?$AA@ 10042dd0     FingerStrokeAssistance.obj
 0002:00000de8       ??_C@_0CE@NBOHAOJD@Robot?1Saturation?5Dynamic?1Switch2@ 10042de8     FingerStrokeAssistance.obj
 0002:00000e14       ??_C@_0CE@PKMKFNFA@Robot?1Saturation?5Dynamic?1Switch2@ 10042e14     FingerStrokeAssistance.obj
 0002:00000e40       ??_C@_0N@NEDGIMDD@state?3?$CF15?46f?$AA@ 10042e40     FingerStrokeAssistance.obj
 0002:00000e50       ??_C@_0BH@DNEEKCDA@f_ref_limited_1?3?$CF15?46f?$AA@ 10042e50     FingerStrokeAssistance.obj
 0002:00000e6c       ??_C@_0BH@EMJJOPF@f_ref_limited_2?3?$CF15?46f?$AA@ 10042e6c     FingerStrokeAssistance.obj
 0002:00000e88       ??_C@_0BI@PFNCELAG@Error?5creating?5scope?52?6?$AA@ 10042e88     FingerStrokeAssistance.obj
 0002:00000ea4       ??_C@_0BP@FKNEMDKG@LL?5Controller?1Manual?5Switch?1s1?$AA@ 10042ea4     FingerStrokeAssistance.obj
 0002:00000ecc       ??_C@_0BP@HBPJJAGF@LL?5Controller?1Manual?5Switch?1s2?$AA@ 10042ecc     FingerStrokeAssistance.obj
 0002:00000ef4       ??_C@_0CH@PENCCFNF@HL?5Controller?1Discrete?9Time?5Inte@ 10042ef4     FingerStrokeAssistance.obj
 0002:00000f24       ??_C@_0BK@CIALIDMG@Robot?1Discrete?5Filter1?1s1?$AA@ 10042f24     FingerStrokeAssistance.obj
 0002:00000f44       ??_C@_0BK@DCGNAAF@Robot?1Discrete?5Filter1?1s2?$AA@ 10042f44     FingerStrokeAssistance.obj
 0002:00000f64       ??_C@_0BC@OJJPBDHH@FixedStepDiscrete?$AA@ 10042f64     FingerStrokeAssistance.obj
 0002:00000f7c       ??_C@_04EPKDLPPB@tout?$AA@ 10042f7c     FingerStrokeAssistance.obj
 0002:00000f82       ??_C@_00CNPNBAHC@?$AA@     10042f82     FingerStrokeAssistance.obj
 0002:00000f84       ??_C@_03HBFGMJOD@rt_?$AA@  10042f84     FingerStrokeAssistance.obj
 0002:00000f88       ??_C@_0O@IFKELIIB@PCI?56221?5ENC?5?$AA@ 10042f88     FingerStrokeAssistance.obj
 0002:00000f98       ??_C@_0CL@FGFCPCFH@FingerStrokeAssistance?1Robot?1PCI@ 10042f98     FingerStrokeAssistance.obj
 0002:00000fcc       ??_C@_0P@FMGHBALM@PCI?56221?5ENC?51?$AA@ 10042fcc     FingerStrokeAssistance.obj
 0002:00000fe0       ??_C@_0CM@DDAEJBBH@FingerStrokeAssistance?1Robot?1PCI@ 10042fe0     FingerStrokeAssistance.obj
 0002:00001014       ??_C@_0M@HBIEHIJL@PCI?96221?5DA?$AA@ 10043014     FingerStrokeAssistance.obj
 0002:00001024       ??_C@_0CJ@KACMKMOO@FingerStrokeAssistance?1Robot?1PCI@ 10043024     FingerStrokeAssistance.obj
 0002:00001058       ??_C@_0N@JAOEPLNP@PCI?96221?5AD1?$AA@ 10043058     FingerStrokeAssistance.obj
 0002:00001068       ??_C@_0CK@LAFKNGLI@FingerStrokeAssistance?1Robot?1PCI@ 10043068     FingerStrokeAssistance.obj
 0002:000010a0       __real@0000000000000000    100430a0     FingerStrokeAssistance.obj
 0002:000010b0       __real@3f50624dd2f1a9fc    100430b0     FingerStrokeAssistance.obj
 0002:000010c0       __real@3f9eb851eb851eb8    100430c0     FingerStrokeAssistance.obj
 0002:000010d0       __real@3fb999999999999a    100430d0     FingerStrokeAssistance.obj
 0002:000010e0       __real@3fe0000000000000    100430e0     FingerStrokeAssistance.obj
 0002:000010f0       __real@3feccccccccccccd    100430f0     FingerStrokeAssistance.obj
 0002:00001100       __real@3ff0000000000000    10043100     FingerStrokeAssistance.obj
 0002:00001110       __real@4000000000000000    10043110     FingerStrokeAssistance.obj
 0002:00001120       __real@4004000000000000    10043120     FingerStrokeAssistance.obj
 0002:00001130       __real@4008000000000000    10043130     FingerStrokeAssistance.obj
 0002:00001140       __real@4010000000000000    10043140     FingerStrokeAssistance.obj
 0002:00001150       __real@4014000000000000    10043150     FingerStrokeAssistance.obj
 0002:00001160       __real@4018000000000000    10043160     FingerStrokeAssistance.obj
 0002:00001170       __real@4024000000000000    10043170     FingerStrokeAssistance.obj
 0002:00001180       __real@402e000000000000    10043180     FingerStrokeAssistance.obj
 0002:00001190       __real@41f0000000000000    10043190     FingerStrokeAssistance.obj
 0002:000011a0       __real@4330000000000000    100431a0     FingerStrokeAssistance.obj
 0002:000011b0       __real@8000000000000000    100431b0     FingerStrokeAssistance.obj
 0002:000011c0       __real@bfe0000000000000    100431c0     FingerStrokeAssistance.obj
 0002:000011d0       __real@bff0000000000000    100431d0     FingerStrokeAssistance.obj
 0002:000011e0       __real@c004000000000000    100431e0     FingerStrokeAssistance.obj
 0002:000011f0       __xmm@00000000000000003f50624dd2f1a9fc 100431f0     FingerStrokeAssistance.obj
 0002:00001210       __xmm@00000000000000003ff0000000000000 10043210     FingerStrokeAssistance.obj
 0002:00001230       __xmm@00000001000000010000000100000001 10043230     FingerStrokeAssistance.obj
 0002:00001250       __xmm@000000fd000000870000008f00000001 10043250     FingerStrokeAssistance.obj
 0002:00001270       __xmm@41f00000000000000000000000000000 10043270     FingerStrokeAssistance.obj
 0002:00001290       __xmm@7fffffffffffffff7fffffffffffffff 10043290     FingerStrokeAssistance.obj
 0002:000012b0       __xmm@80000000000000008000000000000000 100432b0     FingerStrokeAssistance.obj
 0002:0000328c       ??_C@_0BD@IIEOKOPL@MATLAB?5Function?1p2?$AA@ 1004528c     FingerStrokeAssistance_capi.obj
 0002:000032a4       ??_C@_0BD@JBFFJPLK@MATLAB?5Function?1p3?$AA@ 100452a4     FingerStrokeAssistance_capi.obj
 0002:000032bc       ??_C@_0BD@NOBEAJHN@MATLAB?5Function?1p4?$AA@ 100452bc     FingerStrokeAssistance_capi.obj
 0002:000032d4       ??_C@_0BD@MHAPDIDM@MATLAB?5Function?1p5?$AA@ 100452d4     FingerStrokeAssistance_capi.obj
 0002:000032ec       ??_C@_0BD@OMCCGLPP@MATLAB?5Function?1p6?$AA@ 100452ec     FingerStrokeAssistance_capi.obj
 0002:00003304       ??_C@_0BD@PFDJFKLO@MATLAB?5Function?1p7?$AA@ 10045304     FingerStrokeAssistance_capi.obj
 0002:0000331c       ??_C@_0BD@HCKBEGHB@MATLAB?5Function?1p8?$AA@ 1004531c     FingerStrokeAssistance_capi.obj
 0002:00003334       ??_C@_0BD@GLLKHHDA@MATLAB?5Function?1p9?$AA@ 10045334     FingerStrokeAssistance_capi.obj
 0002:0000334c       ??_C@_0BF@GGMNNFDC@Data?5Type?5Conversion?$AA@ 1004534c     FingerStrokeAssistance_capi.obj
 0002:00003368       ??_C@_0L@EGNLABOL@Unit?5Delay?$AA@ 10045368     FingerStrokeAssistance_capi.obj
 0002:00003378       ??_C@_0M@PBMDOHED@Unit?5Delay1?$AA@ 10045378     FingerStrokeAssistance_capi.obj
 0002:00003388       ??_C@_0M@MDPFIFMB@Unit?5Delay3?$AA@ 10045388     FingerStrokeAssistance_capi.obj
 0002:00003398       ??_C@_0CD@GLAMPGEM@HL?5Controller?1Data?5Type?5Conversi@ 10045398     FingerStrokeAssistance_capi.obj
 0002:000033c4       ??_C@_0BG@JLDBOJPN@HL?5Controller?1Damping?$AA@ 100453c4     FingerStrokeAssistance_capi.obj
 0002:000033e0       ??_C@_0BE@OJENBPFA@HL?5Controller?1Gain1?$AA@ 100453e0     FingerStrokeAssistance_capi.obj
 0002:000033f8       ??_C@_0BE@JOHLLJDM@HL?5Controller?1Delay?$AA@ 100453f8     FingerStrokeAssistance_capi.obj
 0002:00003410       ??_C@_0BF@OJKMAAIM@HL?5Controller?1Delay1?$AA@ 10045410     FingerStrokeAssistance_capi.obj
 0002:0000342c       ??_C@_0BP@PNFNPGMG@HL?5Controller?1Discrete?5Filter1?$AA@ 1004542c     FingerStrokeAssistance_capi.obj
 0002:00003454       ??_C@_0CD@ODJGKFOO@LL?5Controller?1Data?5Type?5Conversi@ 10045454     FingerStrokeAssistance_capi.obj
 0002:00003480       ??_C@_0CE@IBAMFOGI@LL?5Controller?1Data?5Type?5Conversi@ 10045480     FingerStrokeAssistance_capi.obj
 0002:000034ac       ??_C@_0BD@JGAMGINO@LL?5Controller?1Gain?$AA@ 100454ac     FingerStrokeAssistance_capi.obj
 0002:000034c4       ??_C@_0BC@PPCBCHF@LL?5Controller?1Sum?$AA@ 100454c4     FingerStrokeAssistance_capi.obj
 0002:000034dc       ??_C@_0BF@MCNNONIB@LL?5Controller?1Switch?$AA@ 100454dc     FingerStrokeAssistance_capi.obj
 0002:000034f8       ??_C@_0BG@FMCAGJOJ@LL?5Controller?1Switch1?$AA@ 100454f8     FingerStrokeAssistance_capi.obj
 0002:00003514       ??_C@_0BM@BGPIMJMO@LL?5Controller?1Manual?5Switch?$AA@ 10045514     FingerStrokeAssistance_capi.obj
 0002:00003538       ??_C@_0BE@NAJGFCGF@LL?5Controller?1Delay?$AA@ 10045538     FingerStrokeAssistance_capi.obj
 0002:00003550       ??_C@_0L@NEPEIPFM@Robot?1Gain?$AA@ 10045550     FingerStrokeAssistance_capi.obj
 0002:00003560       ??_C@_0M@KEFEOOOC@Robot?1Gain1?$AA@ 10045560     FingerStrokeAssistance_capi.obj
 0002:00003570       ??_C@_0BE@OMELOOBD@Robot?1PCI?56221?5ENC?5?$AA@ 10045570     FingerStrokeAssistance_capi.obj
 0002:00003588       ??_C@_0BF@ECAPANIC@Robot?1PCI?56221?5ENC?51?$AA@ 10045588     FingerStrokeAssistance_capi.obj
 0002:000035a4       ??_C@_0BG@HNHIMJLG@Robot?1PCI?96221?5AD1?1p1?$AA@ 100455a4     FingerStrokeAssistance_capi.obj
 0002:000035c0       ??_C@_0BG@FGFFJKHF@Robot?1PCI?96221?5AD1?1p2?$AA@ 100455c0     FingerStrokeAssistance_capi.obj
 0002:000035dc       ??_C@_0BG@EPEOKLDE@Robot?1PCI?96221?5AD1?1p3?$AA@ 100455dc     FingerStrokeAssistance_capi.obj
 0002:000035f8       ??_C@_0BG@PDNPD@Robot?1PCI?96221?5AD1?1p4?$AA@ 100455f8     FingerStrokeAssistance_capi.obj
 0002:00003614       ??_C@_0BG@BJBEAMLC@Robot?1PCI?96221?5AD1?1p5?$AA@ 10045614     FingerStrokeAssistance_capi.obj
 0002:00003630       ??_C@_0BG@DCDJFPHB@Robot?1PCI?96221?5AD1?1p6?$AA@ 10045630     FingerStrokeAssistance_capi.obj
 0002:0000364c       ??_C@_0BG@CLCCGODA@Robot?1PCI?96221?5AD1?1p7?$AA@ 1004564c     FingerStrokeAssistance_capi.obj
 0002:00003668       ??_C@_0BG@KMLKHCPP@Robot?1PCI?96221?5AD1?1p8?$AA@ 10045668     FingerStrokeAssistance_capi.obj
 0002:00003684       ??_C@_09EFINPMFM@Robot?1Sum?$AA@ 10045684     FingerStrokeAssistance_capi.obj
 0002:00003690       ??_C@_0BH@LHMPPFDF@Robot?1Discrete?5Filter1?$AA@ 10045690     FingerStrokeAssistance_capi.obj
 0002:000036ac       ??_C@_0BB@ONCKFKHP@Robot?1Unit?5Delay?$AA@ 100456ac     FingerStrokeAssistance_capi.obj
 0002:000036c0       ??_C@_0BP@HDIBGFHC@Subsystem?1Data?5Type?5Conversion?$AA@ 100456c0     FingerStrokeAssistance_capi.obj
 0002:000036e8       ??_C@_0CD@IGDCNCLO@Subsystem?1Discrete?9Time?5Integrat@ 100456e8     FingerStrokeAssistance_capi.obj
 0002:00003714       ??_C@_0BG@DAMAHEPC@Subsystem?1Unit?5Delay1?$AA@ 10045714     FingerStrokeAssistance_capi.obj
 0002:00003730       ??_C@_0BG@BLONCHDB@Subsystem?1Unit?5Delay2?$AA@ 10045730     FingerStrokeAssistance_capi.obj
 0002:0000374c       ??_C@_0CA@EBCNJBOK@Subsystem1?1Data?5Type?5Conversion?$AA@ 1004574c     FingerStrokeAssistance_capi.obj
 0002:00003774       ??_C@_0CE@IGGOGCJM@Subsystem1?1Discrete?9Time?5Integra@ 10045774     FingerStrokeAssistance_capi.obj
 0002:000037a0       ??_C@_0BH@OCBAAL@Subsystem1?1Unit?5Delay1?$AA@ 100457a0     FingerStrokeAssistance_capi.obj
 0002:000037bc       ??_C@_0BH@CLMPEDMI@Subsystem1?1Unit?5Delay2?$AA@ 100457bc     FingerStrokeAssistance_capi.obj
 0002:000037d8       ??_C@_0BJ@LDIJMIN@parameters?1parChangeRate?$AA@ 100457d8     FingerStrokeAssistance_capi.obj
 0002:000037f8       ??_C@_0BG@MANKCMPG@parameters?1parFThresh?$AA@ 100457f8     FingerStrokeAssistance_capi.obj
 0002:00003814       ??_C@_0BH@GKLAKHLL@parameters?1parFixedDur?$AA@ 10045814     FingerStrokeAssistance_capi.obj
 0002:00003830       ??_C@_0BL@EGOKLGEF@parameters?1parForceTrigger?$AA@ 10045830     FingerStrokeAssistance_capi.obj
 0002:00003850       ??_C@_0BC@FKHIPIEO@parameters?1parKd1?$AA@ 10045850     FingerStrokeAssistance_capi.obj
 0002:00003868       ??_C@_0BC@HBFFKLIN@parameters?1parKd2?$AA@ 10045868     FingerStrokeAssistance_capi.obj
 0002:00003880       ??_C@_0BD@BKPLMOHI@parameters?1parKdV1?$AA@ 10045880     FingerStrokeAssistance_capi.obj
 0002:00003898       ??_C@_0BD@DBNGJNLL@parameters?1parKdV2?$AA@ 10045898     FingerStrokeAssistance_capi.obj
 0002:000038b0       ??_C@_0BC@EBFHPDOC@parameters?1parKp1?$AA@ 100458b0     FingerStrokeAssistance_capi.obj
 0002:000038c8       ??_C@_0BC@GKHKKACB@parameters?1parKp2?$AA@ 100458c8     FingerStrokeAssistance_capi.obj
 0002:000038e0       ??_C@_0BH@PENPCGFM@parameters?1parLeftMode?$AA@ 100458e0     FingerStrokeAssistance_capi.obj
 0002:000038fc       ??_C@_0BF@GLMDNGIG@parameters?1parMarker?$AA@ 100458fc     FingerStrokeAssistance_capi.obj
 0002:00003918       ??_C@_0BJ@BNLOJEEL@parameters?1parMaxTrajDur?$AA@ 10045918     FingerStrokeAssistance_capi.obj
 0002:00003938       ??_C@_0BE@GHPCIJPH@parameters?1parPStop?$AA@ 10045938     FingerStrokeAssistance_capi.obj
 0002:00003950       ??_C@_0BH@GJMCKDGC@parameters?1parTrajMode?$AA@ 10045950     FingerStrokeAssistance_capi.obj
 0002:0000396c       ??_C@_0BG@LMGBBNNN@parameters?1parVThresh?$AA@ 1004596c     FingerStrokeAssistance_capi.obj
 0002:00003988       ??_C@_0BI@PBEPHEEP@parameters?1parWiggleAmp?$AA@ 10045988     FingerStrokeAssistance_capi.obj
 0002:000039a4       ??_C@_0BN@BNDFGDOE@parameters?1Rounding?5Function?$AA@ 100459a4     FingerStrokeAssistance_capi.obj
 0002:000039c8       ??_C@_0BG@KKGOACNA@parameters?1Saturation?$AA@ 100459c8     FingerStrokeAssistance_capi.obj
 0002:000039e4       ??_C@_0BH@EACELLGE@parameters?1Saturation1?$AA@ 100459e4     FingerStrokeAssistance_capi.obj
 0002:00003a00       ??_C@_0BH@GLAJOIKH@parameters?1Saturation2?$AA@ 10045a00     FingerStrokeAssistance_capi.obj
 0002:00003a1c       ??_C@_0DG@IOBGNGCJ@HL?5Controller?1Detect?5Change?1FixP@ 10045a1c     FingerStrokeAssistance_capi.obj
 0002:00003a5c       ??_C@_0CJ@CLPCMDPG@HL?5Controller?1Detect?5Change?1Dela@ 10045a5c     FingerStrokeAssistance_capi.obj
 0002:00003a90       ??_C@_06CFNEEADJ@U?$CIk?91?$CJ?$AA@ 10045a90     FingerStrokeAssistance_capi.obj
 0002:00003a98       ??_C@_0CK@BMIIBNHB@LL?5Controller?1Compare?5To?5Constan@ 10045a98     FingerStrokeAssistance_capi.obj
 0002:00003acc       ??_C@_0CL@DMOPBBHN@LL?5Controller?1Compare?5To?5Constan@ 10045acc     FingerStrokeAssistance_capi.obj
 0002:00003b00       ??_C@_0CN@BMMFOADL@LL?5Controller?1Discrete?5PID?5Contr@ 10045b00     FingerStrokeAssistance_capi.obj
 0002:00003b38       ??_C@_0DB@HDHLABFB@LL?5Controller?1Discrete?5PID?5Contr@ 10045b38     FingerStrokeAssistance_capi.obj
 0002:00003b74       ??_C@_0DG@HLAOPJGM@LL?5Controller?1Discrete?5PID?5Contr@ 10045b74     FingerStrokeAssistance_capi.obj
 0002:00003bb4       ??_C@_0DJ@KOPOKLBH@LL?5Controller?1Discrete?5PID?5Contr@ 10045bb4     FingerStrokeAssistance_capi.obj
 0002:00003bf8       ??_C@_0DE@EPKOKGAH@LL?5Controller?1Discrete?5PID?5Contr@ 10045bf8     FingerStrokeAssistance_capi.obj
 0002:00003c38       ??_C@_0DI@CMDIPDHM@LL?5Controller?1Discrete?5PID?5Contr@ 10045c38     FingerStrokeAssistance_capi.obj
 0002:00003c7c       ??_C@_0CK@BDBPDANN@LL?5Controller?1Discrete?5PID?5Contr@ 10045c7c     FingerStrokeAssistance_capi.obj
 0002:00003cb0       ??_C@_0CL@GMGEDLFI@LL?5Controller?1Discrete?5PID?5Contr@ 10045cb0     FingerStrokeAssistance_capi.obj
 0002:00003ce4       ??_C@_0CO@BJKFCIOJ@LL?5Controller?1Saturation?5Dynamic@ 10045ce4     FingerStrokeAssistance_capi.obj
 0002:00003d1c       ??_C@_0CN@PPLPNFEO@LL?5Controller?1Saturation?5Dynamic@ 10045d1c     FingerStrokeAssistance_capi.obj
 0002:00003d54       ??_C@_0CJ@BODBLONB@LL?5Controller?1Saturation?5Dynamic@ 10045d54     FingerStrokeAssistance_capi.obj
 0002:00003d88       ??_C@_0CK@BMLKIHIN@LL?5Controller?1Saturation?5Dynamic@ 10045d88     FingerStrokeAssistance_capi.obj
 0002:00003dbc       ??_C@_0CJ@CMMOLFJF@LL?5Controller?1Subsystem?1MATLAB?5F@ 10045dbc     FingerStrokeAssistance_capi.obj
 0002:00003df0       ??_C@_0CJ@HODOGFG@LL?5Controller?1Subsystem?1MATLAB?5F@ 10045df0     FingerStrokeAssistance_capi.obj
 0002:00003e24       ??_C@_0BN@KNGEJOLM@LL?5Controller?1Subsystem?1Sum1?$AA@ 10045e24     FingerStrokeAssistance_capi.obj
 0002:00003e48       ??_C@_0BP@DAEPAEBF@Robot?1Discrete?5Derivative?1Diff?$AA@ 10045e48     FingerStrokeAssistance_capi.obj
 0002:00003e70       ??_C@_0CA@DLBHKHPN@Robot?1Discrete?5Derivative?1TSamp?$AA@ 10045e70     FingerStrokeAssistance_capi.obj
 0002:00003e98       ??_C@_0BN@GNNONLLN@Robot?1Discrete?5Derivative?1UD?$AA@ 10045e98     FingerStrokeAssistance_capi.obj
 0002:00003ebc       ??_C@_0CF@JOKCEMIH@Robot?1Saturation?5Dynamic?1LowerRe@ 10045ebc     FingerStrokeAssistance_capi.obj
 0002:00003ee8       ??_C@_0CE@PAHIGJNP@Robot?1Saturation?5Dynamic?1UpperRe@ 10045ee8     FingerStrokeAssistance_capi.obj
 0002:00003f14       ??_C@_0CA@NDOLBHN@Robot?1Saturation?5Dynamic?1Switch?$AA@ 10045f14     FingerStrokeAssistance_capi.obj
 0002:00003f3c       ??_C@_0CB@MDMJGHEB@Robot?1Saturation?5Dynamic?1Switch2@ 10045f3c     FingerStrokeAssistance_capi.obj
 0002:00003f64       ??_C@_0BO@KMPBMPBM@Robot?1Triggered?5Subsystem?1In1?$AA@ 10045f64     FingerStrokeAssistance_capi.obj
 0002:00003f88       ??_C@_0DA@IHGHECDK@Robot?1account?5for?5handedness?1MAT@ 10045f88     FingerStrokeAssistance_capi.obj
 0002:00003fc4       ??_C@_0DA@KMEKBBPJ@Robot?1account?5for?5handedness?1MAT@ 10045fc4     FingerStrokeAssistance_capi.obj
 0002:00004000       ??_C@_0DD@LGPLBJIP@Robot?1account?5for?5handedness?5for@ 10046000     FingerStrokeAssistance_capi.obj
 0002:00004040       ??_C@_0DB@BNMCHGNM@Robot?1account?5for?5handedness2?1MA@ 10046040     FingerStrokeAssistance_capi.obj
 0002:0000407c       ??_C@_0DB@DGOPCFBP@Robot?1account?5for?5handedness2?1MA@ 1004607c     FingerStrokeAssistance_capi.obj
 0002:000040b8       ??_C@_0CM@LEIBMJGE@Robot?1filtered?5force?5output?1Low?5@ 100460b8     FingerStrokeAssistance_capi.obj
 0002:000040ec       ??_C@_0CN@IMDGCDDK@Robot?1filtered?5force?5output?1Low?5@ 100460ec     FingerStrokeAssistance_capi.obj
 0002:00004124       ??_C@_0CD@NAELEMPL@Robot?1filtered?5force?5output?1Memo@ 10046124     FingerStrokeAssistance_capi.obj
 0002:00004150       ??_C@_0CE@OMOCGHGK@Robot?1filtered?5force?5output?1Memo@ 10046150     FingerStrokeAssistance_capi.obj
 0002:0000417c       ??_C@_0BD@BNMELIGD@Robot?1gravDir?1gain?$AA@ 1004617c     FingerStrokeAssistance_capi.obj
 0002:00004194       ??_C@_0BC@NJKIOKBB@Robot?1gravDir?1Sum?$AA@ 10046194     FingerStrokeAssistance_capi.obj
 0002:000041ac       ??_C@_0DC@HIOFCDHB@Subsystem?1Detect?5Change?1FixPt?5Re@ 100461ac     FingerStrokeAssistance_capi.obj
 0002:000041e8       ??_C@_0CF@IOCCGEMF@Subsystem?1Detect?5Change?1Delay?5In@ 100461e8     FingerStrokeAssistance_capi.obj
 0002:00004214       ??_C@_0DD@ODDDIJKC@Subsystem1?1Detect?5Change?1FixPt?5R@ 10046214     FingerStrokeAssistance_capi.obj
 0002:00004254       ??_C@_0CG@OCPBJBDF@Subsystem1?1Detect?5Change?1Delay?5I@ 10046254     FingerStrokeAssistance_capi.obj
 0002:00004284       ??_C@_0CH@KJDMLLPO@parameters?1gain?5transition?1gainr@ 10046284     FingerStrokeAssistance_capi.obj
 0002:000042b4       ??_C@_0CH@ICBBOIDN@parameters?1gain?5transition?1gainr@ 100462b4     FingerStrokeAssistance_capi.obj
 0002:000042e4       ??_C@_0CC@BDCPHDEE@parameters?1gain?5transition?1Memor@ 100462e4     FingerStrokeAssistance_capi.obj
 0002:0000430c       ??_C@_0CI@PJCJMMGB@parameters?1gain?5transition1?1gain@ 1004630c     FingerStrokeAssistance_capi.obj
 0002:0000433c       ??_C@_0CI@NCAEJPKC@parameters?1gain?5transition1?1gain@ 1004633c     FingerStrokeAssistance_capi.obj
 0002:0000436c       ??_C@_0CD@LNHEJADF@parameters?1gain?5transition1?1Memo@ 1004636c     FingerStrokeAssistance_capi.obj
 0002:00004398       ??_C@_0CI@IFEIOJLK@parameters?1gain?5transition2?1gain@ 10046398     FingerStrokeAssistance_capi.obj
 0002:000043c8       ??_C@_0CI@KOGFLKHJ@parameters?1gain?5transition2?1gain@ 100463c8     FingerStrokeAssistance_capi.obj
 0002:000043f8       ??_C@_0CD@IEPJKMPA@parameters?1gain?5transition2?1Memo@ 100463f8     FingerStrokeAssistance_capi.obj
 0002:00004424       ??_C@_0CI@BIEHAIMM@parameters?1gain?5transition3?1gain@ 10046424     FingerStrokeAssistance_capi.obj
 0002:00004454       ??_C@_0CI@DDGKFLAP@parameters?1gain?5transition3?1gain@ 10046454     FingerStrokeAssistance_capi.obj
 0002:00004484       ??_C@_0CD@JDICLILD@parameters?1gain?5transition3?1Memo@ 10046484     FingerStrokeAssistance_capi.obj
 0002:000044b0       ??_C@_0CI@HNIKKCAM@parameters?1gain?5transition4?1gain@ 100464b0     FingerStrokeAssistance_capi.obj
 0002:000044e0       ??_C@_0CI@FGKHPBMP@parameters?1gain?5transition4?1gain@ 100464e0     FingerStrokeAssistance_capi.obj
 0002:00004510       ??_C@_0CD@PHODNFHK@parameters?1gain?5transition4?1Memo@ 10046510     FingerStrokeAssistance_capi.obj
 0002:0000453c       ??_C@_0CI@OAIFEDHK@parameters?1gain?5transition5?1gain@ 1004653c     FingerStrokeAssistance_capi.obj
 0002:0000456c       ??_C@_0CI@MLKIBALJ@parameters?1gain?5transition5?1gain@ 1004656c     FingerStrokeAssistance_capi.obj
 0002:0000459c       ??_C@_0CD@OAJIMBDJ@parameters?1gain?5transition5?1Memo@ 1004659c     FingerStrokeAssistance_capi.obj
 0002:000045c8       ??_C@_09IIHOELEE@Constant1?$AA@ 100465c8     FingerStrokeAssistance_capi.obj
 0002:000045d4       ??_C@_05LPIJGKJ@Value?$AA@ 100465d4     FingerStrokeAssistance_capi.obj
 0002:000045dc       ??_C@_09LKEICJMG@Constant3?$AA@ 100465dc     FingerStrokeAssistance_capi.obj
 0002:000045e8       ??_C@_0BB@CFEOEMDC@InitialCondition?$AA@ 100465e8     FingerStrokeAssistance_capi.obj
 0002:000045fc       ??_C@_0BM@NNJFPEF@HL?5Controller?1Detect?5Change?$AA@ 100465fc     FingerStrokeAssistance_capi.obj
 0002:00004620       ??_C@_05NAMIGJNB@vinit?$AA@ 10046620     FingerStrokeAssistance_capi.obj
 0002:00004628       ??_C@_07KKMCCDCH@gainval?$AA@ 10046628     FingerStrokeAssistance_capi.obj
 0002:00004634       ??_C@_0BF@GLIOIDJM@UpperSaturationLimit?$AA@ 10046634     FingerStrokeAssistance_capi.obj
 0002:00004650       ??_C@_0BF@EMCFELNH@LowerSaturationLimit?$AA@ 10046650     FingerStrokeAssistance_capi.obj
 0002:0000466c       ??_C@_04OMOMKKFL@Gain?$AA@ 1004666c     FingerStrokeAssistance_capi.obj
 0002:00004674       ??_C@_0M@KNNCJG@DelayLength?$AA@ 10046674     FingerStrokeAssistance_capi.obj
 0002:00004684       ??_C@_09OMDFKCLN@Numerator?$AA@ 10046684     FingerStrokeAssistance_capi.obj
 0002:00004690       ??_C@_0M@KDILNJPK@Denominator?$AA@ 10046690     FingerStrokeAssistance_capi.obj
 0002:000046a0       ??_C@_0O@KHJPNGBD@InitialStates?$AA@ 100466a0     FingerStrokeAssistance_capi.obj
 0002:000046b0       ??_C@_0CC@DDKNMLC@LL?5Controller?1Compare?5To?5Constan@ 100466b0     FingerStrokeAssistance_capi.obj
 0002:000046d8       ??_C@_05BNCCCJPP@const?$AA@ 100466d8     FingerStrokeAssistance_capi.obj
 0002:000046e0       ??_C@_0CD@ODDBOPMO@LL?5Controller?1Compare?5To?5Constan@ 100466e0     FingerStrokeAssistance_capi.obj
 0002:0000470c       ??_C@_0CG@DLDPEALE@LL?5Controller?1Discrete?5PID?5Contr@ 1004670c     FingerStrokeAssistance_capi.obj
 0002:0000473c       ??_C@_01EJNLAFE@P?$AA@     1004673c     FingerStrokeAssistance_capi.obj
 0002:00004740       ??_C@_01JPJNBJEM@I?$AA@    10046740     FingerStrokeAssistance_capi.obj
 0002:00004744       ??_C@_01CKDDGHAB@D?$AA@    10046744     FingerStrokeAssistance_capi.obj
 0002:00004748       ??_C@_01NANMIPIL@N?$AA@    10046748     FingerStrokeAssistance_capi.obj
 0002:0000474c       ??_C@_0BH@IBMNMNAL@LL?5Controller?1Constant?$AA@ 1004674c     FingerStrokeAssistance_capi.obj
 0002:00004768       ??_C@_09HLCHFPPJ@Threshold?$AA@ 10046768     FingerStrokeAssistance_capi.obj
 0002:00004774       ??_C@_0P@HMEAEHIM@CurrentSetting?$AA@ 10046774     FingerStrokeAssistance_capi.obj
 0002:00004788       ??_C@_0BB@BPKEPNND@ON?1?1OFF?1Constant?$AA@ 10046788     FingerStrokeAssistance_capi.obj
 0002:0000479c       ??_C@_0BK@MMODBLJF@Robot?1Discrete?5Derivative?$AA@ 1004679c     FingerStrokeAssistance_capi.obj
 0002:000047bc       ??_C@_0BC@DNAKAAEE@ICPrevScaledInput?$AA@ 100467bc     FingerStrokeAssistance_capi.obj
 0002:000047d4       ??_C@_02KKFPAPOP@P1?$AA@   100467d4     FingerStrokeAssistance_capi.obj
 0002:000047d8       ??_C@_02IBHCFMCM@P2?$AA@   100467d8     FingerStrokeAssistance_capi.obj
 0002:000047dc       ??_C@_02JIGJGNGN@P3?$AA@   100467dc     FingerStrokeAssistance_capi.obj
 0002:000047e0       ??_C@_02NHCIPLKK@P4?$AA@   100467e0     FingerStrokeAssistance_capi.obj
 0002:000047e4       ??_C@_02MODDMKOL@P5?$AA@   100467e4     FingerStrokeAssistance_capi.obj
 0002:000047e8       ??_C@_02OFBOJJCI@P6?$AA@   100467e8     FingerStrokeAssistance_capi.obj
 0002:000047ec       ??_C@_02PMAFKIGJ@P7?$AA@   100467ec     FingerStrokeAssistance_capi.obj
 0002:000047f0       ??_C@_02HLJNLEKG@P8?$AA@   100467f0     FingerStrokeAssistance_capi.obj
 0002:000047f4       ??_C@_02GCIGIFOH@P9?$AA@   100467f4     FingerStrokeAssistance_capi.obj
 0002:000047f8       ??_C@_03OPFJJGBF@P10?$AA@  100467f8     FingerStrokeAssistance_capi.obj
 0002:000047fc       ??_C@_0BD@HJHAJHEM@Robot?1PCI?96221?5AD1?$AA@ 100467fc     FingerStrokeAssistance_capi.obj
 0002:00004814       ??_C@_0BC@IGENNOJN@Robot?1PCI?96221?5DA?$AA@ 10046814     FingerStrokeAssistance_capi.obj
 0002:0000482c       ??_C@_0BI@CCIOLKMP@Subsystem?1Detect?5Change?$AA@ 1004682c     FingerStrokeAssistance_capi.obj
 0002:00004848       ??_C@_0BJ@KNCPHFFI@Subsystem1?1Detect?5Change?$AA@ 10046848     FingerStrokeAssistance_capi.obj
 0002:00004868       ??_C@_0CD@NBHNHEJB@parameters?1paremeters_?5must_be_o@ 10046868     FingerStrokeAssistance_capi.obj
 0002:00004894       ??_C@_0L@FBCGKKEN@UpperLimit?$AA@ 10046894     FingerStrokeAssistance_capi.obj
 0002:000048a4       ??_C@_0L@DGFJOHKP@LowerLimit?$AA@ 100468a4     FingerStrokeAssistance_capi.obj
 0002:000048b4       ??_C@_0CC@OFDJKOEK@LL?5Controller?1Subsystem?1Constant@ 100468b4     FingerStrokeAssistance_capi.obj
 0002:000048dc       ??_C@_0CC@MOBEPNIJ@LL?5Controller?1Subsystem?1Constant@ 100468dc     FingerStrokeAssistance_capi.obj
 0002:00004904       ??_C@_0CC@NHAPMMMI@LL?5Controller?1Subsystem?1Constant@ 10046904     FingerStrokeAssistance_capi.obj
 0002:0000492c       ??_C@_0CC@JIEOFKAP@LL?5Controller?1Subsystem?1Constant@ 1004692c     FingerStrokeAssistance_capi.obj
 0002:00004954       ??_C@_04GKLBNPCL@WtEt?$AA@ 10046954     FingerStrokeAssistance_capi.obj
 0002:0000495c       ??_C@_0BP@KMPJMACH@Robot?1Triggered?5Subsystem?1Out1?$AA@ 1004695c     FingerStrokeAssistance_capi.obj
 0002:00004984       ??_C@_0O@LILIEJBO@InitialOutput?$AA@ 10046984     FingerStrokeAssistance_capi.obj
 0002:00004994       ??_C@_02LNFHGPBG@X0?$AA@   10046994     FingerStrokeAssistance_capi.obj
 0002:00004998       ??_C@_0BH@BIOEOLDB@Robot?1gravDir?1Constant?$AA@ 10046998     FingerStrokeAssistance_capi.obj
 0002:000049b4       ??_C@_04OELFCIM@Alow?$AA@  100469b4     FingerStrokeAssistance_capi.obj
 0002:000049bc       ??_C@_04EJOLCIFM@Blow?$AA@ 100469bc     FingerStrokeAssistance_capi.obj
 0002:000049c4       ??_C@_04HEILABOM@Clow?$AA@ 100469c4     FingerStrokeAssistance_capi.obj
 0002:000049cc       ??_C@_04MGKLNNPM@Dlow?$AA@ 100469cc     FingerStrokeAssistance_capi.obj
 0002:000049d4       ??_C@_05FKGIECOB@x0low?$AA@ 100469d4     FingerStrokeAssistance_capi.obj
 0002:000049dc       ??_C@_06BNJCAIGJ@double?$AA@ 100469dc     FingerStrokeAssistance_capi.obj
 0002:000049e4       ??_C@_06CNMIJIPB@real_T?$AA@ 100469e4     FingerStrokeAssistance_capi.obj
 0002:000049ec       ??_C@_0O@PPAIJIHF@unsigned?5char?$AA@ 100469ec     FingerStrokeAssistance_capi.obj
 0002:000049fc       ??_C@_09JBMFCIMO@boolean_T?$AA@ 100469fc     FingerStrokeAssistance_capi.obj
 0002:00004a08       ??_C@_0N@OFHMGPAL@unsigned?5int?$AA@ 10046a08     FingerStrokeAssistance_capi.obj
 0002:00004a18       ??_C@_08CCMIKNJF@uint32_T?$AA@ 10046a18     FingerStrokeAssistance_capi.obj
 0002:00004a24       ??_C@_07NCEHLPOC@uint8_T?$AA@ 10046a24     FingerStrokeAssistance_capi.obj
 0002:00004a30       ??_C@_05KNFBNCOH@float?$AA@ 10046a30     FingerStrokeAssistance_capi.obj
 0002:00004a38       ??_C@_0CJ@GGPBKPNK@Could?5not?5start?5ToAsyncQueue?5app@ 10046a38     FingerStrokeAssistance_tgtconn.obj
 0002:000052d0       ??_C@_0DJ@FHKINPLE@Unexpected?5itemKind?5?$DN?5DATA_ITEM?5@ 100472d0     rt_logging.obj
 0002:00005314       ??_C@_0DA@IEHFPFCJ@Unexpected?5itemKind?$DN?$CFd?5in?5rt_Pro@ 10047314     rt_logging.obj
 0002:00005350       ??_C@_0DA@IFLHJPBO@Unexpected?5itemKind?$DN?$CFd?5in?5rt_Pro@ 10047350     rt_logging.obj
 0002:0000538c       ??_C@_0DA@IAPIIJJL@Unexpected?5itemKind?$DN?$CFd?5in?5rt_Pro@ 1004738c     rt_logging.obj
 0002:000053c8       ??_C@_0BE@LCIGPJIG@MATLAB?55?40?5MAT?9file?$AA@ 100473c8     rt_logging.obj
 0002:000053e0       ??_C@_0FB@PCJEAJIB@?$CK?$CK?$CK?5Log?5variable?5?$CFs?5has?5wrapped?5@ 100473e0     rt_logging.obj
 0002:00005448       ??_C@_0MG@NKMLMOGF@?$CK?$CK?$CK?5To?5avoid?5wrapping?0?5explicitl@ 10047448     rt_logging.obj
 0002:00005538       ??_C@_0N@IPAEOLLP@_rtw_tmw?4tmw?$AA@ 10047538     rt_logging.obj
 0002:00005548       ??_C@_04HDOCAJNK@?$CFs?$CFs?$AA@ 10047548     rt_logging.obj
 0002:00005550       ??_C@_03ELIABIOC@w?$CLb?$AA@ 10047550     rt_logging.obj
 0002:00005554       ??_C@_0BF@JPILDDFA@?$CK?$CK?$CK?5Error?5opening?5?$CFs?$AA@ 10047554     rt_logging.obj
 0002:00005570       ??_C@_0BK@EEMDELA@unable?5to?5open?5data?5file?6?$AA@ 10047570     rt_logging.obj
 0002:00005590       ??_C@_04CGFJFPFD@none?$AA@ 10047590     rt_logging.obj
 0002:00005598       ??_C@_0EE@LCGFPNON@?$CK?$CK?$CK?5Error?5creating?5signals?5struc@ 10047598     rt_logging.obj
 0002:000055ec       ??_C@_0CE@NHECEDMK@?$CK?$CK?$CK?5Error?5creating?5log?5variable?5@ 100475ec     rt_logging.obj
 0002:00005618       ??_C@_0DB@IOCGKAGH@?$CK?$CK?$CK?5Errors?5occurred?5when?5startin@ 10047618     rt_logging.obj
 0002:00005654       ??_C@_0BO@BBLOGEBK@?$CK?$CK?$CK?5Memory?5allocation?5error?4?6?$AA@ 10047654     rt_logging.obj
 0002:00005678       ??_C@_0N@LGFBAGEL@?5?$CIreal?5part?$CJ?$AA@ 10047678     rt_logging.obj
 0002:00005688       ??_C@_0KH@CGNMHNFE@?5?5?5?5varName?5?5?5?5?5?5?5?5?5?5?$DN?5?$CFs?$CFs?6?5?5?5?5@ 10047688     rt_logging.obj
 0002:00005750       ??_C@_0LE@OALKKEFM@?5?5?5?5varName?5?5?5?5?5?5?5?5?5?5?$DN?5?$CFs?5?$CIcompl@ 10047750     rt_logging.obj
 0002:00005828       ??_C@_0KF@JDDLEOKO@?5?5?5?5varName?5?5?5?5?5?5?5?5?5?5?$DN?5?$CFs?6?5?5?5?5nR@ 10047828     rt_logging.obj
 0002:000058f0       ??_C@_0DP@HPDMIOFM@?$CK?$CK?$CK?5Using?5a?5default?5buffer?5of?5si@ 100478f0     rt_logging.obj
 0002:00005940       ??_C@_0KE@JEFOLKNF@?6?$CK?$CK?$CK?5Memory?5required?5to?5log?5vari@ 10047940     rt_logging.obj
 0002:00005a08       ??_C@_0JP@DKLMHCBI@?$CK?$CK?$CK?5Details?3?6?5?5?5?5?5?5?5varName?5?5?5?5?5@ 10047a08     rt_logging.obj
 0002:00005ac8       ??_C@_0CM@CAMILBED@?$CK?$CK?$CK?5Error?5allocating?5memory?5for?5@ 10047ac8     rt_logging.obj
 0002:00005afc       ??_C@_0DF@BBCNMOPM@?$CK?$CK?$CK?5Error?5allocating?5memory?5for?5@ 10047afc     rt_logging.obj
 0002:00005b40       ??_C@_0JP@DBCLPCCI@?$CK?$CK?$CK?5Details?3?6?5?5?5?5?5?5?5varName?5?5?5?5?5@ 10047b40     rt_logging.obj
 0002:00005c00       ??_C@_0FK@DPGAOBGA@?$CK?$CK?$CK?5Error?5allocating?5memory?5for?5@ 10047c00     rt_logging.obj
 0002:00005c6c       ??_C@_0BI@GGDNPHLJ@?$CK?$CK?$CK?5Error?5writing?5to?5?$CFs?$AA@ 10047c6c     rt_logging.obj
 0002:00005c88       ??_C@_0CB@IBGJGELG@?$CK?$CK?$CK?5Error?5writing?5?$CFs?5due?5to?3?5?$CFs?6@ 10047c88     rt_logging.obj
 0002:00005cb0       ??_C@_0CN@FLMCHCPB@?$CK?$CK?$CK?5Error?5writing?5log?5variable?5?$CF@ 10047cb0     rt_logging.obj
 0002:00005ce8       ??_C@_0DH@GAJCNOJP@?$CK?$CK?$CK?5Error?5writing?5structure?5log?5@ 10047ce8     rt_logging.obj
 0002:00005d2c       ??_C@_0BD@POEALECL@?$CK?$CK?5created?5?$CFs?5?$CK?$CK?6?6?$AA@ 10047d2c     rt_logging.obj
 0002:00005d48       __real@4020000000000000    10047d48     rt_logging.obj
 0002:00005d58       __real@41dfffffffc00000    10047d58     rt_logging.obj
 0002:00005d68       __real@41efffffffe00000    10047d68     rt_logging.obj
 0002:00005d78       __real@bfbf9add3afd2773    10047d78     rt_logging.obj
 0002:00005d88       __real@c000000000000000    10047d88     rt_logging.obj
 0002:00005da0       __xmm@20202020202020202020202020202020 10047da0     rt_logging.obj
 0002:00005dd0       __real@3cb0000000000000    10047dd0     rt_matrx.obj
 0002:00005df0       ??_C@_0BI@INNPNFJN@Memory?5Allocation?5Error?$AA@ 10047df0     rtw_modelmap_utils.obj
 0002:00005e10       ??_C@_1HC@OAPLBLFC@?$AAC?$AA?3?$AA?2?$AAP?$AAR?$AAO?$AAG?$AAR?$AAA?$AA?$HO?$AA1?$AA?2?$AAM?$AAA?$AAT?$AAL?$AAA?$AAB?$AA?2?$AAR?$AA2?$AA0?$AA1?$AA6?$AAa?$AA?2?$AAr?$AAt?$AAw?$AA?2?$AAc?$AA?2@ 10047e10     rtw_modelmap_utils.obj
 0002:00005e98       ??_C@_1CI@OEAJCJND@?$AAj?$AA?5?$AA?$DN?$AA?$DN?$AA?5?$AAe?$AAn?$AAc?$AAo?$AAd?$AAe?$AAd?$AAP?$AAa?$AAt?$AAh?$AAL?$AAe?$AAn?$AA?$AA@ 10047e98     rtw_modelmap_utils.obj
 0002:00005ec8       ??_C@_1DC@NFAOIFKB@?$AAe?$AAn?$AAc?$AAo?$AAd?$AAe?$AAd?$AAP?$AAa?$AAt?$AAh?$AA?$FL?$AAj?$AA?9?$AA1?$AA?$FN?$AA?5?$AA?$DN?$AA?$DN?$AA?5?$AA?8?$AA?2?$AA0?$AA?8?$AA?$AA@ 10047ec8     rtw_modelmap_utils.obj
 0002:00005f04       ??_C@_1DI@FLNJGPEE@?$AAs?$AAi?$AAg?$AAC?$AAo?$AAm?$AAp?$AAl?$AAe?$AAx?$AAi?$AAt?$AAy?$AA?$FL?$AA?$CK?$AAs?$AAi?$AAg?$AAI?$AAd?$AAx?$AA?$FN?$AA?5?$AA?$CB?$AA?$DN?$AA?5?$AA1?$AA?$AA@ 10047f04     rtw_modelmap_utils.obj
 0002:00005f48       ??_C@_1KI@OFELMGBG@?$AA?$CI?$AA?$CI?$AA?$CI?$AAd?$AAa?$AAt?$AAa?$AAT?$AAy?$AAp?$AAe?$AAM?$AAa?$AAp?$AA?$CJ?$AA?$FL?$AA?$CI?$AA?$CI?$AA?$CI?$AAs?$AAt?$AAa?$AAt?$AAe?$AAs?$AA?$CJ?$AA?$FL?$AA?$CI?$AAi?$AA?$CJ?$AA?$FN?$AA?4@ 10047f48     rtw_modelmap_utils.obj
 0002:00006014       ??_C@_1DA@ILCMPHNE@?$AAf?$AAu?$AAl?$AAl?$AAP?$AAa?$AAt?$AAh?$AA?5?$AA?$CB?$AA?$DN?$AA?5?$AA?$CI?$AA?$CI?$AAv?$AAo?$AAi?$AAd?$AA?5?$AA?$CK?$AA?$CJ?$AA0?$AA?$CJ?$AA?$AA@ 10048014     rtw_modelmap_utils.obj
 0002:00006050       ??_C@_1CI@OEPPFCCA@?$AAp?$AAa?$AAt?$AAh?$AA?5?$AA?$CB?$AA?$DN?$AA?5?$AA?$CI?$AA?$CI?$AAv?$AAo?$AAi?$AAd?$AA?5?$AA?$CK?$AA?$CJ?$AA0?$AA?$CJ?$AA?$AA@ 10048050     rtw_modelmap_utils.obj
 0002:00006080       ??_C@_1FK@GLJIMFHB@?$AA?$CI?$AA?$CI?$AAm?$AAm?$AAi?$AA?$CJ?$AA?9?$AA?$DO?$AAI?$AAn?$AAs?$AAt?$AAa?$AAn?$AAc?$AAe?$AAM?$AAa?$AAp?$AA?4?$AAf?$AAu?$AAl?$AAl?$AAP?$AAa?$AAt?$AAh?$AA?$CJ?$AA?5?$AA?$DN?$AA?$DN@ 10048080     rtw_modelmap_utils.obj
 0002:000060ec       ??_C@_1DG@HPCJGNCE@?$AAm?$AAm?$AAi?$AAP?$AAa?$AAt?$AAh?$AA?$FL?$AAp?$AAa?$AAt?$AAh?$AAL?$AAe?$AAn?$AA?9?$AA1?$AA?$FN?$AA?5?$AA?$DN?$AA?$DN?$AA?5?$AA?8?$AA?2?$AA0?$AA?8?$AA?$AA@ 100480ec     rtw_modelmap_utils.obj
 0002:0000612c       ??_C@_1DM@DBAOGGOO@?$AAm?$AAm?$AAi?$AAP?$AAa?$AAt?$AAh?$AA?$FL?$AAm?$AAm?$AAi?$AAP?$AAa?$AAt?$AAh?$AAL?$AAe?$AAn?$AA?9?$AA1?$AA?$FN?$AA?5?$AA?$DN?$AA?$DN?$AA?5?$AA?8?$AA?2?$AA0?$AA?8?$AA?$AA@ 1004812c     rtw_modelmap_utils.obj
 0002:00006174       ??_C@_1DC@LHIAKAFE@?$AAb?$AAl?$AAo?$AAc?$AAk?$AAP?$AAa?$AAt?$AAh?$AA?5?$AA?$CB?$AA?$DN?$AA?5?$AA?$CI?$AA?$CI?$AAv?$AAo?$AAi?$AAd?$AA?5?$AA?$CK?$AA?$CJ?$AA0?$AA?$CJ?$AA?$AA@ 10048174     rtw_modelmap_utils.obj
 0002:000061b0       ??_C@_1GI@KIEJKPGC@?$AAf?$AAu?$AAl?$AAl?$AAS?$AAt?$AAa?$AAt?$AAe?$AAB?$AAl?$AAo?$AAc?$AAk?$AAP?$AAa?$AAt?$AAh?$AA?$FL?$AAf?$AAu?$AAl?$AAl?$AAS?$AAt?$AAa?$AAt?$AAe?$AAB?$AAl?$AAo?$AAc@ 100481b0     rtw_modelmap_utils.obj
 0002:00006230       ??_C@_1EE@DNPIBJHC@?$AA?$CI?$AA?$CI?$AAd?$AAi?$AAm?$AAM?$AAa?$AAp?$AA?$CJ?$AA?$FL?$AA?$CI?$AAm?$AAa?$AAp?$AAI?$AAd?$AAx?$AA?$CJ?$AA?$FN?$AA?4?$AAn?$AAu?$AAm?$AAD?$AAi?$AAm?$AAs?$AA?$CJ?$AA?5?$AA?$DN?$AA?$DN?$AA?5@ 10048230     rtw_modelmap_utils.obj
 0002:00006284       ??_C@_06JFOKFOED@CSTATE?$AA@ 10048284     rtw_modelmap_utils.obj
 0002:0000628c       ??_C@_06FAENGAMN@DSTATE?$AA@ 1004828c     rtw_modelmap_utils.obj
 0002:00006294       ??_C@_1BI@LEBJNOGG@?$AAc?$AAs?$AAv?$AAI?$AAd?$AAx?$AA?5?$AA?$DO?$AA?$DN?$AA?5?$AA0?$AA?$AA@ 10048294     rtw_modelmap_utils.obj
 0002:000062b0       ??_C@_1BA@KDMGHCHP@?$AAT?$AAI?$AAD?$AA?$DN?$AA?$DN?$AA?9?$AA1?$AA?$AA@ 100482b0     rtw_modelmap_utils.obj
 0002:000062c4       ??_C@_1DM@DHGKBPCE@?$AAs?$AAi?$AAg?$AAP?$AAa?$AAt?$AAh?$AA?$FL?$AAs?$AAi?$AAg?$AAP?$AAa?$AAt?$AAh?$AAL?$AAe?$AAn?$AA?9?$AA1?$AA?$FN?$AA?5?$AA?$DN?$AA?$DN?$AA?5?$AA?8?$AA?2?$AA0?$AA?8?$AA?$AA@ 100482c4     rtw_modelmap_utils.obj
 0002:0000630c       _serialfifoground          1004830c     xpc_datatype_ground.obj
 0002:00006318       _bcmsg1553ground           10048318     xpc_datatype_ground.obj
 0002:00006328       _bcstatground              10048328     xpc_datatype_ground.obj
 0002:00006340       _bmmsg1553ground           10048340     xpc_datatype_ground.obj
 0002:00006360       _ptsetfilename             10048360     xpctarget.obj
 0002:00006364       _xmlfile                   10048364     xpctarget.obj
 0002:0000636c       ??_C@_0BH@DNMKOCPI@FingerStrokeAssistance?$AA@ 1004836c     xpctarget.obj
 0002:00006388       ??_C@_0L@CHBJKKFC@xpceSetVar?$AA@ 10048388     xpctarget.obj
 0002:00006398       ??_C@_03ICACBPID@6?44?$AA@ 10048398     xpctarget.obj
 0002:000063a0       __real@408f400000000000    100483a0     xpctarget.obj
 0002:000063b0       _FingerStrokeAssistance_BIOMAP 100483b0     appmappingData.obj
 0002:00006a08       _FingerStrokeAssistance_LBLMAP 10048a08     appmappingData.obj
 0002:00007060       _FingerStrokeAssistance_SIDMAP 10049060     appmappingData.obj
 0002:000076b8       _FingerStrokeAssistance_SBIO 100496b8     appmappingData.obj
 0002:000078d8       _FingerStrokeAssistance_SLBL 100498d8     appmappingData.obj
 0002:00007af8       _FingerStrokeAssistance_PTIDSMAP 10049af8     appmappingData.obj
 0002:00007f20       _FingerStrokeAssistance_PTNAMESMAP 10049f20     appmappingData.obj
 0002:00008348       _FingerStrokeAssistance_SPTMAP 1004a348     appmappingData.obj
 0002:0000855c       _FingerStrokeAssistance_dtmap 1004a55c     appmappingData.obj
 0002:00008590       _appInfo                   1004a590     appmappingData.obj
 0002:00008cb4       ??_C@_0CC@FIFFDAB@?$CFd?5input?5args?5expected?0?5?$CFd?5passe@ 1004acb4     encnipcim.obj
 0002:00008cdc       ??_C@_0BN@JIEFLHEB@?$CFs?3?5Too?5many?5M?5series?5boards?$AA@ 1004acdc     encnipcim.obj
 0002:00008d00       ??_C@_0ED@LKHIFFLC@Wrong?5number?5of?5input?5arguments?5@ 1004ad00     danipcim.obj
 0002:00008d50       ??_C@_0DB@HFHLNKLE@Channel?5?$CFd?5exceeds?5the?5max?5DA?5ch@ 1004ad50     danipcim.obj
 0002:00008d8c       ??_C@_0CL@GCJHHCMG@Output?5range?5?$CFd?5is?5not?5supported@ 1004ad8c     danipcim.obj
 0002:00008dc0       ??_C@_0CI@FOFDKLAN@NI?5?$CFs?3?5Can?8t?5allocate?5temporary?5@ 1004adc0     adnipcim.obj
 0002:00008df0       ??_C@_0CK@PIIIKEIH@NI?5M?5series?3?5Channel?5?$CFf?5out?5of?5r@ 1004adf0     adnipcim.obj
 0002:00008e24       ??_C@_0CF@LKNEFAOG@NI?5M?5series?3?5Timeout?5waiting?5for@ 1004ae24     adnipcim.obj
 0002:00008e50       __real@417312d000000000    1004ae50     adnipcim.obj
 0002:00008e5c       ??_C@_0M@IMCLKBPP@NI?5PCI?96220?$AA@ 1004ae5c     xpcionim.obj
 0002:00008e6c       ??_C@_0M@JFDAJALO@NI?5PCI?96221?$AA@ 1004ae6c     xpcionim.obj
 0002:00008e7c       ??_C@_0P@NGCDCNKM@NI?5PCI?96221?137?$AA@ 1004ae7c     xpcionim.obj
 0002:00008e90       ??_C@_0M@OIEHGEPL@NI?5PCI?96224?$AA@ 1004ae90     xpcionim.obj
 0002:00008ea0       ??_C@_0M@PBFMFFLK@NI?5PCI?96225?$AA@ 1004aea0     xpcionim.obj
 0002:00008eb0       ??_C@_0M@FNOJBKLG@NI?5PCI?96229?$AA@ 1004aeb0     xpcionim.obj
 0002:00008ec0       ??_C@_0M@INOJMLMI@NI?5PCI?96230?$AA@ 1004aec0     xpcionim.obj
 0002:00008ed0       ??_C@_0M@LPNPKJEK@NI?5PCI?96232?$AA@ 1004aed0     xpcionim.obj
 0002:00008ee0       ??_C@_0M@KGMEJIAL@NI?5PCI?96233?$AA@ 1004aee0     xpcionim.obj
 0002:00008ef0       ??_C@_0M@NLLDGMEO@NI?5PCI?96236?$AA@ 1004aef0     xpcionim.obj
 0002:00008f00       ??_C@_0M@EFDAEBMA@NI?5PCI?96238?$AA@ 1004af00     xpcionim.obj
 0002:00008f10       ??_C@_0M@FMCLHAIB@NI?5PCI?96239?$AA@ 1004af10     xpcionim.obj
 0002:00008f20       ??_C@_0M@IJGELHHK@NI?5PCI?96250?$AA@ 1004af20     xpcionim.obj
 0002:00008f30       ??_C@_0M@JAHPIGDL@NI?5PCI?96251?$AA@ 1004af30     xpcionim.obj
 0002:00008f40       ??_C@_0M@ONAIHCHO@NI?5PCI?96254?$AA@ 1004af40     xpcionim.obj
 0002:00008f50       ??_C@_0M@PEBDEDDP@NI?5PCI?96255?$AA@ 1004af50     xpcionim.obj
 0002:00008f60       ??_C@_0M@FIKGAMDD@NI?5PCI?96259?$AA@ 1004af60     xpcionim.obj
 0002:00008f70       ??_C@_0M@IBLMCECJ@NI?5PCI?96280?$AA@ 1004af70     xpcionim.obj
 0002:00008f80       ??_C@_0M@JIKHBFGI@NI?5PCI?96281?$AA@ 1004af80     xpcionim.obj
 0002:00008f90       ??_C@_0M@OFNAOBCN@NI?5PCI?96284?$AA@ 1004af90     xpcionim.obj
 0002:00008fa0       ??_C@_0M@FAHOJPGA@NI?5PCI?96289?$AA@ 1004afa0     xpcionim.obj
 0002:00008fb0       ??_C@_0CI@NFFNBHJA@?$CFs?5?$CIbus?5?$CFd?0?5slot?5?$CFd?$CJ?3?5board?5not?5@ 1004afb0     xpcionim.obj
 0002:00008fe0       ??_C@_0CD@MBDNCLAI@NI?5M?5series?3?5Unknown?5board?5type?5@ 1004afe0     xpcionim.obj
 0002:0000900c       ??_C@_0CC@DMFKNLL@VendorId?5?$DN?50x?$CFx?0?5DeviceId?5?$DN?50x?$CFx@ 1004b00c     xpcruntime:xpcimports.obj
 0002:00009030       ??_C@_0DH@OHCBLNMG@Subsystem?5Device?5ID?5?$DN?50x?$CFx?6Subsy@ 1004b030     xpcruntime:xpcimports.obj
 0002:00009068       ??_C@_0BD@MMMMEFCM@Class?5Code?5?$DN?50x?$CFx?6?$AA@ 1004b068     xpcruntime:xpcimports.obj
 0002:0000907c       ??_C@_0BE@OLDDDNHM@InterruptLine?5?$DN?5?$CFd?6?$AA@ 1004b07c     xpcruntime:xpcimports.obj
 0002:00009090       ??_C@_0BF@OLKLEKBD@bus?5?$DN?5?$CFd?0?5slot?5?$DN?5?$CFd?6?$AA@ 1004b090     xpcruntime:xpcimports.obj
 0002:000090a8       ??_C@_0CE@DGLLGDFH@?5?5?5?5Phys?5?5?5Virtual?5?5?5Length?5IO?1M@ 1004b0a8     xpcruntime:xpcimports.obj
 0002:000090cc       ??_C@_0BI@FEOPLEMG@?$CF08x?5?$CF08x?5?$CF08x?5?5?5?5?5?5?$CFc?6?$AA@ 1004b0cc     xpcruntime:xpcimports.obj
 0002:000090e4       ??_C@_0BB@BNNCEDPC@rl32eScopeExists?$AA@ 1004b0e4     xpcruntime:xpcimports.obj
 0002:000090f8       ??_C@_0BM@FJBFEGFG@rl32eScopeExists?5not?5found?6?$AA@ 1004b0f8     xpcruntime:xpcimports.obj
 0002:00009114       ??_C@_0O@BNNGKJEA@rl32eDefScope?$AA@ 1004b114     xpcruntime:xpcimports.obj
 0002:00009124       ??_C@_0BJ@CDNOENKA@rl32eDefScope?5not?5found?6?$AA@ 1004b124     xpcruntime:xpcimports.obj
 0002:00009140       ??_C@_0P@CKNKILDP@rl32eAddSignal?$AA@ 1004b140     xpcruntime:xpcimports.obj
 0002:00009150       ??_C@_0BK@GMJAJBAI@rl32eAddSignal?5not?5found?6?$AA@ 1004b150     xpcruntime:xpcimports.obj
 0002:0000916c       ??_C@_0BB@LDMIHGCE@rl32eGetSignalNo?$AA@ 1004b16c     xpcruntime:xpcimports.obj
 0002:00009180       ??_C@_0BM@LGAMBAID@rl32eGetSignalNo?5not?5found?6?$AA@ 1004b180     xpcruntime:xpcimports.obj
 0002:0000919c       ??_C@_0O@CFDGALBP@rl32eSetScope?$AA@ 1004b19c     xpcruntime:xpcimports.obj
 0002:000091ac       ??_C@_0BJ@JCLHHIN@rl32eSetScope?5not?5found?6?$AA@ 1004b1ac     xpcruntime:xpcimports.obj
 0002:000091c8       ??_C@_0P@IKMCBMHH@xpceFSScopeSet?$AA@ 1004b1c8     xpcruntime:xpcimports.obj
 0002:000091d8       ??_C@_0BK@JODJPNNH@xpceFSScopeSet?5not?5found?6?$AA@ 1004b1d8     xpcruntime:xpcimports.obj
 0002:000091f4       ??_C@_0BE@DLACEEJM@rl32eSetTargetScope?$AA@ 1004b1f4     xpcruntime:xpcimports.obj
 0002:00009208       ??_C@_0BP@JCHFMKPJ@rl32eSetTargetScope?5not?5found?6?$AA@ 1004b208     xpcruntime:xpcimports.obj
 0002:00009228       ??_C@_0BJ@LIDLNDHC@rl32eSetTargetScopeSigFt?$AA@ 1004b228     xpcruntime:xpcimports.obj
 0002:00009244       ??_C@_0CE@JLGHCFHI@rl32eSetTargetScopeSigFt?5not?5fou@ 1004b244     xpcruntime:xpcimports.obj
 0002:00009268       ??_C@_0BI@JAPOIDNG@rl32eRestartAcquisition?$AA@ 1004b268     xpcruntime:xpcimports.obj
 0002:00009280       ??_C@_0CD@LLBEFFBO@rl32eRestartAcquisition?5not?5foun@ 1004b280     xpcruntime:xpcimports.obj
 0002:000092a4       ??_C@_0P@IEIIADJB@xpceScopeAcqOK?$AA@ 1004b2a4     xpcruntime:xpcimports.obj
 0002:000092b4       ??_C@_0BK@NJCKNFPN@xpceScopeAcqOK?5not?5found?6?$AA@ 1004b2b4     xpcruntime:xpcimports.obj
 0002:000092d0       ??_C@_0BA@IJINKAHF@xpceRegisterISR?$AA@ 1004b2d0     xpcruntime:xpcimports.obj
 0002:000092e0       ??_C@_0BL@NNDLOEJE@xpceRegisterISR?5not?5found?6?$AA@ 1004b2e0     xpcruntime:xpcimports.obj
 0002:000092fc       ??_C@_0BC@NLBADGKF@xpceDeRegisterISR?$AA@ 1004b2fc     xpcruntime:xpcimports.obj
 0002:00009310       ??_C@_0BN@DCAIKFFD@xpceDeRegisterISR?5not?5found?6?$AA@ 1004b310     xpcruntime:xpcimports.obj
 0002:00009330       ??_C@_0P@CPGPNKEB@xpceFTReadTime?$AA@ 1004b330     xpcruntime:xpcimports.obj
 0002:00009340       ??_C@_0BK@NMABIODN@xpceFTReadTime?5not?5found?6?$AA@ 1004b340     xpcruntime:xpcimports.obj
 0002:0000935c       ??_C@_09PHNHCHFH@xpceFTAdd?$AA@ 1004b35c     xpcruntime:xpcimports.obj
 0002:00009368       ??_C@_0BF@FJLEIILA@xpceFTAdd?5not?5found?6?$AA@ 1004b368     xpcruntime:xpcimports.obj
 0002:00009380       ??_C@_0P@KEODBLHO@xpceFTSubtract?$AA@ 1004b380     xpcruntime:xpcimports.obj
 0002:00009390       ??_C@_0BK@HONODOKP@xpceFTSubtract?5not?5found?6?$AA@ 1004b390     xpcruntime:xpcimports.obj
 0002:000093ac       ??_C@_07JPMEPILD@xpcInpB?$AA@ 1004b3ac     xpcruntime:xpcimports.obj
 0002:000093b4       ??_C@_0BD@PGABEJOL@xpcInpB?5not?5found?6?$AA@ 1004b3b4     xpcruntime:xpcimports.obj
 0002:000093c8       ??_C@_07KIHBBOKH@xpcInpW?$AA@ 1004b3c8     xpcruntime:xpcimports.obj
 0002:000093d0       ??_C@_0BD@FPCJFMCC@xpcInpW?5not?5found?6?$AA@ 1004b3d0     xpcruntime:xpcimports.obj
 0002:000093e4       ??_C@_08KDIAJBOP@xpcInpDW?$AA@ 1004b3e4     xpcruntime:xpcimports.obj
 0002:000093f0       ??_C@_0BE@PIELDNIL@xpcInpDW?5not?5found?6?$AA@ 1004b3f0     xpcruntime:xpcimports.obj
 0002:00009404       ??_C@_08PJFMOIGO@xpcOutpB?$AA@ 1004b404     xpcruntime:xpcimports.obj
 0002:00009410       ??_C@_0BE@HCKNCEKF@xpcOutpB?5not?5found?6?$AA@ 1004b410     xpcruntime:xpcimports.obj
 0002:00009424       ??_C@_08MOOJAOHK@xpcOutpW?$AA@ 1004b424     xpcruntime:xpcimports.obj
 0002:00009430       ??_C@_0BE@NLIFDBGM@xpcOutpW?5not?5found?6?$AA@ 1004b430     xpcruntime:xpcimports.obj
 0002:00009444       ??_C@_09FLIEKHJG@xpcOutpDW?$AA@ 1004b444     xpcruntime:xpcimports.obj
 0002:00009450       ??_C@_0BF@GJKLPNHB@xpcOutpDW?5not?5found?6?$AA@ 1004b450     xpcruntime:xpcimports.obj
 0002:00009468       ??_C@_0BH@EHOLELHH@xpcReserveMemoryRegion?$AA@ 1004b468     xpcruntime:xpcimports.obj
 0002:00009480       ??_C@_0CC@KAAAGPI@xpcReserveMemoryRegion?5not?5found@ 1004b480     xpcruntime:xpcimports.obj
 0002:000094a4       ??_C@_0BA@JGPMHGAF@rl32eShowPCIDev?$AA@ 1004b4a4     xpcruntime:xpcimports.obj
 0002:000094b4       ??_C@_0BL@DDFFLNHI@rl32eShowPCIDev?5not?5found?6?$AA@ 1004b4b4     xpcruntime:xpcimports.obj
 0002:000094d0       ??_C@_0BB@KBCOJPFB@rl32eShowPCIInfo?$AA@ 1004b4d0     xpcruntime:xpcimports.obj
 0002:000094e4       ??_C@_0BM@IFDMAGLO@rl32eShowPCIInfo?5not?5found?6?$AA@ 1004b4e4     xpcruntime:xpcimports.obj
 0002:00009500       ??_C@_0BA@BGPAADB@rl32eGetPCIInfo?$AA@ 1004b500     xpcruntime:xpcimports.obj
 0002:00009510       ??_C@_0BL@IGOMLDCK@rl32eGetPCIInfo?5not?5found?6?$AA@ 1004b510     xpcruntime:xpcimports.obj
 0002:0000952c       ??_C@_0BG@NJPFKFDP@rl32eGetPCIInfoAtSlot?$AA@ 1004b52c     xpcruntime:xpcimports.obj
 0002:00009544       ??_C@_0CB@BBKIPMLA@rl32eGetPCIInfoAtSlot?5not?5found?6@ 1004b544     xpcruntime:xpcimports.obj
 0002:00009568       ??_C@_0BH@OKBOPNFG@xpceAssignPCIInterrupt?$AA@ 1004b568     xpcruntime:xpcimports.obj
 0002:00009580       ??_C@_0CC@CDNDNJBJ@xpceAssignPCIInterrupt?5not?5found@ 1004b580     xpcruntime:xpcimports.obj
 0002:000095a4       ??_C@_0BB@FCHHFAAH@rl32eInitCOMPort?$AA@ 1004b5a4     xpcruntime:xpcimports.obj
 0002:000095b8       ??_C@_0BM@DDJGKAHB@rl32eInitCOMPort?5not?5found?6?$AA@ 1004b5b8     xpcruntime:xpcimports.obj
 0002:000095d4       ??_C@_0BC@CHEEFCP@rl32eCloseCOMPort?$AA@ 1004b5d4     xpcruntime:xpcimports.obj
 0002:000095e8       ??_C@_0BN@KCOFELEM@rl32eCloseCOMPort?5not?5found?6?$AA@ 1004b5e8     xpcruntime:xpcimports.obj
 0002:00009608       ??_C@_0O@LLJGKFOG@rl32eSendChar?$AA@ 1004b608     xpcruntime:xpcimports.obj
 0002:00009618       ??_C@_0BJ@JCJKDACJ@rl32eSendChar?5not?5found?6?$AA@ 1004b618     xpcruntime:xpcimports.obj
 0002:00009634       ??_C@_0BB@OMFKCOEK@rl32eReceiveChar?$AA@ 1004b634     xpcruntime:xpcimports.obj
 0002:00009648       ??_C@_0BM@HGAIOAND@rl32eReceiveChar?5not?5found?6?$AA@ 1004b648     xpcruntime:xpcimports.obj
 0002:00009664       ??_C@_0BI@PKEJFHMJ@rl32eReceiveBufferCount?$AA@ 1004b664     xpcruntime:xpcimports.obj
 0002:0000967c       ??_C@_0CD@LNMOFLAH@rl32eReceiveBufferCount?5not?5foun@ 1004b67c     xpcruntime:xpcimports.obj
 0002:000096a0       ??_C@_0BA@CFIJOJPK@rl32eLineStatus?$AA@ 1004b6a0     xpcruntime:xpcimports.obj
 0002:000096b0       ??_C@_0BL@PLIDKKGI@rl32eLineStatus?5not?5found?6?$AA@ 1004b6b0     xpcruntime:xpcimports.obj
 0002:000096cc       ??_C@_0P@MDMKIJF@rl32eSendBlock?$AA@ 1004b6cc     xpcruntime:xpcimports.obj
 0002:000096dc       ??_C@_0BK@KNBNFIKH@rl32eSendBlock?5not?5found?6?$AA@ 1004b6dc     xpcruntime:xpcimports.obj
 0002:000096f8       ??_C@_0BD@PCKOKHO@xpceGetSignalValue?$AA@ 1004b6f8     xpcruntime:xpcimports.obj
 0002:0000970c       ??_C@_0BO@GCBDJHMB@xpceGetSignalValue?5not?5found?6?$AA@ 1004b70c     xpcruntime:xpcimports.obj
 0002:0000972c       ??_C@_0BB@BJONJAGA@xpceSetParameter?$AA@ 1004b72c     xpcruntime:xpcimports.obj
 0002:00009740       ??_C@_0BM@BJIKDLHA@xpceSetParameter?5not?5found?6?$AA@ 1004b740     xpcruntime:xpcimports.obj
 0002:0000975c       ??_C@_0BB@GNFDFMCM@xpceGetParameter?$AA@ 1004b75c     xpcruntime:xpcimports.obj
 0002:00009770       ??_C@_0BM@POHNKBC@xpceGetParameter?5not?5found?6?$AA@ 1004b770     xpcruntime:xpcimports.obj
 0002:0000978c       ??_C@_0BB@CEIJLFCD@xpceGetParamDims?$AA@ 1004b78c     xpcruntime:xpcimports.obj
 0002:000097a0       ??_C@_0BM@OABDBKAO@xpceGetParamDims?5not?5found?6?$AA@ 1004b7a0     xpcruntime:xpcimports.obj
 0002:000097bc       ??_C@_0L@OCBLLHBM@xpceGetTET?$AA@ 1004b7bc     xpcruntime:xpcimports.obj
 0002:000097c8       ??_C@_0BG@HNOFBOB@xpceGetTET?5not?5found?6?$AA@ 1004b7c8     xpcruntime:xpcimports.obj
 0002:000097e0       ??_C@_0BA@FHMIOKFL@xpceUDPOpenSend?$AA@ 1004b7e0     xpcruntime:xpcimports.obj
 0002:000097f0       ??_C@_0BL@HNLPFEK@xpceUDPOpenSend?5not?5found?6?$AA@ 1004b7f0     xpcruntime:xpcimports.obj
 0002:0000980c       ??_C@_0BD@BCELJJJL@xpceUDPOpenReceive?$AA@ 1004b80c     xpcruntime:xpcimports.obj
 0002:00009820       ??_C@_0BO@IFKJBHKC@xpceUDPOpenReceive?5not?5found?6?$AA@ 1004b820     xpcruntime:xpcimports.obj
 0002:00009840       ??_C@_0M@OFPFLJGN@xpceUDPSend?$AA@ 1004b840     xpcruntime:xpcimports.obj
 0002:0000984c       ??_C@_0BH@NOIKLPAB@xpceUDPSend?5not?5found?6?$AA@ 1004b84c     xpcruntime:xpcimports.obj
 0002:00009864       ??_C@_0P@PLFDECIN@xpceUDPReceive?$AA@ 1004b864     xpcruntime:xpcimports.obj
 0002:00009874       ??_C@_0BK@OPJMLDLH@xpceUDPReceive?5not?5found?6?$AA@ 1004b874     xpcruntime:xpcimports.obj
 0002:00009890       ??_C@_0N@IEHPMFME@xpceUDPClose?$AA@ 1004b890     xpcruntime:xpcimports.obj
 0002:000098a0       ??_C@_0BI@FHPFHECO@xpceUDPClose?5not?5found?6?$AA@ 1004b8a0     xpcruntime:xpcimports.obj
 0002:000098b8       ??_C@_0P@OKGNGAGH@xpcIsModelInit?$AA@ 1004b8b8     xpcruntime:xpcimports.obj
 0002:000098c8       ??_C@_0BK@DHEMLBIM@xpcIsModelInit?5not?5found?6?$AA@ 1004b8c8     xpcruntime:xpcimports.obj
 0002:000098e4       ??_C@_0BH@KJJLCAOJ@xpcAllocPhysicalMemory?$AA@ 1004b8e4     xpcruntime:xpcimports.obj
 0002:000098fc       ??_C@_0CC@MOJPNHKL@xpcAllocPhysicalMemory?5not?5found@ 1004b8fc     xpcruntime:xpcimports.obj
 0002:00009920       ??_C@_0BG@CBNPGAEL@xpcFreePhysicalMemory?$AA@ 1004b920     xpcruntime:xpcimports.obj
 0002:00009938       ??_C@_0CB@PKJEBPOG@xpcFreePhysicalMemory?5not?5found?6@ 1004b938     xpcruntime:xpcimports.obj
 0002:0000995c       ??_C@_0BC@JGKNLICL@xpcGetElapsedTime?$AA@ 1004b95c     xpcruntime:xpcimports.obj
 0002:00009970       ??_C@_0BN@OEOAHCIO@xpcGetElapsedTime?5not?5found?6?$AA@ 1004b970     xpcruntime:xpcimports.obj
 0002:00009990       ??_C@_0M@ICBLMODA@xpcBusyWait?$AA@ 1004b990     xpcruntime:xpcimports.obj
 0002:0000999c       ??_C@_0BH@FBOPECBI@xpcBusyWait?5not?5found?6?$AA@ 1004b99c     xpcruntime:xpcimports.obj
 0002:000099b4       ??_C@_0N@LKKJEKKA@TBCreateSpin?$AA@ 1004b9b4     xpcruntime:xpcimports.obj
 0002:000099c4       ??_C@_0BI@FHKMLKOE@TBCreateSpin?5not?5found?6?$AA@ 1004b9c4     xpcruntime:xpcimports.obj
 0002:000099dc       ??_C@_0N@HOAJHNBD@TBDeleteSpin?$AA@ 1004b9dc     xpcruntime:xpcimports.obj
 0002:000099ec       ??_C@_0BI@BKCPAAG@TBDeleteSpin?5not?5found?6?$AA@ 1004b9ec     xpcruntime:xpcimports.obj
 0002:00009a04       ??_C@_0P@DAHDDBJG@TBTakeSpinFast?$AA@ 1004ba04     xpcruntime:xpcimports.obj
 0002:00009a14       ??_C@_0BK@NKAIBHGB@TBTakeSpinFast?5not?5found?6?$AA@ 1004ba14     xpcruntime:xpcimports.obj
 0002:00009a30       ??_C@_0P@FKNAAELA@TBGiveSpinFast?$AA@ 1004ba30     xpcruntime:xpcimports.obj
 0002:00009a40       ??_C@_0BK@KGPJBJND@TBGiveSpinFast?5not?5found?6?$AA@ 1004ba40     xpcruntime:xpcimports.obj
 0002:00009a5c       ??_C@_0BE@IIGBFDHK@xpceCreateSemaphore?$AA@ 1004ba5c     xpcruntime:xpcimports.obj
 0002:00009a70       ??_C@_0BP@KFBAFFKJ@xpceCreateSemaphore?5not?5found?6?$AA@ 1004ba70     xpcruntime:xpcimports.obj
 0002:00009a90       ??_C@_0BC@IFNIONKJ@xpceWaitSemaphore?$AA@ 1004ba90     xpcruntime:xpcimports.obj
 0002:00009aa4       ??_C@_0BN@NMFAADIO@xpceWaitSemaphore?5not?5found?6?$AA@ 1004baa4     xpcruntime:xpcimports.obj
 0002:00009ac4       ??_C@_0BE@NNDIOBKE@xpceSignalSemaphore?$AA@ 1004bac4     xpcruntime:xpcimports.obj
 0002:00009ad8       ??_C@_0BP@LBANMHJP@xpceSignalSemaphore?5not?5found?6?$AA@ 1004bad8     xpcruntime:xpcimports.obj
 0002:00009af8       ??_C@_0BE@MEBEKOIM@xpceDeleteSemaphore?$AA@ 1004baf8     xpcruntime:xpcimports.obj
 0002:00009b0c       ??_C@_0BP@OFNCKOJH@xpceDeleteSemaphore?5not?5found?6?$AA@ 1004bb0c     xpcruntime:xpcimports.obj
 0002:00009b2c       ??_C@_0BD@MFNDMBOF@FindUsbVideoDevice?$AA@ 1004bb2c     xpcruntime:xpcimports.obj
 0002:00009b40       ??_C@_0BO@POKLDHMI@FindUsbVideoDevice?5not?5found?6?$AA@ 1004bb40     xpcruntime:xpcimports.obj
 0002:00009b60       ??_C@_0BA@PLPAPNAB@GetVideoConfigs?$AA@ 1004bb60     xpcruntime:xpcimports.obj
 0002:00009b70       ??_C@_0BL@DALDHKHC@GetVideoConfigs?5not?5found?6?$AA@ 1004bb70     xpcruntime:xpcimports.obj
 0002:00009b8c       ??_C@_0L@GBAEMHMH@StartVideo?$AA@ 1004bb8c     xpcruntime:xpcimports.obj
 0002:00009b98       ??_C@_0BG@HDCELEBP@StartVideo?5not?5found?6?$AA@ 1004bb98     xpcruntime:xpcimports.obj
 0002:00009bb0       ??_C@_0BA@FDNPOCLN@ReadFrameBuffer?$AA@ 1004bbb0     xpcruntime:xpcimports.obj
 0002:00009bc0       ??_C@_0BL@JHGHPNBI@ReadFrameBuffer?5not?5found?6?$AA@ 1004bbc0     xpcruntime:xpcimports.obj
 0002:00009bdc       ??_C@_09FAHCLKAG@StopVideo?$AA@ 1004bbdc     xpcruntime:xpcimports.obj
 0002:00009be8       ??_C@_0BF@NKGKKADL@StopVideo?5not?5found?6?$AA@ 1004bbe8     xpcruntime:xpcimports.obj
 0002:00009c00       ??_C@_0O@MCPKDLLL@ConvertUImage?$AA@ 1004bc00     xpcruntime:xpcimports.obj
 0002:00009c10       ??_C@_0BJ@PHJKOAFL@ConvertUImage?5not?5found?6?$AA@ 1004bc10     xpcruntime:xpcimports.obj
 0002:00009c2c       ??_C@_0BD@NKCBPBJJ@CreateVideoDisplay?$AA@ 1004bc2c     xpcruntime:xpcimports.obj
 0002:00009c40       ??_C@_0BO@HPPLLNFP@CreateVideoDisplay?5not?5found?6?$AA@ 1004bc40     xpcruntime:xpcimports.obj
 0002:00009c60       ??_C@_0BE@KJCKGPHA@DestroyVideoDisplay?$AA@ 1004bc60     xpcruntime:xpcimports.obj
 0002:00009c74       ??_C@_0BP@FMGLJAIJ@DestroyVideoDisplay?5not?5found?6?$AA@ 1004bc74     xpcruntime:xpcimports.obj
 0002:00009c94       ??_C@_0BC@HCMIMIDN@StartVideoDisplay?$AA@ 1004bc94     xpcruntime:xpcimports.obj
 0002:00009ca8       ??_C@_0BN@EFIEBGOO@StartVideoDisplay?5not?5found?6?$AA@ 1004bca8     xpcruntime:xpcimports.obj
 0002:00009cc8       ??_C@_0BB@JBBLMILG@StopVideoDisplay?$AA@ 1004bcc8     xpcruntime:xpcimports.obj
 0002:00009cdc       ??_C@_0BM@DBJBPLEL@StopVideoDisplay?5not?5found?6?$AA@ 1004bcdc     xpcruntime:xpcimports.obj
 0002:00009cf8       ??_C@_0M@MFJEGMHC@StreamVideo?$AA@ 1004bcf8     xpcruntime:xpcimports.obj
 0002:00009d04       ??_C@_0BH@OINCDMLA@StreamVideo?5not?5found?6?$AA@ 1004bd04     xpcruntime:xpcimports.obj
 0002:00009d1c       ??_C@_0N@IGGLCIGE@xpceaddEvent?$AA@ 1004bd1c     xpcruntime:xpcimports.obj
 0002:00009d2c       ??_C@_0BI@NHJNFMKH@xpceaddEvent?5not?5found?6?$AA@ 1004bd2c     xpcruntime:xpcimports.obj
 0002:00009d44       ??_C@_0BB@LCMHHHFN@getMemoryService?$AA@ 1004bd44     xpcruntime:xpcimports.obj
 0002:00009d58       ??_C@_0BM@MPLCNIIE@getMemoryService?5not?5found?6?$AA@ 1004bd58     xpcruntime:xpcimports.obj
 0002:00009d74       ??_C@_0P@KIKONDKK@getCommService?$AA@ 1004bd74     xpcruntime:xpcimports.obj
 0002:00009d84       ??_C@_0BK@NCECBKNM@getCommService?5not?5found?6?$AA@ 1004bd84     xpcruntime:xpcimports.obj
 0002:00009da0       ??_C@_0P@GDLHFECE@getStatusFlags?$AA@ 1004bda0     xpcruntime:xpcimports.obj
 0002:00009db0       ??_C@_0BK@NEKDLJHG@getStatusFlags?5not?5found?6?$AA@ 1004bdb0     xpcruntime:xpcimports.obj
 0002:00009dcc       ??_C@_0BL@CDFCLKOL@startToAsyncQueueTgtAppSvc?$AA@ 1004bdcc     xpcruntime:xpcimports.obj
 0002:00009de8       ??_C@_0CG@JGOFFKEL@startToAsyncQueueTgtAppSvc?5not?5f@ 1004bde8     xpcruntime:xpcimports.obj
 0002:00009e10       ??_C@_0BP@IJNGPPPE@terminateToAsyncQueueTgtAppSvc?$AA@ 1004be10     xpcruntime:xpcimports.obj
 0002:00009e30       ??_C@_0CK@NDEMAMKF@terminateToAsyncQueueTgtAppSvc?5n@ 1004be30     xpcruntime:xpcimports.obj
 0002:00009e5c       ??_C@_0BK@IDACEHAO@sendToAsyncQueueTgtAppSvc?$AA@ 1004be5c     xpcruntime:xpcimports.obj
 0002:00009e78       ??_C@_0CF@PNCKPEHN@sendToAsyncQueueTgtAppSvc?5not?5fo@ 1004be78     xpcruntime:xpcimports.obj
 0002:00009ea0       ??_C@_0BN@HJOHIFOM@xpceGetIntTimerGranularityNS?$AA@ 1004bea0     xpcruntime:xpcimports.obj
 0002:00009ec0       ??_C@_0CI@OADDPMKB@xpceGetIntTimerGranularityNS?5not@ 1004bec0     xpcruntime:xpcimports.obj
 0002:00009ee8       ??_C@_0BG@CCHICKPN@slrteSetStepSizeDelta?$AA@ 1004bee8     xpcruntime:xpcimports.obj
 0002:00009f00       ??_C@_0CB@MKHINEIJ@slrteSetStepSizeDelta?5not?5found?6@ 1004bf00     xpcruntime:xpcimports.obj
 0002:00009f24       ??_C@_0BI@CLNBLDKJ@slrteGetCurrentStepSize?$AA@ 1004bf24     xpcruntime:xpcimports.obj
 0002:00009f3c       ??_C@_0CD@GIOJPGJA@slrteGetCurrentStepSize?5not?5foun@ 1004bf3c     xpcruntime:xpcimports.obj
 0002:00009f60       ??_C@_0BE@FCLCBOC@registerPTPTimeRead?$AA@ 1004bf60     xpcruntime:xpcimports.obj
 0002:00009f74       ??_C@_0BP@LHPKAJIP@registerPTPTimeRead?5not?5found?6?$AA@ 1004bf74     xpcruntime:xpcimports.obj
 0002:00009f94       ??_C@_0BG@KIGCDDJI@unRegisterPTPTimeRead?$AA@ 1004bf94     xpcruntime:xpcimports.obj
 0002:00009fac       ??_C@_0CB@MLFFBFCM@unRegisterPTPTimeRead?5not?5found?6@ 1004bfac     xpcruntime:xpcimports.obj
 0002:00009fd0       ??_C@_0BB@IPMDDBHK@slTestInitialize?$AA@ 1004bfd0     xpcruntime:xpcimports.obj
 0002:00009fe4       ??_C@_0BM@LAJFCCJH@slTestInitialize?5not?5found?6?$AA@ 1004bfe4     xpcruntime:xpcimports.obj
 0002:0000a000       ??_C@_0BF@OOMPMEBC@slTestLogAssessments?$AA@ 1004c000     xpcruntime:xpcimports.obj
 0002:0000a018       ??_C@_0CA@FGJCEBAG@slTestLogAssessments?5not?5found?6?$AA@ 1004c018     xpcruntime:xpcimports.obj
 0002:0000a038       ??_C@_0BB@HJHKONHO@slTestEvalOnFail?$AA@ 1004c038     xpcruntime:xpcimports.obj
 0002:0000a04c       ??_C@_0BM@JIKCFFNJ@slTestEvalOnFail?5not?5found?6?$AA@ 1004c04c     xpcruntime:xpcimports.obj
 0002:0000a068       ??_C@_0BA@LBHLABFP@slTestTerminate?$AA@ 1004c068     xpcruntime:xpcimports.obj
 0002:0000a078       ??_C@_0BL@EMFGKAPA@slTestTerminate?5not?5found?6?$AA@ 1004c078     xpcruntime:xpcimports.obj
 0002:0000a094       ??_C@_0BE@JPNPBBEO@slTestRegAssessment?$AA@ 1004c094     xpcruntime:xpcimports.obj
 0002:0000a0a8       ??_C@_0BP@FBDEJJJH@slTestRegAssessment?5not?5found?6?$AA@ 1004c0a8     xpcruntime:xpcimports.obj
 0002:0000da38       __FPinit                   1004fa38     LIBCMT:fpinit.obj
 0002:0000da44       ??_C@_1BI@BGOHAHKC@?$AAm?$AAs?$AAc?$AAo?$AAr?$AAe?$AAe?$AA?4?$AAd?$AAl?$AAl?$AA?$AA@ 1004fa44     LIBCMT:crt0dat.obj
 0002:0000da5c       ??_C@_0P@MIGLKIOC@CorExitProcess?$AA@ 1004fa5c     LIBCMT:crt0dat.obj
 0002:0000daf4       ??_C@_17LGKOMLJ@?$AA?4?$AA?4?$AA?4?$AA?$AA@ 1004faf4     LIBCMT:wassert.obj
 0002:0000dafc       ??_C@_13LBAGMAIH@?$AA?6?$AA?$AA@ 1004fafc     LIBCMT:wassert.obj
 0002:0000db00       ??_C@_15IABLJNFO@?$AA?6?$AA?6?$AA?$AA@ 1004fb00     LIBCMT:wassert.obj
 0002:0000db08       ??_C@_1CE@OJBNHDMO@?$AAA?$AAs?$AAs?$AAe?$AAr?$AAt?$AAi?$AAo?$AAn?$AA?5?$AAf?$AAa?$AAi?$AAl?$AAe?$AAd?$AA?$CB?$AA?$AA@ 1004fb08     LIBCMT:wassert.obj
 0002:0000db2c       ??_C@_1BE@PHKBBGE@?$AAP?$AAr?$AAo?$AAg?$AAr?$AAa?$AAm?$AA?3?$AA?5?$AA?$AA@ 1004fb2c     LIBCMT:wassert.obj
 0002:0000db40       ??_C@_1CO@EAEJAADC@?$AA?$DM?$AAp?$AAr?$AAo?$AAg?$AAr?$AAa?$AAm?$AA?5?$AAn?$AAa?$AAm?$AAe?$AA?5?$AAu?$AAn?$AAk?$AAn?$AAo?$AAw?$AAn?$AA?$DO?$AA?$AA@ 1004fb40     LIBCMT:wassert.obj
 0002:0000db70       ??_C@_1O@HEMHKNDC@?$AAF?$AAi?$AAl?$AAe?$AA?3?$AA?5?$AA?$AA@ 1004fb70     LIBCMT:wassert.obj
 0002:0000db80       ??_C@_1O@KCAFKHJE@?$AAL?$AAi?$AAn?$AAe?$AA?3?$AA?5?$AA?$AA@ 1004fb80     LIBCMT:wassert.obj
 0002:0000db90       ??_C@_1BK@PEDCIPMA@?$AAE?$AAx?$AAp?$AAr?$AAe?$AAs?$AAs?$AAi?$AAo?$AAn?$AA?3?$AA?5?$AA?$AA@ 1004fb90     LIBCMT:wassert.obj
 0002:0000dbb0       ??_C@_1OA@EGMLFBHJ@?$AAF?$AAo?$AAr?$AA?5?$AAi?$AAn?$AAf?$AAo?$AAr?$AAm?$AAa?$AAt?$AAi?$AAo?$AAn?$AA?5?$AAo?$AAn?$AA?5?$AAh?$AAo?$AAw?$AA?5?$AAy?$AAo?$AAu?$AAr?$AA?5?$AAp?$AAr?$AAo?$AAg@ 1004fbb0     LIBCMT:wassert.obj
 0002:0000dc90       ??_C@_1HK@POCJMFGK@?$AA?$CI?$AAP?$AAr?$AAe?$AAs?$AAs?$AA?5?$AAR?$AAe?$AAt?$AAr?$AAy?$AA?5?$AAt?$AAo?$AA?5?$AAd?$AAe?$AAb?$AAu?$AAg?$AA?5?$AAt?$AAh?$AAe?$AA?5?$AAa?$AAp?$AAp?$AAl?$AAi?$AAc@ 1004fc90     LIBCMT:wassert.obj
 0002:0000dd10       ??_C@_1EK@MBDPDCGA@?$AAM?$AAi?$AAc?$AAr?$AAo?$AAs?$AAo?$AAf?$AAt?$AA?5?$AAV?$AAi?$AAs?$AAu?$AAa?$AAl?$AA?5?$AAC?$AA?$CL?$AA?$CL?$AA?5?$AAR?$AAu?$AAn?$AAt?$AAi?$AAm?$AAe?$AA?5?$AAL?$AAi?$AAb@ 1004fd10     LIBCMT:wassert.obj
 0002:0000dd5c       __pRawDllMain              1004fd5c     LIBCMT:dllcrt0.obj
 0002:0000dd5c       __pDefaultRawDllMain       1004fd5c     LIBCMT:dllcrt0.obj
 0002:0000dd60       ?ProcessDetach@NativeDll@<CrtImplementationDetails>@@0IB 1004fd60     LIBCMT:handler.obj
 0002:0000dd64       ?ProcessAttach@NativeDll@<CrtImplementationDetails>@@0IB 1004fd64     LIBCMT:handler.obj
 0002:0000dd68       ?ThreadAttach@NativeDll@<CrtImplementationDetails>@@0IB 1004fd68     LIBCMT:handler.obj
 0002:0000dd6c       ?ThreadDetach@NativeDll@<CrtImplementationDetails>@@0IB 1004fd6c     LIBCMT:handler.obj
 0002:0000dd70       ?ProcessVerifier@NativeDll@<CrtImplementationDetails>@@0IB 1004fd70     LIBCMT:handler.obj
 0002:0000de30       ??_C@_1FK@PGACCAFB@?$AAR?$AA6?$AA0?$AA0?$AA2?$AA?$AN?$AA?6?$AA?9?$AA?5?$AAf?$AAl?$AAo?$AAa?$AAt?$AAi?$AAn?$AAg?$AA?5?$AAp?$AAo?$AAi?$AAn?$AAt?$AA?5?$AAs?$AAu?$AAp?$AAp?$AAo?$AAr?$AAt?$AA?5@ 1004fe30     LIBCMT:crt0msg.obj
 0002:0000de90       ??_C@_1FE@LLNEDJMD@?$AAR?$AA6?$AA0?$AA0?$AA8?$AA?$AN?$AA?6?$AA?9?$AA?5?$AAn?$AAo?$AAt?$AA?5?$AAe?$AAn?$AAo?$AAu?$AAg?$AAh?$AA?5?$AAs?$AAp?$AAa?$AAc?$AAe?$AA?5?$AAf?$AAo?$AAr?$AA?5?$AAa?$AAr@ 1004fe90     LIBCMT:crt0msg.obj
 0002:0000dee8       ??_C@_1FI@HONFMGBI@?$AAR?$AA6?$AA0?$AA0?$AA9?$AA?$AN?$AA?6?$AA?9?$AA?5?$AAn?$AAo?$AAt?$AA?5?$AAe?$AAn?$AAo?$AAu?$AAg?$AAh?$AA?5?$AAs?$AAp?$AAa?$AAc?$AAe?$AA?5?$AAf?$AAo?$AAr?$AA?5?$AAe?$AAn@ 1004fee8     LIBCMT:crt0msg.obj
 0002:0000df40       ??_C@_1EG@BEHAGFJD@?$AAR?$AA6?$AA0?$AA1?$AA0?$AA?$AN?$AA?6?$AA?9?$AA?5?$AAa?$AAb?$AAo?$AAr?$AAt?$AA?$CI?$AA?$CJ?$AA?5?$AAh?$AAa?$AAs?$AA?5?$AAb?$AAe?$AAe?$AAn?$AA?5?$AAc?$AAa?$AAl?$AAl?$AAe?$AAd@ 1004ff40     LIBCMT:crt0msg.obj
 0002:0000df88       ??_C@_1FI@LOGNIKDM@?$AAR?$AA6?$AA0?$AA1?$AA6?$AA?$AN?$AA?6?$AA?9?$AA?5?$AAn?$AAo?$AAt?$AA?5?$AAe?$AAn?$AAo?$AAu?$AAg?$AAh?$AA?5?$AAs?$AAp?$AAa?$AAc?$AAe?$AA?5?$AAf?$AAo?$AAr?$AA?5?$AAt?$AAh@ 1004ff88     LIBCMT:crt0msg.obj
 0002:0000dfe0       ??_C@_1FK@BEOGODMC@?$AAR?$AA6?$AA0?$AA1?$AA7?$AA?$AN?$AA?6?$AA?9?$AA?5?$AAu?$AAn?$AAe?$AAx?$AAp?$AAe?$AAc?$AAt?$AAe?$AAd?$AA?5?$AAm?$AAu?$AAl?$AAt?$AAi?$AAt?$AAh?$AAr?$AAe?$AAa?$AAd?$AA?5@ 1004ffe0     LIBCMT:crt0msg.obj
 0002:0000e040       ??_C@_1EC@JIBHAOPH@?$AAR?$AA6?$AA0?$AA1?$AA8?$AA?$AN?$AA?6?$AA?9?$AA?5?$AAu?$AAn?$AAe?$AAx?$AAp?$AAe?$AAc?$AAt?$AAe?$AAd?$AA?5?$AAh?$AAe?$AAa?$AAp?$AA?5?$AAe?$AAr?$AAr?$AAo?$AAr?$AA?$AN?$AA?6@ 10050040     LIBCMT:crt0msg.obj
 0002:0000e088       ??_C@_1FC@ECHBIFBC@?$AAR?$AA6?$AA0?$AA1?$AA9?$AA?$AN?$AA?6?$AA?9?$AA?5?$AAu?$AAn?$AAa?$AAb?$AAl?$AAe?$AA?5?$AAt?$AAo?$AA?5?$AAo?$AAp?$AAe?$AAn?$AA?5?$AAc?$AAo?$AAn?$AAs?$AAo?$AAl?$AAe?$AA?5@ 10050088     LIBCMT:crt0msg.obj
 0002:0000e0e0       ??_C@_1GK@FHCKBEFA@?$AAR?$AA6?$AA0?$AA2?$AA4?$AA?$AN?$AA?6?$AA?9?$AA?5?$AAn?$AAo?$AAt?$AA?5?$AAe?$AAn?$AAo?$AAu?$AAg?$AAh?$AA?5?$AAs?$AAp?$AAa?$AAc?$AAe?$AA?5?$AAf?$AAo?$AAr?$AA?5?$AA_?$AAo@ 100500e0     LIBCMT:crt0msg.obj
 0002:0000e150       ??_C@_1EM@MAADIHMB@?$AAR?$AA6?$AA0?$AA2?$AA5?$AA?$AN?$AA?6?$AA?9?$AA?5?$AAp?$AAu?$AAr?$AAe?$AA?5?$AAv?$AAi?$AAr?$AAt?$AAu?$AAa?$AAl?$AA?5?$AAf?$AAu?$AAn?$AAc?$AAt?$AAi?$AAo?$AAn?$AA?5?$AAc@ 10050150     LIBCMT:crt0msg.obj
 0002:0000e1a0       ??_C@_1GK@MCAAGJMO@?$AAR?$AA6?$AA0?$AA2?$AA6?$AA?$AN?$AA?6?$AA?9?$AA?5?$AAn?$AAo?$AAt?$AA?5?$AAe?$AAn?$AAo?$AAu?$AAg?$AAh?$AA?5?$AAs?$AAp?$AAa?$AAc?$AAe?$AA?5?$AAf?$AAo?$AAr?$AA?5?$AAs?$AAt@ 100501a0     LIBCMT:crt0msg.obj
 0002:0000e210       ??_C@_1GK@MFGOKLAG@?$AAR?$AA6?$AA0?$AA2?$AA7?$AA?$AN?$AA?6?$AA?9?$AA?5?$AAn?$AAo?$AAt?$AA?5?$AAe?$AAn?$AAo?$AAu?$AAg?$AAh?$AA?5?$AAs?$AAp?$AAa?$AAc?$AAe?$AA?5?$AAf?$AAo?$AAr?$AA?5?$AAl?$AAo@ 10050210     LIBCMT:crt0msg.obj
 0002:0000e280       ??_C@_1EK@HHFLMAOL@?$AAR?$AA6?$AA0?$AA2?$AA8?$AA?$AN?$AA?6?$AA?9?$AA?5?$AAu?$AAn?$AAa?$AAb?$AAl?$AAe?$AA?5?$AAt?$AAo?$AA?5?$AAi?$AAn?$AAi?$AAt?$AAi?$AAa?$AAl?$AAi?$AAz?$AAe?$AA?5?$AAh?$AAe@ 10050280     LIBCMT:crt0msg.obj
 0002:0000e2cc       ??_C@_1DO@BMFCDCD@?$AAR?$AA6?$AA0?$AA3?$AA0?$AA?$AN?$AA?6?$AA?9?$AA?5?$AAC?$AAR?$AAT?$AA?5?$AAn?$AAo?$AAt?$AA?5?$AAi?$AAn?$AAi?$AAt?$AAi?$AAa?$AAl?$AAi?$AAz?$AAe?$AAd?$AA?$AN?$AA?6?$AA?$AA@ 100502cc     LIBCMT:crt0msg.obj
 0002:0000e310       ??_C@_1MG@ENCOOIDF@?$AAR?$AA6?$AA0?$AA3?$AA1?$AA?$AN?$AA?6?$AA?9?$AA?5?$AAA?$AAt?$AAt?$AAe?$AAm?$AAp?$AAt?$AA?5?$AAt?$AAo?$AA?5?$AAi?$AAn?$AAi?$AAt?$AAi?$AAa?$AAl?$AAi?$AAz?$AAe?$AA?5?$AAt@ 10050310     LIBCMT:crt0msg.obj
 0002:0000e3d8       ??_C@_1GG@GOPILAJP@?$AAR?$AA6?$AA0?$AA3?$AA2?$AA?$AN?$AA?6?$AA?9?$AA?5?$AAn?$AAo?$AAt?$AA?5?$AAe?$AAn?$AAo?$AAu?$AAg?$AAh?$AA?5?$AAs?$AAp?$AAa?$AAc?$AAe?$AA?5?$AAf?$AAo?$AAr?$AA?5?$AAl?$AAo@ 100503d8     LIBCMT:crt0msg.obj
 0002:0000e440       ??_C@_1BOO@KGEDBGAJ@?$AAR?$AA6?$AA0?$AA3?$AA3?$AA?$AN?$AA?6?$AA?9?$AA?5?$AAA?$AAt?$AAt?$AAe?$AAm?$AAp?$AAt?$AA?5?$AAt?$AAo?$AA?5?$AAu?$AAs?$AAe?$AA?5?$AAM?$AAS?$AAI?$AAL?$AA?5?$AAc?$AAo?$AAd@ 10050440     LIBCMT:crt0msg.obj
 0002:0000e630       ??_C@_1GG@MKFPEKFO@?$AAR?$AA6?$AA0?$AA3?$AA4?$AA?$AN?$AA?6?$AA?9?$AA?5?$AAi?$AAn?$AAc?$AAo?$AAn?$AAs?$AAi?$AAs?$AAt?$AAe?$AAn?$AAt?$AA?5?$AAo?$AAn?$AAe?$AAx?$AAi?$AAt?$AA?5?$AAb?$AAe?$AAg@ 10050630     LIBCMT:crt0msg.obj
 0002:0000e698       ??_C@_1BO@BFCDCGC@?$AAD?$AAO?$AAM?$AAA?$AAI?$AAN?$AA?5?$AAe?$AAr?$AAr?$AAo?$AAr?$AA?$AN?$AA?6?$AA?$AA@ 10050698     LIBCMT:crt0msg.obj
 0002:0000e6b8       ??_C@_1BK@KMOMNAAI@?$AAS?$AAI?$AAN?$AAG?$AA?5?$AAe?$AAr?$AAr?$AAo?$AAr?$AA?$AN?$AA?6?$AA?$AA@ 100506b8     LIBCMT:crt0msg.obj
 0002:0000e6d4       ??_C@_1BM@JBBEPPHI@?$AAT?$AAL?$AAO?$AAS?$AAS?$AA?5?$AAe?$AAr?$AAr?$AAo?$AAr?$AA?$AN?$AA?6?$AA?$AA@ 100506d4     LIBCMT:crt0msg.obj
 0002:0000e6f0       ??_C@_15JNBOKNOG@?$AA?$AN?$AA?6?$AA?$AA@ 100506f0     LIBCMT:crt0msg.obj
 0002:0000e6f8       ??_C@_1BO@BKOMIGKJ@?$AAr?$AAu?$AAn?$AAt?$AAi?$AAm?$AAe?$AA?5?$AAe?$AAr?$AAr?$AAo?$AAr?$AA?5?$AA?$AA@ 100506f8     LIBCMT:crt0msg.obj
 0002:0000e718       ??_C@_1DE@JNGNBFGO@?$AAR?$AAu?$AAn?$AAt?$AAi?$AAm?$AAe?$AA?5?$AAE?$AAr?$AAr?$AAo?$AAr?$AA?$CB?$AA?6?$AA?6?$AAP?$AAr?$AAo?$AAg?$AAr?$AAa?$AAm?$AA?3?$AA?5?$AA?$AA@ 10050718     LIBCMT:crt0msg.obj
 0002:0000e74c       ??_C@_06OJHGLDPL@?$CInull?$CJ?$AA@ 1005074c     LIBCMT:output.obj
 0002:0000e754       ??_C@_1O@CEDCILHN@?$AA?$CI?$AAn?$AAu?$AAl?$AAl?$AA?$CJ?$AA?$AA@ 10050754     LIBCMT:output.obj
 0002:0000e768       ___lookuptable             10050768     LIBCMT:output.obj
 0002:0000e830       ??_C@_03MGHMBJCF@log?$AA@  10050830     LIBCMT:libm_error.obj
 0002:0000e834       ??_C@_05HGHHAHAP@log10?$AA@ 10050834     LIBCMT:libm_error.obj
 0002:0000e83c       ??_C@_03KHJOGHMM@exp?$AA@  1005083c     LIBCMT:libm_error.obj
 0002:0000e840       ??_C@_03JGHBODFD@pow?$AA@  10050840     LIBCMT:libm_error.obj
 0002:0000e844       ??_C@_04FIHNOPOL@asin?$AA@ 10050844     LIBCMT:libm_error.obj
 0002:0000e84c       ??_C@_04PDIFKINK@acos?$AA@ 1005084c     LIBCMT:libm_error.obj
 0002:0000e854       ??_C@_05EOHGHCHD@exp10?$AA@ 10050854     LIBCMT:libm_error.obj
 0002:0000e85c       ??_C@_04MLLJIGOK@atan?$AA@ 1005085c     LIBCMT:libm_error.obj
 0002:0000e864       ??_C@_04GFPJNGEK@ceil?$AA@ 10050864     LIBCMT:libm_error.obj
 0002:0000e86c       ??_C@_05PBJFFIGL@floor?$AA@ 1005086c     LIBCMT:libm_error.obj
 0002:0000e874       ??_C@_04EHEDPDJG@modf?$AA@ 10050874     LIBCMT:libm_error.obj
 0002:0000e87c       ??_C@_03BLEJJJBH@sin?$AA@  1005087c     LIBCMT:libm_error.obj
 0002:0000e880       ??_C@_03LALBNOCG@cos?$AA@  10050880     LIBCMT:libm_error.obj
 0002:0000e884       ??_C@_03IIINPABG@tan?$AA@  10050884     LIBCMT:libm_error.obj
 0002:0000e888       ??_C@_04EIAKFFMI@sqrt?$AA@ 10050888     LIBCMT:libm_error.obj
 0002:0000e890       ??_C@_05KLBDPFGC@e?$CL000?$AA@ 10050890     LIBCMT:cvt.obj
 0002:0000e898       ??_C@_1BK@MGMFAEKH@?$AAk?$AAe?$AAr?$AAn?$AAe?$AAl?$AA3?$AA2?$AA?4?$AAd?$AAl?$AAl?$AA?$AA@ 10050898     LIBCMT:winapisupp.obj
 0002:0000e8b4       ??_C@_08KNHFBNJ@FlsAlloc?$AA@ 100508b4     LIBCMT:winapisupp.obj
 0002:0000e8c0       ??_C@_07PEJMOBNF@FlsFree?$AA@ 100508c0     LIBCMT:winapisupp.obj
 0002:0000e8c8       ??_C@_0M@GDNOONDI@FlsGetValue?$AA@ 100508c8     LIBCMT:winapisupp.obj
 0002:0000e8d4       ??_C@_0M@JCPCPOEF@FlsSetValue?$AA@ 100508d4     LIBCMT:winapisupp.obj
 0002:0000e8e0       ??_C@_0BM@HCFOFFN@InitializeCriticalSectionEx?$AA@ 100508e0     LIBCMT:winapisupp.obj
 0002:0000e8fc       ??_C@_0P@DLHPPCNH@CreateEventExW?$AA@ 100508fc     LIBCMT:winapisupp.obj
 0002:0000e90c       ??_C@_0BD@KIEEOEEH@CreateSemaphoreExW?$AA@ 1005090c     LIBCMT:winapisupp.obj
 0002:0000e920       ??_C@_0BI@BKLFFAPO@SetThreadStackGuarantee?$AA@ 10050920     LIBCMT:winapisupp.obj
 0002:0000e938       ??_C@_0BG@OGFAJCKC@CreateThreadpoolTimer?$AA@ 10050938     LIBCMT:winapisupp.obj
 0002:0000e950       ??_C@_0BD@LPLEMMDI@SetThreadpoolTimer?$AA@ 10050950     LIBCMT:winapisupp.obj
 0002:0000e964       ??_C@_0CA@FMNJENH@WaitForThreadpoolTimerCallbacks?$AA@ 10050964     LIBCMT:winapisupp.obj
 0002:0000e984       ??_C@_0BF@DCFCCNOC@CloseThreadpoolTimer?$AA@ 10050984     LIBCMT:winapisupp.obj
 0002:0000e99c       ??_C@_0BF@FLABGKKM@CreateThreadpoolWait?$AA@ 1005099c     LIBCMT:winapisupp.obj
 0002:0000e9b4       ??_C@_0BC@MGCOHNA@SetThreadpoolWait?$AA@ 100509b4     LIBCMT:winapisupp.obj
 0002:0000e9c8       ??_C@_0BE@OCIOMIMP@CloseThreadpoolWait?$AA@ 100509c8     LIBCMT:winapisupp.obj
 0002:0000e9dc       ??_C@_0BJ@LKGHFHBO@FlushProcessWriteBuffers?$AA@ 100509dc     LIBCMT:winapisupp.obj
 0002:0000e9f8       ??_C@_0BP@KALKKPMO@FreeLibraryWhenCallbackReturns?$AA@ 100509f8     LIBCMT:winapisupp.obj
 0002:0000ea18       ??_C@_0BK@DFNBACLA@GetCurrentProcessorNumber?$AA@ 10050a18     LIBCMT:winapisupp.obj
 0002:0000ea34       ??_C@_0BP@KHGALBC@GetLogicalProcessorInformation?$AA@ 10050a34     LIBCMT:winapisupp.obj
 0002:0000ea54       ??_C@_0BE@FKKLLFLM@CreateSymbolicLinkW?$AA@ 10050a54     LIBCMT:winapisupp.obj
 0002:0000ea68       ??_C@_0BJ@OHNKDLIJ@SetDefaultDllDirectories?$AA@ 10050a68     LIBCMT:winapisupp.obj
 0002:0000ea84       ??_C@_0BE@LJANKFHF@EnumSystemLocalesEx?$AA@ 10050a84     LIBCMT:winapisupp.obj
 0002:0000ea98       ??_C@_0BA@IHGNDAEB@CompareStringEx?$AA@ 10050a98     LIBCMT:winapisupp.obj
 0002:0000eaa8       ??_C@_0BA@EPCJIIPD@GetDateFormatEx?$AA@ 10050aa8     LIBCMT:winapisupp.obj
 0002:0000eab8       ??_C@_0BA@ONOKGCMP@GetLocaleInfoEx?$AA@ 10050ab8     LIBCMT:winapisupp.obj
 0002:0000eac8       ??_C@_0BA@CIJJKCJJ@GetTimeFormatEx?$AA@ 10050ac8     LIBCMT:winapisupp.obj
 0002:0000ead8       ??_C@_0BJ@PBCCBIPI@GetUserDefaultLocaleName?$AA@ 10050ad8     LIBCMT:winapisupp.obj
 0002:0000eaf4       ??_C@_0BC@CELBKLLA@IsValidLocaleName?$AA@ 10050af4     LIBCMT:winapisupp.obj
 0002:0000eb08       ??_C@_0O@KKBNKAPF@LCMapStringEx?$AA@ 10050b08     LIBCMT:winapisupp.obj
 0002:0000eb18       ??_C@_0BE@JOGNEJCI@GetCurrentPackageId?$AA@ 10050b18     LIBCMT:winapisupp.obj
 0002:0000eb2c       ??_C@_0P@CDHHOHKP@GetTickCount64?$AA@ 10050b2c     LIBCMT:winapisupp.obj
 0002:0000eb3c       ??_C@_0BO@KPCLFDJJ@GetFileInformationByHandleExW?$AA@ 10050b3c     LIBCMT:winapisupp.obj
 0002:0000eb5c       ??_C@_0BM@MHIDLABK@SetFileInformationByHandleW?$AA@ 10050b5c     LIBCMT:winapisupp.obj
 0002:0000eb78       ??_C@_1BK@GAEMIDIL@?$AAA?$AAD?$AAV?$AAA?$AAP?$AAI?$AA3?$AA2?$AA?4?$AAD?$AAL?$AAL?$AA?$AA@ 10050b78     LIBCMT:rand_s.obj
 0002:0000eb94       ??_C@_0BC@JEAENNKH@SystemFunction036?$AA@ 10050b94     LIBCMT:rand_s.obj
 0002:0000ebb8       ??_C@_1M@HPNHIDJI@?$AAj?$AAa?$AA?9?$AAJ?$AAP?$AA?$AA@ 10050bb8     LIBCMT:mbctype.obj
 0002:0000ebc4       ??_C@_1M@BIBDDEMK@?$AAz?$AAh?$AA?9?$AAC?$AAN?$AA?$AA@ 10050bc4     LIBCMT:mbctype.obj
 0002:0000ebd0       ??_C@_1M@JLOOOEGK@?$AAk?$AAo?$AA?9?$AAK?$AAR?$AA?$AA@ 10050bd0     LIBCMT:mbctype.obj
 0002:0000ebdc       ??_C@_1M@CLNBBOPM@?$AAz?$AAh?$AA?9?$AAT?$AAW?$AA?$AA@ 10050bdc     LIBCMT:mbctype.obj
 0002:0000ec08       ??_C@_04FJHINJAO@tanh?$AA@ 10050c08     LIBCMT:fpexcept.obj
 0002:0000ec10       ??_C@_05KNGEOGJB@atan2?$AA@ 10050c10     LIBCMT:fpexcept.obj
 0002:0000ec18       ??_C@_04ODHECPBC@fabs?$AA@ 10050c18     LIBCMT:fpexcept.obj
 0002:0000ec20       ??_C@_05CEJMAHNP@ldexp?$AA@ 10050c20     LIBCMT:fpexcept.obj
 0002:0000ec28       ??_C@_05KBKMEMPO@_cabs?$AA@ 10050c28     LIBCMT:fpexcept.obj
 0002:0000ec30       ??_C@_06MEIMCGCF@_hypot?$AA@ 10050c30     LIBCMT:fpexcept.obj
 0002:0000ec38       ??_C@_04KEPJIHGP@fmod?$AA@ 10050c38     LIBCMT:fpexcept.obj
 0002:0000ec40       ??_C@_05GKKHEGJL@frexp?$AA@ 10050c40     LIBCMT:fpexcept.obj
 0002:0000ec48       ??_C@_03MJLDFKDL@_y0?$AA@  10050c48     LIBCMT:fpexcept.obj
 0002:0000ec4c       ??_C@_03NAKIGLHK@_y1?$AA@  10050c4c     LIBCMT:fpexcept.obj
 0002:0000ec50       ??_C@_03ONILCKOB@_yn?$AA@  10050c50     LIBCMT:fpexcept.obj
 0002:0000ec54       ??_C@_05JGDBENOH@_logb?$AA@ 10050c54     LIBCMT:fpexcept.obj
 0002:0000ec5c       ??_C@_0L@KDOEJCKC@_nextafter?$AA@ 10050c5c     LIBCMT:fpexcept.obj
 0002:0000ec68       ??_C@_04COOMCNPB@sinh?$AA@ 10050c68     LIBCMT:fpexcept.obj
 0002:0000ec70       ??_C@_04HPJJNFIM@cosh?$AA@ 10050c70     LIBCMT:fpexcept.obj
 0002:0000ec78       ??_C@_1BG@GOEBHBDC@?$AAU?$AAS?$AAE?$AAR?$AA3?$AA2?$AA?4?$AAD?$AAL?$AAL?$AA?$AA@ 10050c78     LIBCMT:crtmboxw.obj
 0002:0000ec90       ??_C@_0M@DLDCCGNP@MessageBoxW?$AA@ 10050c90     LIBCMT:crtmboxw.obj
 0002:0000ec9c       ??_C@_0BA@HNOPNCHB@GetActiveWindow?$AA@ 10050c9c     LIBCMT:crtmboxw.obj
 0002:0000ecac       ??_C@_0BD@HHGDFDBJ@GetLastActivePopup?$AA@ 10050cac     LIBCMT:crtmboxw.obj
 0002:0000ecc0       ??_C@_0BK@DEKFELLI@GetUserObjectInformationW?$AA@ 10050cc0     LIBCMT:crtmboxw.obj
 0002:0000ecdc       ??_C@_0BI@DFKBFLJE@GetProcessWindowStation?$AA@ 10050cdc     LIBCMT:crtmboxw.obj
 0002:0000ecf8       __XcptActTab               10050cf8     LIBCMT:winxfltr.obj
 0002:0000ed88       __XcptActTabCount          10050d88     LIBCMT:winxfltr.obj
 0002:0000ed8c       __XcptActTabSize           10050d8c     LIBCMT:winxfltr.obj
 0002:0000ed90       __First_FPE_Indx           10050d90     LIBCMT:winxfltr.obj
 0002:0000ed94       __Num_FPE                  10050d94     LIBCMT:winxfltr.obj
 0002:0000ed98       ___lookuptable_s           10050d98     LIBCMT:outputs.obj
 0002:0000edf4       ??_C@_03KOEHGMDN@Sun?$AA@  10050df4     LIBCMT:nlsdata.obj
 0002:0000edf8       ??_C@_03PDAGKDH@Mon?$AA@   10050df8     LIBCMT:nlsdata.obj
 0002:0000edfc       ??_C@_03NAGEINEP@Tue?$AA@  10050dfc     LIBCMT:nlsdata.obj
 0002:0000ee00       ??_C@_03MHOMLAJA@Wed?$AA@  10050e00     LIBCMT:nlsdata.obj
 0002:0000ee04       ??_C@_03IOFIKPDN@Thu?$AA@  10050e04     LIBCMT:nlsdata.obj
 0002:0000ee08       ??_C@_03IDIOELNC@Fri?$AA@  10050e08     LIBCMT:nlsdata.obj
 0002:0000ee0c       ??_C@_03FEFJNEK@Sat?$AA@   10050e0c     LIBCMT:nlsdata.obj
 0002:0000ee10       ??_C@_06OOPIFAJ@Sunday?$AA@ 10050e10     LIBCMT:nlsdata.obj
 0002:0000ee18       ??_C@_06JLEDEDGH@Monday?$AA@ 10050e18     LIBCMT:nlsdata.obj
 0002:0000ee20       ??_C@_07BAAGCFCM@Tuesday?$AA@ 10050e20     LIBCMT:nlsdata.obj
 0002:0000ee28       ??_C@_09DLIGFAKA@Wednesday?$AA@ 10050e28     LIBCMT:nlsdata.obj
 0002:0000ee34       ??_C@_08HACCIKIA@Thursday?$AA@ 10050e34     LIBCMT:nlsdata.obj
 0002:0000ee40       ??_C@_06JECMNKMI@Friday?$AA@ 10050e40     LIBCMT:nlsdata.obj
 0002:0000ee48       ??_C@_08INBOOONO@Saturday?$AA@ 10050e48     LIBCMT:nlsdata.obj
 0002:0000ee54       ??_C@_03JIHJHPIE@Jan?$AA@  10050e54     LIBCMT:nlsdata.obj
 0002:0000ee58       ??_C@_03HJBDCHOM@Feb?$AA@  10050e58     LIBCMT:nlsdata.obj
 0002:0000ee5c       ??_C@_03ODNJBKGA@Mar?$AA@  10050e5c     LIBCMT:nlsdata.obj
 0002:0000ee60       ??_C@_03LEOLGMJP@Apr?$AA@  10050e60     LIBCMT:nlsdata.obj
 0002:0000ee64       ??_C@_03CNMDKL@May?$AA@    10050e64     LIBCMT:nlsdata.obj
 0002:0000ee68       ??_C@_03IDFGHECI@Jun?$AA@  10050e68     LIBCMT:nlsdata.obj
 0002:0000ee6c       ??_C@_03LBGABGKK@Jul?$AA@  10050e6c     LIBCMT:nlsdata.obj
 0002:0000ee70       ??_C@_03IFJFEIGA@Aug?$AA@  10050e70     LIBCMT:nlsdata.obj
 0002:0000ee74       ??_C@_03GGCAPAJC@Sep?$AA@  10050e74     LIBCMT:nlsdata.obj
 0002:0000ee78       ??_C@_03BMAOKBAD@Oct?$AA@  10050e78     LIBCMT:nlsdata.obj
 0002:0000ee7c       ??_C@_03JPJOFNIA@Nov?$AA@  10050e7c     LIBCMT:nlsdata.obj
 0002:0000ee80       ??_C@_03MKABNOCG@Dec?$AA@  10050e80     LIBCMT:nlsdata.obj
 0002:0000ee84       ??_C@_07CGJPFGJA@January?$AA@ 10050e84     LIBCMT:nlsdata.obj
 0002:0000ee8c       ??_C@_08GNJGEPFN@February?$AA@ 10050e8c     LIBCMT:nlsdata.obj
 0002:0000ee98       ??_C@_05HPCKOFNC@March?$AA@ 10050e98     LIBCMT:nlsdata.obj
 0002:0000eea0       ??_C@_05DMJDNLEJ@April?$AA@ 10050ea0     LIBCMT:nlsdata.obj
 0002:0000eea8       ??_C@_04CNLMGBGM@June?$AA@ 10050ea8     LIBCMT:nlsdata.obj
 0002:0000eeb0       ??_C@_04MIEPOIFP@July?$AA@ 10050eb0     LIBCMT:nlsdata.obj
 0002:0000eeb8       ??_C@_06LBBHFDDG@August?$AA@ 10050eb8     LIBCMT:nlsdata.obj
 0002:0000eec0       ??_C@_09BHHEALKD@September?$AA@ 10050ec0     LIBCMT:nlsdata.obj
 0002:0000eecc       ??_C@_07JJNFCEND@October?$AA@ 10050ecc     LIBCMT:nlsdata.obj
 0002:0000eed4       ??_C@_08HCHEGEOA@November?$AA@ 10050ed4     LIBCMT:nlsdata.obj
 0002:0000eee0       ??_C@_08EDHMEBNP@December?$AA@ 10050ee0     LIBCMT:nlsdata.obj
 0002:0000eeec       ??_C@_02DEDBPAFC@AM?$AA@   10050eec     LIBCMT:nlsdata.obj
 0002:0000eef0       ??_C@_02CJNFDJBF@PM?$AA@   10050ef0     LIBCMT:nlsdata.obj
 0002:0000eef4       ??_C@_08BPBNCDIB@MM?1dd?1yy?$AA@ 10050ef4     LIBCMT:nlsdata.obj
 0002:0000ef00       ??_C@_0BE@CKGJFCPC@dddd?0?5MMMM?5dd?0?5yyyy?$AA@ 10050f00     LIBCMT:nlsdata.obj
 0002:0000ef14       ??_C@_08JCCMCCIL@HH?3mm?3ss?$AA@ 10050f14     LIBCMT:nlsdata.obj
 0002:0000ef20       ??_C@_17MBGCMIPB@?$AAS?$AAu?$AAn?$AA?$AA@ 10050f20     LIBCMT:nlsdata.obj
 0002:0000ef28       ??_C@_17KBOMKBF@?$AAM?$AAo?$AAn?$AA?$AA@ 10050f28     LIBCMT:nlsdata.obj
 0002:0000ef30       ??_C@_17BMKGEGOJ@?$AAT?$AAu?$AAe?$AA?$AA@ 10050f30     LIBCMT:nlsdata.obj
 0002:0000ef38       ??_C@_17CJEDCEPE@?$AAW?$AAe?$AAd?$AA?$AA@ 10050f38     LIBCMT:nlsdata.obj
 0002:0000ef40       ??_C@_17PDPHAADD@?$AAT?$AAh?$AAu?$AA?$AA@ 10050f40     LIBCMT:nlsdata.obj
 0002:0000ef48       ??_C@_17HFOLPPLP@?$AAF?$AAr?$AAi?$AA?$AA@ 10050f48     LIBCMT:nlsdata.obj
 0002:0000ef50       ??_C@_17GGIBDPIH@?$AAS?$AAa?$AAt?$AA?$AA@ 10050f50     LIBCMT:nlsdata.obj
 0002:0000ef58       ??_C@_1O@IHNHDHPB@?$AAS?$AAu?$AAn?$AAd?$AAa?$AAy?$AA?$AA@ 10050f58     LIBCMT:nlsdata.obj
 0002:0000ef68       ??_C@_1O@MMNBFLIA@?$AAM?$AAo?$AAn?$AAd?$AAa?$AAy?$AA?$AA@ 10050f68     LIBCMT:nlsdata.obj
 0002:0000ef78       ??_C@_1BA@ENFBFFEK@?$AAT?$AAu?$AAe?$AAs?$AAd?$AAa?$AAy?$AA?$AA@ 10050f78     LIBCMT:nlsdata.obj
 0002:0000ef88       ??_C@_1BE@EBOGMDOH@?$AAW?$AAe?$AAd?$AAn?$AAe?$AAs?$AAd?$AAa?$AAy?$AA?$AA@ 10050f88     LIBCMT:nlsdata.obj
 0002:0000ef9c       ??_C@_1BC@HHMNLIHE@?$AAT?$AAh?$AAu?$AAr?$AAs?$AAd?$AAa?$AAy?$AA?$AA@ 10050f9c     LIBCMT:nlsdata.obj
 0002:0000efb0       ??_C@_1O@PDICJHAG@?$AAF?$AAr?$AAi?$AAd?$AAa?$AAy?$AA?$AA@ 10050fb0     LIBCMT:nlsdata.obj
 0002:0000efc0       ??_C@_1BC@ENMNNPAJ@?$AAS?$AAa?$AAt?$AAu?$AAr?$AAd?$AAa?$AAy?$AA?$AA@ 10050fc0     LIBCMT:nlsdata.obj
 0002:0000efd4       ??_C@_17DKNBKCHM@?$AAJ?$AAa?$AAn?$AA?$AA@ 10050fd4     LIBCMT:nlsdata.obj
 0002:0000efdc       ??_C@_17LMDJEKJN@?$AAF?$AAe?$AAb?$AA?$AA@ 10050fdc     LIBCMT:nlsdata.obj
 0002:0000efe4       ??_C@_17CKNLEDEC@?$AAM?$AAa?$AAr?$AA?$AA@ 10050fe4     LIBCMT:nlsdata.obj
 0002:0000efec       ??_C@_17LFPOIHDD@?$AAA?$AAp?$AAr?$AA?$AA@ 10050fec     LIBCMT:nlsdata.obj
 0002:0000eff4       ??_C@_17PNNKMEED@?$AAM?$AAa?$AAy?$AA?$AA@ 10050ff4     LIBCMT:nlsdata.obj
 0002:0000effc       ??_C@_17KCJGOCPB@?$AAJ?$AAu?$AAn?$AA?$AA@ 10050ffc     LIBCMT:nlsdata.obj
 0002:0000f004       ??_C@_17IJPCKHK@?$AAJ?$AAu?$AAl?$AA?$AA@ 10051004     LIBCMT:nlsdata.obj
 0002:0000f00c       ??_C@_17ICPELBCN@?$AAA?$AAu?$AAg?$AA?$AA@ 1005100c     LIBCMT:nlsdata.obj
 0002:0000f014       ??_C@_17HCHCOKMG@?$AAS?$AAe?$AAp?$AA?$AA@ 10051014     LIBCMT:nlsdata.obj
 0002:0000f01c       ??_C@_17FNLKOI@?$AAO?$AAc?$AAt?$AA?$AA@ 1005101c     LIBCMT:nlsdata.obj
 0002:0000f024       ??_C@_17BBDMLCIG@?$AAN?$AAo?$AAv?$AA?$AA@ 10051024     LIBCMT:nlsdata.obj
 0002:0000f02c       ??_C@_17EGKACKIF@?$AAD?$AAe?$AAc?$AA?$AA@ 1005102c     LIBCMT:nlsdata.obj
 0002:0000f034       ??_C@_1BA@EFMEIEBA@?$AAJ?$AAa?$AAn?$AAu?$AAa?$AAr?$AAy?$AA?$AA@ 10051034     LIBCMT:nlsdata.obj
 0002:0000f044       ??_C@_1BC@JGDDFFAM@?$AAF?$AAe?$AAb?$AAr?$AAu?$AAa?$AAr?$AAy?$AA?$AA@ 10051044     LIBCMT:nlsdata.obj
 0002:0000f058       ??_C@_1M@IKEENEDF@?$AAM?$AAa?$AAr?$AAc?$AAh?$AA?$AA@ 10051058     LIBCMT:nlsdata.obj
 0002:0000f064       ??_C@_1M@GJNLMHFD@?$AAA?$AAp?$AAr?$AAi?$AAl?$AA?$AA@ 10051064     LIBCMT:nlsdata.obj
 0002:0000f070       ??_C@_19EPFLPGAP@?$AAJ?$AAu?$AAn?$AAe?$AA?$AA@ 10051070     LIBCMT:nlsdata.obj
 0002:0000f07c       ??_C@_19BIFMLPCD@?$AAJ?$AAu?$AAl?$AAy?$AA?$AA@ 1005107c     LIBCMT:nlsdata.obj
 0002:0000f088       ??_C@_1O@PAHLKOAC@?$AAA?$AAu?$AAg?$AAu?$AAs?$AAt?$AA?$AA@ 10051088     LIBCMT:nlsdata.obj
 0002:0000f098       ??_C@_1BE@DKAAMBJL@?$AAS?$AAe?$AAp?$AAt?$AAe?$AAm?$AAb?$AAe?$AAr?$AA?$AA@ 10051098     LIBCMT:nlsdata.obj
 0002:0000f0ac       ??_C@_1BA@EPANDLNG@?$AAO?$AAc?$AAt?$AAo?$AAb?$AAe?$AAr?$AA?$AA@ 100510ac     LIBCMT:nlsdata.obj
 0002:0000f0bc       ??_C@_1BC@BGLIFPF@?$AAN?$AAo?$AAv?$AAe?$AAm?$AAb?$AAe?$AAr?$AA?$AA@ 100510bc     LIBCMT:nlsdata.obj
 0002:0000f0d0       ??_C@_1BC@FEMKIFH@?$AAD?$AAe?$AAc?$AAe?$AAm?$AAb?$AAe?$AAr?$AA?$AA@ 100510d0     LIBCMT:nlsdata.obj
 0002:0000f0e4       ??_C@_15ODEHAHHF@?$AAA?$AAM?$AA?$AA@ 100510e4     LIBCMT:nlsdata.obj
 0002:0000f0ec       ??_C@_15CLMNNGEL@?$AAP?$AAM?$AA?$AA@ 100510ec     LIBCMT:nlsdata.obj
 0002:0000f0f4       ??_C@_1BC@IEBCMHCM@?$AAM?$AAM?$AA?1?$AAd?$AAd?$AA?1?$AAy?$AAy?$AA?$AA@ 100510f4     LIBCMT:nlsdata.obj
 0002:0000f108       ??_C@_1CI@KNAKOEBC@?$AAd?$AAd?$AAd?$AAd?$AA?0?$AA?5?$AAM?$AAM?$AAM?$AAM?$AA?5?$AAd?$AAd?$AA?0?$AA?5?$AAy?$AAy?$AAy?$AAy?$AA?$AA@ 10051108     LIBCMT:nlsdata.obj
 0002:0000f130       ??_C@_1BC@GDGBMEMK@?$AAH?$AAH?$AA?3?$AAm?$AAm?$AA?3?$AAs?$AAs?$AA?$AA@ 10051130     LIBCMT:nlsdata.obj
 0002:0000f144       ??_C@_1M@BMHNFIME@?$AAe?$AAn?$AA?9?$AAU?$AAS?$AA?$AA@ 10051144     LIBCMT:nlsdata.obj
 0002:0000f150       _LcidToLocaleNameTable     10051150     LIBCMT:winapinls.obj
 0002:0000f870       _LocaleNameToIndexTable    10051870     LIBCMT:winapinls.obj
 0002:0000ff90       ??_C@_15EMKDOKLE@?$AAa?$AAr?$AA?$AA@ 10051f90     LIBCMT:winapinls.obj
 0002:0000ff98       ??_C@_15KNPADPLH@?$AAb?$AAg?$AA?$AA@ 10051f98     LIBCMT:winapinls.obj
 0002:0000ffa0       ??_C@_15EDMHLDMO@?$AAc?$AAa?$AA?$AA@ 10051fa0     LIBCMT:winapinls.obj
 0002:0000ffa8       ??_C@_1O@BPEAJADD@?$AAz?$AAh?$AA?9?$AAC?$AAH?$AAS?$AA?$AA@ 10051fa8     LIBCMT:winapinls.obj
 0002:0000ffb8       ??_C@_15LJNHCMNK@?$AAc?$AAs?$AA?$AA@ 10051fb8     LIBCMT:winapinls.obj
 0002:0000ffc0       ??_C@_15FOMCIDHG@?$AAd?$AAa?$AA?$AA@ 10051fc0     LIBCMT:winapinls.obj
 0002:0000ffc8       ??_C@_15NBKABECB@?$AAd?$AAe?$AA?$AA@ 10051fc8     LIBCMT:winapinls.obj
 0002:0000ffd0       ??_C@_15GHPEIIAO@?$AAe?$AAl?$AA?$AA@ 10051fd0     LIBCMT:winapinls.obj
 0002:0000ffd8       ??_C@_15MNPNEAIF@?$AAe?$AAn?$AA?$AA@ 10051fd8     LIBCMT:winapinls.obj
 0002:0000ffe0       ??_C@_15GPIOMPMH@?$AAe?$AAs?$AA?$AA@ 10051fe0     LIBCMT:winapinls.obj
 0002:0000ffe8       ??_C@_15NGLOAKJC@?$AAf?$AAi?$AA?$AA@ 10051fe8     LIBCMT:winapinls.obj
 0002:0000fff0       ??_C@_15FBKGNKAM@?$AAf?$AAr?$AA?$AA@ 10051ff0     LIBCMT:winapinls.obj
 0002:0000fff8       ??_C@_15KGGCNEFK@?$AAh?$AAe?$AA?$AA@ 10051ff8     LIBCMT:winapinls.obj
 0002:00010000       ??_C@_15PGHLIDMF@?$AAh?$AAu?$AA?$AA@ 10052000     LIBCMT:winapinls.obj
 0002:00010008       ??_C@_15BIEMAPLM@?$AAi?$AAs?$AA?$AA@ 10052008     LIBCMT:winapinls.obj
 0002:00010010       ??_C@_15IFJLDHAF@?$AAi?$AAt?$AA?$AA@ 10052010     LIBCMT:winapinls.obj
 0002:00010018       ??_C@_15GEMIOCAG@?$AAj?$AAa?$AA?$AA@ 10052018     LIBCMT:winapinls.obj
 0002:00010020       ??_C@_15EPELEGJA@?$AAk?$AAo?$AA?$AA@ 10052020     LIBCMT:winapinls.obj
 0002:00010028       ??_C@_15NDDHIMN@?$AAn?$AAl?$AA?$AA@ 10052028     LIBCMT:winapinls.obj
 0002:00010030       ??_C@_15BPIGNHCD@?$AAn?$AAo?$AA?$AA@ 10052030     LIBCMT:winapinls.obj
 0002:00010038       ??_C@_15DEOPBLCG@?$AAp?$AAl?$AA?$AA@ 10052038     LIBCMT:winapinls.obj
 0002:00010040       ??_C@_15KBECGEFG@?$AAp?$AAt?$AA?$AA@ 10052040     LIBCMT:winapinls.obj
 0002:00010048       ??_C@_15GLJCBFMD@?$AAr?$AAo?$AA?$AA@ 10052048     LIBCMT:winapinls.obj
 0002:00010050       ??_C@_15FEDGKCDI@?$AAr?$AAu?$AA?$AA@ 10052050     LIBCMT:winapinls.obj
 0002:00010058       ??_C@_15GLKMLLHM@?$AAh?$AAr?$AA?$AA@ 10052058     LIBCMT:winapinls.obj
 0002:00010060       ??_C@_15CPKMFBDB@?$AAs?$AAk?$AA?$AA@ 10052060     LIBCMT:winapinls.obj
 0002:00010068       ??_C@_15BAAIOGMK@?$AAs?$AAq?$AA?$AA@ 10052068     LIBCMT:winapinls.obj
 0002:00010070       ??_C@_15INNPNOHD@?$AAs?$AAv?$AA?$AA@ 10052070     LIBCMT:winapinls.obj
 0002:00010078       ??_C@_15CABMMOGH@?$AAt?$AAh?$AA?$AA@ 10052078     LIBCMT:winapinls.obj
 0002:00010080       ??_C@_15BPLIHJJM@?$AAt?$AAr?$AA?$AA@ 10052080     LIBCMT:winapinls.obj
 0002:00010088       ??_C@_15NEOEKKDJ@?$AAu?$AAr?$AA?$AA@ 10052088     LIBCMT:winapinls.obj
 0002:00010090       ??_C@_15NFICGAJK@?$AAi?$AAd?$AA?$AA@ 10052090     LIBCMT:winapinls.obj
 0002:00010098       ??_C@_15PJPFLCCM@?$AAu?$AAk?$AA?$AA@ 10052098     LIBCMT:winapinls.obj
 0002:000100a0       ??_C@_15HPJPHDM@?$AAb?$AAe?$AA?$AA@ 100520a0     LIBCMT:winapinls.obj
 0002:000100a8       ??_C@_15LCHLGJII@?$AAs?$AAl?$AA?$AA@ 100520a8     LIBCMT:winapinls.obj
 0002:000100b0       ??_C@_15PCFJPHHO@?$AAe?$AAt?$AA?$AA@ 100520b0     LIBCMT:winapinls.obj
 0002:000100b8       ??_C@_15HPFPGODN@?$AAl?$AAv?$AA?$AA@ 100520b8     LIBCMT:winapinls.obj
 0002:000100c0       ??_C@_15NFFGKGLG@?$AAl?$AAt?$AA?$AA@ 100520c0     LIBCMT:winapinls.obj
 0002:000100c8       ??_C@_15BDAKCCHN@?$AAf?$AAa?$AA?$AA@ 100520c8     LIBCMT:winapinls.obj
 0002:000100d0       ??_C@_15NFGIAIAJ@?$AAv?$AAi?$AA?$AA@ 100520d0     LIBCMT:winapinls.obj
 0002:000100d8       ??_C@_15LMKNDMHN@?$AAh?$AAy?$AA?$AA@ 100520d8     LIBCMT:winapinls.obj
 0002:000100e0       ??_C@_15IJBHMCFL@?$AAa?$AAz?$AA?$AA@ 100520e0     LIBCMT:winapinls.obj
 0002:000100e8       ??_C@_15EKOFJABL@?$AAe?$AAu?$AA?$AA@ 100520e8     LIBCMT:winapinls.obj
 0002:000100f0       ??_C@_15BGHADCNK@?$AAm?$AAk?$AA?$AA@ 100520f0     LIBCMT:winapinls.obj
 0002:000100f8       ??_C@_15JDNICKHM@?$AAa?$AAf?$AA?$AA@ 100520f8     LIBCMT:winapinls.obj
 0002:00010100       ??_C@_15KPJEDBKD@?$AAk?$AAa?$AA?$AA@ 10052100     LIBCMT:winapinls.obj
 0002:00010108       ??_C@_15PDNFFFEO@?$AAf?$AAo?$AA?$AA@ 10052108     LIBCMT:winapinls.obj
 0002:00010110       ??_C@_15OMLEGLOC@?$AAh?$AAi?$AA?$AA@ 10052110     LIBCMT:winapinls.obj
 0002:00010118       ??_C@_15IDNNENKK@?$AAm?$AAs?$AA?$AA@ 10052118     LIBCMT:winapinls.obj
 0002:00010120       ??_C@_15MACJNBMH@?$AAk?$AAk?$AA?$AA@ 10052120     LIBCMT:winapinls.obj
 0002:00010128       ??_C@_15DKDJEOND@?$AAk?$AAy?$AA?$AA@ 10052128     LIBCMT:winapinls.obj
 0002:00010130       ??_C@_15DFGDLJBG@?$AAs?$AAw?$AA?$AA@ 10052130     LIBCMT:winapinls.obj
 0002:00010138       ??_C@_15BBFAICNG@?$AAu?$AAz?$AA?$AA@ 10052138     LIBCMT:winapinls.obj
 0002:00010140       ??_C@_15DKNDCGEA@?$AAt?$AAt?$AA?$AA@ 10052140     LIBCMT:winapinls.obj
 0002:00010148       ??_C@_15MGIFMDPL@?$AAp?$AAa?$AA?$AA@ 10052148     LIBCMT:winapinls.obj
 0002:00010150       ??_C@_15HCNDBBA@?$AAg?$AAu?$AA?$AA@ 10052150     LIBCMT:winapinls.obj
 0002:00010158       ??_C@_15FNBEIBON@?$AAt?$AAa?$AA?$AA@ 10052158     LIBCMT:winapinls.obj
 0002:00010160       ??_C@_15NCHGBGLK@?$AAt?$AAe?$AA?$AA@ 10052160     LIBCMT:winapinls.obj
 0002:00010168       ??_C@_15PHPHCBPF@?$AAk?$AAn?$AA?$AA@ 10052168     LIBCMT:winapinls.obj
 0002:00010170       ??_C@_15DLGBCKMP@?$AAm?$AAr?$AA?$AA@ 10052170     LIBCMT:winapinls.obj
 0002:00010178       ??_C@_15EABBLBFF@?$AAs?$AAa?$AA?$AA@ 10052178     LIBCMT:winapinls.obj
 0002:00010180       ??_C@_15CBKOMCOI@?$AAm?$AAn?$AA?$AA@ 10052180     LIBCMT:winapinls.obj
 0002:00010188       ??_C@_15CKDMCJAF@?$AAg?$AAl?$AA?$AA@ 10052188     LIBCMT:winapinls.obj
 0002:00010190       ??_C@_17CNJFBPG@?$AAk?$AAo?$AAk?$AA?$AA@ 10052190     LIBCMT:winapinls.obj
 0002:00010198       ??_C@_17FFBJICPL@?$AAs?$AAy?$AAr?$AA?$AA@ 10052198     LIBCMT:winapinls.obj
 0002:000101a0       ??_C@_17KPNDCPAF@?$AAd?$AAi?$AAv?$AA?$AA@ 100521a0     LIBCMT:winapinls.obj
 0002:000101a8       ??_C@_11LOCGONAA@?$AA?$AA@ 100521a8     LIBCMT:winapinls.obj
 0002:000101ac       ??_C@_1M@OKAHONE@?$AAa?$AAr?$AA?9?$AAS?$AAA?$AA?$AA@ 100521ac     LIBCMT:winapinls.obj
 0002:000101b8       ??_C@_1M@FFFIGIGK@?$AAb?$AAg?$AA?9?$AAB?$AAG?$AA?$AA@ 100521b8     LIBCMT:winapinls.obj
 0002:000101c4       ??_C@_1M@BJNKEDC@?$AAc?$AAa?$AA?9?$AAE?$AAS?$AA?$AA@ 100521c4     LIBCMT:winapinls.obj
 0002:000101d0       ??_C@_1M@IJJHFJHA@?$AAc?$AAs?$AA?9?$AAC?$AAZ?$AA?$AA@ 100521d0     LIBCMT:winapinls.obj
 0002:000101dc       ??_C@_1M@CLPEOBGI@?$AAd?$AAa?$AA?9?$AAD?$AAK?$AA?$AA@ 100521dc     LIBCMT:winapinls.obj
 0002:000101e8       ??_C@_1M@MCMADGCB@?$AAd?$AAe?$AA?9?$AAD?$AAE?$AA?$AA@ 100521e8     LIBCMT:winapinls.obj
 0002:000101f4       ??_C@_1M@OOCKEMAM@?$AAe?$AAl?$AA?9?$AAG?$AAR?$AA?$AA@ 100521f4     LIBCMT:winapinls.obj
 0002:00010200       ??_C@_1M@DDNJFGID@?$AAf?$AAi?$AA?9?$AAF?$AAI?$AA?$AA@ 10052200     LIBCMT:winapinls.obj
 0002:0001020c       ??_C@_1M@GLIPPMAC@?$AAf?$AAr?$AA?9?$AAF?$AAR?$AA?$AA@ 1005220c     LIBCMT:winapinls.obj
 0002:00010218       ??_C@_1M@GFMCHPE@?$AAh?$AAe?$AA?9?$AAI?$AAL?$AA?$AA@ 10052218     LIBCMT:winapinls.obj
 0002:00010224       ??_C@_1M@MHLPGNKM@?$AAh?$AAu?$AA?9?$AAH?$AAU?$AA?$AA@ 10052224     LIBCMT:winapinls.obj
 0002:00010230       ??_C@_1M@LPDDNNPN@?$AAi?$AAs?$AA?9?$AAI?$AAS?$AA?$AA@ 10052230     LIBCMT:winapinls.obj
 0002:0001023c       ??_C@_1M@MADIPODN@?$AAi?$AAt?$AA?9?$AAI?$AAT?$AA?$AA@ 1005223c     LIBCMT:winapinls.obj
 0002:00010248       ??_C@_1M@IHBJJGG@?$AAn?$AAl?$AA?9?$AAN?$AAL?$AA?$AA@ 10052248     LIBCMT:winapinls.obj
 0002:00010254       ??_C@_1M@EANAGDL@?$AAn?$AAb?$AA?9?$AAN?$AAO?$AA?$AA@ 10052254     LIBCMT:winapinls.obj
 0002:00010260       ??_C@_1M@NEIEMEGP@?$AAp?$AAl?$AA?9?$AAP?$AAL?$AA?$AA@ 10052260     LIBCMT:winapinls.obj
 0002:0001026c       ??_C@_1M@BOCFIGEP@?$AAp?$AAt?$AA?9?$AAB?$AAR?$AA?$AA@ 1005226c     LIBCMT:winapinls.obj
 0002:00010278       ??_C@_1M@IMPFOPBG@?$AAr?$AAo?$AA?9?$AAR?$AAO?$AA?$AA@ 10052278     LIBCMT:winapinls.obj
 0002:00010284       ??_C@_1M@IDNNEJMM@?$AAr?$AAu?$AA?9?$AAR?$AAU?$AA?$AA@ 10052284     LIBCMT:winapinls.obj
 0002:00010290       ??_C@_1M@LILEEOGM@?$AAh?$AAr?$AA?9?$AAH?$AAR?$AA?$AA@ 10052290     LIBCMT:winapinls.obj
 0002:0001029c       ??_C@_1M@FKIFEHPB@?$AAs?$AAk?$AA?9?$AAS?$AAK?$AA?$AA@ 1005229c     LIBCMT:winapinls.obj
 0002:000102a8       ??_C@_1M@LJMAMNPJ@?$AAs?$AAq?$AA?9?$AAA?$AAL?$AA?$AA@ 100522a8     LIBCMT:winapinls.obj
 0002:000102b4       ??_C@_1M@GIAKDKJK@?$AAs?$AAv?$AA?9?$AAS?$AAE?$AA?$AA@ 100522b4     LIBCMT:winapinls.obj
 0002:000102c0       ??_C@_1M@MKJKIKCL@?$AAt?$AAh?$AA?9?$AAT?$AAH?$AA?$AA@ 100522c0     LIBCMT:winapinls.obj
 0002:000102cc       ??_C@_1M@MFLCCMPB@?$AAt?$AAr?$AA?9?$AAT?$AAR?$AA?$AA@ 100522cc     LIBCMT:winapinls.obj
 0002:000102d8       ??_C@_1M@OIJHDKJN@?$AAu?$AAr?$AA?9?$AAP?$AAK?$AA?$AA@ 100522d8     LIBCMT:winapinls.obj
 0002:000102e4       ??_C@_1M@LHIPCIEK@?$AAi?$AAd?$AA?9?$AAI?$AAD?$AA?$AA@ 100522e4     LIBCMT:winapinls.obj
 0002:000102f0       ??_C@_1M@MFMOBGI@?$AAu?$AAk?$AA?9?$AAU?$AAA?$AA?$AA@ 100522f0     LIBCMT:winapinls.obj
 0002:000102fc       ??_C@_1M@OBGLJIPL@?$AAb?$AAe?$AA?9?$AAB?$AAY?$AA?$AA@ 100522fc     LIBCMT:winapinls.obj
 0002:00010308       ??_C@_1M@BCFAJEAD@?$AAs?$AAl?$AA?9?$AAS?$AAI?$AA?$AA@ 10052308     LIBCMT:winapinls.obj
 0002:00010314       ??_C@_1M@FKFFEDDN@?$AAe?$AAt?$AA?9?$AAE?$AAE?$AA?$AA@ 10052314     LIBCMT:winapinls.obj
 0002:00010320       ??_C@_1M@KGKKAACI@?$AAl?$AAv?$AA?9?$AAL?$AAV?$AA?$AA@ 10052320     LIBCMT:winapinls.obj
 0002:0001032c       ??_C@_1M@IFGBIJO@?$AAl?$AAt?$AA?9?$AAL?$AAT?$AA?$AA@ 1005232c     LIBCMT:winapinls.obj
 0002:00010338       ??_C@_1M@FGEAHEDM@?$AAf?$AAa?$AA?9?$AAI?$AAR?$AA?$AA@ 10052338     LIBCMT:winapinls.obj
 0002:00010344       ??_C@_1M@KBMAIBFN@?$AAv?$AAi?$AA?9?$AAV?$AAN?$AA?$AA@ 10052344     LIBCMT:winapinls.obj
 0002:00010350       ??_C@_1M@GPCBKDJK@?$AAh?$AAy?$AA?9?$AAA?$AAM?$AA?$AA@ 10052350     LIBCMT:winapinls.obj
 0002:0001035c       ??_C@_1BG@BECMDDJB@?$AAa?$AAz?$AA?9?$AAA?$AAZ?$AA?9?$AAL?$AAa?$AAt?$AAn?$AA?$AA@ 1005235c     LIBCMT:winapinls.obj
 0002:00010374       ??_C@_1M@MAOFCAEA@?$AAe?$AAu?$AA?9?$AAE?$AAS?$AA?$AA@ 10052374     LIBCMT:winapinls.obj
 0002:00010380       ??_C@_1M@IGHABKPI@?$AAm?$AAk?$AA?9?$AAM?$AAK?$AA?$AA@ 10052380     LIBCMT:winapinls.obj
 0002:0001038c       ??_C@_1M@IAIGNEJG@?$AAt?$AAn?$AA?9?$AAZ?$AAA?$AA?$AA@ 1005238c     LIBCMT:winapinls.obj
 0002:00010398       ??_C@_1M@IIJCOJFA@?$AAx?$AAh?$AA?9?$AAZ?$AAA?$AA?$AA@ 10052398     LIBCMT:winapinls.obj
 0002:000103a4       ??_C@_1M@LGPJHNJH@?$AAz?$AAu?$AA?9?$AAZ?$AAA?$AA?$AA@ 100523a4     LIBCMT:winapinls.obj
 0002:000103b0       ??_C@_1M@HOKAOIO@?$AAa?$AAf?$AA?9?$AAZ?$AAA?$AA?$AA@ 100523b0     LIBCMT:winapinls.obj
 0002:000103bc       ??_C@_1M@DPCLHLIE@?$AAk?$AAa?$AA?9?$AAG?$AAE?$AA?$AA@ 100523bc     LIBCMT:winapinls.obj
 0002:000103c8       ??_C@_1M@BLKMHJBI@?$AAf?$AAo?$AA?9?$AAF?$AAO?$AA?$AA@ 100523c8     LIBCMT:winapinls.obj
 0002:000103d4       ??_C@_1M@LGGJAPPB@?$AAh?$AAi?$AA?9?$AAI?$AAN?$AA?$AA@ 100523d4     LIBCMT:winapinls.obj
 0002:000103e0       ??_C@_1M@FIKPIHFE@?$AAm?$AAt?$AA?9?$AAM?$AAT?$AA?$AA@ 100523e0     LIBCMT:winapinls.obj
 0002:000103ec       ??_C@_1M@HEGGPBFA@?$AAs?$AAe?$AA?9?$AAN?$AAO?$AA?$AA@ 100523ec     LIBCMT:winapinls.obj
 0002:000103f8       ??_C@_1M@EIBJEEPA@?$AAm?$AAs?$AA?9?$AAM?$AAY?$AA?$AA@ 100523f8     LIBCMT:winapinls.obj
 0002:00010404       ??_C@_1M@FHLBGMPP@?$AAk?$AAk?$AA?9?$AAK?$AAZ?$AA?$AA@ 10052404     LIBCMT:winapinls.obj
 0002:00010410       ??_C@_1M@NGJJLCGI@?$AAk?$AAy?$AA?9?$AAK?$AAG?$AA?$AA@ 10052410     LIBCMT:winapinls.obj
 0002:0001041c       ??_C@_1M@GIENNBFC@?$AAs?$AAw?$AA?9?$AAK?$AAE?$AA?$AA@ 1005241c     LIBCMT:winapinls.obj
 0002:00010428       ??_C@_1BG@NDGMJIMJ@?$AAu?$AAz?$AA?9?$AAU?$AAZ?$AA?9?$AAL?$AAa?$AAt?$AAn?$AA?$AA@ 10052428     LIBCMT:winapinls.obj
 0002:00010440       ??_C@_1M@IDCCIHBC@?$AAt?$AAt?$AA?9?$AAR?$AAU?$AA?$AA@ 10052440     LIBCMT:winapinls.obj
 0002:0001044c       ??_C@_1M@LOICPMOJ@?$AAb?$AAn?$AA?9?$AAI?$AAN?$AA?$AA@ 1005244c     LIBCMT:winapinls.obj
 0002:00010458       ??_C@_1M@KPKKNEAH@?$AAp?$AAa?$AA?9?$AAI?$AAN?$AA?$AA@ 10052458     LIBCMT:winapinls.obj
 0002:00010464       ??_C@_1M@PJGPPBOG@?$AAg?$AAu?$AA?9?$AAI?$AAN?$AA?$AA@ 10052464     LIBCMT:winapinls.obj
 0002:00010470       ??_C@_1M@KMKMOPHI@?$AAt?$AAa?$AA?9?$AAI?$AAN?$AA?$AA@ 10052470     LIBCMT:winapinls.obj
 0002:0001047c       ??_C@_1M@KFEHEPAC@?$AAt?$AAe?$AA?9?$AAI?$AAN?$AA?$AA@ 1005247c     LIBCMT:winapinls.obj
 0002:00010488       ??_C@_1M@CDCLMGHI@?$AAk?$AAn?$AA?9?$AAI?$AAN?$AA?$AA@ 10052488     LIBCMT:winapinls.obj
 0002:00010494       ??_C@_1M@MIODLDKF@?$AAm?$AAl?$AA?9?$AAI?$AAN?$AA?$AA@ 10052494     LIBCMT:winapinls.obj
 0002:000104a0       ??_C@_1M@PBIEACPO@?$AAm?$AAr?$AA?9?$AAI?$AAN?$AA?$AA@ 100524a0     LIBCMT:winapinls.obj
 0002:000104ac       ??_C@_1M@NIDEAGPH@?$AAs?$AAa?$AA?9?$AAI?$AAN?$AA?$AA@ 100524ac     LIBCMT:winapinls.obj
 0002:000104b8       ??_C@_1M@FHIHCBIO@?$AAm?$AAn?$AA?9?$AAM?$AAN?$AA?$AA@ 100524b8     LIBCMT:winapinls.obj
 0002:000104c4       ??_C@_1M@JAIJPENP@?$AAc?$AAy?$AA?9?$AAG?$AAB?$AA?$AA@ 100524c4     LIBCMT:winapinls.obj
 0002:000104d0       ??_C@_1M@PHGFBEPN@?$AAg?$AAl?$AA?9?$AAE?$AAS?$AA?$AA@ 100524d0     LIBCMT:winapinls.obj
 0002:000104dc       ??_C@_1O@KPIPDNCP@?$AAk?$AAo?$AAk?$AA?9?$AAI?$AAN?$AA?$AA@ 100524dc     LIBCMT:winapinls.obj
 0002:000104ec       ??_C@_1O@KNHJLDJA@?$AAs?$AAy?$AAr?$AA?9?$AAS?$AAY?$AA?$AA@ 100524ec     LIBCMT:winapinls.obj
 0002:000104fc       ??_C@_1O@MKEKBLAH@?$AAd?$AAi?$AAv?$AA?9?$AAM?$AAV?$AA?$AA@ 100524fc     LIBCMT:winapinls.obj
 0002:0001050c       ??_C@_1O@OHDCKDDF@?$AAq?$AAu?$AAz?$AA?9?$AAB?$AAO?$AA?$AA@ 1005250c     LIBCMT:winapinls.obj
 0002:0001051c       ??_C@_1M@LEPJNLFD@?$AAn?$AAs?$AA?9?$AAZ?$AAA?$AA?$AA@ 1005251c     LIBCMT:winapinls.obj
 0002:00010528       ??_C@_1M@OMLEIIJB@?$AAm?$AAi?$AA?9?$AAN?$AAZ?$AA?$AA@ 10052528     LIBCMT:winapinls.obj
 0002:00010534       ??_C@_1M@PMPEAILG@?$AAa?$AAr?$AA?9?$AAI?$AAQ?$AA?$AA@ 10052534     LIBCMT:winapinls.obj
 0002:00010540       ??_C@_1M@CNKPNOEE@?$AAd?$AAe?$AA?9?$AAC?$AAH?$AA?$AA@ 10052540     LIBCMT:winapinls.obj
 0002:0001054c       ??_C@_1M@LKMGMLKO@?$AAe?$AAn?$AA?9?$AAG?$AAB?$AA?$AA@ 1005254c     LIBCMT:winapinls.obj
 0002:00010558       ??_C@_1M@PGKJFFGL@?$AAe?$AAs?$AA?9?$AAM?$AAX?$AA?$AA@ 10052558     LIBCMT:winapinls.obj
 0002:00010564       ??_C@_1M@DNNANBDC@?$AAf?$AAr?$AA?9?$AAB?$AAE?$AA?$AA@ 10052564     LIBCMT:winapinls.obj
 0002:00010570       ??_C@_1M@HLGMDFHM@?$AAi?$AAt?$AA?9?$AAC?$AAH?$AA?$AA@ 10052570     LIBCMT:winapinls.obj
 0002:0001057c       ??_C@_1M@CLLBGJH@?$AAn?$AAl?$AA?9?$AAB?$AAE?$AA?$AA@ 1005257c     LIBCMT:winapinls.obj
 0002:00010588       ??_C@_1M@BODBOGLF@?$AAn?$AAn?$AA?9?$AAN?$AAO?$AA?$AA@ 10052588     LIBCMT:winapinls.obj
 0002:00010594       ??_C@_1M@HFFAHKAD@?$AAp?$AAt?$AA?9?$AAP?$AAT?$AA?$AA@ 10052594     LIBCMT:winapinls.obj
 0002:000105a0       ??_C@_1BG@LNOAKHIE@?$AAs?$AAr?$AA?9?$AAS?$AAP?$AA?9?$AAL?$AAa?$AAt?$AAn?$AA?$AA@ 100525a0     LIBCMT:winapinls.obj
 0002:000105b8       ??_C@_1M@HBMHBGAK@?$AAs?$AAv?$AA?9?$AAF?$AAI?$AA?$AA@ 100525b8     LIBCMT:winapinls.obj
 0002:000105c4       ??_C@_1BG@DGCJGJBE@?$AAa?$AAz?$AA?9?$AAA?$AAZ?$AA?9?$AAC?$AAy?$AAr?$AAl?$AA?$AA@ 100525c4     LIBCMT:winapinls.obj
 0002:000105dc       ??_C@_1M@KEJDAAHB@?$AAs?$AAe?$AA?9?$AAS?$AAE?$AA?$AA@ 100525dc     LIBCMT:winapinls.obj
 0002:000105e8       ??_C@_1M@HEIBJJAD@?$AAm?$AAs?$AA?9?$AAB?$AAN?$AA?$AA@ 100525e8     LIBCMT:winapinls.obj
 0002:000105f4       ??_C@_1BG@PBGJMCEM@?$AAu?$AAz?$AA?9?$AAU?$AAZ?$AA?9?$AAC?$AAy?$AAr?$AAl?$AA?$AA@ 100525f4     LIBCMT:winapinls.obj
 0002:0001060c       ??_C@_1O@LAOBCMDF@?$AAq?$AAu?$AAz?$AA?9?$AAE?$AAC?$AA?$AA@ 1005260c     LIBCMT:winapinls.obj
 0002:0001061c       ??_C@_1M@POEEMAIO@?$AAa?$AAr?$AA?9?$AAE?$AAG?$AA?$AA@ 1005261c     LIBCMT:winapinls.obj
 0002:00010628       ??_C@_1M@EFAKDEDL@?$AAz?$AAh?$AA?9?$AAH?$AAK?$AA?$AA@ 10052628     LIBCMT:winapinls.obj
 0002:00010634       ??_C@_1M@HKKIJHGI@?$AAd?$AAe?$AA?9?$AAA?$AAT?$AA?$AA@ 10052634     LIBCMT:winapinls.obj
 0002:00010640       ??_C@_1M@KBFBEHJF@?$AAe?$AAn?$AA?9?$AAA?$AAU?$AA?$AA@ 10052640     LIBCMT:winapinls.obj
 0002:0001064c       ??_C@_1M@MNPLFAAH@?$AAe?$AAs?$AA?9?$AAE?$AAS?$AA?$AA@ 1005264c     LIBCMT:winapinls.obj
 0002:00010658       ??_C@_1M@HJOOJFMA@?$AAf?$AAr?$AA?9?$AAC?$AAA?$AA?$AA@ 10052658     LIBCMT:winapinls.obj
 0002:00010664       ??_C@_1BG@JPOFPNAB@?$AAs?$AAr?$AA?9?$AAS?$AAP?$AA?9?$AAC?$AAy?$AAr?$AAl?$AA?$AA@ 10052664     LIBCMT:winapinls.obj
 0002:0001067c       ??_C@_1M@LNFOCMOB@?$AAs?$AAe?$AA?9?$AAF?$AAI?$AA?$AA@ 1005267c     LIBCMT:winapinls.obj
 0002:00010688       ??_C@_1O@MGJBOAMB@?$AAq?$AAu?$AAz?$AA?9?$AAP?$AAE?$AA?$AA@ 10052688     LIBCMT:winapinls.obj
 0002:00010698       ??_C@_1M@GJINLBOK@?$AAa?$AAr?$AA?9?$AAL?$AAY?$AA?$AA@ 10052698     LIBCMT:winapinls.obj
 0002:000106a4       ??_C@_1M@GGMNHJNL@?$AAz?$AAh?$AA?9?$AAS?$AAG?$AA?$AA@ 100526a4     LIBCMT:winapinls.obj
 0002:000106b0       ??_C@_1M@HOIKODND@?$AAd?$AAe?$AA?9?$AAL?$AAU?$AA?$AA@ 100526b0     LIBCMT:winapinls.obj
 0002:000106bc       ??_C@_1M@DDOCCGFG@?$AAe?$AAn?$AA?9?$AAC?$AAA?$AA?$AA@ 100526bc     LIBCMT:winapinls.obj
 0002:000106c8       ??_C@_1M@BNOEMJLF@?$AAe?$AAs?$AA?9?$AAG?$AAT?$AA?$AA@ 100526c8     LIBCMT:winapinls.obj
 0002:000106d4       ??_C@_1M@EOGNKEK@?$AAf?$AAr?$AA?9?$AAC?$AAH?$AA?$AA@ 100526d4     LIBCMT:winapinls.obj
 0002:000106e0       ??_C@_1M@FLIDJFHL@?$AAh?$AAr?$AA?9?$AAB?$AAA?$AA?$AA@ 100526e0     LIBCMT:winapinls.obj
 0002:000106ec       ??_C@_1O@FMCELNAJ@?$AAs?$AAm?$AAj?$AA?9?$AAN?$AAO?$AA?$AA@ 100526ec     LIBCMT:winapinls.obj
 0002:000106fc       ??_C@_1M@JHGLJMGJ@?$AAa?$AAr?$AA?9?$AAD?$AAZ?$AA?$AA@ 100526fc     LIBCMT:winapinls.obj
 0002:00010708       ??_C@_1M@JKKFDCNP@?$AAz?$AAh?$AA?9?$AAM?$AAO?$AA?$AA@ 10052708     LIBCMT:winapinls.obj
 0002:00010714       ??_C@_1M@GEEFALPE@?$AAd?$AAe?$AA?9?$AAL?$AAI?$AA?$AA@ 10052714     LIBCMT:winapinls.obj
 0002:00010720       ??_C@_1M@IGEOFBG@?$AAe?$AAn?$AA?9?$AAN?$AAZ?$AA?$AA@ 10052720     LIBCMT:winapinls.obj
 0002:0001072c       ??_C@_1M@KDBONEHP@?$AAe?$AAs?$AA?9?$AAC?$AAR?$AA?$AA@ 1005272c     LIBCMT:winapinls.obj
 0002:00010738       ??_C@_1M@FHMDOHNN@?$AAf?$AAr?$AA?9?$AAL?$AAU?$AA?$AA@ 10052738     LIBCMT:winapinls.obj
 0002:00010744       ??_C@_1BG@NFKKMAFG@?$AAb?$AAs?$AA?9?$AAB?$AAA?$AA?9?$AAL?$AAa?$AAt?$AAn?$AA?$AA@ 10052744     LIBCMT:winapinls.obj
 0002:0001075c       ??_C@_1O@IMNBEMCI@?$AAs?$AAm?$AAj?$AA?9?$AAS?$AAE?$AA?$AA@ 1005275c     LIBCMT:winapinls.obj
 0002:0001076c       ??_C@_1M@DHHMBNDP@?$AAa?$AAr?$AA?9?$AAM?$AAA?$AA?$AA@ 1005276c     LIBCMT:winapinls.obj
 0002:00010778       ??_C@_1M@BNBLJCGH@?$AAe?$AAn?$AA?9?$AAI?$AAE?$AA?$AA@ 10052778     LIBCMT:winapinls.obj
 0002:00010784       ??_C@_1M@GEPAFMDL@?$AAe?$AAs?$AA?9?$AAP?$AAA?$AA?$AA@ 10052784     LIBCMT:winapinls.obj
 0002:00010790       ??_C@_1M@OJONDMDL@?$AAf?$AAr?$AA?9?$AAM?$AAC?$AA?$AA@ 10052790     LIBCMT:winapinls.obj
 0002:0001079c       ??_C@_1BG@OBCNFJB@?$AAs?$AAr?$AA?9?$AAB?$AAA?$AA?9?$AAL?$AAa?$AAt?$AAn?$AA?$AA@ 1005279c     LIBCMT:winapinls.obj
 0002:000107b4       ??_C@_1O@KEMEEGPO@?$AAs?$AAm?$AAa?$AA?9?$AAN?$AAO?$AA?$AA@ 100527b4     LIBCMT:winapinls.obj
 0002:000107c4       ??_C@_1M@ELMGFODK@?$AAa?$AAr?$AA?9?$AAT?$AAN?$AA?$AA@ 100527c4     LIBCMT:winapinls.obj
 0002:000107d0       ??_C@_1M@BHDLHFAF@?$AAe?$AAn?$AA?9?$AAZ?$AAA?$AA?$AA@ 100527d0     LIBCMT:winapinls.obj
 0002:000107dc       ??_C@_1M@BMGIGLIF@?$AAe?$AAs?$AA?9?$AAD?$AAO?$AA?$AA@ 100527dc     LIBCMT:winapinls.obj
 0002:000107e8       ??_C@_1BG@CMBHIPBE@?$AAs?$AAr?$AA?9?$AAB?$AAA?$AA?9?$AAC?$AAy?$AAr?$AAl?$AA?$AA@ 100527e8     LIBCMT:winapinls.obj
 0002:00010800       ??_C@_1O@HEDBLHNP@?$AAs?$AAm?$AAa?$AA?9?$AAS?$AAE?$AA?$AA@ 10052800     LIBCMT:winapinls.obj
 0002:00010810       ??_C@_1M@DAGCADIM@?$AAa?$AAr?$AA?9?$AAO?$AAM?$AA?$AA@ 10052810     LIBCMT:winapinls.obj
 0002:0001081c       ??_C@_1M@FODLMICG@?$AAe?$AAn?$AA?9?$AAJ?$AAM?$AA?$AA@ 1005281c     LIBCMT:winapinls.obj
 0002:00010828       ??_C@_1M@DNMLCIHB@?$AAe?$AAs?$AA?9?$AAV?$AAE?$AA?$AA@ 10052828     LIBCMT:winapinls.obj
 0002:00010834       ??_C@_1O@EOKHMKJK@?$AAs?$AAm?$AAs?$AA?9?$AAF?$AAI?$AA?$AA@ 10052834     LIBCMT:winapinls.obj
 0002:00010844       ??_C@_1M@CAFJMKOF@?$AAa?$AAr?$AA?9?$AAY?$AAE?$AA?$AA@ 10052844     LIBCMT:winapinls.obj
 0002:00010850       ??_C@_1M@CBFHIJLI@?$AAe?$AAn?$AA?9?$AAC?$AAB?$AA?$AA@ 10052850     LIBCMT:winapinls.obj
 0002:0001085c       ??_C@_1M@BGNFLDN@?$AAe?$AAs?$AA?9?$AAC?$AAO?$AA?$AA@ 1005285c     LIBCMT:winapinls.obj
 0002:00010868       ??_C@_1O@JMPHMAMC@?$AAs?$AAm?$AAn?$AA?9?$AAF?$AAI?$AA?$AA@ 10052868     LIBCMT:winapinls.obj
 0002:00010878       ??_C@_1M@JLANABKE@?$AAa?$AAr?$AA?9?$AAS?$AAY?$AA?$AA@ 10052878     LIBCMT:winapinls.obj
 0002:00010884       ??_C@_1M@HPKGCFGN@?$AAe?$AAn?$AA?9?$AAB?$AAZ?$AA?$AA@ 10052884     LIBCMT:winapinls.obj
 0002:00010890       ??_C@_1M@OLJCMLGM@?$AAe?$AAs?$AA?9?$AAP?$AAE?$AA?$AA@ 10052890     LIBCMT:winapinls.obj
 0002:0001089c       ??_C@_1M@MKKGFKLE@?$AAa?$AAr?$AA?9?$AAJ?$AAO?$AA?$AA@ 1005289c     LIBCMT:winapinls.obj
 0002:000108a8       ??_C@_1M@EKPGLDNI@?$AAe?$AAn?$AA?9?$AAT?$AAT?$AA?$AA@ 100528a8     LIBCMT:winapinls.obj
 0002:000108b4       ??_C@_1M@OONGHFHE@?$AAe?$AAs?$AA?9?$AAA?$AAR?$AA?$AA@ 100528b4     LIBCMT:winapinls.obj
 0002:000108c0       ??_C@_1M@OOJFGBHE@?$AAa?$AAr?$AA?9?$AAL?$AAB?$AA?$AA@ 100528c0     LIBCMT:winapinls.obj
 0002:000108cc       ??_C@_1M@GCEJHNEG@?$AAe?$AAn?$AA?9?$AAZ?$AAW?$AA?$AA@ 100528cc     LIBCMT:winapinls.obj
 0002:000108d8       ??_C@_1M@JNOCAHJI@?$AAe?$AAs?$AA?9?$AAE?$AAC?$AA?$AA@ 100528d8     LIBCMT:winapinls.obj
 0002:000108e4       ??_C@_1M@JEFHPGGB@?$AAa?$AAr?$AA?9?$AAK?$AAW?$AA?$AA@ 100528e4     LIBCMT:winapinls.obj
 0002:000108f0       ??_C@_1M@MLKIBJOJ@?$AAe?$AAn?$AA?9?$AAP?$AAH?$AA?$AA@ 100528f0     LIBCMT:winapinls.obj
 0002:000108fc       ??_C@_1M@BDNIPEND@?$AAe?$AAs?$AA?9?$AAC?$AAL?$AA?$AA@ 100528fc     LIBCMT:winapinls.obj
 0002:00010908       ??_C@_1M@MPNMEKBD@?$AAa?$AAr?$AA?9?$AAA?$AAE?$AA?$AA@ 10052908     LIBCMT:winapinls.obj
 0002:00010914       ??_C@_1M@KBJALCPI@?$AAe?$AAs?$AA?9?$AAU?$AAY?$AA?$AA@ 10052914     LIBCMT:winapinls.obj
 0002:00010920       ??_C@_1M@LLCCOAGA@?$AAa?$AAr?$AA?9?$AAB?$AAH?$AA?$AA@ 10052920     LIBCMT:winapinls.obj
 0002:0001092c       ??_C@_1M@PBFNCDEL@?$AAe?$AAs?$AA?9?$AAP?$AAY?$AA?$AA@ 1005292c     LIBCMT:winapinls.obj
 0002:00010938       ??_C@_1M@EDGINPNP@?$AAa?$AAr?$AA?9?$AAQ?$AAA?$AA?$AA@ 10052938     LIBCMT:winapinls.obj
 0002:00010944       ??_C@_1M@MKDBIIJI@?$AAe?$AAs?$AA?9?$AAB?$AAO?$AA?$AA@ 10052944     LIBCMT:winapinls.obj
 0002:00010950       ??_C@_1M@CPKKEBLD@?$AAe?$AAs?$AA?9?$AAS?$AAV?$AA?$AA@ 10052950     LIBCMT:winapinls.obj
 0002:0001095c       ??_C@_1M@NDBGMMJL@?$AAe?$AAs?$AA?9?$AAH?$AAN?$AA?$AA@ 1005295c     LIBCMT:winapinls.obj
 0002:00010968       ??_C@_1M@JIJIBHDP@?$AAe?$AAs?$AA?9?$AAN?$AAI?$AA?$AA@ 10052968     LIBCMT:winapinls.obj
 0002:00010974       ??_C@_1M@CGFMKEEK@?$AAe?$AAs?$AA?9?$AAP?$AAR?$AA?$AA@ 10052974     LIBCMT:winapinls.obj
 0002:00010980       ??_C@_1O@ICJHKIIK@?$AAz?$AAh?$AA?9?$AAC?$AAH?$AAT?$AA?$AA@ 10052980     LIBCMT:winapinls.obj
 0002:00010990       ??_C@_15CLNEJCE@?$AAs?$AAr?$AA?$AA@ 10052990     LIBCMT:winapinls.obj
 0002:00010998       ??_C@_1M@KAHEKEIG@?$AAa?$AAf?$AA?9?$AAz?$AAa?$AA?$AA@ 10052998     LIBCMT:winapinls.obj
 0002:000109a4       ??_C@_1M@GIECOABL@?$AAa?$AAr?$AA?9?$AAa?$AAe?$AA?$AA@ 100529a4     LIBCMT:winapinls.obj
 0002:000109b0       ??_C@_1M@BMLMEKGI@?$AAa?$AAr?$AA?9?$AAb?$AAh?$AA?$AA@ 100529b0     LIBCMT:winapinls.obj
 0002:000109bc       ??_C@_1M@DAPFDGGB@?$AAa?$AAr?$AA?9?$AAd?$AAz?$AA?$AA@ 100529bc     LIBCMT:winapinls.obj
 0002:000109c8       ??_C@_1M@FJNKGKIG@?$AAa?$AAr?$AA?9?$AAe?$AAg?$AA?$AA@ 100529c8     LIBCMT:winapinls.obj
 0002:000109d4       ??_C@_1M@FLGKKCLO@?$AAa?$AAr?$AA?9?$AAi?$AAq?$AA?$AA@ 100529d4     LIBCMT:winapinls.obj
 0002:000109e0       ??_C@_1M@GNDIPALM@?$AAa?$AAr?$AA?9?$AAj?$AAo?$AA?$AA@ 100529e0     LIBCMT:winapinls.obj
 0002:000109ec       ??_C@_1M@DDMJFMGJ@?$AAa?$AAr?$AA?9?$AAk?$AAw?$AA?$AA@ 100529ec     LIBCMT:winapinls.obj
 0002:000109f8       ??_C@_1M@EJALMLHM@?$AAa?$AAr?$AA?9?$AAl?$AAb?$AA?$AA@ 100529f8     LIBCMT:winapinls.obj
 0002:00010a04       ??_C@_1M@MOBDBLOC@?$AAa?$AAr?$AA?9?$AAl?$AAy?$AA?$AA@ 10052a04     LIBCMT:winapinls.obj
 0002:00010a10       ??_C@_1M@JAOCLHDH@?$AAa?$AAr?$AA?9?$AAm?$AAa?$AA?$AA@ 10052a10     LIBCMT:winapinls.obj
 0002:00010a1c       ??_C@_1M@JHPMKJIE@?$AAa?$AAr?$AA?9?$AAo?$AAm?$AA?$AA@ 10052a1c     LIBCMT:winapinls.obj
 0002:00010a28       ??_C@_1M@OEPGHFNH@?$AAa?$AAr?$AA?9?$AAq?$AAa?$AA?$AA@ 10052a28     LIBCMT:winapinls.obj
 0002:00010a34       ??_C@_1M@KJDONENM@?$AAa?$AAr?$AA?9?$AAs?$AAa?$AA?$AA@ 10052a34     LIBCMT:winapinls.obj
 0002:00010a40       ??_C@_1M@DMJDKLKM@?$AAa?$AAr?$AA?9?$AAs?$AAy?$AA?$AA@ 10052a40     LIBCMT:winapinls.obj
 0002:00010a4c       ??_C@_1M@OMFIPEDC@?$AAa?$AAr?$AA?9?$AAt?$AAn?$AA?$AA@ 10052a4c     LIBCMT:winapinls.obj
 0002:00010a58       ??_C@_1M@IHMHGAON@?$AAa?$AAr?$AA?9?$AAy?$AAe?$AA?$AA@ 10052a58     LIBCMT:winapinls.obj
 0002:00010a64       ??_C@_1BG@KDCPGJGB@?$AAa?$AAz?$AA?9?$AAa?$AAz?$AA?9?$AAc?$AAy?$AAr?$AAl?$AA?$AA@ 10052a64     LIBCMT:winapinls.obj
 0002:00010a7c       ??_C@_1BG@IBCKDDOE@?$AAa?$AAz?$AA?9?$AAa?$AAz?$AA?9?$AAl?$AAa?$AAt?$AAn?$AA?$AA@ 10052a7c     LIBCMT:winapinls.obj
 0002:00010a94       ??_C@_1M@EGPFDCPD@?$AAb?$AAe?$AA?9?$AAb?$AAy?$AA?$AA@ 10052a94     LIBCMT:winapinls.obj
 0002:00010aa0       ??_C@_1M@PCMGMCGC@?$AAb?$AAg?$AA?9?$AAb?$AAg?$AA?$AA@ 10052aa0     LIBCMT:winapinls.obj
 0002:00010aac       ??_C@_1M@BJBMFGOB@?$AAb?$AAn?$AA?9?$AAi?$AAn?$AA?$AA@ 10052aac     LIBCMT:winapinls.obj
 0002:00010ab8       ??_C@_1BG@EAKMMACD@?$AAb?$AAs?$AA?9?$AAb?$AAa?$AA?9?$AAl?$AAa?$AAt?$AAn?$AA?$AA@ 10052ab8     LIBCMT:winapinls.obj
 0002:00010ad0       ??_C@_1M@KGADAODK@?$AAc?$AAa?$AA?9?$AAe?$AAs?$AA?$AA@ 10052ad0     LIBCMT:winapinls.obj
 0002:00010adc       ??_C@_1M@COAJPDHI@?$AAc?$AAs?$AA?9?$AAc?$AAz?$AA?$AA@ 10052adc     LIBCMT:winapinls.obj
 0002:00010ae8       ??_C@_1M@DHBHFONH@?$AAc?$AAy?$AA?9?$AAg?$AAb?$AA?$AA@ 10052ae8     LIBCMT:winapinls.obj
 0002:00010af4       ??_C@_1M@IMGKELGA@?$AAd?$AAa?$AA?9?$AAd?$AAk?$AA?$AA@ 10052af4     LIBCMT:winapinls.obj
 0002:00010b00       ??_C@_1M@NNDGDNGA@?$AAd?$AAe?$AA?9?$AAa?$AAt?$AA?$AA@ 10052b00     LIBCMT:winapinls.obj
 0002:00010b0c       ??_C@_1M@IKDBHEEM@?$AAd?$AAe?$AA?9?$AAc?$AAh?$AA?$AA@ 10052b0c     LIBCMT:winapinls.obj
 0002:00010b18       ??_C@_1M@GFFOJMCJ@?$AAd?$AAe?$AA?9?$AAd?$AAe?$AA?$AA@ 10052b18     LIBCMT:winapinls.obj
 0002:00010b24       ??_C@_1M@MDNLKBPM@?$AAd?$AAe?$AA?9?$AAl?$AAi?$AA?$AA@ 10052b24     LIBCMT:winapinls.obj
 0002:00010b30       ??_C@_1M@NJBEEJNL@?$AAd?$AAe?$AA?9?$AAl?$AAu?$AA?$AA@ 10052b30     LIBCMT:winapinls.obj
 0002:00010b3c       ??_C@_1O@GNNELBAP@?$AAd?$AAi?$AAv?$AA?9?$AAm?$AAv?$AA?$AA@ 10052b3c     LIBCMT:winapinls.obj
 0002:00010b4c       ??_C@_1M@EJLEOGAE@?$AAe?$AAl?$AA?9?$AAg?$AAr?$AA?$AA@ 10052b4c     LIBCMT:winapinls.obj
 0002:00010b58       ??_C@_1M@GMPONJN@?$AAe?$AAn?$AA?9?$AAa?$AAu?$AA?$AA@ 10052b58     LIBCMT:winapinls.obj
 0002:00010b64       ??_C@_1M@NIDIIPGF@?$AAe?$AAn?$AA?9?$AAb?$AAz?$AA?$AA@ 10052b64     LIBCMT:winapinls.obj
 0002:00010b70       ??_C@_1M@JEHMIMFO@?$AAe?$AAn?$AA?9?$AAc?$AAa?$AA?$AA@ 10052b70     LIBCMT:winapinls.obj
 0002:00010b7c       ??_C@_1M@IGMJCDLA@?$AAe?$AAn?$AA?9?$AAc?$AAb?$AA?$AA@ 10052b7c     LIBCMT:winapinls.obj
 0002:00010b88       ??_C@_1M@BNFIGBKG@?$AAe?$AAn?$AA?9?$AAg?$AAb?$AA?$AA@ 10052b88     LIBCMT:winapinls.obj
 0002:00010b94       ??_C@_1M@LKIFDIGP@?$AAe?$AAn?$AA?9?$AAi?$AAe?$AA?$AA@ 10052b94     LIBCMT:winapinls.obj
 0002:00010ba0       ??_C@_1M@PJKFGCCO@?$AAe?$AAn?$AA?9?$AAj?$AAm?$AA?$AA@ 10052ba0     LIBCMT:winapinls.obj
 0002:00010bac       ??_C@_1M@KPPKEPBO@?$AAe?$AAn?$AA?9?$AAn?$AAz?$AA?$AA@ 10052bac     LIBCMT:winapinls.obj
 0002:00010bb8       ??_C@_1M@GMDGLDOB@?$AAe?$AAn?$AA?9?$AAp?$AAh?$AA?$AA@ 10052bb8     LIBCMT:winapinls.obj
 0002:00010bc4       ??_C@_1M@ONGIBJNA@?$AAe?$AAn?$AA?9?$AAt?$AAt?$AA?$AA@ 10052bc4     LIBCMT:winapinls.obj
 0002:00010bd0       ??_C@_1M@LLODPCMM@?$AAe?$AAn?$AA?9?$AAu?$AAs?$AA?$AA@ 10052bd0     LIBCMT:winapinls.obj
 0002:00010bdc       ??_C@_1M@LAKFNPAN@?$AAe?$AAn?$AA?9?$AAz?$AAa?$AA?$AA@ 10052bdc     LIBCMT:winapinls.obj
 0002:00010be8       ??_C@_1M@MFNHNHEO@?$AAe?$AAn?$AA?9?$AAz?$AAw?$AA?$AA@ 10052be8     LIBCMT:winapinls.obj
 0002:00010bf4       ??_C@_1M@EJEINPHM@?$AAe?$AAs?$AA?9?$AAa?$AAr?$AA?$AA@ 10052bf4     LIBCMT:winapinls.obj
 0002:00010c00       ??_C@_1M@GNKPCCJA@?$AAe?$AAs?$AA?9?$AAb?$AAo?$AA?$AA@ 10052c00     LIBCMT:winapinls.obj
 0002:00010c0c       ??_C@_1M@LEEGFONL@?$AAe?$AAs?$AA?9?$AAc?$AAl?$AA?$AA@ 10052c0c     LIBCMT:winapinls.obj
 0002:00010c18       ??_C@_1M@KGPDPBDF@?$AAe?$AAs?$AA?9?$AAc?$AAo?$AA?$AA@ 10052c18     LIBCMT:winapinls.obj
 0002:00010c24       ??_C@_1M@EIAHOHH@?$AAe?$AAs?$AA?9?$AAc?$AAr?$AA?$AA@ 10052c24     LIBCMT:winapinls.obj
 0002:00010c30       ??_C@_1M@LLPGMBIN@?$AAe?$AAs?$AA?9?$AAd?$AAo?$AA?$AA@ 10052c30     LIBCMT:winapinls.obj
 0002:00010c3c       ??_C@_1M@DKHMKNJA@?$AAe?$AAs?$AA?9?$AAe?$AAc?$AA?$AA@ 10052c3c     LIBCMT:winapinls.obj
 0002:00010c48       ??_C@_1M@GKGFPKAP@?$AAe?$AAs?$AA?9?$AAe?$AAs?$AA?$AA@ 10052c48     LIBCMT:winapinls.obj
 0002:00010c54       ??_C@_1M@LKHKGDLN@?$AAe?$AAs?$AA?9?$AAg?$AAt?$AA?$AA@ 10052c54     LIBCMT:winapinls.obj
 0002:00010c60       ??_C@_1M@HEIIGGJD@?$AAe?$AAs?$AA?9?$AAh?$AAn?$AA?$AA@ 10052c60     LIBCMT:winapinls.obj
 0002:00010c6c       ??_C@_1M@FBDHPPGD@?$AAe?$AAs?$AA?9?$AAm?$AAx?$AA?$AA@ 10052c6c     LIBCMT:winapinls.obj
 0002:00010c78       ??_C@_1M@DPAGLNDH@?$AAe?$AAs?$AA?9?$AAn?$AAi?$AA?$AA@ 10052c78     LIBCMT:winapinls.obj
 0002:00010c84       ??_C@_1M@MDGOPGDD@?$AAe?$AAs?$AA?9?$AAp?$AAa?$AA?$AA@ 10052c84     LIBCMT:winapinls.obj
 0002:00010c90       ??_C@_1M@EMAMGBGE@?$AAe?$AAs?$AA?9?$AAp?$AAe?$AA?$AA@ 10052c90     LIBCMT:winapinls.obj
 0002:00010c9c       ??_C@_1M@IBMCAOEC@?$AAe?$AAs?$AA?9?$AAp?$AAr?$AA?$AA@ 10052c9c     LIBCMT:winapinls.obj
 0002:00010ca8       ??_C@_1M@FGMDIJED@?$AAe?$AAs?$AA?9?$AAp?$AAy?$AA?$AA@ 10052ca8     LIBCMT:winapinls.obj
 0002:00010cb4       ??_C@_1M@IIDEOLLL@?$AAe?$AAs?$AA?9?$AAs?$AAv?$AA?$AA@ 10052cb4     LIBCMT:winapinls.obj
 0002:00010cc0       ??_C@_1M@GAOBIPA@?$AAe?$AAs?$AA?9?$AAu?$AAy?$AA?$AA@ 10052cc0     LIBCMT:winapinls.obj
 0002:00010ccc       ??_C@_1M@JKFFICHJ@?$AAe?$AAs?$AA?9?$AAv?$AAe?$AA?$AA@ 10052ccc     LIBCMT:winapinls.obj
 0002:00010cd8       ??_C@_1M@PNMLOJDF@?$AAe?$AAt?$AA?9?$AAe?$AAe?$AA?$AA@ 10052cd8     LIBCMT:winapinls.obj
 0002:00010ce4       ??_C@_1M@GHHLIKEI@?$AAe?$AAu?$AA?9?$AAe?$AAs?$AA?$AA@ 10052ce4     LIBCMT:winapinls.obj
 0002:00010cf0       ??_C@_1M@PBNONODE@?$AAf?$AAa?$AA?9?$AAi?$AAr?$AA?$AA@ 10052cf0     LIBCMT:winapinls.obj
 0002:00010cfc       ??_C@_1M@JEEHPMIL@?$AAf?$AAi?$AA?9?$AAf?$AAi?$AA?$AA@ 10052cfc     LIBCMT:winapinls.obj
 0002:00010d08       ??_C@_1M@LMDCNDBA@?$AAf?$AAo?$AA?9?$AAf?$AAo?$AA?$AA@ 10052d08     LIBCMT:winapinls.obj
 0002:00010d14       ??_C@_1M@JKEOHLDK@?$AAf?$AAr?$AA?9?$AAb?$AAe?$AA?$AA@ 10052d14     LIBCMT:winapinls.obj
 0002:00010d20       ??_C@_1M@NOHADPMI@?$AAf?$AAr?$AA?9?$AAc?$AAa?$AA?$AA@ 10052d20     LIBCMT:winapinls.obj
 0002:00010d2c       ??_C@_1M@KDHIHAEC@?$AAf?$AAr?$AA?9?$AAc?$AAh?$AA?$AA@ 10052d2c     LIBCMT:winapinls.obj
 0002:00010d38       ??_C@_1M@MMBBFGAK@?$AAf?$AAr?$AA?9?$AAf?$AAr?$AA?$AA@ 10052d38     LIBCMT:winapinls.obj
 0002:00010d44       ??_C@_1M@PAFNENNF@?$AAf?$AAr?$AA?9?$AAl?$AAu?$AA?$AA@ 10052d44     LIBCMT:winapinls.obj
 0002:00010d50       ??_C@_1M@EOHDJGDD@?$AAf?$AAr?$AA?9?$AAm?$AAc?$AA?$AA@ 10052d50     LIBCMT:winapinls.obj
 0002:00010d5c       ??_C@_1M@FAPLLOPF@?$AAg?$AAl?$AA?9?$AAe?$AAs?$AA?$AA@ 10052d5c     LIBCMT:winapinls.obj
 0002:00010d68       ??_C@_1M@FOPBFLOO@?$AAg?$AAu?$AA?9?$AAi?$AAn?$AA?$AA@ 10052d68     LIBCMT:winapinls.obj
 0002:00010d74       ??_C@_1M@KBMCINPM@?$AAh?$AAe?$AA?9?$AAi?$AAl?$AA?$AA@ 10052d74     LIBCMT:winapinls.obj
 0002:00010d80       ??_C@_1M@BBPHKFPJ@?$AAh?$AAi?$AA?9?$AAi?$AAn?$AA?$AA@ 10052d80     LIBCMT:winapinls.obj
 0002:00010d8c       ??_C@_1M@PMBNDPHD@?$AAh?$AAr?$AA?9?$AAb?$AAa?$AA?$AA@ 10052d8c     LIBCMT:winapinls.obj
 0002:00010d98       ??_C@_1M@BPCKOEGE@?$AAh?$AAr?$AA?9?$AAh?$AAr?$AA?$AA@ 10052d98     LIBCMT:winapinls.obj
 0002:00010da4       ??_C@_1M@GACBMHKE@?$AAh?$AAu?$AA?9?$AAh?$AAu?$AA?$AA@ 10052da4     LIBCMT:winapinls.obj
 0002:00010db0       ??_C@_1M@MILPAJJC@?$AAh?$AAy?$AA?9?$AAa?$AAm?$AA?$AA@ 10052db0     LIBCMT:winapinls.obj
 0002:00010dbc       ??_C@_1M@BABBICEC@?$AAi?$AAd?$AA?9?$AAi?$AAd?$AA?$AA@ 10052dbc     LIBCMT:winapinls.obj
 0002:00010dc8       ??_C@_1M@BIKNHHPF@?$AAi?$AAs?$AA?9?$AAi?$AAs?$AA?$AA@ 10052dc8     LIBCMT:winapinls.obj
 0002:00010dd4       ??_C@_1M@NMPCJPHE@?$AAi?$AAt?$AA?9?$AAc?$AAh?$AA?$AA@ 10052dd4     LIBCMT:winapinls.obj
 0002:00010de0       ??_C@_1M@GHKGFEDF@?$AAi?$AAt?$AA?9?$AAi?$AAt?$AA?$AA@ 10052de0     LIBCMT:winapinls.obj
 0002:00010dec       ??_C@_1M@NIEJCJJA@?$AAj?$AAa?$AA?9?$AAj?$AAp?$AA?$AA@ 10052dec     LIBCMT:winapinls.obj
 0002:00010df8       ??_C@_1M@JILFNBIM@?$AAk?$AAa?$AA?9?$AAg?$AAe?$AA?$AA@ 10052df8     LIBCMT:winapinls.obj
 0002:00010e04       ??_C@_1M@PACPMGPH@?$AAk?$AAk?$AA?9?$AAk?$AAz?$AA?$AA@ 10052e04     LIBCMT:winapinls.obj
 0002:00010e10       ??_C@_1M@IELFGMHA@?$AAk?$AAn?$AA?9?$AAi?$AAn?$AA?$AA@ 10052e10     LIBCMT:winapinls.obj
 0002:00010e1c       ??_C@_1O@IBBJHCH@?$AAk?$AAo?$AAk?$AA?9?$AAi?$AAn?$AA?$AA@ 10052e1c     LIBCMT:winapinls.obj
 0002:00010e2c       ??_C@_1M@DMHAEOGC@?$AAk?$AAo?$AA?9?$AAk?$AAr?$AA?$AA@ 10052e2c     LIBCMT:winapinls.obj
 0002:00010e38       ??_C@_1M@HBAHBIGA@?$AAk?$AAy?$AA?9?$AAk?$AAg?$AA?$AA@ 10052e38     LIBCMT:winapinls.obj
 0002:00010e44       ??_C@_1M@KPMILCJG@?$AAl?$AAt?$AA?9?$AAl?$AAt?$AA?$AA@ 10052e44     LIBCMT:winapinls.obj
 0002:00010e50       ??_C@_1M@BDEKKCA@?$AAl?$AAv?$AA?9?$AAl?$AAv?$AA?$AA@ 10052e50     LIBCMT:winapinls.obj
 0002:00010e5c       ??_C@_1M@ELCKCCJJ@?$AAm?$AAi?$AA?9?$AAn?$AAz?$AA?$AA@ 10052e5c     LIBCMT:winapinls.obj
 0002:00010e68       ??_C@_1M@CBOOLAPA@?$AAm?$AAk?$AA?9?$AAm?$AAk?$AA?$AA@ 10052e68     LIBCMT:winapinls.obj
 0002:00010e74       ??_C@_1M@GPHNBJKN@?$AAm?$AAl?$AA?9?$AAi?$AAn?$AA?$AA@ 10052e74     LIBCMT:winapinls.obj
 0002:00010e80       ??_C@_1M@PABJILIG@?$AAm?$AAn?$AA?9?$AAm?$AAn?$AA?$AA@ 10052e80     LIBCMT:winapinls.obj
 0002:00010e8c       ??_C@_1M@FGBKKIPG@?$AAm?$AAr?$AA?9?$AAi?$AAn?$AA?$AA@ 10052e8c     LIBCMT:winapinls.obj
 0002:00010e98       ??_C@_1M@NDBPDDAL@?$AAm?$AAs?$AA?9?$AAb?$AAn?$AA?$AA@ 10052e98     LIBCMT:winapinls.obj
 0002:00010ea4       ??_C@_1M@OPIHOOPI@?$AAm?$AAs?$AA?9?$AAm?$AAy?$AA?$AA@ 10052ea4     LIBCMT:winapinls.obj
 0002:00010eb0       ??_C@_1M@PPDBCNFM@?$AAm?$AAt?$AA?9?$AAm?$AAt?$AA?$AA@ 10052eb0     LIBCMT:winapinls.obj
 0002:00010ebc       ??_C@_1M@KDJDKMDD@?$AAn?$AAb?$AA?9?$AAn?$AAo?$AA?$AA@ 10052ebc     LIBCMT:winapinls.obj
 0002:00010ec8       ??_C@_1M@KFCFLMJP@?$AAn?$AAl?$AA?9?$AAb?$AAe?$AA?$AA@ 10052ec8     LIBCMT:winapinls.obj
 0002:00010ed4       ??_C@_1M@KPOPDDGO@?$AAn?$AAl?$AA?9?$AAn?$AAl?$AA?$AA@ 10052ed4     LIBCMT:winapinls.obj
 0002:00010ee0       ??_C@_1M@LJKPEMLN@?$AAn?$AAn?$AA?9?$AAn?$AAo?$AA?$AA@ 10052ee0     LIBCMT:winapinls.obj
 0002:00010eec       ??_C@_1M@BDGHHBFL@?$AAn?$AAs?$AA?9?$AAz?$AAa?$AA?$AA@ 10052eec     LIBCMT:winapinls.obj
 0002:00010ef8       ??_C@_1M@IDEHOAP@?$AAp?$AAa?$AA?9?$AAi?$AAn?$AA?$AA@ 10052ef8     LIBCMT:winapinls.obj
 0002:00010f04       ??_C@_1M@HDBKGOGH@?$AAp?$AAl?$AA?9?$AAp?$AAl?$AA?$AA@ 10052f04     LIBCMT:winapinls.obj
 0002:00010f10       ??_C@_1M@LJLLCMEH@?$AAp?$AAt?$AA?9?$AAb?$AAr?$AA?$AA@ 10052f10     LIBCMT:winapinls.obj
 0002:00010f1c       ??_C@_1M@NCMONAAL@?$AAp?$AAt?$AA?9?$AAp?$AAt?$AA?$AA@ 10052f1c     LIBCMT:winapinls.obj
 0002:00010f28       ??_C@_1O@EAKMAJDN@?$AAq?$AAu?$AAz?$AA?9?$AAb?$AAo?$AA?$AA@ 10052f28     LIBCMT:winapinls.obj
 0002:00010f38       ??_C@_1O@BHHPIGDN@?$AAq?$AAu?$AAz?$AA?9?$AAe?$AAc?$AA?$AA@ 10052f38     LIBCMT:winapinls.obj
 0002:00010f48       ??_C@_1O@GBAPEKMJ@?$AAq?$AAu?$AAz?$AA?9?$AAp?$AAe?$AA?$AA@ 10052f48     LIBCMT:winapinls.obj
 0002:00010f58       ??_C@_1M@CLGLEFBO@?$AAr?$AAo?$AA?9?$AAr?$AAo?$AA?$AA@ 10052f58     LIBCMT:winapinls.obj
 0002:00010f64       ??_C@_1M@CEEDODME@?$AAr?$AAu?$AA?9?$AAr?$AAu?$AA?$AA@ 10052f64     LIBCMT:winapinls.obj
 0002:00010f70       ??_C@_1M@HPKKKMPP@?$AAs?$AAa?$AA?9?$AAi?$AAn?$AA?$AA@ 10052f70     LIBCMT:winapinls.obj
 0002:00010f7c       ??_C@_1M@BKMAIGOJ@?$AAs?$AAe?$AA?9?$AAf?$AAi?$AA?$AA@ 10052f7c     LIBCMT:winapinls.obj
 0002:00010f88       ??_C@_1M@NDPIFLFI@?$AAs?$AAe?$AA?9?$AAn?$AAo?$AA?$AA@ 10052f88     LIBCMT:winapinls.obj
 0002:00010f94       ??_C@_1M@DANKKHJ@?$AAs?$AAe?$AA?9?$AAs?$AAe?$AA?$AA@ 10052f94     LIBCMT:winapinls.obj
 0002:00010fa0       ??_C@_1M@PNBLONPJ@?$AAs?$AAk?$AA?9?$AAs?$AAk?$AA?$AA@ 10052fa0     LIBCMT:winapinls.obj
 0002:00010fac       ??_C@_1M@LFMODOAL@?$AAs?$AAl?$AA?9?$AAs?$AAi?$AA?$AA@ 10052fac     LIBCMT:winapinls.obj
 0002:00010fb8       ??_C@_1O@DFKOMPG@?$AAs?$AAm?$AAa?$AA?9?$AAn?$AAo?$AA?$AA@ 10052fb8     LIBCMT:winapinls.obj
 0002:00010fc8       ??_C@_1O@NDKPBNNH@?$AAs?$AAm?$AAa?$AA?9?$AAs?$AAe?$AA?$AA@ 10052fc8     LIBCMT:winapinls.obj
 0002:00010fd8       ??_C@_1O@PLLKBHAB@?$AAs?$AAm?$AAj?$AA?9?$AAn?$AAo?$AA?$AA@ 10052fd8     LIBCMT:winapinls.obj
 0002:00010fe8       ??_C@_1O@CLEPOGCA@?$AAs?$AAm?$AAj?$AA?9?$AAs?$AAe?$AA?$AA@ 10052fe8     LIBCMT:winapinls.obj
 0002:00010ff8       ??_C@_1O@DLGJGKMK@?$AAs?$AAm?$AAn?$AA?9?$AAf?$AAi?$AA?$AA@ 10052ff8     LIBCMT:winapinls.obj
 0002:00011008       ??_C@_1O@OJDJGAJC@?$AAs?$AAm?$AAs?$AA?9?$AAf?$AAi?$AA?$AA@ 10053008     LIBCMT:winapinls.obj
 0002:00011018       ??_C@_1M@BOFOGHPB@?$AAs?$AAq?$AA?9?$AAa?$AAl?$AA?$AA@ 10053018     LIBCMT:winapinls.obj
 0002:00011024       ??_C@_1BG@LJBBIPGB@?$AAs?$AAr?$AA?9?$AAb?$AAa?$AA?9?$AAc?$AAy?$AAr?$AAl?$AA?$AA@ 10053024     LIBCMT:winapinls.obj
 0002:0001103c       ??_C@_1BG@JLBENFOE@?$AAs?$AAr?$AA?9?$AAb?$AAa?$AA?9?$AAl?$AAa?$AAt?$AAn?$AA?$AA@ 1005303c     LIBCMT:winapinls.obj
 0002:00011054       ??_C@_1BG@KODPNHE@?$AAs?$AAr?$AA?9?$AAs?$AAp?$AA?9?$AAc?$AAy?$AAr?$AAl?$AA?$AA@ 10053054     LIBCMT:winapinls.obj
 0002:0001106c       ??_C@_1BG@CIOGKHPB@?$AAs?$AAr?$AA?9?$AAs?$AAp?$AA?9?$AAl?$AAa?$AAt?$AAn?$AA?$AA@ 1005306c     LIBCMT:winapinls.obj
 0002:00011084       ??_C@_1M@NGFJLMAC@?$AAs?$AAv?$AA?9?$AAf?$AAi?$AA?$AA@ 10053084     LIBCMT:winapinls.obj
 0002:00011090       ??_C@_1M@MPJEJAJC@?$AAs?$AAv?$AA?9?$AAs?$AAe?$AA?$AA@ 10053090     LIBCMT:winapinls.obj
 0002:0001109c       ??_C@_1M@MPNDHLFK@?$AAs?$AAw?$AA?9?$AAk?$AAe?$AA?$AA@ 1005309c     LIBCMT:winapinls.obj
 0002:000110a8       ??_C@_1O@KOHBJJI@?$AAs?$AAy?$AAr?$AA?9?$AAs?$AAy?$AA?$AA@ 100530a8     LIBCMT:winapinls.obj
 0002:000110b8       ??_C@_1M@LDCEFHA@?$AAt?$AAa?$AA?9?$AAi?$AAn?$AA?$AA@ 100530b8     LIBCMT:winapinls.obj
 0002:000110c4       ??_C@_1M@CNJOFAK@?$AAt?$AAe?$AA?9?$AAi?$AAn?$AA?$AA@ 100530c4     LIBCMT:winapinls.obj
 0002:000110d0       ??_C@_1M@GNAECACD@?$AAt?$AAh?$AA?9?$AAt?$AAh?$AA?$AA@ 100530d0     LIBCMT:winapinls.obj
 0002:000110dc       ??_C@_1M@CHBIHOJO@?$AAt?$AAn?$AA?9?$AAz?$AAa?$AA?$AA@ 100530dc     LIBCMT:winapinls.obj
 0002:000110e8       ??_C@_1M@GCCMIGPJ@?$AAt?$AAr?$AA?9?$AAt?$AAr?$AA?$AA@ 100530e8     LIBCMT:winapinls.obj
 0002:000110f4       ??_C@_1M@CELMCNBK@?$AAt?$AAt?$AA?9?$AAr?$AAu?$AA?$AA@ 100530f4     LIBCMT:winapinls.obj
 0002:00011100       ??_C@_1M@KLMCELGA@?$AAu?$AAk?$AA?9?$AAu?$AAa?$AA?$AA@ 10053100     LIBCMT:winapinls.obj
 0002:0001110c       ??_C@_1M@EPAJJAJF@?$AAu?$AAr?$AA?9?$AAp?$AAk?$AA?$AA@ 1005310c     LIBCMT:winapinls.obj
 0002:00011118       ??_C@_1BG@GEGPMCDJ@?$AAu?$AAz?$AA?9?$AAu?$AAz?$AA?9?$AAc?$AAy?$AAr?$AAl?$AA?$AA@ 10053118     LIBCMT:winapinls.obj
 0002:00011130       ??_C@_1BG@EGGKJILM@?$AAu?$AAz?$AA?9?$AAu?$AAz?$AA?9?$AAl?$AAa?$AAt?$AAn?$AA?$AA@ 10053130     LIBCMT:winapinls.obj
 0002:00011148       ??_C@_1M@GFOCLFF@?$AAv?$AAi?$AA?9?$AAv?$AAn?$AA?$AA@ 10053148     LIBCMT:winapinls.obj
 0002:00011154       ??_C@_1M@CPAMEDFI@?$AAx?$AAh?$AA?9?$AAz?$AAa?$AA?$AA@ 10053154     LIBCMT:winapinls.obj
 0002:00011160       ??_C@_1O@EBKIFIGN@?$AAz?$AAh?$AA?9?$AAc?$AAh?$AAs?$AA?$AA@ 10053160     LIBCMT:winapinls.obj
 0002:00011170       ??_C@_1O@NMHPGANE@?$AAz?$AAh?$AA?9?$AAc?$AAh?$AAt?$AA?$AA@ 10053170     LIBCMT:winapinls.obj
 0002:00011180       ??_C@_1M@LPINJOMC@?$AAz?$AAh?$AA?9?$AAc?$AAn?$AA?$AA@ 10053180     LIBCMT:winapinls.obj
 0002:0001118c       ??_C@_1M@OCJEJODD@?$AAz?$AAh?$AA?9?$AAh?$AAk?$AA?$AA@ 1005318c     LIBCMT:winapinls.obj
 0002:00011198       ??_C@_1M@DNDLJINH@?$AAz?$AAh?$AA?9?$AAm?$AAo?$AA?$AA@ 10053198     LIBCMT:winapinls.obj
 0002:000111a4       ??_C@_1M@MBFDNDND@?$AAz?$AAh?$AA?9?$AAs?$AAg?$AA?$AA@ 100531a4     LIBCMT:winapinls.obj
 0002:000111b0       ??_C@_1M@IMEPLEPE@?$AAz?$AAh?$AA?9?$AAt?$AAw?$AA?$AA@ 100531b0     LIBCMT:winapinls.obj
 0002:000111bc       ??_C@_1M@BBGHNHJP@?$AAz?$AAu?$AA?9?$AAz?$AAa?$AA?$AA@ 100531bc     LIBCMT:winapinls.obj
 0002:000111c8       ___newctype                100531c8     LIBCMT:ctype.obj
 0002:000114c8       __wctype                   100534c8     LIBCMT:ctype.obj
 0002:000116d0       ___newclmap                100536d0     LIBCMT:ctype.obj
 0002:00011850       ___newcumap                10053850     LIBCMT:ctype.obj
 0002:000119d0       ___lc_category             100539d0     LIBCMT:wsetloca.obj
 0002:00011a18       ??_C@_1O@GIFLHMA@?$AAL?$AAC?$AA_?$AAA?$AAL?$AAL?$AA?$AA@ 10053a18     LIBCMT:wsetloca.obj
 0002:00011a28       ??_C@_1BG@PPOMIBNJ@?$AAL?$AAC?$AA_?$AAC?$AAO?$AAL?$AAL?$AAA?$AAT?$AAE?$AA?$AA@ 10053a28     LIBCMT:wsetloca.obj
 0002:00011a40       ??_C@_1BC@FFJGAPJM@?$AAL?$AAC?$AA_?$AAC?$AAT?$AAY?$AAP?$AAE?$AA?$AA@ 10053a40     LIBCMT:wsetloca.obj
 0002:00011a54       ??_C@_1BI@PCKFNJFB@?$AAL?$AAC?$AA_?$AAM?$AAO?$AAN?$AAE?$AAT?$AAA?$AAR?$AAY?$AA?$AA@ 10053a54     LIBCMT:wsetloca.obj
 0002:00011a6c       ??_C@_1BG@ENIEDKID@?$AAL?$AAC?$AA_?$AAN?$AAU?$AAM?$AAE?$AAR?$AAI?$AAC?$AA?$AA@ 10053a6c     LIBCMT:wsetloca.obj
 0002:00011a84       ??_C@_1BA@HAAOMIIG@?$AAL?$AAC?$AA_?$AAT?$AAI?$AAM?$AAE?$AA?$AA@ 10053a84     LIBCMT:wsetloca.obj
 0002:00011b18       ??_C@_15NBPDDFIP@?$AA?$DN?$AA?$DL?$AA?$AA@ 10053b18     LIBCMT:wsetloca.obj
 0002:00011b20       ??_C@_13PJJBFPED@?$AA?$DL?$AA?$AA@ 10053b20     LIBCMT:wsetloca.obj
 0002:00011b24       ??_C@_13NMPKAAJP@?$AA?$DN?$AA?$AA@ 10053b24     LIBCMT:wsetloca.obj
 0002:00011b28       ??_C@_13FHBKNHDA@?$AAC?$AA?$AA@ 10053b28     LIBCMT:wsetloca.obj
 0002:00011b2c       ??_C@_17MBJJLFDM@?$AA_?$AA?4?$AA?0?$AA?$AA@ 10053b2c     LIBCMT:wsetloca.obj
 0002:00011b34       ??_C@_13ENNFDPBH@?$AA_?$AA?$AA@ 10053b34     LIBCMT:wsetloca.obj
 0002:00011b38       ??_C@_13JOFGPIOO@?$AA?4?$AA?$AA@ 10053b38     LIBCMT:wsetloca.obj
 0002:00011b3c       ??_C@_06PGGFOGJG@1?$CDSNAN?$AA@ 10053b3c     LIBCMT:x10fout.obj
 0002:00011b44       ??_C@_05PHHOCPM@1?$CDIND?$AA@ 10053b44     LIBCMT:x10fout.obj
 0002:00011b4c       ??_C@_05DNEBIAHO@1?$CDINF?$AA@ 10053b4c     LIBCMT:x10fout.obj
 0002:00011b54       ??_C@_06IMKFLFPG@1?$CDQNAN?$AA@ 10053b54     LIBCMT:x10fout.obj
 0002:00011b5c       ??_C@_0M@HHGEPIBF@CreateFile2?$AA@ 10053b5c     LIBCMT:wopen.obj
 0002:00011b68       ??_C@_1BA@BALFACEM@?$AAC?$AAO?$AAN?$AAO?$AAU?$AAT?$AA$?$AA?$AA@ 10053b68     LIBCMT:initcon.obj
 0002:00011b78       ___rg_language             10053b78     LIBCMT:getqloc.obj
 0002:00011e84       ??_C@_1BC@LLOKLNP@?$AAa?$AAm?$AAe?$AAr?$AAi?$AAc?$AAa?$AAn?$AA?$AA@ 10053e84     LIBCMT:getqloc.obj
 0002:00011e98       ??_C@_1CC@HEIGCDGG@?$AAa?$AAm?$AAe?$AAr?$AAi?$AAc?$AAa?$AAn?$AA?5?$AAe?$AAn?$AAg?$AAl?$AAi?$AAs?$AAh?$AA?$AA@ 10053e98     LIBCMT:getqloc.obj
 0002:00011ebc       ??_C@_1CC@IHCNOMIN@?$AAa?$AAm?$AAe?$AAr?$AAi?$AAc?$AAa?$AAn?$AA?9?$AAe?$AAn?$AAg?$AAl?$AAi?$AAs?$AAh?$AA?$AA@ 10053ebc     LIBCMT:getqloc.obj
 0002:00011ee0       ??_C@_1BG@GKAGPCGG@?$AAa?$AAu?$AAs?$AAt?$AAr?$AAa?$AAl?$AAi?$AAa?$AAn?$AA?$AA@ 10053ee0     LIBCMT:getqloc.obj
 0002:00011ef8       ??_C@_1BA@GMENCENF@?$AAb?$AAe?$AAl?$AAg?$AAi?$AAa?$AAn?$AA?$AA@ 10053ef8     LIBCMT:getqloc.obj
 0002:00011f08       ??_C@_1BC@PJMIIAAN@?$AAc?$AAa?$AAn?$AAa?$AAd?$AAi?$AAa?$AAn?$AA?$AA@ 10053f08     LIBCMT:getqloc.obj
 0002:00011f1c       ??_C@_17NOIMNFBF@?$AAc?$AAh?$AAh?$AA?$AA@ 10053f1c     LIBCMT:getqloc.obj
 0002:00011f24       ??_C@_17GGDALCHA@?$AAc?$AAh?$AAi?$AA?$AA@ 10053f24     LIBCMT:getqloc.obj
 0002:00011f2c       ??_C@_1BA@NPNJKIBL@?$AAc?$AAh?$AAi?$AAn?$AAe?$AAs?$AAe?$AA?$AA@ 10053f2c     LIBCMT:getqloc.obj
 0002:00011f3c       ??_C@_1CC@DINBAMMJ@?$AAc?$AAh?$AAi?$AAn?$AAe?$AAs?$AAe?$AA?9?$AAh?$AAo?$AAn?$AAg?$AAk?$AAo?$AAn?$AAg?$AA?$AA@ 10053f3c     LIBCMT:getqloc.obj
 0002:00011f60       ??_C@_1CG@IOBJPACO@?$AAc?$AAh?$AAi?$AAn?$AAe?$AAs?$AAe?$AA?9?$AAs?$AAi?$AAm?$AAp?$AAl?$AAi?$AAf?$AAi?$AAe?$AAd?$AA?$AA@ 10053f60     LIBCMT:getqloc.obj
 0002:00011f88       ??_C@_1CE@GAJNDCKG@?$AAc?$AAh?$AAi?$AAn?$AAe?$AAs?$AAe?$AA?9?$AAs?$AAi?$AAn?$AAg?$AAa?$AAp?$AAo?$AAr?$AAe?$AA?$AA@ 10053f88     LIBCMT:getqloc.obj
 0002:00011fac       ??_C@_1CI@PAJPIOOD@?$AAc?$AAh?$AAi?$AAn?$AAe?$AAs?$AAe?$AA?9?$AAt?$AAr?$AAa?$AAd?$AAi?$AAt?$AAi?$AAo?$AAn?$AAa?$AAl?$AA?$AA@ 10053fac     LIBCMT:getqloc.obj
 0002:00011fd4       ??_C@_1BM@NILJBMMD@?$AAd?$AAu?$AAt?$AAc?$AAh?$AA?9?$AAb?$AAe?$AAl?$AAg?$AAi?$AAa?$AAn?$AA?$AA@ 10053fd4     LIBCMT:getqloc.obj
 0002:00011ff0       ??_C@_1CC@OOJPJNEJ@?$AAe?$AAn?$AAg?$AAl?$AAi?$AAs?$AAh?$AA?9?$AAa?$AAm?$AAe?$AAr?$AAi?$AAc?$AAa?$AAn?$AA?$AA@ 10053ff0     LIBCMT:getqloc.obj
 0002:00012014       ??_C@_1BI@IOLFEEM@?$AAe?$AAn?$AAg?$AAl?$AAi?$AAs?$AAh?$AA?9?$AAa?$AAu?$AAs?$AA?$AA@ 10054014     LIBCMT:getqloc.obj
 0002:0001202c       ??_C@_1BO@HFFNLENJ@?$AAe?$AAn?$AAg?$AAl?$AAi?$AAs?$AAh?$AA?9?$AAb?$AAe?$AAl?$AAi?$AAz?$AAe?$AA?$AA@ 1005402c     LIBCMT:getqloc.obj
 0002:0001204c       ??_C@_1BI@HAPKJMPO@?$AAe?$AAn?$AAg?$AAl?$AAi?$AAs?$AAh?$AA?9?$AAc?$AAa?$AAn?$AA?$AA@ 1005404c     LIBCMT:getqloc.obj
 0002:00012064       ??_C@_1CE@HLNDMIOJ@?$AAe?$AAn?$AAg?$AAl?$AAi?$AAs?$AAh?$AA?9?$AAc?$AAa?$AAr?$AAi?$AAb?$AAb?$AAe?$AAa?$AAn?$AA?$AA@ 10054064     LIBCMT:getqloc.obj
 0002:00012088       ??_C@_1BI@LDHJHHAC@?$AAe?$AAn?$AAg?$AAl?$AAi?$AAs?$AAh?$AA?9?$AAi?$AAr?$AAe?$AA?$AA@ 10054088     LIBCMT:getqloc.obj
 0002:000120a0       ??_C@_1CA@NJMMCFOC@?$AAe?$AAn?$AAg?$AAl?$AAi?$AAs?$AAh?$AA?9?$AAj?$AAa?$AAm?$AAa?$AAi?$AAc?$AAa?$AA?$AA@ 100540a0     LIBCMT:getqloc.obj
 0002:000120c0       ??_C@_1BG@BHJEBBGG@?$AAe?$AAn?$AAg?$AAl?$AAi?$AAs?$AAh?$AA?9?$AAn?$AAz?$AA?$AA@ 100540c0     LIBCMT:getqloc.obj
 0002:000120d8       ??_C@_1CK@FGOEJJCO@?$AAe?$AAn?$AAg?$AAl?$AAi?$AAs?$AAh?$AA?9?$AAs?$AAo?$AAu?$AAt?$AAh?$AA?5?$AAa?$AAf?$AAr?$AAi?$AAc?$AAa?$AA?$AA@ 100540d8     LIBCMT:getqloc.obj
 0002:00012104       ??_C@_1DE@PDBJPCJ@?$AAe?$AAn?$AAg?$AAl?$AAi?$AAs?$AAh?$AA?9?$AAt?$AAr?$AAi?$AAn?$AAi?$AAd?$AAa?$AAd?$AA?5?$AAy?$AA?5?$AAt?$AAo?$AAb?$AAa?$AAg?$AAo?$AA?$AA@ 10054104     LIBCMT:getqloc.obj
 0002:00012138       ??_C@_1BG@JGCANDME@?$AAe?$AAn?$AAg?$AAl?$AAi?$AAs?$AAh?$AA?9?$AAu?$AAk?$AA?$AA@ 10054138     LIBCMT:getqloc.obj
 0002:00012150       ??_C@_1BG@DINKMLE@?$AAe?$AAn?$AAg?$AAl?$AAi?$AAs?$AAh?$AA?9?$AAu?$AAs?$AA?$AA@ 10054150     LIBCMT:getqloc.obj
 0002:00012168       ??_C@_1BI@NMFDBHJE@?$AAe?$AAn?$AAg?$AAl?$AAi?$AAs?$AAh?$AA?9?$AAu?$AAs?$AAa?$AA?$AA@ 10054168     LIBCMT:getqloc.obj
 0002:00012180       ??_C@_1BO@OIHKJKII@?$AAf?$AAr?$AAe?$AAn?$AAc?$AAh?$AA?9?$AAb?$AAe?$AAl?$AAg?$AAi?$AAa?$AAn?$AA?$AA@ 10054180     LIBCMT:getqloc.obj
 0002:000121a0       ??_C@_1CA@NKAELJKI@?$AAf?$AAr?$AAe?$AAn?$AAc?$AAh?$AA?9?$AAc?$AAa?$AAn?$AAa?$AAd?$AAi?$AAa?$AAn?$AA?$AA@ 100541a0     LIBCMT:getqloc.obj
 0002:000121c0       ??_C@_1CE@MGKCNLGN@?$AAf?$AAr?$AAe?$AAn?$AAc?$AAh?$AA?9?$AAl?$AAu?$AAx?$AAe?$AAm?$AAb?$AAo?$AAu?$AAr?$AAg?$AA?$AA@ 100541c0     LIBCMT:getqloc.obj
 0002:000121e4       ??_C@_1BK@CEGEAILM@?$AAf?$AAr?$AAe?$AAn?$AAc?$AAh?$AA?9?$AAs?$AAw?$AAi?$AAs?$AAs?$AA?$AA@ 100541e4     LIBCMT:getqloc.obj
 0002:00012200       ??_C@_1CA@PAFKEOCC@?$AAg?$AAe?$AAr?$AAm?$AAa?$AAn?$AA?9?$AAa?$AAu?$AAs?$AAt?$AAr?$AAi?$AAa?$AAn?$AA?$AA@ 10054200     LIBCMT:getqloc.obj
 0002:00012220       ??_C@_1CI@HCFHGOFD@?$AAg?$AAe?$AAr?$AAm?$AAa?$AAn?$AA?9?$AAl?$AAi?$AAc?$AAh?$AAt?$AAe?$AAn?$AAs?$AAt?$AAe?$AAi?$AAn?$AA?$AA@ 10054220     LIBCMT:getqloc.obj
 0002:00012248       ??_C@_1CE@FEDDNPDG@?$AAg?$AAe?$AAr?$AAm?$AAa?$AAn?$AA?9?$AAl?$AAu?$AAx?$AAe?$AAm?$AAb?$AAo?$AAu?$AAr?$AAg?$AA?$AA@ 10054248     LIBCMT:getqloc.obj
 0002:0001226c       ??_C@_1BK@LIMINNMN@?$AAg?$AAe?$AAr?$AAm?$AAa?$AAn?$AA?9?$AAs?$AAw?$AAi?$AAs?$AAs?$AA?$AA@ 1005426c     LIBCMT:getqloc.obj
 0002:00012288       ??_C@_1BM@LGMDBEPD@?$AAi?$AAr?$AAi?$AAs?$AAh?$AA?9?$AAe?$AAn?$AAg?$AAl?$AAi?$AAs?$AAh?$AA?$AA@ 10054288     LIBCMT:getqloc.obj
 0002:000122a4       ??_C@_1BM@NNCFBAEE@?$AAi?$AAt?$AAa?$AAl?$AAi?$AAa?$AAn?$AA?9?$AAs?$AAw?$AAi?$AAs?$AAs?$AA?$AA@ 100542a4     LIBCMT:getqloc.obj
 0002:000122c0       ??_C@_1BE@FEDJNPIB@?$AAn?$AAo?$AAr?$AAw?$AAe?$AAg?$AAi?$AAa?$AAn?$AA?$AA@ 100542c0     LIBCMT:getqloc.obj
 0002:000122d4       ??_C@_1CC@CILKDEIE@?$AAn?$AAo?$AAr?$AAw?$AAe?$AAg?$AAi?$AAa?$AAn?$AA?9?$AAb?$AAo?$AAk?$AAm?$AAa?$AAl?$AA?$AA@ 100542d4     LIBCMT:getqloc.obj
 0002:000122f8       ??_C@_1CE@DHMMHEPL@?$AAn?$AAo?$AAr?$AAw?$AAe?$AAg?$AAi?$AAa?$AAn?$AA?9?$AAn?$AAy?$AAn?$AAo?$AAr?$AAs?$AAk?$AA?$AA@ 100542f8     LIBCMT:getqloc.obj
 0002:0001231c       ??_C@_1CK@OPNMHECD@?$AAp?$AAo?$AAr?$AAt?$AAu?$AAg?$AAu?$AAe?$AAs?$AAe?$AA?9?$AAb?$AAr?$AAa?$AAz?$AAi?$AAl?$AAi?$AAa?$AAn?$AA?$AA@ 1005431c     LIBCMT:getqloc.obj
 0002:00012348       ??_C@_1CE@KEEHCDB@?$AAs?$AAp?$AAa?$AAn?$AAi?$AAs?$AAh?$AA?9?$AAa?$AAr?$AAg?$AAe?$AAn?$AAt?$AAi?$AAn?$AAa?$AA?$AA@ 10054348     LIBCMT:getqloc.obj
 0002:0001236c       ??_C@_1CA@GIAOLHJD@?$AAs?$AAp?$AAa?$AAn?$AAi?$AAs?$AAh?$AA?9?$AAb?$AAo?$AAl?$AAi?$AAv?$AAi?$AAa?$AA?$AA@ 1005436c     LIBCMT:getqloc.obj
 0002:0001238c       ??_C@_1BM@OJNDFNPD@?$AAs?$AAp?$AAa?$AAn?$AAi?$AAs?$AAh?$AA?9?$AAc?$AAh?$AAi?$AAl?$AAe?$AA?$AA@ 1005438c     LIBCMT:getqloc.obj
 0002:000123a8       ??_C@_1CC@OCOLPALL@?$AAs?$AAp?$AAa?$AAn?$AAi?$AAs?$AAh?$AA?9?$AAc?$AAo?$AAl?$AAo?$AAm?$AAb?$AAi?$AAa?$AA?$AA@ 100543a8     LIBCMT:getqloc.obj
 0002:000123cc       ??_C@_1CG@BPOFMKBB@?$AAs?$AAp?$AAa?$AAn?$AAi?$AAs?$AAh?$AA?9?$AAc?$AAo?$AAs?$AAt?$AAa?$AA?5?$AAr?$AAi?$AAc?$AAa?$AA?$AA@ 100543cc     LIBCMT:getqloc.obj
 0002:000123f4       ??_C@_1DG@IGOBAPBB@?$AAs?$AAp?$AAa?$AAn?$AAi?$AAs?$AAh?$AA?9?$AAd?$AAo?$AAm?$AAi?$AAn?$AAi?$AAc?$AAa?$AAn?$AA?5?$AAr?$AAe?$AAp?$AAu?$AAb?$AAl?$AAi?$AAc?$AA?$AA@ 100543f4     LIBCMT:getqloc.obj
 0002:0001242c       ??_C@_1CA@JHAPGEGI@?$AAs?$AAp?$AAa?$AAn?$AAi?$AAs?$AAh?$AA?9?$AAe?$AAc?$AAu?$AAa?$AAd?$AAo?$AAr?$AA?$AA@ 1005442c     LIBCMT:getqloc.obj
 0002:0001244c       ??_C@_1CI@LAPALJPP@?$AAs?$AAp?$AAa?$AAn?$AAi?$AAs?$AAh?$AA?9?$AAe?$AAl?$AA?5?$AAs?$AAa?$AAl?$AAv?$AAa?$AAd?$AAo?$AAr?$AA?$AA@ 1005444c     LIBCMT:getqloc.obj
 0002:00012474       ??_C@_1CE@PDGBOFOM@?$AAs?$AAp?$AAa?$AAn?$AAi?$AAs?$AAh?$AA?9?$AAg?$AAu?$AAa?$AAt?$AAe?$AAm?$AAa?$AAl?$AAa?$AA?$AA@ 10054474     LIBCMT:getqloc.obj
 0002:00012498       ??_C@_1CC@NBEBAODI@?$AAs?$AAp?$AAa?$AAn?$AAi?$AAs?$AAh?$AA?9?$AAh?$AAo?$AAn?$AAd?$AAu?$AAr?$AAa?$AAs?$AA?$AA@ 10054498     LIBCMT:getqloc.obj
 0002:000124bc       ??_C@_1CA@LLKGHBMF@?$AAs?$AAp?$AAa?$AAn?$AAi?$AAs?$AAh?$AA?9?$AAm?$AAe?$AAx?$AAi?$AAc?$AAa?$AAn?$AA?$AA@ 100544bc     LIBCMT:getqloc.obj
 0002:000124dc       ??_C@_1BO@LKNDOIGD@?$AAs?$AAp?$AAa?$AAn?$AAi?$AAs?$AAh?$AA?9?$AAm?$AAo?$AAd?$AAe?$AAr?$AAn?$AA?$AA@ 100544dc     LIBCMT:getqloc.obj
 0002:000124fc       ??_C@_1CE@NMDMOEEB@?$AAs?$AAp?$AAa?$AAn?$AAi?$AAs?$AAh?$AA?9?$AAn?$AAi?$AAc?$AAa?$AAr?$AAa?$AAg?$AAu?$AAa?$AA?$AA@ 100544fc     LIBCMT:getqloc.obj
 0002:00012520       ??_C@_1BO@LLCBEJGB@?$AAs?$AAp?$AAa?$AAn?$AAi?$AAs?$AAh?$AA?9?$AAp?$AAa?$AAn?$AAa?$AAm?$AAa?$AA?$AA@ 10054520     LIBCMT:getqloc.obj
 0002:00012540       ??_C@_1CC@FKPGGIHO@?$AAs?$AAp?$AAa?$AAn?$AAi?$AAs?$AAh?$AA?9?$AAp?$AAa?$AAr?$AAa?$AAg?$AAu?$AAa?$AAy?$AA?$AA@ 10054540     LIBCMT:getqloc.obj
 0002:00012564       ??_C@_1BK@CDEIHOOP@?$AAs?$AAp?$AAa?$AAn?$AAi?$AAs?$AAh?$AA?9?$AAp?$AAe?$AAr?$AAu?$AA?$AA@ 10054564     LIBCMT:getqloc.obj
 0002:00012580       ??_C@_1CI@GAHAKKGP@?$AAs?$AAp?$AAa?$AAn?$AAi?$AAs?$AAh?$AA?9?$AAp?$AAu?$AAe?$AAr?$AAt?$AAo?$AA?5?$AAr?$AAi?$AAc?$AAo?$AA?$AA@ 10054580     LIBCMT:getqloc.obj
 0002:000125a8       ??_C@_1CA@NKJBCAGP@?$AAs?$AAp?$AAa?$AAn?$AAi?$AAs?$AAh?$AA?9?$AAu?$AAr?$AAu?$AAg?$AAu?$AAa?$AAy?$AA?$AA@ 100545a8     LIBCMT:getqloc.obj
 0002:000125c8       ??_C@_1CE@ODILCONM@?$AAs?$AAp?$AAa?$AAn?$AAi?$AAs?$AAh?$AA?9?$AAv?$AAe?$AAn?$AAe?$AAz?$AAu?$AAe?$AAl?$AAa?$AA?$AA@ 100545c8     LIBCMT:getqloc.obj
 0002:000125ec       ??_C@_1CA@OBNMCGFO@?$AAs?$AAw?$AAe?$AAd?$AAi?$AAs?$AAh?$AA?9?$AAf?$AAi?$AAn?$AAl?$AAa?$AAn?$AAd?$AA?$AA@ 100545ec     LIBCMT:getqloc.obj
 0002:0001260c       ??_C@_1M@PIPDDPPI@?$AAs?$AAw?$AAi?$AAs?$AAs?$AA?$AA@ 1005460c     LIBCMT:getqloc.obj
 0002:00012618       ??_C@_15GMFIMNFM@?$AAu?$AAs?$AA?$AA@ 10054618     LIBCMT:getqloc.obj
 0002:00012620       ??_C@_17HAEBFAGL@?$AAu?$AAs?$AAa?$AA?$AA@ 10054620     LIBCMT:getqloc.obj
 0002:00012628       ___rg_country              10054628     LIBCMT:getqloc.obj
 0002:0001273c       ??_C@_1BA@DPFJEPHB@?$AAa?$AAm?$AAe?$AAr?$AAi?$AAc?$AAa?$AA?$AA@ 1005473c     LIBCMT:getqloc.obj
 0002:0001274c       ??_C@_1BA@ELOGGFK@?$AAb?$AAr?$AAi?$AAt?$AAa?$AAi?$AAn?$AA?$AA@ 1005474c     LIBCMT:getqloc.obj
 0002:0001275c       ??_C@_1M@GHBGIGDA@?$AAc?$AAh?$AAi?$AAn?$AAa?$AA?$AA@ 1005475c     LIBCMT:getqloc.obj
 0002:00012768       ??_C@_1M@NCHEJOPO@?$AAc?$AAz?$AAe?$AAc?$AAh?$AA?$AA@ 10054768     LIBCMT:getqloc.obj
 0002:00012774       ??_C@_1BA@BKPAPBLA@?$AAe?$AAn?$AAg?$AAl?$AAa?$AAn?$AAd?$AA?$AA@ 10054774     LIBCMT:getqloc.obj
 0002:00012784       ??_C@_1BM@HKBCKIPC@?$AAg?$AAr?$AAe?$AAa?$AAt?$AA?5?$AAb?$AAr?$AAi?$AAt?$AAa?$AAi?$AAn?$AA?$AA@ 10054784     LIBCMT:getqloc.obj
 0002:000127a0       ??_C@_1BA@PPCHPGJB@?$AAh?$AAo?$AAl?$AAl?$AAa?$AAn?$AAd?$AA?$AA@ 100547a0     LIBCMT:getqloc.obj
 0002:000127b0       ??_C@_1BE@JBMPEGDG@?$AAh?$AAo?$AAn?$AAg?$AA?9?$AAk?$AAo?$AAn?$AAg?$AA?$AA@ 100547b0     LIBCMT:getqloc.obj
 0002:000127c4       ??_C@_1BI@KOELBBPJ@?$AAn?$AAe?$AAw?$AA?9?$AAz?$AAe?$AAa?$AAl?$AAa?$AAn?$AAd?$AA?$AA@ 100547c4     LIBCMT:getqloc.obj
 0002:000127dc       ??_C@_15HIEBHAIO@?$AAn?$AAz?$AA?$AA@ 100547dc     LIBCMT:getqloc.obj
 0002:000127e4       ??_C@_1BC@CHBCPFPI@?$AAp?$AAr?$AA?5?$AAc?$AAh?$AAi?$AAn?$AAa?$AA?$AA@ 100547e4     LIBCMT:getqloc.obj
 0002:000127f8       ??_C@_1BC@JAOIIFKD@?$AAp?$AAr?$AA?9?$AAc?$AAh?$AAi?$AAn?$AAa?$AA?$AA@ 100547f8     LIBCMT:getqloc.obj
 0002:0001280c       ??_C@_1BI@BEHPPHKC@?$AAp?$AAu?$AAe?$AAr?$AAt?$AAo?$AA?9?$AAr?$AAi?$AAc?$AAo?$AA?$AA@ 1005480c     LIBCMT:getqloc.obj
 0002:00012824       ??_C@_1O@PAEOFKDI@?$AAs?$AAl?$AAo?$AAv?$AAa?$AAk?$AA?$AA@ 10054824     LIBCMT:getqloc.obj
 0002:00012834       ??_C@_1BK@FIHMCKAM@?$AAs?$AAo?$AAu?$AAt?$AAh?$AA?5?$AAa?$AAf?$AAr?$AAi?$AAc?$AAa?$AA?$AA@ 10054834     LIBCMT:getqloc.obj
 0002:00012850       ??_C@_1BI@NAEOODKB@?$AAs?$AAo?$AAu?$AAt?$AAh?$AA?5?$AAk?$AAo?$AAr?$AAe?$AAa?$AA?$AA@ 10054850     LIBCMT:getqloc.obj
 0002:00012868       ??_C@_1BK@FBDGGIFF@?$AAs?$AAo?$AAu?$AAt?$AAh?$AA?9?$AAa?$AAf?$AAr?$AAi?$AAc?$AAa?$AA?$AA@ 10054868     LIBCMT:getqloc.obj
 0002:00012884       ??_C@_1BI@GHLEJDPK@?$AAs?$AAo?$AAu?$AAt?$AAh?$AA?9?$AAk?$AAo?$AAr?$AAe?$AAa?$AA?$AA@ 10054884     LIBCMT:getqloc.obj
 0002:0001289c       ??_C@_1CE@PLHLOMJF@?$AAt?$AAr?$AAi?$AAn?$AAi?$AAd?$AAa?$AAd?$AA?5?$AA?$CG?$AA?5?$AAt?$AAo?$AAb?$AAa?$AAg?$AAo?$AA?$AA@ 1005489c     LIBCMT:getqloc.obj
 0002:000128c0       ??_C@_1BO@MODIMHHI@?$AAu?$AAn?$AAi?$AAt?$AAe?$AAd?$AA?9?$AAk?$AAi?$AAn?$AAg?$AAd?$AAo?$AAm?$AA?$AA@ 100548c0     LIBCMT:getqloc.obj
 0002:000128e0       ??_C@_1BM@FFHJONBJ@?$AAu?$AAn?$AAi?$AAt?$AAe?$AAd?$AA?9?$AAs?$AAt?$AAa?$AAt?$AAe?$AAs?$AA?$AA@ 100548e0     LIBCMT:getqloc.obj
 0002:000128fc       ___rg_language_count       100548fc     LIBCMT:getqloc.obj
 0002:00012900       ___rg_country_count        10054900     LIBCMT:getqloc.obj
 0002:00012904       ??_C@_17DNCLJFIF@?$AAA?$AAC?$AAP?$AA?$AA@ 10054904     LIBCMT:getqloc.obj
 0002:0001290c       ??_C@_17CIKBIHLH@?$AAO?$AAC?$AAP?$AA?$AA@ 1005490c     LIBCMT:getqloc.obj
 0002:00012914       ___rglangidNotDefault      10054914     LIBCMT:getqloc_downlevel.obj
 0002:00012928       __real@00000000            10054928     LIBCMT:wcstoq.obj
 0002:00012930       __load_config_used         10054930     LIBCMT:loadcfg.obj
 0002:00014c40       ___safe_se_handler_table   10056c40     <linker-defined>
 0002:00014d50       ___rtc_iaa                 10056d50     LIBCMT:initsect.obj
 0002:00014e54       ___rtc_izz                 10056e54     LIBCMT:initsect.obj
 0002:00014f58       ___rtc_taa                 10056f58     LIBCMT:initsect.obj
 0002:0001505c       ___rtc_tzz                 1005705c     LIBCMT:initsect.obj
 0003:00000580       _FingerStrokeAssistance_P  10058580     FingerStrokeAssistance_data.obj
 0003:00000ee8       _pci20041digout            10058ee8     xpctarget.obj
 0003:00000eec       _nipcdio24cnfg             10058eec     xpctarget.obj
 0003:00000ef0       _rtddm6604cnfg             10058ef0     xpctarget.obj
 0003:00001618       _DefaultCOMIOBase          10059618     xpcruntime:xpcimports.obj
 0003:00001628       _DefaultCOMIRQ             10059628     xpcruntime:xpcimports.obj
 0003:00001640       __fltused                  10059640     LIBCMT:fpinit.obj
 0003:00001644       __ldused                   10059644     LIBCMT:fpinit.obj
 0003:00001650       __iob                      10059650     LIBCMT:_file.obj
 0003:000018d0       ___isa_enabled             100598d0     LIBCMT:cpu_disp.obj
 0003:000018d4       ___security_cookie         100598d4     LIBCMT:gs_cookie.obj
 0003:000018d8       ___security_cookie_complement 100598d8     LIBCMT:gs_cookie.obj
 0003:00001ab0       ___nullstring              10059ab0     LIBCMT:output.obj
 0003:00001ab4       ___wnullstring             10059ab4     LIBCMT:output.obj
 0003:00001ac4       __cfltcvt_tab              10059ac4     LIBCMT:cmiscdat.obj
 0003:00001c10       __mbctype                  10059c10     LIBCMT:mbctype.obj
 0003:00001d18       __mbcasemap                10059d18     LIBCMT:mbctype.obj
 0003:00001e18       ___initialmbcinfo          10059e18     LIBCMT:mbctype.obj
 0003:0000203c       ___ptmbcinfo               1005a03c     LIBCMT:mbctype.obj
 0003:00002130       ___badioinfo               1005a130     LIBCMT:ioinit.obj
 0003:00002170       __lookuptrailbytes         1005a170     LIBCMT:read.obj
 0003:00002270       __d_inf                    1005a270     LIBCMT:util.obj
 0003:00002278       __d_ind                    1005a278     LIBCMT:util.obj
 0003:00002280       __d_max                    1005a280     LIBCMT:util.obj
 0003:00002288       __d_min                    1005a288     LIBCMT:util.obj
 0003:00002290       __d_mzero                  1005a290     LIBCMT:util.obj
 0003:0000239c       ___abort_behavior          1005a39c     LIBCMT:abort.obj
 0003:000023a0       ___flsindex                1005a3a0     LIBCMT:tidtable.obj
 0003:000023b0       ___mb_cur_max              1005a3b0     LIBCMT:nlsdata.obj
 0003:000023b4       ___wclocalestr             1005a3b4     LIBCMT:nlsdata.obj
 0003:000023b8       ___lc_time_c               1005a3b8     LIBCMT:nlsdata.obj
 0003:0000251c       ___ptlocinfo               1005a51c     LIBCMT:nlsdata.obj
 0003:00002520       ___initiallocinfo          1005a520     LIBCMT:nlsdata.obj
 0003:000025d8       ___initiallocalestructinfo 1005a5d8     LIBCMT:nlsdata.obj
 0003:000025e0       ___globallocalestatus      1005a5e0     LIBCMT:glstatus.obj
 0003:000025e4       __matherr_flag             1005a5e4     LIBCMT:matherr.obj
 0003:000025f0       __NLG_Destination          1005a5f0     LIBCMT:exsup.obj
 0003:00002600       ___lconv                   1005a600     LIBCMT:lconv.obj
 0003:00002604       ___lconv_static_decimal    1005a604     LIBCMT:lconv.obj
 0003:00002608       ___lconv_c                 1005a608     LIBCMT:lconv.obj
 0003:00002658       ___lconv_static_W_decimal  1005a658     LIBCMT:lconv.obj
 0003:0000265c       __pctype                   1005a65c     LIBCMT:ctype.obj
 0003:00002660       __pwctype                  1005a660     LIBCMT:ctype.obj
 0003:000026a0       __confh                    1005a6a0     LIBCMT:initcon.obj
 0003:000026a8       __pow10pos                 1005a6a8     LIBCMT:constpow.obj
 0003:00002808       __pow10neg                 1005a808     LIBCMT:constpow.obj
 0003:00002970       __HUGE                     1005a970     LIBCMT:huge.obj
 0003:00002ebc       ___isa_available_default   1005aebc     rt_logging.obj
 0003:00002ecc       _pci20098PortA             1005aecc     xpctarget.obj
 0003:00002ed0       _pci20098PortB             1005aed0     xpctarget.obj
 0003:00002ed4       _siepowercan_firmware_initialized 1005aed4     xpctarget.obj
 0003:00002ed8       _siepowercan_port1_configured 1005aed8     xpctarget.obj
 0003:00002edc       _siepowercan_port2_configured 1005aedc     xpctarget.obj
 0003:00002ee0       _CANAC2_FIRMWARE_LOADED    1005aee0     xpctarget.obj
 0003:00002ee4       _rs232ports                1005aee4     xpctarget.obj
 0003:00002ef4       _NI_AT_MIO_16F_5_commreg2  1005aef4     xpctarget.obj
 0003:00002ef8       _RTD_DM6430_init           1005aef8     xpctarget.obj
 0003:00002efc       _RTD_DM6420_init           1005aefc     xpctarget.obj
 0003:00002f00       _CANAC2_FIRMWARE_LOADED_mb1 1005af00     xpctarget.obj
 0003:00002f04       _CANAC2_FIRMWARE_LOADED_mb2 1005af04     xpctarget.obj
 0003:00002f08       _CANAC2_FIRMWARE_LOADED_mb3 1005af08     xpctarget.obj
 0003:00002f0c       _xmlsize                   1005af0c     xpctarget.obj
 0003:00003618       ___fastflag                1005b618     LIBCMT:fpinit.obj
 0003:00003940       __C_Exit_Done              1005b940     LIBCMT:crt0dat.obj
 0003:00003944       ___argc                    1005b944     LIBCMT:crt0dat.obj
 0003:00003948       ___argv                    1005b948     LIBCMT:crt0dat.obj
 0003:0000394c       ___wargv                   1005b94c     LIBCMT:crt0dat.obj
 0003:00003950       __environ                  1005b950     LIBCMT:crt0dat.obj
 0003:00003954       __wenviron                 1005b954     LIBCMT:crt0dat.obj
 0003:00003958       __pgmptr                   1005b958     LIBCMT:crt0dat.obj
 0003:0000395c       __wpgmptr                  1005b95c     LIBCMT:crt0dat.obj
 0003:00003960       __umaskval                 1005b960     LIBCMT:crt0dat.obj
 0003:00003964       __exitflag                 1005b964     LIBCMT:crt0dat.obj
 0003:00003968       __C_Termination_Done       1005b968     LIBCMT:crt0dat.obj
 0003:0000396c       ___winitenv                1005b96c     LIBCMT:crt0dat.obj
 0003:00003970       ___initenv                 1005b970     LIBCMT:crt0dat.obj
 0003:00003974       __cflush                   1005b974     LIBCMT:_file.obj
 0003:00003978       ___isa_available           1005b978     LIBCMT:cpu_disp.obj
 0003:0000397c       ___favor                   1005b97c     LIBCMT:cpu_disp.obj
 0003:00003984       __aenvptr                  1005b984     LIBCMT:dllcrt0.obj
 0003:00003988       __wenvptr                  1005b988     LIBCMT:dllcrt0.obj
 0003:0000398c       ?_pnhHeap@@3P6AHI@ZA       1005b98c     LIBCMT:handler.obj
 0003:00003990       ___app_type                1005b990     LIBCMT:crt0msg.obj
 0003:00003fc0       __newmode                  1005bfc0     LIBCMT:_newmode.obj
 0003:00003fc4       __crtheap                  1005bfc4     LIBCMT:heapinit.obj
 0003:00003fc8       ___pInvalidArgHandler      1005bfc8     LIBCMT:invarg.obj
 0003:00003fcc       __stdbuf                   1005bfcc     LIBCMT:_sftbuf.obj
 0003:00004128       __maxwait                  1005c128     LIBCMT:crtheap.obj
 0003:0000412c       ?__pInconsistency@@3P6AXXZA 1005c12c     LIBCMT:hooks.obj
 0003:00004130       ___pPurecall               1005c130     LIBCMT:inithelp.obj
 0003:0000414c       ___mbcodepage              1005c14c     LIBCMT:mbctype.obj
 0003:00004150       ___ismbcodepage            1005c150     LIBCMT:mbctype.obj
 0003:00004154       ___mbulinfo                1005c154     LIBCMT:mbctype.obj
 0003:00004160       ___mblocalename            1005c160     LIBCMT:mbctype.obj
 0003:00004168       ___pioinfo                 1005c168     LIBCMT:ioinit.obj
 0003:00004268       ___error_mode              1005c268     LIBCMT:errmode.obj
 0003:00004388       __outputformat             1005c388     LIBCMT:outputformat.obj
 0003:00004390       __commode                  1005c390     LIBCMT:ncommode.obj
 0003:00004394       ___lconv_static_null       1005c394     LIBCMT:lconv.obj
 0003:00004398       ___lconv_static_W_null     1005c398     LIBCMT:lconv.obj
 0003:0000439c       ___locale_changed          1005c39c     LIBCMT:wsetloca.obj
 0003:000043a0       __fmode                    1005c3a0     LIBCMT:txtmode.obj
 0003:000043c0       _CANAC2_2_receiveindex_mb3 1005c3c0     <common>
 0003:00007494       _CANAC2_2_receivemaxindex_mb3 1005f494     <common>
 0003:000074a0       _CANAC2_2_sendindex_mb3    1005f4a0     <common>
 0003:000077c0       _CANAC2_2_sendmaxindex_mb3 1005f7c0     <common>
 0003:000077e0       _CANAC2_1_receiveindex_mb3 1005f7e0     <common>
 0003:00007b00       _CANAC2_1_receivemaxindex_mb3 1005fb00     <common>
 0003:00007b20       _CANAC2_1_sendindex_mb3    1005fb20     <common>
 0003:00007e40       _CANAC2_1_sendmaxindex_mb3 1005fe40     <common>
 0003:00007e60       _CANAC2_2_receive_mb3      1005fe60     <common>
 0003:00008180       _CANAC2_2_send_mb3         10060180     <common>
 0003:000084a0       _CANAC2_1_receive_mb3      100604a0     <common>
 0003:000087c0       _CANAC2_1_send_mb3         100607c0     <common>
 0003:00008ae0       _CANAC2_2_receiveindex_mb2 10060ae0     <common>
 0003:00008e00       _CANAC2_2_receivemaxindex_mb2 10060e00     <common>
 0003:00008e20       _CANAC2_2_sendindex_mb2    10060e20     <common>
 0003:00009140       _CANAC2_2_sendmaxindex_mb2 10061140     <common>
 0003:00009160       _CANAC2_1_receiveindex_mb2 10061160     <common>
 0003:00009480       _CANAC2_1_receivemaxindex_mb2 10061480     <common>
 0003:000094a0       _CANAC2_1_sendindex_mb2    100614a0     <common>
 0003:000097c0       _CANAC2_1_sendmaxindex_mb2 100617c0     <common>
 0003:000097e0       _CANAC2_2_receive_mb2      100617e0     <common>
 0003:00009b00       _CANAC2_2_send_mb2         10061b00     <common>
 0003:00009e20       _CANAC2_1_receive_mb2      10061e20     <common>
 0003:0000a140       _CANAC2_1_send_mb2         10062140     <common>
 0003:0000a460       _CANAC2_2_receiveindex_mb1 10062460     <common>
 0003:0000a780       _CANAC2_2_receivemaxindex_mb1 10062780     <common>
 0003:0000a7a0       _CANAC2_2_sendindex_mb1    100627a0     <common>
 0003:0000aac0       _CANAC2_2_sendmaxindex_mb1 10062ac0     <common>
 0003:0000aae0       _CANAC2_1_receiveindex_mb1 10062ae0     <common>
 0003:0000ae00       _CANAC2_1_receivemaxindex_mb1 10062e00     <common>
 0003:0000ae20       _CANAC2_1_sendindex_mb1    10062e20     <common>
 0003:0000b140       _CANAC2_1_sendmaxindex_mb1 10063140     <common>
 0003:0000b160       _CANAC2_2_receive_mb1      10063160     <common>
 0003:0000b480       _CANAC2_2_send_mb1         10063480     <common>
 0003:0000b7a0       _CANAC2_1_receive_mb1      100637a0     <common>
 0003:0000bac0       _CANAC2_1_send_mb1         10063ac0     <common>
 0003:0000bde0       _CANAC2_2_receiveindex     10063de0     <common>
 0003:0000c100       _CANAC2_2_receivemaxindex  10064100     <common>
 0003:0000c120       _CANAC2_2_sendindex        10064120     <common>
 0003:0000c440       _CANAC2_2_sendmaxindex     10064440     <common>
 0003:0000c460       _CANAC2_1_receiveindex     10064460     <common>
 0003:0000c780       _CANAC2_1_receivemaxindex  10064780     <common>
 0003:0000c7a0       _CANAC2_1_sendindex        100647a0     <common>
 0003:0000cac0       _CANAC2_1_sendmaxindex     10064ac0     <common>
 0003:0000cae0       _CANAC2_2_receive          10064ae0     <common>
 0003:0000ce00       _CANAC2_2_send             10064e00     <common>
 0003:0000d120       _CANAC2_1_receive          10065120     <common>
 0003:0000d440       _CANAC2_1_send             10065440     <common>
 0003:0000d760       _siepowercan_can_object_buffer_port2 10065760     <common>
 0003:00011780       _siepowercan_can_object_buffer_port1 10069780     <common>
 0003:00015780       _rtNaNF                    1006d780     <common>
 0003:00015794       _rtMinusInfF               1006d794     <common>
 0003:00015798       _rtInfF                    1006d798     <common>
 0003:000157a0       _rtNaN                     1006d7a0     <common>
 0003:000157a8       _rtMinusInf                1006d7a8     <common>
 0003:000157b0       _rtInf                     1006d7b0     <common>
 0003:000157c0       _FingerStrokeAssistance_M_ 1006d7c0     <common>
 0003:000173c9       _FingerStrokeAssistance_PrevZCX 1006f3c9     <common>
 0003:000173e0       _FingerStrokeAssistance_DW 1006f3e0     <common>
 0003:00017780       _FingerStrokeAssistance_B  1006f780     <common>
 0003:00017db0       _xpceaddEvent              1006fdb0     <common>
 0003:00017e00       _xpceDeRegisterISR         1006fe00     <common>
 0003:00017e04       _xpceRegisterISR           1006fe04     <common>
 0003:00017e08       _xpcIsModelInit            1006fe08     <common>
 0003:00017e0c       _xpcGetElapsedTime         1006fe0c     <common>
 0003:00017e10       _xpcBusyWait               1006fe10     <common>
 0003:00017e14       _xpcFreePhysicalMemory     1006fe14     <common>
 0003:00017e18       _xpcAllocPhysicalMemory    1006fe18     <common>
 0003:00017e1c       _xpcReserveMemoryRegion    1006fe1c     <common>
 0003:00017e20       _xpcOutpB                  1006fe20     <common>
 0003:00017e24       _xpcOutpW                  1006fe24     <common>
 0003:00017e28       _xpcOutpDW                 1006fe28     <common>
 0003:00017e2c       _xpcInpB                   1006fe2c     <common>
 0003:00017e30       _xpcInpW                   1006fe30     <common>
 0003:00017e34       _xpcInpDW                  1006fe34     <common>
 0003:00017e38       _slTestRegAssessment       1006fe38     <common>
 0003:00017e3c       _slTestTerminate           1006fe3c     <common>
 0003:00017e40       _slTestEvalOnFail          1006fe40     <common>
 0003:00017e44       _slTestLogAssessments      1006fe44     <common>
 0003:00017e48       _slTestInitialize          1006fe48     <common>
 0003:00017e4c       _unRegisterPTPTimeRead     1006fe4c     <common>
 0003:00017e50       _registerPTPTimeRead       1006fe50     <common>
 0003:00017e54       _slrteGetCurrentStepSize   1006fe54     <common>
 0003:00017e58       _slrteSetStepSizeDelta     1006fe58     <common>
 0003:00017e5c       _xpceGetIntTimerGranularityNS 1006fe5c     <common>
 0003:00017e60       _sendToAsyncQueueTgtAppSvc 1006fe60     <common>
 0003:00017e64       _terminateToAsyncQueueTgtAppSvc 1006fe64     <common>
 0003:00017e68       _startToAsyncQueueTgtAppSvc 1006fe68     <common>
 0003:00017e6c       _getStatusFlags            1006fe6c     <common>
 0003:00017e70       _getCommService            1006fe70     <common>
 0003:00017e74       _getMemoryService          1006fe74     <common>
 0003:00017e78       _StreamVideo               1006fe78     <common>
 0003:00017e7c       _StopVideoDisplay          1006fe7c     <common>
 0003:00017e80       _StartVideoDisplay         1006fe80     <common>
 0003:00017e84       _DestroyVideoDisplay       1006fe84     <common>
 0003:00017e88       _CreateVideoDisplay        1006fe88     <common>
 0003:00017e8c       _ConvertUImage             1006fe8c     <common>
 0003:00017e90       _StopVideo                 1006fe90     <common>
 0003:00017e94       _ReadFrameBuffer           1006fe94     <common>
 0003:00017e98       _StartVideo                1006fe98     <common>
 0003:00017e9c       _GetVideoConfigs           1006fe9c     <common>
 0003:00017ea0       _FindUsbVideoDevice        1006fea0     <common>
 0003:00017ea4       _xpceDeleteSemaphore       1006fea4     <common>
 0003:00017ea8       _xpceSignalSemaphore       1006fea8     <common>
 0003:00017eac       _xpceWaitSemaphore         1006feac     <common>
 0003:00017eb0       _xpceCreateSemaphore       1006feb0     <common>
 0003:00017eb4       _TBGiveSpinFast            1006feb4     <common>
 0003:00017eb8       _TBTakeSpinFast            1006feb8     <common>
 0003:00017ebc       _TBDeleteSpin              1006febc     <common>
 0003:00017ec0       _TBCreateSpin              1006fec0     <common>
 0003:00017ec4       _xpceScopeAcqOK            1006fec4     <common>
 0003:00017ec8       _rl32eRestartAcquisition   1006fec8     <common>
 0003:00017ecc       _rl32eSetTargetScopeSigFt  1006fecc     <common>
 0003:00017ed0       _rl32eSetTargetScope       1006fed0     <common>
 0003:00017ed4       _xpceFSScopeSet            1006fed4     <common>
 0003:00017ed8       _rl32eSetScope             1006fed8     <common>
 0003:00017edc       _rl32eAddSignal            1006fedc     <common>
 0003:00017ee0       _rl32eGetSignalNo          1006fee0     <common>
 0003:00017ee4       _rl32eDefScope             1006fee4     <common>
 0003:00017ee8       _rl32eScopeExists          1006fee8     <common>
 0003:00017eec       _xpceUDPClose              1006feec     <common>
 0003:00017ef0       _xpceUDPReceive            1006fef0     <common>
 0003:00017ef4       _xpceUDPSend               1006fef4     <common>
 0003:00017ef8       _xpceUDPOpenReceive        1006fef8     <common>
 0003:00017efc       _xpceUDPOpenSend           1006fefc     <common>
 0003:00017f00       _rl32eSendBlock            1006ff00     <common>
 0003:00017f04       _rl32eLineStatus           1006ff04     <common>
 0003:00017f08       _rl32eReceiveBufferCount   1006ff08     <common>
 0003:00017f0c       _rl32eReceiveChar          1006ff0c     <common>
 0003:00017f10       _rl32eSendChar             1006ff10     <common>
 0003:00017f14       _rl32eCloseCOMPort         1006ff14     <common>
 0003:00017f18       _rl32eInitCOMPort          1006ff18     <common>
 0003:00017f1c       _xpceGetParamDims          1006ff1c     <common>
 0003:00017f20       _xpceGetParameter          1006ff20     <common>
 0003:00017f24       _xpceSetParameter          1006ff24     <common>
 0003:00017f28       _xpceGetSignalValue        1006ff28     <common>
 0003:00017f2c       _xpceAssignPCIInterrupt    1006ff2c     <common>
 0003:00017f30       _rl32eGetPCIInfoAtSlot     1006ff30     <common>
 0003:00017f34       _rl32eGetPCIInfo           1006ff34     <common>
 0003:00017f38       _rl32eShowPCIInfo          1006ff38     <common>
 0003:00017f3c       _rl32eShowPCIDev           1006ff3c     <common>
 0003:00017f40       _xpceGetTET                1006ff40     <common>
 0003:00017f44       _xpceFTSubtract            1006ff44     <common>
 0003:00017f48       _xpceFTAdd                 1006ff48     <common>
 0003:00017f4c       _xpceFTReadTime            1006ff4c     <common>
 0003:00017f50       ___unguarded_readlc_active 1006ff50     <common>
 0003:00017f60       ___setlc_active            1006ff60     <common>
 0003:00017f64       __nhandle                  1006ff64     <common>
 0003:00017f80       _encodedKERNEL32Functions  1006ff80     <common>
 0003:00018028       __debugger_hook_dummy      10070028     <common>
 0003:00018034       ___use_sse2_mathfcns       10070034     <common>
 0003:00018040       __pmatherr                 10070040     <common>
 0003:0001804c       __pDestructExceptionObject 1007004c     <common>
 0003:00018058       __acmdln                   10070058     <common>
 0003:00018080       __bufin                    10070080     <common>
 0003:000193bc       ___piob                    100713bc     <common>
 0003:000193c0       __nstream                  100713c0     <common>
 0003:000193c4       ___dyn_tls_init_callback   100713c4     <common>
 0003:000193d4       ___onexitend               100713d4     <common>
 0003:000193d8       ___onexitbegin             100713d8     <common>
 0003:000193dc       ___mbctype_initialized     100713dc     <common>
 0003:000193e0       ___env_initialized         100713e0     <common>
 0004:00000000       __imp__GetModuleHandleA@4  10072000     kernel32:KERNEL32.dll
 0004:00000004       __imp__GetProcAddress@8    10072004     kernel32:KERNEL32.dll
 0004:00000008       __imp__HeapAlloc@12        10072008     kernel32:KERNEL32.dll
 0004:0000000c       __imp__IsDebuggerPresent@0 1007200c     kernel32:KERNEL32.dll
 0004:00000010       __imp__IsProcessorFeaturePresent@4 10072010     kernel32:KERNEL32.dll
 0004:00000014       __imp__EncodePointer@4     10072014     kernel32:KERNEL32.dll
 0004:00000018       __imp__DecodePointer@4     10072018     kernel32:KERNEL32.dll
 0004:0000001c       __imp__GetLastError@0      1007201c     kernel32:KERNEL32.dll
 0004:00000020       __imp__ExitProcess@4       10072020     kernel32:KERNEL32.dll
 0004:00000024       __imp__GetModuleHandleExW@12 10072024     kernel32:KERNEL32.dll
 0004:00000028       __imp__AreFileApisANSI@0   10072028     kernel32:KERNEL32.dll
 0004:0000002c       __imp__MultiByteToWideChar@24 1007202c     kernel32:KERNEL32.dll
 0004:00000030       __imp__WideCharToMultiByte@32 10072030     kernel32:KERNEL32.dll
 0004:00000034       __imp__HeapFree@12         10072034     kernel32:KERNEL32.dll
 0004:00000038       __imp__HeapReAlloc@16      10072038     kernel32:KERNEL32.dll
 0004:0000003c       __imp__EnterCriticalSection@4 1007203c     kernel32:KERNEL32.dll
 0004:00000040       __imp__LeaveCriticalSection@4 10072040     kernel32:KERNEL32.dll
 0004:00000044       __imp__GetStdHandle@4      10072044     kernel32:KERNEL32.dll
 0004:00000048       __imp__GetFileType@4       10072048     kernel32:KERNEL32.dll
 0004:0000004c       __imp__GetModuleFileNameW@12 1007204c     kernel32:KERNEL32.dll
 0004:00000050       __imp__WriteConsoleW@20    10072050     kernel32:KERNEL32.dll
 0004:00000054       __imp__GetCommandLineA@0   10072054     kernel32:KERNEL32.dll
 0004:00000058       __imp__GetCurrentThreadId@0 10072058     kernel32:KERNEL32.dll
 0004:0000005c       __imp__WriteFile@20        1007205c     kernel32:KERNEL32.dll
 0004:00000060       __imp__GetProcessHeap@0    10072060     kernel32:KERNEL32.dll
 0004:00000064       __imp__UnhandledExceptionFilter@4 10072064     kernel32:KERNEL32.dll
 0004:00000068       __imp__SetUnhandledExceptionFilter@4 10072068     kernel32:KERNEL32.dll
 0004:0000006c       __imp__SetLastError@4      1007206c     kernel32:KERNEL32.dll
 0004:00000070       __imp__InitializeCriticalSectionAndSpinCount@8 10072070     kernel32:KERNEL32.dll
 0004:00000074       __imp__CreateEventW@16     10072074     kernel32:KERNEL32.dll
 0004:00000078       __imp__Sleep@4             10072078     kernel32:KERNEL32.dll
 0004:0000007c       __imp__GetCurrentProcess@0 1007207c     kernel32:KERNEL32.dll
 0004:00000080       __imp__TerminateProcess@8  10072080     kernel32:KERNEL32.dll
 0004:00000084       __imp__TlsAlloc@0          10072084     kernel32:KERNEL32.dll
 0004:00000088       __imp__TlsGetValue@4       10072088     kernel32:KERNEL32.dll
 0004:0000008c       __imp__TlsSetValue@8       1007208c     kernel32:KERNEL32.dll
 0004:00000090       __imp__TlsFree@4           10072090     kernel32:KERNEL32.dll
 0004:00000094       __imp__GetStartupInfoW@4   10072094     kernel32:KERNEL32.dll
 0004:00000098       __imp__GetTickCount@0      10072098     kernel32:KERNEL32.dll
 0004:0000009c       __imp__GetModuleHandleW@4  1007209c     kernel32:KERNEL32.dll
 0004:000000a0       __imp__CreateSemaphoreW@16 100720a0     kernel32:KERNEL32.dll
 0004:000000a4       __imp__DeleteCriticalSection@4 100720a4     kernel32:KERNEL32.dll
 0004:000000a8       __imp__FatalAppExitA@8     100720a8     kernel32:KERNEL32.dll
 0004:000000ac       __imp__SetConsoleCtrlHandler@8 100720ac     kernel32:KERNEL32.dll
 0004:000000b0       __imp__FreeLibrary@4       100720b0     kernel32:KERNEL32.dll
 0004:000000b4       __imp__LoadLibraryExW@12   100720b4     kernel32:KERNEL32.dll
 0004:000000b8       __imp__IsValidCodePage@4   100720b8     kernel32:KERNEL32.dll
 0004:000000bc       __imp__GetACP@0            100720bc     kernel32:KERNEL32.dll
 0004:000000c0       __imp__GetOEMCP@0          100720c0     kernel32:KERNEL32.dll
 0004:000000c4       __imp__GetCPInfo@8         100720c4     kernel32:KERNEL32.dll
 0004:000000c8       __imp__CloseHandle@4       100720c8     kernel32:KERNEL32.dll
 0004:000000cc       __imp__RtlUnwind@16        100720cc     kernel32:KERNEL32.dll
 0004:000000d0       __imp__ReadFile@20         100720d0     kernel32:KERNEL32.dll
 0004:000000d4       __imp__GetConsoleMode@8    100720d4     kernel32:KERNEL32.dll
 0004:000000d8       __imp__ReadConsoleW@20     100720d8     kernel32:KERNEL32.dll
 0004:000000dc       __imp__GetConsoleCP@0      100720dc     kernel32:KERNEL32.dll
 0004:000000e0       __imp__DeleteFileW@4       100720e0     kernel32:KERNEL32.dll
 0004:000000e4       __imp__SetFilePointerEx@20 100720e4     kernel32:KERNEL32.dll
 0004:000000e8       __imp__RaiseException@16   100720e8     kernel32:KERNEL32.dll
 0004:000000ec       __imp__OutputDebugStringW@4 100720ec     kernel32:KERNEL32.dll
 0004:000000f0       __imp__GetCurrentThread@0  100720f0     kernel32:KERNEL32.dll
 0004:000000f4       __imp__GetModuleFileNameA@12 100720f4     kernel32:KERNEL32.dll
 0004:000000f8       __imp__QueryPerformanceCounter@4 100720f8     kernel32:KERNEL32.dll
 0004:000000fc       __imp__GetCurrentProcessId@0 100720fc     kernel32:KERNEL32.dll
 0004:00000100       __imp__GetSystemTimeAsFileTime@4 10072100     kernel32:KERNEL32.dll
 0004:00000104       __imp__GetEnvironmentStringsW@0 10072104     kernel32:KERNEL32.dll
 0004:00000108       __imp__FreeEnvironmentStringsW@4 10072108     kernel32:KERNEL32.dll
 0004:0000010c       __imp__HeapSize@12         1007210c     kernel32:KERNEL32.dll
 0004:00000110       __imp__GetDateFormatW@24   10072110     kernel32:KERNEL32.dll
 0004:00000114       __imp__GetTimeFormatW@24   10072114     kernel32:KERNEL32.dll
 0004:00000118       __imp__CompareStringW@24   10072118     kernel32:KERNEL32.dll
 0004:0000011c       __imp__LCMapStringW@24     1007211c     kernel32:KERNEL32.dll
 0004:00000120       __imp__GetLocaleInfoW@16   10072120     kernel32:KERNEL32.dll
 0004:00000124       __imp__IsValidLocale@8     10072124     kernel32:KERNEL32.dll
 0004:00000128       __imp__GetUserDefaultLCID@0 10072128     kernel32:KERNEL32.dll
 0004:0000012c       __imp__EnumSystemLocalesW@8 1007212c     kernel32:KERNEL32.dll
 0004:00000130       __imp__GetStringTypeW@16   10072130     kernel32:KERNEL32.dll
 0004:00000134       __imp__FlushFileBuffers@4  10072134     kernel32:KERNEL32.dll
 0004:00000138       __imp__SetStdHandle@8      10072138     kernel32:KERNEL32.dll
 0004:0000013c       __imp__CreateFileW@28      1007213c     kernel32:KERNEL32.dll
 0004:00000140       __imp__SetEndOfFile@4      10072140     kernel32:KERNEL32.dll
 0004:00000144       \177KERNEL32_NULL_THUNK_DATA 10072144     kernel32:KERNEL32.dll
 0004:000001b0       __IMPORT_DESCRIPTOR_KERNEL32 100721b0     kernel32:KERNEL32.dll
 0004:000001c4       __NULL_IMPORT_DESCRIPTOR   100721c4     kernel32:KERNEL32.dll

 entry point at        0001:00016d83

