 FingerStrokeAssistance_xpc

 Timestamp is 58a21b6e (Mon Feb 13 12:47:42 2017)

 Preferred load address is 10000000

 Start         Length     Name                   Class
 0001:00000000 000404a5H .text$mn                CODE
 0002:00000000 00000104H .CRT$XCA                DATA
 0002:00000104 00000104H .CRT$XCZ                DATA
 0002:00000208 00000104H .CRT$XIA                DATA
 0002:0000030c 00000118H .CRT$XIC                DATA
 0002:00000424 00000104H .CRT$XIZ                DATA
 0002:00000528 00000104H .CRT$XPA                DATA
 0002:0000062c 00000109H .CRT$XPX                DATA
 0002:00000738 00000104H .CRT$XPXA               DATA
 0002:0000083c 00000104H .CRT$XPZ                DATA
 0002:00000940 00000104H .CRT$XTA                DATA
 0002:00000a44 00000104H .CRT$XTZ                DATA
 0002:00000b50 00012c13H .rdata                  DATA
 0002:00013764 000001c4H .rdata$debug            DATA
 0002:00013930 0000010eH .rdata$sxdata           DATA
 0002:00013a40 00000104H .rtc$IAA                DATA
 0002:00013b44 00000104H .rtc$IZZ                DATA
 0002:00013c48 00000104H .rtc$TAA                DATA
 0002:00013d4c 00000104H .rtc$TZZ                DATA
 0002:00013e50 00000991H .xdata$x                DATA
 0002:000147f0 00000226H .edata                  DATA
 0003:00000000 00002cbfH .data                   DATA
 0003:00002cc0 000163c4H .bss                    DATA
 0004:00000000 000001b0H .idata$5                DATA
 0004:000001b0 00000014H .idata$2                DATA
 0004:000001c4 00000014H .idata$3                DATA
 0004:000001d8 000001b0H .idata$4                DATA
 0004:00000388 0000076bH .idata$6                DATA

  Address         Publics by Value              Rva+Base       Lib:Object

 0000:00000000       ___guard_fids_table        00000000     <absolute>
 0000:00000000       ___guard_flags             00000000     <absolute>
 0000:00000000       ___guard_fids_count        00000000     <absolute>
 0000:00000000       __except_list              00000000     <absolute>
 0000:00000003       ___safe_se_handler_count   00000003     <absolute>
 0000:00000000       ___ImageBase               10000000     <linker-defined>
 0001:00000460       _FingerStrokeAssi_MATLABFunction 10001460 f   FingerStrokeAssistance.obj
 0001:000004c0       _FingerStrokeAssistance    100014c0 f   FingerStrokeAssistance.obj
 0001:00001680       _FingerStrokeAssistance_gainramp 10002680 f   FingerStrokeAssistance.obj
 0001:00003a00       _MdlInitialize             10004a00 f   FingerStrokeAssistance.obj
 0001:00003a10       _MdlInitializeSampleTimes  10004a10 f   FingerStrokeAssistance.obj
 0001:00003a20       _MdlInitializeSizes        10004a20 f   FingerStrokeAssistance.obj
 0001:00003a30       _MdlOutputs                10004a30 f   FingerStrokeAssistance.obj
 0001:00003a40       _MdlStart                  10004a40 f   FingerStrokeAssistance.obj
 0001:00003a50       _MdlTerminate              10004a50 f   FingerStrokeAssistance.obj
 0001:00003ab0       _MdlUpdate                 10004ab0 f   FingerStrokeAssistance.obj
 0001:00003ac0       _rt_powd_snf               10004ac0 f   FingerStrokeAssistance.obj
 0001:00003d50       _rt_roundd_snf             10004d50 f   FingerStrokeAssistance.obj
 0001:00003e50       _FingerStrokeAssistance_GetCAPIStaticMap 10004e50 f   FingerStrokeAssistance_capi.obj
 0001:00003e60       _FingerStrokeAssistance_InitializeDataMapInfo 10004e60 f   FingerStrokeAssistance_capi.obj
 0001:00003ef0       _TgtConnBackgroundTask     10004ef0 f   FingerStrokeAssistance_tgtconn.obj
 0001:00003f00       _TgtConnInit               10004f00 f   FingerStrokeAssistance_tgtconn.obj
 0001:00003f20       _TgtConnPostStep           10004f20 f   FingerStrokeAssistance_tgtconn.obj
 0001:00003f30       _TgtConnPreStep            10004f30 f   FingerStrokeAssistance_tgtconn.obj
 0001:00003f40       _TgtConnTerm               10004f40 f   FingerStrokeAssistance_tgtconn.obj
 0001:00003f50       _rtGetInf                  10004f50 f   rtGetInf.obj
 0001:00003f80       _rtGetInfF                 10004f80 f   rtGetInf.obj
 0001:00003fa0       _rtGetMinusInf             10004fa0 f   rtGetInf.obj
 0001:00003fd0       _rtGetMinusInfF            10004fd0 f   rtGetInf.obj
 0001:00003ff0       _rtGetNaN                  10004ff0 f   rtGetNaN.obj
 0001:00004020       _rtGetNaNF                 10005020 f   rtGetNaN.obj
 0001:00004950       _rt_CreateLogVar           10005950 f   rt_logging.obj
 0001:000049e0       _rt_CreateLogVarWithConvert 100059e0 f   rt_logging.obj
 0001:00005360       _rt_CreateStructLogVar     10006360 f   rt_logging.obj
 0001:000060d0       _rt_GetMxIdFromDTypeId     100070d0 f   rt_logging.obj
 0001:00006100       _rt_GetMxIdFromDTypeIdForRSim 10007100 f   rt_logging.obj
 0001:00008a40       _rt_StartDataLogging       10009a40 f   rt_logging.obj
 0001:00008f00       _rt_StartDataLoggingWithStartTime 10009f00 f   rt_logging.obj
 0001:00009860       _rt_StopDataLogging        1000a860 f   rt_logging.obj
 0001:00009880       _rt_StopDataLoggingImpl    1000a880 f   rt_logging.obj
 0001:00009ba0       _rt_UpdateLogVar           1000aba0 f   rt_logging.obj
 0001:0000af60       _rt_UpdateStructLogVar     1000bf60 f   rt_logging.obj
 0001:0000aff0       _rt_UpdateTXXFYLogVars     1000bff0 f   rt_logging.obj
 0001:0000b330       _rt_UpdateTXYLogVars       1000c330 f   rt_logging.obj
 0001:0000b580       _rt_CleanUpForStateLogWithMMI 1000c580 f   rt_logging_mmi.obj
 0001:0000b690       _rt_FillStateSigInfoFromMMI 1000c690 f   rt_logging_mmi.obj
 0001:0000ba40       _rt_mxCreateCharMatrixFromStrings 1000ca40 f   rt_matrx.obj
 0001:0000bb90       _rt_mxCreateDoubleMatrix   1000cb90 f   rt_matrx.obj
 0001:0000bbf0       _rt_mxCreateNumericArray   1000cbf0 f   rt_matrx.obj
 0001:0000bc70       _rt_mxCreateString         1000cc70 f   rt_matrx.obj
 0001:0000bd00       _rt_mxDuplicateArray       1000cd00 f   rt_matrx.obj
 0001:0000bd60       _rt_mxGetDimensions        1000cd60 f   rt_matrx.obj
 0001:0000bda0       _rt_mxGetEps               1000cda0 f   rt_matrx.obj
 0001:0000bdb0       _rt_mxGetString            1000cdb0 f   rt_matrx.obj
 0001:0000be30       _rtIsInf                   1000ce30 f   rt_nonfinite.obj
 0001:0000be70       _rtIsInfF                  1000ce70 f   rt_nonfinite.obj
 0001:0000beb0       _rtIsNaN                   1000ceb0 f   rt_nonfinite.obj
 0001:0000bed0       _rtIsNaNF                  1000ced0 f   rt_nonfinite.obj
 0001:0000bef0       _rt_InitInfAndNaN          1000cef0 f   rt_nonfinite.obj
 0001:0000bf50       _rtPrintfNoOp              1000cf50 f   rt_printf.obj
 0001:0000bf60       _rtwCAPI_CountSysRan       1000cf60 f   rtw_modelmap_utils.obj
 0001:0000c000       _rtwCAPI_EncodePath        1000d000 f   rtw_modelmap_utils.obj
 0001:0000c0f0       _rtwCAPI_FillSysRan        1000d0f0 f   rtw_modelmap_utils.obj
 0001:0000c1e0       _rtwCAPI_FreeFullPaths     1000d1e0 f   rtw_modelmap_utils.obj
 0001:0000c270       _rtwCAPI_GetFullStateBlockPath 1000d270 f   rtw_modelmap_utils.obj
 0001:0000c420       _rtwCAPI_GetNumContStateRecords 1000d420 f   rtw_modelmap_utils.obj
 0001:0000c4e0       _rtwCAPI_GetNumSigLogRecords 1000d4e0 f   rtw_modelmap_utils.obj
 0001:0000c530       _rtwCAPI_GetNumSigLogRecordsForRTWLogging 1000d530 f   rtw_modelmap_utils.obj
 0001:0000c5c0       _rtwCAPI_GetNumStateRecords 1000d5c0 f   rtw_modelmap_utils.obj
 0001:0000c610       _rtwCAPI_GetNumStateRecordsForRTWLogging 1000d610 f   rtw_modelmap_utils.obj
 0001:0000c6a0       _rtwCAPI_GetSigAddrFromMap 1000d6a0 f   rtw_modelmap_utils.obj
 0001:0000c760       _rtwCAPI_GetSigLogRecordInfo 1000d760 f   rtw_modelmap_utils.obj
 0001:0000cb90       _rtwCAPI_GetStateRecordInfo 1000db90 f   rtw_modelmap_utils.obj
 0001:0000d040       _rtwCAPI_GetStateWidth     1000e040 f   rtw_modelmap_utils.obj
 0001:0000d0a0       _rtwCAPI_HasStates         1000e0a0 f   rtw_modelmap_utils.obj
 0001:0000d110       _rtwCAPI_UpdateFullPaths   1000e110 f   rtw_modelmap_utils.obj
 0001:0000d2f0       _DllMain@12                1000e2f0 f   xpctarget.obj
 0001:0000d300       _FingerStrokeAssistance_ChangeStepSize 1000e300 f   xpctarget.obj
 0001:0000d350       _SLRTSetErrorStatus        1000e350 f   xpctarget.obj
 0001:0000d370       _changeStepSize            1000e370 f   xpctarget.obj
 0001:0000d3c0       _getDLMVersion             1000e3c0 f   xpctarget.obj
 0001:0000d3d0       _getRefMdlPath             1000e3d0 f   xpctarget.obj
 0001:0000d450       _getRefMdlSignalNumber     1000e450 f   xpctarget.obj
 0001:0000d500       _getrlmdlinfo              1000e500 f   xpctarget.obj
 0001:0000d6e0       _updateDiscreteEvents      1000e6e0 f   xpctarget.obj
 0001:0000d6f0       _getNumRef                 1000e6f0 f   appmappingData.obj
 0001:0000d700       _encnipcim                 1000e700 f   encnipcim.obj
 0001:0000dd30       _adnipcim                  1000ed30 f   adnipcim.obj
 0001:0000e700       _danipcim                  1000f700 f   danipcim.obj
 0001:0000ef00       _niMIdentify               1000ff00 f   xpcionim.obj
 0001:0000f080       _niM_AISetup               10010080 f   xpcionim.obj
 0001:0000f490       _niM_AO_Setup              10010490 f   xpcionim.obj
 0001:0000f620       _niM_Cont_Pulse_Train_Generation 10010620 f   xpcionim.obj
 0001:0000f760       _niM_Counter_Reset_All     10010760 f   xpcionim.obj
 0001:0000f810       _niM_CtrArm                10010810 f   xpcionim.obj
 0001:0000f830       _niM_CtrDisarm             10010830 f   xpcionim.obj
 0001:0000f850       _niM_CtrReadArm            10010850 f   xpcionim.obj
 0001:0000f870       _niM_CtrReadDisarm         10010870 f   xpcionim.obj
 0001:0000f890       _niM_PeriodConfigure       10010890 f   xpcionim.obj
 0001:0000fa00       _niM_Private_Data          10010a00 f   xpcionim.obj
 0001:0000ffe0       _niM_SetPFIFilter          10010fe0 f   xpcionim.obj
 0001:00010060       _niM_SetPFI_DO             10011060 f   xpcionim.obj
 0001:000100b0       _niM_SetPFI_Select         100110b0 f   xpcionim.obj
 0001:00010130       _niM_aiConfigureChannel    10011130 f   xpcionim.obj
 0001:000101a0       _niM_aiGetScalingCoefficients 100111a0 f   xpcionim.obj
 0001:00010380       _niM_aiPolynomialScaler    10011380 f   xpcionim.obj
 0001:000104a0       _niM_analogTriggerReset    100114a0 f   xpcionim.obj
 0001:000104f0       _niM_aoConfigureDAC        100114f0 f   xpcionim.obj
 0001:00010540       _niM_aoGetScalingCoefficients 10011540 f   xpcionim.obj
 0001:000105f0       _niM_aoLinearScaler        100115f0 f   xpcionim.obj
 0001:00010620       _niM_configureTimebase     10011620 f   xpcionim.obj
 0001:00010640       _niM_eepromReadMSeries     10011640 f   xpcionim.obj
 0001:00010710       _niM_pllReset              10011710 f   xpcionim.obj
 0001:00010740       _niM_resetCtr              10011740 f   xpcionim.obj
 0001:00010760       _niM_whichBank             10011760 f   xpcionim.obj
 0001:000107a0       _niMconfig                 100117a0 f   xpcionim.obj
 0001:00010840       _GetPCIDeviceFull          10011840 f   xpcruntime:xpcimports.obj
 0001:00010870       _ShowPCIDevice             10011870 f   xpcruntime:xpcimports.obj
 0001:00010ee0       _xpcGetPciConfigAtSlot     10011ee0 f   xpcruntime:xpcimports.obj
 0001:00011160       _xpcInitProcs              10012160 f   xpcruntime:xpcimports.obj
 0001:00011cc0       _xpceuploadevent           10012cc0 f   xpcruntime:xpcimports.obj
 0001:00011cc1       __heap_alloc               10012cc1 f i LIBCMT:malloc.obj
 0001:00011cfe       _malloc                    10012cfe f   LIBCMT:malloc.obj
 0001:00011d90       __get_printf_count_output  10012d90 f   LIBCMT:printf.obj
 0001:00011da5       __printf_l                 10012da5 f   LIBCMT:printf.obj
 0001:00011dbc       __printf_p                 10012dbc f   LIBCMT:printf.obj
 0001:00011dd2       __printf_p_l               10012dd2 f   LIBCMT:printf.obj
 0001:00011de9       __printf_s_l               10012de9 f   LIBCMT:printf.obj
 0001:00011e00       __set_printf_count_output  10012e00 f   LIBCMT:printf.obj
 0001:00011e28       _printf                    10012e28 f   LIBCMT:printf.obj
 0001:00011ed7       _printf_s                  10012ed7 f   LIBCMT:printf.obj
 0001:00011eed       ___libm_sse2_exp           10012eed f   LIBCMT:exp_sse2.obj
 0001:00012103       ___libm_sse2_pow           10013103 f   LIBCMT:pow_sse2.obj
 0001:00012b80       _ceil                      10013b80 f   LIBCMT:ceil_pentium4.obj
 0001:00012bc0       __ceil_pentium4            10013bc0 f   LIBCMT:ceil_pentium4.obj
 0001:00012ca0       _memset                    10013ca0 f   LIBCMT:memset.obj
 0001:00012d30       __fpmath                   10013d30 f   LIBCMT:fpinit.obj
 0001:00012d47       ___setfflag                10013d47 f   LIBCMT:fpinit.obj
 0001:00012d5a       __cfltcvt_init             10013d5a f   LIBCMT:fpinit.obj
 0001:00012dba       ___raise_securityfailure   10013dba f   LIBCMT:gs_report.obj
 0001:00012df7       ___report_gsfailure        10013df7 f   LIBCMT:gs_report.obj
 0001:00012ef2       ___report_rangecheckfailure 10013ef2 f   LIBCMT:gs_report.obj
 0001:00012efe       ___report_securityfailure  10013efe f   LIBCMT:gs_report.obj
 0001:00012fce       ___report_securityfailureEx 10013fce f   LIBCMT:gs_report.obj
 0001:000130e4       ___copy_path_to_wide_string 100140e4 f   LIBCMT:crt0dat.obj
 0001:00013196       ___copy_to_char            10014196 f   LIBCMT:crt0dat.obj
 0001:0001324b       ___crtCorExitProcess       1001424b f   LIBCMT:crt0dat.obj
 0001:0001327f       ___crtExitProcess          1001427f f   LIBCMT:crt0dat.obj
 0001:00013295       ___freeCrtMemory           10014295 f   LIBCMT:crt0dat.obj
 0001:000133a2       __amsg_exit                100143a2 f   LIBCMT:crt0dat.obj
 0001:000133be       __c_exit                   100143be f   LIBCMT:crt0dat.obj
 0001:000133cd       __cexit                    100143cd f   LIBCMT:crt0dat.obj
 0001:000133dc       __cinit                    100143dc f   LIBCMT:crt0dat.obj
 0001:00013460       __exit                     10014460 f   LIBCMT:crt0dat.obj
 0001:00013474       __exit_app                 10014474 f   LIBCMT:crt0dat.obj
 0001:00013482       __get_pgmptr               10014482 f   LIBCMT:crt0dat.obj
 0001:000134b1       __get_wpgmptr              100144b1 f   LIBCMT:crt0dat.obj
 0001:000134e0       __init_pointers            100144e0 f   LIBCMT:crt0dat.obj
 0001:0001354e       __initterm_e               1001454e f   LIBCMT:crt0dat.obj
 0001:00013570       __lockexit                 10014570 f   LIBCMT:crt0dat.obj
 0001:00013579       __unlockexit               10014579 f   LIBCMT:crt0dat.obj
 0001:000136b1       _exit                      100146b1 f   LIBCMT:crt0dat.obj
 0001:000136c5       _calloc                    100146c5 f   LIBCMT:calloc.obj
 0001:00013705       _free                      10014705 f   LIBCMT:free.obj
 0001:0001373d       _realloc                   1001473d f   LIBCMT:realloc.obj
 0001:000137f0       _memmove                   100147f0 f   LIBCMT:memmove.obj
 0001:00013e40       _strchr                    10014e40 f   LIBCMT:strchr.obj
 0001:00013eae       ___from_strstr_to_strchr   10014eae     LIBCMT:strchr.obj
 0001:00013f70       _strncat                   10014f70 f   LIBCMT:strncat.obj
 0001:000140b0       _strncpy                   100150b0 f   LIBCMT:strncpy.obj
 0001:000141d4       ___initstdio               100151d4 f   LIBCMT:_file.obj
 0001:00014247       ___endstdio                10015247 f   LIBCMT:_file.obj
 0001:0001426e       ___iob_func                1001526e f   LIBCMT:_file.obj
 0001:00014274       __lock_file                10015274 f   LIBCMT:_file.obj
 0001:000142b3       __lock_file2               100152b3 f   LIBCMT:_file.obj
 0001:000142e3       __unlock_file              100152e3 f   LIBCMT:_file.obj
 0001:0001431d       __unlock_file2             1001531d f   LIBCMT:_file.obj
 0001:0001434a       __fclose_nolock            1001534a f   LIBCMT:fclose.obj
 0001:000143b6       _fclose                    100153b6 f   LIBCMT:fclose.obj
 0001:0001442d       __fsopen                   1001542d f   LIBCMT:fopen.obj
 0001:000144f1       _fopen                     100154f1 f   LIBCMT:fopen.obj
 0001:00014506       _fopen_s                   10015506 f   LIBCMT:fopen.obj
 0001:0001454b       __fprintf_l                1001554b f   LIBCMT:fprintf.obj
 0001:00014565       __fprintf_p                10015565 f   LIBCMT:fprintf.obj
 0001:0001457e       __fprintf_p_l              1001557e f   LIBCMT:fprintf.obj
 0001:00014598       __fprintf_s_l              10015598 f   LIBCMT:fprintf.obj
 0001:000145b2       _fprintf                   100155b2 f   LIBCMT:fprintf.obj
 0001:000146c4       _fprintf_s                 100156c4 f   LIBCMT:fprintf.obj
 0001:000146dd       __fread_nolock             100156dd f   LIBCMT:fread.obj
 0001:000146f8       __fread_nolock_s           100156f8 f   LIBCMT:fread.obj
 0001:000148bd       _fread                     100158bd f   LIBCMT:fread.obj
 0001:000148d8       _fread_s                   100158d8 f   LIBCMT:fread.obj
 0001:00014969       __fwrite_nolock            10015969 f   LIBCMT:fwrite.obj
 0001:00014ac2       _fwrite                    10015ac2 f   LIBCMT:fwrite.obj
 0001:00014b44       __unlink                   10015b44 f   LIBCMT:unlink.obj
 0001:00014b4d       _remove                    10015b4d f   LIBCMT:unlink.obj
 0001:00014b8f       _rewind                    10015b8f f   LIBCMT:rewind.obj
 0001:00014c4e       __scprintf                 10015c4e f   LIBCMT:sprintf.obj
 0001:00014c61       __scprintf_l               10015c61 f   LIBCMT:sprintf.obj
 0001:00014c78       __scprintf_p               10015c78 f   LIBCMT:sprintf.obj
 0001:00014c8b       __scprintf_p_l             10015c8b f   LIBCMT:sprintf.obj
 0001:00014ca2       __snprintf_s               10015ca2 f   LIBCMT:sprintf.obj
 0001:00014cc1       __snprintf_s_l             10015cc1 f   LIBCMT:sprintf.obj
 0001:00014ce1       __sprintf_l                10015ce1 f   LIBCMT:sprintf.obj
 0001:00014cfb       __sprintf_p                10015cfb f   LIBCMT:sprintf.obj
 0001:00014d17       __sprintf_p_l              10015d17 f   LIBCMT:sprintf.obj
 0001:00014d34       __sprintf_s_l              10015d34 f   LIBCMT:sprintf.obj
 0001:00014d51       _sprintf                   10015d51 f   LIBCMT:sprintf.obj
 0001:00014dd5       _sprintf_s                 10015dd5 f   LIBCMT:sprintf.obj
 0001:00014df1       _ldexp                     10015df1 f   LIBCMT:ldexp.obj
 0001:00014fdd       @__security_check_cookie@4 10015fdd f   LIBCMT:secchk.obj
 0001:00014ff0       __ftoui3                   10015ff0 f   LIBCMT:ftol3.obj
 0001:00014fff       __ftoul3                   10015fff f   LIBCMT:ftol3.obj
 0001:0001500e       __ftol3                    1001600e f   LIBCMT:ftol3.obj
 0001:0001501b       __ftol3_NaN                1001601b f   LIBCMT:ftol3.obj
 0001:00015033       __ftol3_work               10016033 f   LIBCMT:ftol3.obj
 0001:000150b9       __ftol3_common             100160b9 f   LIBCMT:ftol3.obj
 0001:0001517b       __ftol3_arg_error          1001617b f   LIBCMT:ftol3.obj
 0001:0001518d       __ftol3_except             1001618d f   LIBCMT:ftol3.obj
 0001:000151cf       __dtoui3                   100161cf f   LIBCMT:ftol3.obj
 0001:000151de       __dtoul3                   100161de f   LIBCMT:ftol3.obj
 0001:000151ed       __dtol3                    100161ed f   LIBCMT:ftol3.obj
 0001:000151fa       __dtol3_NaN                100161fa f   LIBCMT:ftol3.obj
 0001:00015217       __dtol3_work               10016217 f   LIBCMT:ftol3.obj
 0001:000152fc       __ultod3                   100162fc f   LIBCMT:ftol3.obj
 0001:0001538d       __ltod3                    1001638d f   LIBCMT:ftol3.obj
 0001:000153c0       _memcpy                    100163c0 f   LIBCMT:memcpy.obj
 0001:00015a04       ___isa_available_init      10016a04 f   LIBCMT:cpu_disp.obj
 0001:00015b7d       __invoke_watson_if_error   10016b7d f i LIBCMT:wassert.obj
 0001:00015b9d       __wassert                  10016b9d f   LIBCMT:wassert.obj
 0001:00016241       __CRT_INIT@12              10017241 f   LIBCMT:dllcrt0.obj
 0001:000163b3       __DllMainCRTStartup@12     100173b3 f   LIBCMT:dllcrt0.obj
 0001:000164e4       ___DllXcptFilter           100174e4 f   LIBCMT:dllcrt0.obj
 0001:00016509       ?_query_new_handler@@YAP6AHI@ZXZ 10017509 f   LIBCMT:handler.obj
 0001:00016516       ?_set_new_handler@@YAP6AHI@ZH@Z 10017516 f   LIBCMT:handler.obj
 0001:0001651f       ?_set_new_handler@@YAP6AHI@ZP6AHI@Z@Z 1001751f f   LIBCMT:handler.obj
 0001:00016554       __callnewh                 10017554 f   LIBCMT:handler.obj
 0001:0001657a       __initp_heap_handler       1001757a f   LIBCMT:handler.obj
 0001:00016587       __FF_MSGBANNER             10017587 f   LIBCMT:crt0msg.obj
 0001:000165c0       __GET_RTERRMSG             100175c0 f   LIBCMT:crt0msg.obj
 0001:000165e4       __NMSG_WRITE               100175e4 f   LIBCMT:crt0msg.obj
 0001:000167a1       ___doserrno                100177a1 f   LIBCMT:dosmap.obj
 0001:000167b4       __dosmaperr                100177b4 f   LIBCMT:dosmap.obj
 0001:000167d5       __errno                    100177d5 f   LIBCMT:dosmap.obj
 0001:000167e8       __get_doserrno             100177e8 f   LIBCMT:dosmap.obj
 0001:0001680b       __get_errno                1001780b f   LIBCMT:dosmap.obj
 0001:0001682e       __get_errno_from_oserr     1001782e f   LIBCMT:dosmap.obj
 0001:0001686f       __set_doserrno             1001786f f   LIBCMT:dosmap.obj
 0001:0001688e       __set_errno                1001788e f   LIBCMT:dosmap.obj
 0001:000168ad       __get_heap_handle          100178ad f   LIBCMT:heapinit.obj
 0001:000168b3       __heap_init                100178b3 f   LIBCMT:heapinit.obj
 0001:000168c8       __heap_term                100178c8 f   LIBCMT:heapinit.obj
 0001:000168d0       ?_invalid_parameter@@YAXPBG00II@Z 100178d0 f   LIBCMT:invarg.obj
 0001:000168d5       ?_invoke_watson@@YAXPBG00II@Z 100178d5 f   LIBCMT:invarg.obj
 0001:000168ed       __call_reportfault         100178ed f   LIBCMT:invarg.obj
 0001:00016a12       __get_invalid_parameter_handler 10017a12 f   LIBCMT:invarg.obj
 0001:00016a1f       __initp_misc_invarg        10017a1f f   LIBCMT:invarg.obj
 0001:00016a2c       __invalid_parameter        10017a2c f   LIBCMT:invarg.obj
 0001:00016a57       __invalid_parameter_noinfo 10017a57 f   LIBCMT:invarg.obj
 0001:00016a67       __invalid_parameter_noinfo_noreturn 10017a67 f   LIBCMT:invarg.obj
 0001:00016a82       __invoke_watson            10017a82 f   LIBCMT:invarg.obj
 0001:00016aad       __set_invalid_parameter_handler 10017aad f   LIBCMT:invarg.obj
 0001:00016ad2       __vprintf_l                10017ad2 f   LIBCMT:vprintf.obj
 0001:00016aed       __vprintf_p                10017aed f   LIBCMT:vprintf.obj
 0001:00016b07       __vprintf_p_l              10017b07 f   LIBCMT:vprintf.obj
 0001:00016b22       __vprintf_s_l              10017b22 f   LIBCMT:vprintf.obj
 0001:00016b3d       _vprintf                   10017b3d f   LIBCMT:vprintf.obj
 0001:00016b57       _vprintf_helper            10017b57 f   LIBCMT:vprintf.obj
 0001:00016be4       _vprintf_s                 10017be4 f   LIBCMT:vprintf.obj
 0001:00016bfe       __ftbuf                    10017bfe f   LIBCMT:_sftbuf.obj
 0001:00016c2f       __stbuf                    10017c2f f   LIBCMT:_sftbuf.obj
 0001:00016cd5       ??0_LocaleUpdate@@QAE@PAUlocaleinfo_struct@@@Z 10017cd5 f i LIBCMT:output.obj
 0001:00016d5d       ??1_LocaleUpdate@@QAE@XZ   10017d5d f i LIBCMT:output.obj
 0001:00016d6b       ?GetLocaleT@_LocaleUpdate@@QAEPAUlocaleinfo_struct@@XZ 10017d6b f i LIBCMT:output.obj
 0001:00016d6e       __output_l                 10017d6e f   LIBCMT:output.obj
 0001:000178ee       _get_int64_arg             100188ee f i LIBCMT:output.obj
 0001:00017901       _get_int_arg               10018901 f i LIBCMT:output.obj
 0001:00017911       _get_short_arg             10018911 f i LIBCMT:output.obj
 0001:00017a10       __SEH_prolog4              10018a10 f   LIBCMT:sehprolg4.obj
 0001:00017a55       __SEH_epilog4              10018a55 f   LIBCMT:sehprolg4.obj
 0001:00017ab0       __except_handler4          10018ab0 f   LIBCMT:chandler4.obj
 0001:00017c44       ___libm_error_support      10018c44 f   LIBCMT:libm_error.obj
 0001:00017f2c       ___libm_setusermatherr     10018f2c f   LIBCMT:libm_error.obj
 0001:00017f58       __sse2_mathfcns_init       10018f58 f   LIBCMT:mathfcns.obj
 0001:00017f67       __set_SSE2_enable          10018f67 f   LIBCMT:mathfcns.obj
 0001:00017f86       __ceil_default             10018f86 f   LIBCMT:ceil.obj
 0001:0001805d       __VEC_memset               1001905d f   LIBCMT:p4_memset.obj
 0001:00018125       ?strrchr@@YAPADPADH@Z      10019125 f i LIBCMT:cvt.obj
 0001:0001812e       __cfltcvt                  1001912e f   LIBCMT:cvt.obj
 0001:0001814f       __cfltcvt_l                1001914f f   LIBCMT:cvt.obj
 0001:000181d5       __cftoa                    100191d5 f   LIBCMT:cvt.obj
 0001:000181f3       __cftoa_l                  100191f3 f   LIBCMT:cvt.obj
 0001:0001854f       __cftoe                    1001954f f   LIBCMT:cvt.obj
 0001:000186be       __cftoe_l                  100196be f   LIBCMT:cvt.obj
 0001:0001878c       __cftof                    1001978c f   LIBCMT:cvt.obj
 0001:00018893       __cftof_l                  10019893 f   LIBCMT:cvt.obj
 0001:00018954       __cftog                    10019954 f   LIBCMT:cvt.obj
 0001:00018972       __cftog_l                  10019972 f   LIBCMT:cvt.obj
 0001:00018a71       __cropzeros                10019a71 f   LIBCMT:cvt.obj
 0001:00018a82       __cropzeros_l              10019a82 f   LIBCMT:cvt.obj
 0001:00018b02       __fassign                  10019b02 f   LIBCMT:cvt.obj
 0001:00018b1a       __fassign_l                10019b1a f   LIBCMT:cvt.obj
 0001:00018b5c       __forcdecpt                10019b5c f   LIBCMT:cvt.obj
 0001:00018b6d       __forcdecpt_l              10019b6d f   LIBCMT:cvt.obj
 0001:00018be1       __positive                 10019be1 f   LIBCMT:cvt.obj
 0001:00018c23       __setdefaultprecision      10019c23 f   LIBCMT:fp8.obj
 0001:00018c4a       __initp_misc_cfltcvt_tab   10019c4a f   LIBCMT:cmiscdat.obj
 0001:00018c69       __crt_debugger_hook        10019c69 f   LIBCMT:dbghook.obj
 0001:00018c9e       ___crtCloseThreadpoolTimer 10019c9e f   LIBCMT:winapisupp.obj
 0001:00018cb5       ___crtCloseThreadpoolWait  10019cb5 f   LIBCMT:winapisupp.obj
 0001:00018ccc       ___crtCreateEventExW       10019ccc f   LIBCMT:winapisupp.obj
 0001:00018d07       ___crtCreateSemaphoreExW   10019d07 f   LIBCMT:winapisupp.obj
 0001:00018d41       ___crtCreateSymbolicLinkW  10019d41 f   LIBCMT:winapisupp.obj
 0001:00018d6a       ___crtCreateThreadpoolTimer 10019d6a f   LIBCMT:winapisupp.obj
 0001:00018d8b       ___crtCreateThreadpoolWait 10019d8b f   LIBCMT:winapisupp.obj
 0001:00018dac       ___crtFlsAlloc             10019dac f   LIBCMT:winapisupp.obj
 0001:00018dca       ___crtFlsFree              10019dca f   LIBCMT:winapisupp.obj
 0001:00018de9       ___crtFlsGetValue          10019de9 f   LIBCMT:winapisupp.obj
 0001:00018e08       ___crtFlsSetValue          10019e08 f   LIBCMT:winapisupp.obj
 0001:00018e2a       ___crtFlushProcessWriteBuffers 10019e2a f   LIBCMT:winapisupp.obj
 0001:00018e3a       ___crtFreeLibraryWhenCallbackReturns 10019e3a f   LIBCMT:winapisupp.obj
 0001:00018e54       ___crtGetCurrentProcessorNumber 10019e54 f   LIBCMT:winapisupp.obj
 0001:00018e66       ___crtGetFileInformationByHandleEx 10019e66 f   LIBCMT:winapisupp.obj
 0001:00018e92       ___crtGetLogicalProcessorInformation 10019e92 f   LIBCMT:winapisupp.obj
 0001:00018eb8       ___crtGetShowWindowMode    10019eb8 f   LIBCMT:winapisupp.obj
 0001:00018edb       ___crtGetTickCount64       10019edb f   LIBCMT:winapisupp.obj
 0001:00018ef3       ___crtInitializeCriticalSectionEx 10019ef3 f   LIBCMT:winapisupp.obj
 0001:00018f21       ___crtIsPackagedApp        10019f21 f   LIBCMT:winapisupp.obj
 0001:00018f61       ___crtLoadWinApiPointers   10019f61 f   LIBCMT:winapisupp.obj
 0001:000191ec       ___crtSetFileInformationByHandle 1001a1ec f   LIBCMT:winapisupp.obj
 0001:00019218       ___crtSetThreadStackGuarantee 1001a218 f   LIBCMT:winapisupp.obj
 0001:00019233       ___crtSetThreadpoolTimer   1001a233 f   LIBCMT:winapisupp.obj
 0001:00019253       ___crtSetThreadpoolWait    1001a253 f   LIBCMT:winapisupp.obj
 0001:00019270       ___crtSetUnhandledExceptionFilter 1001a270 f   LIBCMT:winapisupp.obj
 0001:0001927e       ___crtSleep                1001a27e f   LIBCMT:winapisupp.obj
 0001:0001928c       ___crtTerminateProcess     1001a28c f   LIBCMT:winapisupp.obj
 0001:000192a1       ___crtUnhandledException   1001a2a1 f   LIBCMT:winapisupp.obj
 0001:000192b7       ___crtWaitForThreadpoolTimerCallbacks 1001a2b7 f   LIBCMT:winapisupp.obj
 0001:000192d1       __RTC_Initialize           1001a2d1 f   LIBCMT:initsect.obj
 0001:000192f1       __RTC_Terminate            1001a2f1 f   LIBCMT:initsect.obj
 0001:00019311       __lock                     1001a311 f   LIBCMT:mlock.obj
 0001:00019345       __lockerr_exit             1001a345 f   LIBCMT:mlock.obj
 0001:00019365       __mtdeletelocks            1001a365 f   LIBCMT:mlock.obj
 0001:000193b9       __mtinitlocknum            1001a3b9 f   LIBCMT:mlock.obj
 0001:00019462       __mtinitlocks              1001a462 f   LIBCMT:mlock.obj
 0001:0001949b       __unlock                   1001a49b f   LIBCMT:mlock.obj
 0001:000194b0       __FindPESection            1001a4b0 f   LIBCMT:pesect.obj
 0001:00019500       __IsNonwritableInCurrentImage 1001a500 f   LIBCMT:pesect.obj
 0001:000195c0       __ValidateImageBase        1001a5c0 f   LIBCMT:pesect.obj
 0001:000195f1       ___onexitinit              1001a5f1 f   LIBCMT:onexit.obj
 0001:00019620       __onexit                   1001a620 f   LIBCMT:onexit.obj
 0001:0001971c       _atexit                    1001a71c f   LIBCMT:onexit.obj
 0001:00019731       __calloc_crt               1001a731 f   LIBCMT:crtheap.obj
 0001:00019779       __malloc_crt               1001a779 f   LIBCMT:crtheap.obj
 0001:000197c0       __realloc_crt              1001a7c0 f   LIBCMT:crtheap.obj
 0001:0001980a       __recalloc_crt             1001a80a f   LIBCMT:crtheap.obj
 0001:00019858       __set_malloc_crt_max_wait  1001a858 f   LIBCMT:crtheap.obj
 0001:0001986b       _wait_a_bit                1001a86b f i LIBCMT:crtheap.obj
 0001:0001988f       ?_inconsistency@@YAXXZ     1001a88f f   LIBCMT:hooks.obj
 0001:000198c7       ?terminate@@YAXXZ          1001a8c7 f   LIBCMT:hooks.obj
 0001:000198fb       ?unexpected@@YAXXZ         1001a8fb f   LIBCMT:hooks.obj
 0001:0001990e       __initp_eh_hooks           1001a90e f   LIBCMT:hooks.obj
 0001:0001991f       ___getlocaleinfo           1001a91f f   LIBCMT:inithelp.obj
 0001:00019af8       __initp_misc_purevirt      1001aaf8 f   LIBCMT:inithelp.obj
 0001:00019b05       ___fpecode                 1001ab05 f   LIBCMT:winsig.obj
 0001:00019b0e       ___get_sigabrt             1001ab0e f   LIBCMT:winsig.obj
 0001:00019b1b       ___pxcptinfoptrs           1001ab1b f   LIBCMT:winsig.obj
 0001:00019b24       __initp_misc_winsig        1001ab24 f   LIBCMT:winsig.obj
 0001:00019be5       _raise                     1001abe5 f   LIBCMT:winsig.obj
 0001:00019dda       _signal                    1001adda f   LIBCMT:winsig.obj
 0001:0001a031       __initp_misc_rand_s        1001b031 f   LIBCMT:rand_s.obj
 0001:0001a03e       _rand_s                    1001b03e f   LIBCMT:rand_s.obj
 0001:0001a144       ___initmbctable            1001b144 f   LIBCMT:mbctype.obj
 0001:0001a3fb       ___updatetmbcinfo          1001b3fb f   LIBCMT:mbctype.obj
 0001:0001a4a1       __getmbcp                  1001b4a1 f   LIBCMT:mbctype.obj
 0001:0001a4d2       __setmbcp                  1001b4d2 f   LIBCMT:mbctype.obj
 0001:0001a67a       __setmbcp_nolock           1001b67a f   LIBCMT:mbctype.obj
 0001:0001a865       __calloc_impl              1001b865 f   LIBCMT:calloc_impl.obj
 0001:0001a8df       __fcloseall                1001b8df f   LIBCMT:closeall.obj
 0001:0001a97c       __fflush_nolock            1001b97c f   LIBCMT:fflush.obj
 0001:0001a9c2       __flush                    1001b9c2 f   LIBCMT:fflush.obj
 0001:0001aa26       __flushall                 1001ba26 f   LIBCMT:fflush.obj
 0001:0001aa2f       _fflush                    1001ba2f f   LIBCMT:fflush.obj
 0001:0001ab6c       __fileno                   1001bb6c f   LIBCMT:fileno.obj
 0001:0001ab90       __close                    1001bb90 f   LIBCMT:close.obj
 0001:0001ac6b       __close_nolock             1001bc6b f   LIBCMT:close.obj
 0001:0001ad05       __freebuf                  1001bd05 f   LIBCMT:_freebuf.obj
 0001:0001ad35       __getstream                1001bd35 f   LIBCMT:stream.obj
 0001:0001ae54       __openfile                 1001be54 f   LIBCMT:_open.obj
 0001:0001b0d0       __local_unwind4            1001c0d0 f   LIBCMT:exsup4.obj
 0001:0001b1a6       __seh_longjmp_unwind4@4    1001c1a6 f   LIBCMT:exsup4.obj
 0001:0001b1c2       @_EH4_CallFilterFunc@8     1001c1c2 f   LIBCMT:exsup4.obj
 0001:0001b1d9       @_EH4_TransferToHandler@8  1001c1d9 f   LIBCMT:exsup4.obj
 0001:0001b1f2       @_EH4_GlobalUnwind2@8      1001c1f2 f   LIBCMT:exsup4.obj
 0001:0001b20b       @_EH4_LocalUnwind@16       1001c20b f   LIBCMT:exsup4.obj
 0001:0001b222       __vfprintf_l               1001c222 f   LIBCMT:vfprintf.obj
 0001:0001b240       __vfprintf_p               1001c240 f   LIBCMT:vfprintf.obj
 0001:0001b25d       __vfprintf_p_l             1001c25d f   LIBCMT:vfprintf.obj
 0001:0001b27b       __vfprintf_s_l             1001c27b f   LIBCMT:vfprintf.obj
 0001:0001b299       _vfprintf                  1001c299 f   LIBCMT:vfprintf.obj
 0001:0001b2b6       _vfprintf_helper           1001c2b6 f   LIBCMT:vfprintf.obj
 0001:0001b3c7       _vfprintf_s                1001c3c7 f   LIBCMT:vfprintf.obj
 0001:0001b3e4       __ioinit                   1001c3e4 f   LIBCMT:ioinit.obj
 0001:0001b698       __ioterm                   1001c698 f   LIBCMT:ioinit.obj
 0001:0001b6ea       __filbuf                   1001c6ea f   LIBCMT:_filbuf.obj
 0001:0001b80b       _memcpy_s                  1001c80b f   LIBCMT:memcpy_s.obj
 0001:0001b88a       __read                     1001c88a f   LIBCMT:read.obj
 0001:0001b99e       __read_nolock              1001c99e f   LIBCMT:read.obj
 0001:0001c12f       __flsbuf                   1001d12f f   LIBCMT:_flsbuf.obj
 0001:0001c27e       __write                    1001d27e f   LIBCMT:write.obj
 0001:0001c36d       __write_nolock             1001d36d f   LIBCMT:write.obj
 0001:0001cbd2       __wremove                  1001dbd2 f   LIBCMT:wunlink.obj
 0001:0001cc00       __wunlink                  1001dc00 f   LIBCMT:wunlink.obj
 0001:0001cc09       __lseek                    1001dc09 f   LIBCMT:lseek.obj
 0001:0001ccf8       __lseek_nolock             1001dcf8 f   LIBCMT:lseek.obj
 0001:0001cd9f       __vscprintf                1001dd9f f   LIBCMT:vsprintf.obj
 0001:0001cdb9       __vscprintf_helper         1001ddb9 f   LIBCMT:vsprintf.obj
 0001:0001ce15       __vscprintf_l              1001de15 f   LIBCMT:vsprintf.obj
 0001:0001ce30       __vscprintf_p              1001de30 f   LIBCMT:vsprintf.obj
 0001:0001ce4a       __vscprintf_p_l            1001de4a f   LIBCMT:vsprintf.obj
 0001:0001ce65       __vsprintf_l               1001de65 f   LIBCMT:vsprintf.obj
 0001:0001cee9       _vsprintf                  1001dee9 f   LIBCMT:vsprintf.obj
 0001:0001cf01       __vsnprintf_c              1001df01 f   LIBCMT:vsnprnc.obj
 0001:0001cf28       __vsnprintf_c_l            1001df28 f   LIBCMT:vsnprnc.obj
 0001:0001cf50       __vsnprintf_helper         1001df50 f   LIBCMT:vsnprnc.obj
 0001:0001d01a       __vsnprintf_s              1001e01a f   LIBCMT:vsnprnc.obj
 0001:0001d038       __vsnprintf_s_l            1001e038 f   LIBCMT:vsnprnc.obj
 0001:0001d138       __vsprintf_p               1001e138 f   LIBCMT:vsnprnc.obj
 0001:0001d15f       __vsprintf_p_l             1001e15f f   LIBCMT:vsnprnc.obj
 0001:0001d187       __vsprintf_s_l             1001e187 f   LIBCMT:vsnprnc.obj
 0001:0001d1fc       _vsprintf_s                1001e1fc f   LIBCMT:vsnprnc.obj
 0001:0001d217       __chgsign                  1001e217 f   LIBCMT:ieeemisc.obj
 0001:0001d244       __chgsignf                 1001e244 f   LIBCMT:ieeemisc.obj
 0001:0001d265       __copysign                 1001e265 f   LIBCMT:ieeemisc.obj
 0001:0001d28d       __copysignf                1001e28d f   LIBCMT:ieeemisc.obj
 0001:0001d2a9       __finite                   1001e2a9 f   LIBCMT:ieeemisc.obj
 0001:0001d2c1       __fpclass                  1001e2c1 f   LIBCMT:ieeemisc.obj
 0001:0001d35d       __isnan                    1001e35d f   LIBCMT:ieeemisc.obj
 0001:0001d390       __logb                     1001e390 f   LIBCMT:ieeemisc.obj
 0001:0001d471       __nextafter                1001e471 f   LIBCMT:ieeemisc.obj
 0001:0001d711       __scalb                    1001e711 f   LIBCMT:ieeemisc.obj
 0001:0001d729       __add_exp                  1001e729 f   LIBCMT:util.obj
 0001:0001d758       __decomp                   1001e758 f   LIBCMT:util.obj
 0001:0001d82a       __get_exp                  1001e82a f   LIBCMT:util.obj
 0001:0001d843       __set_bexp                 1001e843 f   LIBCMT:util.obj
 0001:0001d86c       __set_exp                  1001e86c f   LIBCMT:util.obj
 0001:0001d89b       __sptype                   1001e89b f   LIBCMT:util.obj
 0001:0001d8f6       __errcode                  1001e8f6 f   LIBCMT:fpexcept.obj
 0001:0001d928       __except1                  1001e928 f   LIBCMT:fpexcept.obj
 0001:0001d9f0       __except2                  1001e9f0 f   LIBCMT:fpexcept.obj
 0001:0001daf0       __handle_exc               1001eaf0 f   LIBCMT:fpexcept.obj
 0001:0001dcce       __handle_qnan1             1001ecce f   LIBCMT:fpexcept.obj
 0001:0001dd1e       __handle_qnan2             1001ed1e f   LIBCMT:fpexcept.obj
 0001:0001dd7e       __raise_exc                1001ed7e f   LIBCMT:fpexcept.obj
 0001:0001dd9f       __raise_exc_ex             1001ed9f f   LIBCMT:fpexcept.obj
 0001:0001e084       __raise_excf               1001f084 f   LIBCMT:fpexcept.obj
 0001:0001e0a5       __set_errno_from_matherr   1001f0a5 f   LIBCMT:fpexcept.obj
 0001:0001e0d2       __umatherr                 1001f0d2 f   LIBCMT:fpexcept.obj
 0001:0001e172       ___clrfp_sse2              1001f172 f   LIBCMT:fpctrl.obj
 0001:0001e193       ___ctrlfp_sse2             1001f193 f   LIBCMT:fpctrl.obj
 0001:0001e1cc       ___fclrf_sse2              1001f1cc f   LIBCMT:fpctrl.obj
 0001:0001e1e9       ___get_fpsr_sse2           1001f1e9 f   LIBCMT:fpctrl.obj
 0001:0001e205       ___set_fpsr_sse2           1001f205 f   LIBCMT:fpctrl.obj
 0001:0001e27b       ___set_statfp_sse2         1001f27b f   LIBCMT:fpctrl.obj
 0001:0001e294       ___statfp_sse2             1001f294 f   LIBCMT:fpctrl.obj
 0001:0001e2a9       __clrfp                    1001f2a9 f   LIBCMT:fpctrl.obj
 0001:0001e2ba       __ctrlfp                   1001f2ba f   LIBCMT:fpctrl.obj
 0001:0001e2e5       __set_statfp               1001f2e5 f   LIBCMT:fpctrl.obj
 0001:0001e33d       __statfp                   1001f33d f   LIBCMT:fpctrl.obj
 0001:0001e34d       _wcscat_s                  1001f34d f   LIBCMT:wcscat_s.obj
 0001:0001e3b9       _wcscpy_s                  1001f3b9 f   LIBCMT:wcscpy_s.obj
 0001:0001e415       _wcslen                    1001f415 f   LIBCMT:wcslen.obj
 0001:0001e42e       _wcsncat_s                 1001f42e f   LIBCMT:wcsncat_s.obj
 0001:0001e4fc       __set_abort_behavior       1001f4fc f   LIBCMT:abort.obj
 0001:0001e51b       _abort                     1001f51b f   LIBCMT:abort.obj
 0001:0001e55e       ___set_app_type            1001f55e f   LIBCMT:errmode.obj
 0001:0001e56b       __set_error_mode           1001f56b f   LIBCMT:errmode.obj
 0001:0001e6c7       __i64tow_s                 1001f6c7 f   LIBCMT:xtows.obj
 0001:0001e6f8       __itow_s                   1001f6f8 f   LIBCMT:xtows.obj
 0001:0001e721       __ltow_s                   1001f721 f   LIBCMT:xtows.obj
 0001:0001e74b       __ui64tow_s                1001f74b f   LIBCMT:xtows.obj
 0001:0001e766       __ultow_s                  1001f766 f   LIBCMT:xtows.obj
 0001:0001e871       _setvbuf                   1001f871 f   LIBCMT:setvbuf.obj
 0001:0001e977       __fwprintf_l               1001f977 f   LIBCMT:fwprintf.obj
 0001:0001e991       __fwprintf_p               1001f991 f   LIBCMT:fwprintf.obj
 0001:0001e9aa       __fwprintf_p_l             1001f9aa f   LIBCMT:fwprintf.obj
 0001:0001e9c4       __fwprintf_s_l             1001f9c4 f   LIBCMT:fwprintf.obj
 0001:0001e9de       _fwprintf                  1001f9de f   LIBCMT:fwprintf.obj
 0001:0001ea72       _fwprintf_s                1001fa72 f   LIBCMT:fwprintf.obj
 0001:0001ea8b       __vsnwprintf_s             1001fa8b f   LIBCMT:vswprnc.obj
 0001:0001eaa9       __vsnwprintf_s_l           1001faa9 f   LIBCMT:vswprnc.obj
 0001:0001ebad       __vswprintf_c              1001fbad f   LIBCMT:vswprnc.obj
 0001:0001ebd4       __vswprintf_c_l            1001fbd4 f   LIBCMT:vswprnc.obj
 0001:0001ebfc       __vswprintf_helper         1001fbfc f   LIBCMT:vswprnc.obj
 0001:0001ecf7       __vswprintf_p              1001fcf7 f   LIBCMT:vswprnc.obj
 0001:0001ed1e       __vswprintf_p_l            1001fd1e f   LIBCMT:vswprnc.obj
 0001:0001ed46       __vswprintf_s_l            1001fd46 f   LIBCMT:vswprnc.obj
 0001:0001edbd       _vswprintf_s               1001fdbd f   LIBCMT:vswprnc.obj
 0001:0001edd8       ___crtMessageBoxW          1001fdd8 f   LIBCMT:crtmboxw.obj
 0001:0001efbe       ___crtMessageBoxWaitThreadW@4 1001ffbe f   LIBCMT:crtmboxw.obj
 0001:0001efdc       __XcptFilter               1001ffdc f   LIBCMT:winxfltr.obj
 0001:0001f137       ___CppXcptFilter           10020137 f   LIBCMT:winxfltr.obj
 0001:0001f189       ___get_flsindex            10020189 f   LIBCMT:tidtable.obj
 0001:0001f18f       ___threadhandle            1002018f f   LIBCMT:tidtable.obj
 0001:0001f195       ___threadid                10020195 f   LIBCMT:tidtable.obj
 0001:0001f19b       __freefls@4                1002019b f   LIBCMT:tidtable.obj
 0001:0001f2d0       __freeptd                  100202d0 f   LIBCMT:tidtable.obj
 0001:0001f306       __getptd                   10020306 f   LIBCMT:tidtable.obj
 0001:0001f31e       __getptd_noexit            1002031e f   LIBCMT:tidtable.obj
 0001:0001f38d       __initptd                  1002038d f   LIBCMT:tidtable.obj
 0001:0001f440       __mtinit                   10020440 f   LIBCMT:tidtable.obj
 0001:0001f4b6       __mtterm                   100204b6 f   LIBCMT:tidtable.obj
 0001:0001f4d3       __set_pgmptr               100204d3 f i LIBCMT:stdargv.obj
 0001:0001f4e0       __setargv                  100204e0 f   LIBCMT:stdargv.obj
 0001:0001f70f       __setenvp                  1002070f f   LIBCMT:stdenvp.obj
 0001:0001f7f0       ___security_init_cookie    100207f0 f   LIBCMT:gs_support.obj
 0001:0001f88c       ___crtGetEnvironmentStringsA 1002088c f   LIBCMT:a_env.obj
 0001:0001f920       _strlen                    10020920 f   LIBCMT:strlen.obj
 0001:0001f9ab       _wcsncpy_s                 100209ab f   LIBCMT:wcsncpy_s.obj
 0001:0001fa69       __output_s_l               10020a69 f   LIBCMT:outputs.obj
 0001:000206f1       __output_p_l               100216f1 f   LIBCMT:outputp.obj
 0001:00021a29       __validate_param_reuseA    10022a29 f   LIBCMT:outputp.obj
 0001:00021b5f       _get_crtdouble_arg         10022b5f f i LIBCMT:outputp.obj
 0001:00021c5e       __isatty                   10022c5e f   LIBCMT:isatty.obj
 0001:00021cb2       ___addlocaleref            10022cb2 f   LIBCMT:localref.obj
 0001:00021d47       ___freetlocinfo            10022d47 f   LIBCMT:localref.obj
 0001:00021ea1       ___removelocaleref         10022ea1 f   LIBCMT:localref.obj
 0001:00021f41       ___updatetlocinfo          10022f41 f   LIBCMT:localref.obj
 0001:00021fc1       __updatetlocinfoEx_nolock  10022fc1 f   LIBCMT:localref.obj
 0001:0002200c       ___iswcsym                 1002300c f i LIBCMT:_wctype.obj
 0001:00022030       ___iswcsymf                10023030 f i LIBCMT:_wctype.obj
 0001:00022054       __isleadbyte_l             10023054 f i LIBCMT:_wctype.obj
 0001:0002208e       __iswalnum_l               1002308e f i LIBCMT:_wctype.obj
 0001:000220a2       __iswalpha_l               100230a2 f i LIBCMT:_wctype.obj
 0001:000220b6       __iswblank_l               100230b6 f i LIBCMT:_wctype.obj
 0001:000220d1       __iswcntrl_l               100230d1 f i LIBCMT:_wctype.obj
 0001:000220e2       __iswcsym_l                100230e2 f i LIBCMT:_wctype.obj
 0001:00022106       __iswcsymf_l               10023106 f i LIBCMT:_wctype.obj
 0001:0002212a       __iswdigit_l               1002312a f i LIBCMT:_wctype.obj
 0001:0002213b       __iswgraph_l               1002313b f i LIBCMT:_wctype.obj
 0001:0002214f       __iswlower_l               1002314f f i LIBCMT:_wctype.obj
 0001:00022160       __iswprint_l               10023160 f i LIBCMT:_wctype.obj
 0001:00022174       __iswpunct_l               10023174 f i LIBCMT:_wctype.obj
 0001:00022185       __iswspace_l               10023185 f i LIBCMT:_wctype.obj
 0001:00022196       __iswupper_l               10023196 f i LIBCMT:_wctype.obj
 0001:000221a7       __iswxdigit_l              100231a7 f i LIBCMT:_wctype.obj
 0001:000221bb       _isleadbyte                100231bb f i LIBCMT:_wctype.obj
 0001:000221cc       _iswalnum                  100231cc f i LIBCMT:_wctype.obj
 0001:000221e0       _iswalpha                  100231e0 f i LIBCMT:_wctype.obj
 0001:000221f4       _iswascii                  100231f4 f i LIBCMT:_wctype.obj
 0001:00022206       _iswblank                  10023206 f i LIBCMT:_wctype.obj
 0001:00022221       _iswcntrl                  10023221 f i LIBCMT:_wctype.obj
 0001:00022232       _iswdigit                  10023232 f i LIBCMT:_wctype.obj
 0001:00022243       _iswgraph                  10023243 f i LIBCMT:_wctype.obj
 0001:00022257       _iswlower                  10023257 f i LIBCMT:_wctype.obj
 0001:00022268       _iswprint                  10023268 f i LIBCMT:_wctype.obj
 0001:0002227c       _iswpunct                  1002327c f i LIBCMT:_wctype.obj
 0001:0002228d       _iswspace                  1002328d f i LIBCMT:_wctype.obj
 0001:0002229e       _iswupper                  1002329e f i LIBCMT:_wctype.obj
 0001:000222af       _iswxdigit                 100232af f i LIBCMT:_wctype.obj
 0001:000222c3       __wctomb_l                 100232c3 f   LIBCMT:wctomb.obj
 0001:00022312       __wctomb_s_l               10023312 f   LIBCMT:wctomb.obj
 0001:00022436       _wctomb                    10023436 f   LIBCMT:wctomb.obj
 0001:00022469       _wctomb_s                  10023469 f   LIBCMT:wctomb.obj
 0001:00022490       __aulldvrm                 10023490 f   LIBCMT:ulldvrm.obj
 0001:00022525       __matherr                  10023525 f   LIBCMT:matherr.obj
 0001:00022528       __frnd                     10023528 f   LIBCMT:frnd.obj
 0001:0002253c       ___isascii                 1002353c f i LIBCMT:_ctype.obj
 0001:0002254c       ___iscsym                  1002354c f i LIBCMT:_ctype.obj
 0001:0002256c       ___iscsymf                 1002356c f i LIBCMT:_ctype.obj
 0001:00022589       ___toascii                 10023589 f i LIBCMT:_ctype.obj
 0001:00022594       __isalnum_l                10023594 f i LIBCMT:_ctype.obj
 0001:000225ec       __isalpha_l                100235ec f i LIBCMT:_ctype.obj
 0001:00022644       __isblank_l                10023644 f i LIBCMT:_ctype.obj
 0001:0002269e       __iscntrl_l                1002369e f i LIBCMT:_ctype.obj
 0001:000226f0       __iscsym_l                 100236f0 f i LIBCMT:_ctype.obj
 0001:00022711       __iscsymf_l                10023711 f i LIBCMT:_ctype.obj
 0001:00022732       __isdigit_l                10023732 f i LIBCMT:_ctype.obj
 0001:00022784       __isgraph_l                10023784 f i LIBCMT:_ctype.obj
 0001:000227dc       __islower_l                100237dc f i LIBCMT:_ctype.obj
 0001:0002282e       __isprint_l                1002382e f i LIBCMT:_ctype.obj
 0001:00022886       __ispunct_l                10023886 f i LIBCMT:_ctype.obj
 0001:000228d8       __isspace_l                100238d8 f i LIBCMT:_ctype.obj
 0001:0002292a       __isupper_l                1002392a f i LIBCMT:_ctype.obj
 0001:0002297c       __isxdigit_l               1002397c f i LIBCMT:_ctype.obj
 0001:000229d4       _isalnum                   100239d4 f i LIBCMT:_ctype.obj
 0001:00022a01       _isalpha                   10023a01 f i LIBCMT:_ctype.obj
 0001:00022a2e       _isblank                   10023a2e f i LIBCMT:_ctype.obj
 0001:00022a63       _iscntrl                   10023a63 f i LIBCMT:_ctype.obj
 0001:00022a8e       _isdigit                   10023a8e f i LIBCMT:_ctype.obj
 0001:00022ab9       _isgraph                   10023ab9 f i LIBCMT:_ctype.obj
 0001:00022ae6       _islower                   10023ae6 f i LIBCMT:_ctype.obj
 0001:00022b11       _isprint                   10023b11 f i LIBCMT:_ctype.obj
 0001:00022b3e       _ispunct                   10023b3e f i LIBCMT:_ctype.obj
 0001:00022b69       _isspace                   10023b69 f i LIBCMT:_ctype.obj
 0001:00022b94       _isupper                   10023b94 f i LIBCMT:_ctype.obj
 0001:00022bbf       _isxdigit                  10023bbf f i LIBCMT:_ctype.obj
 0001:00022bec       __tolower                  10023bec f   LIBCMT:tolower.obj
 0001:00022bf7       __tolower_l                10023bf7 f   LIBCMT:tolower.obj
 0001:00022d3a       _tolower                   10023d3a f   LIBCMT:tolower.obj
 0001:00022d66       _strcpy_s                  10023d66 f   LIBCMT:strcpy_s.obj
 0001:00022dc0       _strrchr                   10023dc0 f   LIBCMT:strrchr.obj
 0001:00022ef7       __fptostr                  10023ef7 f   LIBCMT:_fptostr.obj
 0001:00022fa7       ___crt_atoflt_l            10023fa7 f   LIBCMT:atodbl.obj
 0001:0002304b       __atodbl                   1002404b f   LIBCMT:atodbl.obj
 0001:00023060       __atodbl_l                 10024060 f   LIBCMT:atodbl.obj
 0001:000230ee       __atoflt                   100240ee f   LIBCMT:atodbl.obj
 0001:00023103       __atoflt_l                 10024103 f   LIBCMT:atodbl.obj
 0001:0002311b       __atoldbl                  1002411b f   LIBCMT:atodbl.obj
 0001:00023130       __atoldbl_l                10024130 f   LIBCMT:atodbl.obj
 0001:000231bf       ___dtold                   100241bf f   LIBCMT:cfout.obj
 0001:00023287       __fltout2                  10024287 f   LIBCMT:cfout.obj
 0001:00023320       __alldvrm                  10024320 f   LIBCMT:lldvrm.obj
 0001:00023400       __aullshr                  10024400 f   LIBCMT:ullshr.obj
 0001:0002341f       __get_output_format        1002441f f   LIBCMT:outputformat.obj
 0001:00023425       __set_output_format        10024425 f   LIBCMT:outputformat.obj
 0001:00023457       __controlfp_s              10024457 f   LIBCMT:contrlfp.obj
 0001:000234b4       __fptrap                   100244b4 f   LIBCMT:crt0fp.obj
 0001:000234bd       __msize                    100244bd f   LIBCMT:msize.obj
 0001:000234ee       __recalloc                 100244ee f   LIBCMT:recalloc.obj
 0001:00023557       _strncpy_s                 10024557 f   LIBCMT:strncpy_s.obj
 0001:000236df       __MallocaIsSizeInRange     100246df f i LIBCMT:a_loc.obj
 0001:000236f0       __MarkAllocaS              100246f0 f i LIBCMT:a_loc.obj
 0001:00023704       ___crtGetLocaleInfoA       10024704 f   LIBCMT:a_loc.obj
 0001:0002373e       __freea                    1002473e f i LIBCMT:a_loc.obj
 0001:0002375c       _GetTableIndexFromLcid     1002475c f   LIBCMT:winapinls.obj
 0001:00023791       _GetTableIndexFromLocaleName 10024791 f   LIBCMT:winapinls.obj
 0001:000237df       ___crtCompareStringEx      100247df f   LIBCMT:winapinls.obj
 0001:0002382b       ___crtDownlevelLCIDToLocaleName 1002482b f   LIBCMT:winapinls.obj
 0001:000238a7       ___crtDownlevelLocaleNameToLCID 100248a7 f   LIBCMT:winapinls.obj
 0001:000238e5       ___crtEnumSystemLocalesEx  100248e5 f   LIBCMT:winapinls.obj
 0001:00023922       ___crtGetDateFormatEx      10024922 f   LIBCMT:winapinls.obj
 0001:0002396b       ___crtGetLocaleInfoEx      1002496b f   LIBCMT:winapinls.obj
 0001:0002399a       ___crtGetTimeFormatEx      1002499a f   LIBCMT:winapinls.obj
 0001:000239cf       ___crtGetUserDefaultLocaleName 100249cf f   LIBCMT:winapinls.obj
 0001:000239fa       ___crtIsValidLocaleName    100249fa f   LIBCMT:winapinls.obj
 0001:00023a25       ___crtLCMapStringEx        10024a25 f   LIBCMT:winapinls.obj
 0001:00023a71       ___wcsnicmp_ascii          10024a71 f   LIBCMT:winapinls.obj
 0001:00023d03       ___crtLCMapStringA         10024d03 f   LIBCMT:a_map.obj
 0001:00023e41       ___crtGetStringTypeA       10024e41 f   LIBCMT:a_str.obj
 0001:00023e81       __commit                   10024e81 f   LIBCMT:commit.obj
 0001:00023f6a       ___lock_fhandle            10024f6a f   LIBCMT:osfinfo.obj
 0001:00023ff8       __alloc_osfhnd             10024ff8 f   LIBCMT:osfinfo.obj
 0001:000241a1       __free_osfhnd              100251a1 f   LIBCMT:osfinfo.obj
 0001:00024227       __get_osfhandle            10025227 f   LIBCMT:osfinfo.obj
 0001:0002428e       __open_osfhandle           1002528e f   LIBCMT:osfinfo.obj
 0001:000243a4       __set_osfhnd               100253a4 f   LIBCMT:osfinfo.obj
 0001:00024426       __unlock_fhandle           10025426 f   LIBCMT:osfinfo.obj
 0001:0002444c       __open                     1002544c f   LIBCMT:open.obj
 0001:000244fc       __sopen                    100254fc f   LIBCMT:open.obj
 0001:0002452f       __sopen_helper             1002552f f   LIBCMT:open.obj
 0001:000245f8       __sopen_nolock             100255f8 f   LIBCMT:open.obj
 0001:00024646       __sopen_s                  10025646 f   LIBCMT:open.obj
 0001:00024664       __mbsnbcmp                 10025664 f   LIBCMT:mbsnbcmp.obj
 0001:0002467c       __mbsnbcmp_l               1002567c f   LIBCMT:mbsnbcmp.obj
 0001:00024793       __mbsnbicmp                10025793 f   LIBCMT:mbsnbicm.obj
 0001:000247ab       __mbsnbicmp_l              100257ab f   LIBCMT:mbsnbicm.obj
 0001:00024970       __global_unwind2           10025970 f   LIBCMT:exsup.obj
 0001:000249d5       __local_unwind2            100259d5 f   LIBCMT:exsup.obj
 0001:00024a59       __abnormal_termination     10025a59 f   LIBCMT:exsup.obj
 0001:00024a7c       __NLG_Notify1              10025a7c f   LIBCMT:exsup.obj
 0001:00024a85       __NLG_Notify               10025a85 f   LIBCMT:exsup.obj
 0001:00024a9c       __NLG_Dispatch             10025a9c     LIBCMT:exsup.obj
 0001:00024a9c       __NLG_Dispatch2            10025a9c     LIBCMT:exsup.obj
 0001:00024aa4       __NLG_Call                 10025aa4 f   LIBCMT:exsup.obj
 0001:00024aa6       __NLG_Return2              10025aa6     LIBCMT:exsup.obj
 0001:00024aa7       __getbuf                   10025aa7 f   LIBCMT:_getbuf.obj
 0001:00024aed       __lseeki64                 10025aed f   LIBCMT:lseeki64.obj
 0001:00024be9       __lseeki64_nolock          10025be9 f   LIBCMT:lseeki64.obj
 0001:00024c5c       __mbtowc_l                 10025c5c f   LIBCMT:mbtowc.obj
 0001:00024d51       _mbtowc                    10025d51 f   LIBCMT:mbtowc.obj
 0001:00024d69       __putwch                   10025d69 f   LIBCMT:putwch.obj
 0001:00024db5       __putwch_nolock            10025db5 f   LIBCMT:putwch.obj
 0001:00024e00       __alloca_probe             10025e00 f   LIBCMT:chkstk.obj
 0001:00024e00       __chkstk                   10025e00 f   LIBCMT:chkstk.obj
 0001:00024e2b       __vfwprintf_l              10025e2b f   LIBCMT:vfwprint.obj
 0001:00024e49       __vfwprintf_p              10025e49 f   LIBCMT:vfwprint.obj
 0001:00024e66       __vfwprintf_p_l            10025e66 f   LIBCMT:vfwprint.obj
 0001:00024e84       __vfwprintf_s_l            10025e84 f   LIBCMT:vfwprint.obj
 0001:00024ea2       _vfwprintf                 10025ea2 f   LIBCMT:vfwprint.obj
 0001:00024ebf       _vfwprintf_helper          10025ebf f   LIBCMT:vfwprint.obj
 0001:00024f52       _vfwprintf_s               10025f52 f   LIBCMT:vfwprint.obj
 0001:00024f6f       __woutput_l                10025f6f f   LIBCMT:woutput.obj
 0001:00025c4e       __woutput_s_l              10026c4e f   LIBCMT:woutputs.obj
 0001:00026965       __validate_param_reuseW    10027965 f   LIBCMT:woutputp.obj
 0001:00026add       __woutput_p_l              10027add f   LIBCMT:woutputp.obj
 0001:00027f06       __ismbbalnum               10028f06 f   LIBCMT:ismbbyte.obj
 0001:00027f1f       __ismbbalnum_l             10028f1f f   LIBCMT:ismbbyte.obj
 0001:00027f39       __ismbbalpha               10028f39 f   LIBCMT:ismbbyte.obj
 0001:00027f52       __ismbbalpha_l             10028f52 f   LIBCMT:ismbbyte.obj
 0001:00027f6c       __ismbbblank               10028f6c f   LIBCMT:ismbbyte.obj
 0001:00027f8d       __ismbbblank_l             10028f8d f   LIBCMT:ismbbyte.obj
 0001:00027faf       __ismbbgraph               10028faf f   LIBCMT:ismbbyte.obj
 0001:00027fc8       __ismbbgraph_l             10028fc8 f   LIBCMT:ismbbyte.obj
 0001:00027fe2       __ismbbkalnum              10028fe2 f   LIBCMT:ismbbyte.obj
 0001:00027ff8       __ismbbkalnum_l            10028ff8 f   LIBCMT:ismbbyte.obj
 0001:0002800f       __ismbbkana                1002900f f   LIBCMT:ismbbyte.obj
 0001:00028020       __ismbbkana_l              10029020 f   LIBCMT:ismbbyte.obj
 0001:0002806c       __ismbbkprint              1002906c f   LIBCMT:ismbbyte.obj
 0001:00028082       __ismbbkprint_l            10029082 f   LIBCMT:ismbbyte.obj
 0001:00028099       __ismbbkpunct              10029099 f   LIBCMT:ismbbyte.obj
 0001:000280af       __ismbbkpunct_l            100290af f   LIBCMT:ismbbyte.obj
 0001:000280c6       __ismbblead                100290c6 f   LIBCMT:ismbbyte.obj
 0001:000280dc       __ismbblead_l              100290dc f   LIBCMT:ismbbyte.obj
 0001:000280f3       __ismbbprint               100290f3 f   LIBCMT:ismbbyte.obj
 0001:0002810c       __ismbbprint_l             1002910c f   LIBCMT:ismbbyte.obj
 0001:00028126       __ismbbpunct               10029126 f   LIBCMT:ismbbyte.obj
 0001:0002813c       __ismbbpunct_l             1002913c f   LIBCMT:ismbbyte.obj
 0001:00028153       __ismbbtrail               10029153 f   LIBCMT:ismbbyte.obj
 0001:00028169       __ismbbtrail_l             10029169 f   LIBCMT:ismbbyte.obj
 0001:000283a6       __strtol_l                 100293a6 f   LIBCMT:strtol.obj
 0001:000283c1       __strtoul_l                100293c1 f   LIBCMT:strtol.obj
 0001:000283dc       _strtol                    100293dc f   LIBCMT:strtol.obj
 0001:00028406       _strtoul                   10029406 f   LIBCMT:strtol.obj
 0001:00028430       ___free_lconv_mon          10029430 f   LIBCMT:initmon.obj
 0001:0002852c       ___init_monetary           1002952c f   LIBCMT:initmon.obj
 0001:00028905       ___free_lconv_num          10029905 f   LIBCMT:initnum.obj
 0001:0002896c       ___init_numeric            1002996c f   LIBCMT:initnum.obj
 0001:00028baa       ___free_lc_time            10029baa f   LIBCMT:inittime.obj
 0001:00028f2a       ___init_time               10029f2a f   LIBCMT:inittime.obj
 0001:00029799       _localeconv                1002a799 f   LIBCMT:lconv.obj
 0001:000297bf       __iswctype_l               1002a7bf f   LIBCMT:iswctype.obj
 0001:000297d1       _is_wctype                 1002a7d1 f   LIBCMT:iswctype.obj
 0001:000297da       _iswctype                  1002a7da f   LIBCMT:iswctype.obj
 0001:00029830       ____lc_codepage_func       1002a830 f   LIBCMT:initctyp.obj
 0001:00029856       ____lc_collate_cp_func     1002a856 f   LIBCMT:initctyp.obj
 0001:0002987c       ____lc_locale_name_func    1002a87c f   LIBCMT:initctyp.obj
 0001:000298a4       ____mb_cur_max_func        1002a8a4 f   LIBCMT:initctyp.obj
 0001:000298ca       ____mb_cur_max_l_func      1002a8ca f   LIBCMT:initctyp.obj
 0001:000298e1       ___init_ctype              1002a8e1 f   LIBCMT:initctyp.obj
 0001:00029c79       ___pctype_func             1002ac79 f   LIBCMT:ctype.obj
 0001:00029ca2       ___pwctype_func            1002aca2 f   LIBCMT:ctype.obj
 0001:00029ca8       __isctype                  1002aca8 f   LIBCMT:isctype.obj
 0001:00029cd7       __isctype_l                1002acd7 f   LIBCMT:isctype.obj
 0001:00029d88       ___init_dummy              1002ad88 f   LIBCMT:wsetloca.obj
 0001:00029d8b       __locterm                  1002ad8b f   LIBCMT:wsetloca.obj
 0001:00029ddd       ____setlc_active_func      1002addd f   LIBCMT:wsetloca.obj
 0001:00029de3       ____unguarded_readlc_active_add_func 1002ade3 f   LIBCMT:wsetloca.obj
 0001:00029de9       ___copy_locale_name        1002ade9 f   LIBCMT:wsetloca.obj
 0001:00029e4d       ___create_locale           1002ae4d f   LIBCMT:wsetloca.obj
 0001:00029e56       ___free_locale             1002ae56 f   LIBCMT:wsetloca.obj
 0001:00029e5b       ___get_current_locale      1002ae5b f   LIBCMT:wsetloca.obj
 0001:00029e60       ___lc_lctowcs              1002ae60 f   LIBCMT:wsetloca.obj
 0001:00029ece       ___lc_wcstolc              1002aece f   LIBCMT:wsetloca.obj
 0001:00029ffa       __configthreadlocale       1002affa f   LIBCMT:wsetloca.obj
 0001:0002a080       __create_locale            1002b080 f   LIBCMT:wsetloca.obj
 0001:0002a0e2       __expandlocale             1002b0e2 f   LIBCMT:wsetloca.obj
 0001:0002a3d9       __free_locale              1002b3d9 f   LIBCMT:wsetloca.obj
 0001:0002a490       __get_current_locale       1002b490 f   LIBCMT:wsetloca.obj
 0001:0002a53f       __wcreate_locale           1002b53f f   LIBCMT:wsetloca.obj
 0001:0002a616       __wcscats                  1002b616 f   LIBCMT:wsetloca.obj
 0001:0002a655       __wsetlocale               1002b655 f   LIBCMT:wsetloca.obj
 0001:0002af97       __CopyMan                  1002bf97 f i LIBCMT:intrncvt.obj
 0001:0002afb4       __FillZeroMan              1002bfb4 f i LIBCMT:intrncvt.obj
 0001:0002afc3       __IncMan                   1002bfc3 f i LIBCMT:intrncvt.obj
 0001:0002b025       __IsZeroMan                1002c025 f i LIBCMT:intrncvt.obj
 0001:0002b042       __RoundMan                 1002c042 f i LIBCMT:intrncvt.obj
 0001:0002b143       __ShrMan                   1002c143 f i LIBCMT:intrncvt.obj
 0001:0002b1d1       __ZeroTail                 1002c1d1 f i LIBCMT:intrncvt.obj
 0001:0002b219       ___addl                    1002c219 f i LIBCMT:intrncvt.obj
 0001:0002b23d       __ld12cvt                  1002c23d f i LIBCMT:intrncvt.obj
 0001:0002b7a8       __ld12tod                  1002c7a8 f   LIBCMT:intrncvt.obj
 0001:0002bd1a       __ld12tof                  1002cd1a f   LIBCMT:intrncvt.obj
 0001:0002c28c       __ld12told                 1002d28c f   LIBCMT:intrncvt.obj
 0001:0002c35b       ___STRINGTOLD_L            1002d35b f   LIBCMT:strgtold.obj
 0001:0002c3b6       ___ld12mul                 1002d3b6 f i LIBCMT:strgtold.obj
 0001:0002c682       ___multtenpow12            1002d682 f i LIBCMT:strgtold.obj
 0001:0002c9d5       ___shl_12                  1002d9d5 f i LIBCMT:strgtold.obj
 0001:0002ca06       ___shr_12                  1002da06 f i LIBCMT:strgtold.obj
 0001:0002ca36       ___strgtold12_l            1002da36 f   LIBCMT:strgtold.obj
 0001:0002d1de       _$I10_OUTPUT               1002e1de f   LIBCMT:x10fout.obj
 0001:0002dbb2       ___add_12                  1002ebb2 f i LIBCMT:x10fout.obj
 0001:0002dd5e       ___control87_2             1002ed5e f   LIBCMT:ieee87.obj
 0001:0002e3d2       __clearfp                  1002f3d2 f   LIBCMT:ieee87.obj
 0001:0002e4b2       __control87                1002f4b2 f i LIBCMT:ieee87.obj
 0001:0002e7b4       __controlfp                1002f7b4 f   LIBCMT:ieee87.obj
 0001:0002eabf       __fpreset                  1002fabf f   LIBCMT:ieee87.obj
 0001:0002eb8c       __set_controlfp            1002fb8c f   LIBCMT:ieee87.obj
 0001:0002ebff       __statusfp                 1002fbff f   LIBCMT:ieee87.obj
 0001:0002ec99       __statusfp2                1002fc99 f   LIBCMT:ieee87.obj
 0001:0002ed00       __alloca_probe_16          1002fd00 f   LIBCMT:alloca16.obj
 0001:0002ed16       __alloca_probe_8           1002fd16     LIBCMT:alloca16.obj
 0001:0002ed2c       _wcsnlen                   1002fd2c f   LIBCMT:wcslen_s.obj
 0001:0002edd3       __wopen                    1002fdd3 f   LIBCMT:wopen.obj
 0001:0002ee83       __wsopen                   1002fe83 f   LIBCMT:wopen.obj
 0001:0002eeb6       __wsopen_helper            1002feb6 f   LIBCMT:wopen.obj
 0001:0002ef7f       __wsopen_nolock            1002ff7f f   LIBCMT:wopen.obj
 0001:0002f6d2       __wsopen_s                 100306d2 f   LIBCMT:wopen.obj
 0001:0002f6f0       _strncmp                   100306f0 f   LIBCMT:strncmp.obj
 0001:0002f768       __strnicmp                 10030768 f   LIBCMT:strnicmp.obj
 0001:0002f7d3       __strnicmp_l               100307d3 f   LIBCMT:strnicmp.obj
 0001:0002f884       ___termconout              10030884 f   LIBCMT:initcon.obj
 0001:0002f89b       ___initconout              1003089b f   LIBCMT:initcon.obj
 0001:0002f8ba       __fputwc_nolock            100308ba f   LIBCMT:fputwc.obj
 0001:0002fa40       _fputwc                    10030a40 f   LIBCMT:fputwc.obj
 0001:0002fab7       _putwc                     10030ab7 f   LIBCMT:fputwc.obj
 0001:0002fca1       __wcstol_l                 10030ca1 f   LIBCMT:wcstol.obj
 0001:0002fcb9       __wcstoul_l                10030cb9 f   LIBCMT:wcstol.obj
 0001:0002fcd1       _wcstol                    10030cd1 f   LIBCMT:wcstol.obj
 0001:0002fce9       _wcstoul                   10030ce9 f   LIBCMT:wcstol.obj
 0001:0002fd01       ___init_collate            10030d01 f   LIBCMT:initcoll.obj
 0001:0002fe21       _memcmp                    10030e21 f   LIBCMT:memcmp.obj
 0001:00032d35       _wcscmp                    10033d35 f   LIBCMT:wcscmp.obj
 0001:00032d73       _wcscspn                   10033d73 f   LIBCMT:wcscspn.obj
 0001:00032dbe       _wcsncmp                   10033dbe f   LIBCMT:wcsncmp.obj
 0001:00032df4       _wcspbrk                   10033df4 f   LIBCMT:wcspbrk.obj
 0001:000333f8       ___get_qualified_locale    100343f8 f   LIBCMT:getqloc.obj
 0001:00033c68       ___get_qualified_locale_downlevel 10034c68 f   LIBCMT:getqloc_downlevel.obj
 0001:00033e84       ___mtold12                 10034e84 f   LIBCMT:mantold.obj
 0001:00034064       __chsize                   10035064 f   LIBCMT:chsize.obj
 0001:0003407e       __chsize_nolock            1003507e f   LIBCMT:chsize.obj
 0001:00034234       __chsize_s                 10035234 f   LIBCMT:chsize.obj
 0001:00034322       __get_fmode                10035322 f   LIBCMT:setmode.obj
 0001:0003434c       __set_fmode                1003534c f   LIBCMT:setmode.obj
 0001:00034387       __setmode                  10035387 f   LIBCMT:setmode.obj
 0001:0003448c       __setmode_nolock           1003548c f   LIBCMT:setmode.obj
 0001:00034560       ___ascii_strnicmp          10035560 f   LIBCMT:_strnicm.obj
 0001:000345c1       __flswbuf                  100355c1 f   LIBCMT:_flswbuf.obj
 0001:00034723       __wchartodigit             10035723 f   LIBCMT:wchtodig.obj
 0001:000348c2       __wtoi                     100358c2 f   LIBCMT:wtox.obj
 0001:000348cb       __wtoi64                   100358cb f   LIBCMT:wtox.obj
 0001:000348df       __wtoi64_l                 100358df f   LIBCMT:wtox.obj
 0001:000348f6       __wtoi_l                   100358f6 f   LIBCMT:wtox.obj
 0001:000348ff       __wtol                     100358ff f   LIBCMT:wtox.obj
 0001:00034913       __wtol_l                   10035913 f   LIBCMT:wtox.obj
 0001:0003492a       __wtoll                    1003592a f   LIBCMT:wtox.obj
 0001:0003493e       __wtoll_l                  1003593e f   LIBCMT:wtox.obj
 0001:00034955       _wcschr                    10035955 f   LIBCMT:wcschr.obj
 0001:00034a03       __wcsicmp                  10035a03 f   LIBCMT:wcsicmp.obj
 0001:00034a96       __wcsicmp_l                10035a96 f   LIBCMT:wcsicmp.obj
 0001:00034b71       __wcsnicmp                 10035b71 f   LIBCMT:wcsnicmp.obj
 0001:00034c27       __wcsnicmp_l               10035c27 f   LIBCMT:wcsnicmp.obj
 0001:00034ff0       __wcstof_l                 10035ff0 f   LIBCMT:wcstoq.obj
 0001:000350a3       __wcstoi64                 100360a3 f   LIBCMT:wcstoq.obj
 0001:000350cd       __wcstoi64_l               100360cd f   LIBCMT:wcstoq.obj
 0001:000350e8       __wcstoimax_l              100360e8 f   LIBCMT:wcstoq.obj
 0001:000350f1       __wcstold_l                100360f1 f   LIBCMT:wcstoq.obj
 0001:000350fa       __wcstoll_l                100360fa f   LIBCMT:wcstoq.obj
 0001:00035103       __wcstoui64                10036103 f   LIBCMT:wcstoq.obj
 0001:0003512d       __wcstoui64_l              1003612d f   LIBCMT:wcstoq.obj
 0001:00035148       __wcstoull_l               10036148 f   LIBCMT:wcstoq.obj
 0001:00035151       __wcstoumax_l              10036151 f   LIBCMT:wcstoq.obj
 0001:0003515a       _wcstof                    1003615a f   LIBCMT:wcstoq.obj
 0001:0003516f       _wcstoimax                 1003616f f   LIBCMT:wcstoq.obj
 0001:00035178       _wcstold                   10036178 f   LIBCMT:wcstoq.obj
 0001:00035181       _wcstoll                   10036181 f   LIBCMT:wcstoq.obj
 0001:0003518a       _wcstoull                  1003618a f   LIBCMT:wcstoq.obj
 0001:00035193       _wcstoumax                 10036193 f   LIBCMT:wcstoq.obj
 0001:0003519c       __towlower_l               1003619c f   LIBCMT:towlower.obj
 0001:0003524d       _towlower                  1003624d f   LIBCMT:towlower.obj
 0001:0003525e       __wcstod_l                 1003625e f   LIBCMT:wcstod.obj
 0001:00035359       _wcstod                    10036359 f   LIBCMT:wcstod.obj
 0001:00035370       __allmul                   10036370 f   LIBCMT:llmul.obj
 0001:000353a4       ___crtLCMapStringW         100363a4 f   LIBCMT:w_map.obj
 0001:000353d3       __wfltin2                  100363d3 f   LIBCMT:wcfin.obj
 0001:00035480       ___WSTRINGTOLD_L           10036480 f   LIBCMT:wstrgtold.obj
 0001:000354db       ___wstrgtold12_l           100364db f   LIBCMT:wstrgtold.obj
 0001:00035d2c       _GetModuleHandleA@4        10036d2c f   kernel32:KERNEL32.dll
 0001:00035d32       _GetProcAddress@8          10036d32 f   kernel32:KERNEL32.dll
 0001:00035d38       _HeapAlloc@12              10036d38 f   kernel32:KERNEL32.dll
 0001:00035d3e       _IsDebuggerPresent@0       10036d3e f   kernel32:KERNEL32.dll
 0001:00035d44       _IsProcessorFeaturePresent@4 10036d44 f   kernel32:KERNEL32.dll
 0001:00035d4a       _EncodePointer@4           10036d4a f   kernel32:KERNEL32.dll
 0001:00035d50       _DecodePointer@4           10036d50 f   kernel32:KERNEL32.dll
 0001:00035d56       _GetLastError@0            10036d56 f   kernel32:KERNEL32.dll
 0001:00035d5c       _ExitProcess@4             10036d5c f   kernel32:KERNEL32.dll
 0001:00035d62       _GetModuleHandleExW@12     10036d62 f   kernel32:KERNEL32.dll
 0001:00035d68       _AreFileApisANSI@0         10036d68 f   kernel32:KERNEL32.dll
 0001:00035d6e       _MultiByteToWideChar@24    10036d6e f   kernel32:KERNEL32.dll
 0001:00035d74       _WideCharToMultiByte@32    10036d74 f   kernel32:KERNEL32.dll
 0001:00035d7a       _HeapFree@12               10036d7a f   kernel32:KERNEL32.dll
 0001:00035d80       _HeapReAlloc@16            10036d80 f   kernel32:KERNEL32.dll
 0001:00035d86       _EnterCriticalSection@4    10036d86 f   kernel32:KERNEL32.dll
 0001:00035d8c       _LeaveCriticalSection@4    10036d8c f   kernel32:KERNEL32.dll
 0001:00035d92       _GetStdHandle@4            10036d92 f   kernel32:KERNEL32.dll
 0001:00035d98       _GetFileType@4             10036d98 f   kernel32:KERNEL32.dll
 0001:00035d9e       _GetModuleFileNameW@12     10036d9e f   kernel32:KERNEL32.dll
 0001:00035da4       _WriteConsoleW@20          10036da4 f   kernel32:KERNEL32.dll
 0001:00035daa       _GetCommandLineA@0         10036daa f   kernel32:KERNEL32.dll
 0001:00035db0       _GetCurrentThreadId@0      10036db0 f   kernel32:KERNEL32.dll
 0001:00035db6       _WriteFile@20              10036db6 f   kernel32:KERNEL32.dll
 0001:00035dbc       _GetProcessHeap@0          10036dbc f   kernel32:KERNEL32.dll
 0001:00035dc2       _UnhandledExceptionFilter@4 10036dc2 f   kernel32:KERNEL32.dll
 0001:00035dc8       _SetUnhandledExceptionFilter@4 10036dc8 f   kernel32:KERNEL32.dll
 0001:00035dce       _SetLastError@4            10036dce f   kernel32:KERNEL32.dll
 0001:00035dd4       _InitializeCriticalSectionAndSpinCount@8 10036dd4 f   kernel32:KERNEL32.dll
 0001:00035dda       _CreateEventW@16           10036dda f   kernel32:KERNEL32.dll
 0001:00035de0       _Sleep@4                   10036de0 f   kernel32:KERNEL32.dll
 0001:00035de6       _GetCurrentProcess@0       10036de6 f   kernel32:KERNEL32.dll
 0001:00035dec       _TerminateProcess@8        10036dec f   kernel32:KERNEL32.dll
 0001:00035df2       _TlsAlloc@0                10036df2 f   kernel32:KERNEL32.dll
 0001:00035df8       _TlsGetValue@4             10036df8 f   kernel32:KERNEL32.dll
 0001:00035dfe       _TlsSetValue@8             10036dfe f   kernel32:KERNEL32.dll
 0001:00035e04       _TlsFree@4                 10036e04 f   kernel32:KERNEL32.dll
 0001:00035e0a       _GetStartupInfoW@4         10036e0a f   kernel32:KERNEL32.dll
 0001:00035e10       _GetTickCount@0            10036e10 f   kernel32:KERNEL32.dll
 0001:00035e16       _GetModuleHandleW@4        10036e16 f   kernel32:KERNEL32.dll
 0001:00035e1c       _CreateSemaphoreW@16       10036e1c f   kernel32:KERNEL32.dll
 0001:00035e22       _DeleteCriticalSection@4   10036e22 f   kernel32:KERNEL32.dll
 0001:00035e28       _FatalAppExitA@8           10036e28 f   kernel32:KERNEL32.dll
 0001:00035e2e       _SetConsoleCtrlHandler@8   10036e2e f   kernel32:KERNEL32.dll
 0001:00035e34       _FreeLibrary@4             10036e34 f   kernel32:KERNEL32.dll
 0001:00035e3a       _LoadLibraryExW@12         10036e3a f   kernel32:KERNEL32.dll
 0001:00035e40       _IsValidCodePage@4         10036e40 f   kernel32:KERNEL32.dll
 0001:00035e46       _GetACP@0                  10036e46 f   kernel32:KERNEL32.dll
 0001:00035e4c       _GetOEMCP@0                10036e4c f   kernel32:KERNEL32.dll
 0001:00035e52       _GetCPInfo@8               10036e52 f   kernel32:KERNEL32.dll
 0001:00035e58       _CloseHandle@4             10036e58 f   kernel32:KERNEL32.dll
 0001:00035e5e       _RtlUnwind@16              10036e5e f   kernel32:KERNEL32.dll
 0001:00035e64       _ReadFile@20               10036e64 f   kernel32:KERNEL32.dll
 0001:00035e6a       _GetConsoleMode@8          10036e6a f   kernel32:KERNEL32.dll
 0001:00035e70       _ReadConsoleW@20           10036e70 f   kernel32:KERNEL32.dll
 0001:00035e76       _GetConsoleCP@0            10036e76 f   kernel32:KERNEL32.dll
 0001:00035e7c       _DeleteFileW@4             10036e7c f   kernel32:KERNEL32.dll
 0001:00035e82       _SetFilePointerEx@20       10036e82 f   kernel32:KERNEL32.dll
 0001:00035e88       _RaiseException@16         10036e88 f   kernel32:KERNEL32.dll
 0001:00035e8e       _OutputDebugStringW@4      10036e8e f   kernel32:KERNEL32.dll
 0001:00035e94       _GetCurrentThread@0        10036e94 f   kernel32:KERNEL32.dll
 0001:00035e9a       _GetModuleFileNameA@12     10036e9a f   kernel32:KERNEL32.dll
 0001:00035ea0       _QueryPerformanceCounter@4 10036ea0 f   kernel32:KERNEL32.dll
 0001:00035ea6       _GetCurrentProcessId@0     10036ea6 f   kernel32:KERNEL32.dll
 0001:00035eac       _GetSystemTimeAsFileTime@4 10036eac f   kernel32:KERNEL32.dll
 0001:00035eb2       _GetEnvironmentStringsW@0  10036eb2 f   kernel32:KERNEL32.dll
 0001:00035eb8       _FreeEnvironmentStringsW@4 10036eb8 f   kernel32:KERNEL32.dll
 0001:00035ebe       _HeapSize@12               10036ebe f   kernel32:KERNEL32.dll
 0001:00035ec4       _GetDateFormatW@24         10036ec4 f   kernel32:KERNEL32.dll
 0001:00035eca       _GetTimeFormatW@24         10036eca f   kernel32:KERNEL32.dll
 0001:00035ed0       _CompareStringW@24         10036ed0 f   kernel32:KERNEL32.dll
 0001:00035ed6       _LCMapStringW@24           10036ed6 f   kernel32:KERNEL32.dll
 0001:00035edc       _GetLocaleInfoW@16         10036edc f   kernel32:KERNEL32.dll
 0001:00035ee2       _IsValidLocale@8           10036ee2 f   kernel32:KERNEL32.dll
 0001:00035ee8       _GetUserDefaultLCID@0      10036ee8 f   kernel32:KERNEL32.dll
 0001:00035eee       _EnumSystemLocalesW@8      10036eee f   kernel32:KERNEL32.dll
 0001:00035ef4       _GetStringTypeW@16         10036ef4 f   kernel32:KERNEL32.dll
 0001:00035efa       _FlushFileBuffers@4        10036efa f   kernel32:KERNEL32.dll
 0001:00035f00       _SetStdHandle@8            10036f00 f   kernel32:KERNEL32.dll
 0001:00035f06       _CreateFileW@28            10036f06 f   kernel32:KERNEL32.dll
 0001:00035f0c       _SetEndOfFile@4            10036f0c f   kernel32:KERNEL32.dll
 0002:00000000       ___xc_a                    10042000     LIBCMT:crt0init.obj
 0002:00000104       ___xc_z                    10042104     LIBCMT:crt0init.obj
 0002:00000208       ___xi_a                    10042208     LIBCMT:crt0init.obj
 0002:00000424       ___xi_z                    10042424     LIBCMT:crt0init.obj
 0002:00000528       ___xp_a                    10042528     LIBCMT:crt0init.obj
 0002:0000083c       ___xp_z                    1004283c     LIBCMT:crt0init.obj
 0002:00000940       ___xt_a                    10042940     LIBCMT:crt0init.obj
 0002:00000a44       ___xt_z                    10042a44     LIBCMT:crt0init.obj
 0002:00000b88       _FingerStrokeAssistance_M  10042b88     FingerStrokeAssistance.obj
 0002:00000b8c       ??_C@_0BI@PBFPDHLE@Error?5creating?5scope?54?6?$AA@ 10042b8c     FingerStrokeAssistance.obj
 0002:00000ba8       ??_C@_0BP@BLNLPCCJ@HL?5Controller?1Multiport?5Switch?$AA@ 10042ba8     FingerStrokeAssistance.obj
 0002:00000bd0       ??_C@_0L@NEPEIPFM@Robot?1Gain?$AA@ 10042bd0     FingerStrokeAssistance.obj
 0002:00000be0       ??_C@_0BF@BBMGCHIE@LL?5Controller?1Sum?1s1?$AA@ 10042be0     FingerStrokeAssistance.obj
 0002:00000bfc       ??_C@_0BI@PFNCELAG@Error?5creating?5scope?52?6?$AA@ 10042bfc     FingerStrokeAssistance.obj
 0002:00000c18       ??_C@_0BF@ENIEHMOD@signals?1sigGravAccel?$AA@ 10042c18     FingerStrokeAssistance.obj
 0002:00000c34       ??_C@_0BI@PEBACBDB@Error?5creating?5scope?53?6?$AA@ 10042c34     FingerStrokeAssistance.obj
 0002:00000c50       ??_C@_0CN@LPKEPDKF@LL?5Controller?1Discrete?5PID?5Contr@ 10042c50     FingerStrokeAssistance.obj
 0002:00000c88       ??_C@_0CN@JEIJKAGG@LL?5Controller?1Discrete?5PID?5Contr@ 10042c88     FingerStrokeAssistance.obj
 0002:00000cc0       ??_C@_0CH@PENCCFNF@HL?5Controller?1Discrete?9Time?5Inte@ 10042cc0     FingerStrokeAssistance.obj
 0002:00000cf0       ??_C@_06KFNFIEK@?$CF15?46f?$AA@ 10042cf0     FingerStrokeAssistance.obj
 0002:00000cf8       ??_C@_0BI@PHJEPFFP@Error?5creating?5scope?51?6?$AA@ 10042cf8     FingerStrokeAssistance.obj
 0002:00000d14       ??_C@_0BC@OJJPBDHH@FixedStepDiscrete?$AA@ 10042d14     FingerStrokeAssistance.obj
 0002:00000d2c       ??_C@_04EPKDLPPB@tout?$AA@ 10042d2c     FingerStrokeAssistance.obj
 0002:00000d32       ??_C@_00CNPNBAHC@?$AA@     10042d32     FingerStrokeAssistance.obj
 0002:00000d34       ??_C@_03HBFGMJOD@rt_?$AA@  10042d34     FingerStrokeAssistance.obj
 0002:00000d38       ??_C@_0O@IFKELIIB@PCI?56221?5ENC?5?$AA@ 10042d38     FingerStrokeAssistance.obj
 0002:00000d48       ??_C@_0CL@FGFCPCFH@FingerStrokeAssistance?1Robot?1PCI@ 10042d48     FingerStrokeAssistance.obj
 0002:00000d7c       ??_C@_0P@FMGHBALM@PCI?56221?5ENC?51?$AA@ 10042d7c     FingerStrokeAssistance.obj
 0002:00000d90       ??_C@_0CM@DDAEJBBH@FingerStrokeAssistance?1Robot?1PCI@ 10042d90     FingerStrokeAssistance.obj
 0002:00000dc4       ??_C@_0N@JAOEPLNP@PCI?96221?5AD1?$AA@ 10042dc4     FingerStrokeAssistance.obj
 0002:00000dd4       ??_C@_0CK@LAFKNGLI@FingerStrokeAssistance?1Robot?1PCI@ 10042dd4     FingerStrokeAssistance.obj
 0002:00000e08       ??_C@_0M@HBIEHIJL@PCI?96221?5DA?$AA@ 10042e08     FingerStrokeAssistance.obj
 0002:00000e18       ??_C@_0CJ@KACMKMOO@FingerStrokeAssistance?1Robot?1PCI@ 10042e18     FingerStrokeAssistance.obj
 0002:00000e50       __real@0000000000000000    10042e50     FingerStrokeAssistance.obj
 0002:00000e60       __real@3f50624dd2f1a9fc    10042e60     FingerStrokeAssistance.obj
 0002:00000e70       __real@3f9eb851eb851eb8    10042e70     FingerStrokeAssistance.obj
 0002:00000e80       __real@3fb999999999999a    10042e80     FingerStrokeAssistance.obj
 0002:00000e90       __real@3fe0000000000000    10042e90     FingerStrokeAssistance.obj
 0002:00000ea0       __real@3ff0000000000000    10042ea0     FingerStrokeAssistance.obj
 0002:00000eb0       __real@4000000000000000    10042eb0     FingerStrokeAssistance.obj
 0002:00000ec0       __real@4008000000000000    10042ec0     FingerStrokeAssistance.obj
 0002:00000ed0       __real@4010000000000000    10042ed0     FingerStrokeAssistance.obj
 0002:00000ee0       __real@4014000000000000    10042ee0     FingerStrokeAssistance.obj
 0002:00000ef0       __real@4018000000000000    10042ef0     FingerStrokeAssistance.obj
 0002:00000f00       __real@4024000000000000    10042f00     FingerStrokeAssistance.obj
 0002:00000f10       __real@402e000000000000    10042f10     FingerStrokeAssistance.obj
 0002:00000f20       __real@409f400000000000    10042f20     FingerStrokeAssistance.obj
 0002:00000f30       __real@41f0000000000000    10042f30     FingerStrokeAssistance.obj
 0002:00000f40       __real@4330000000000000    10042f40     FingerStrokeAssistance.obj
 0002:00000f50       __real@8000000000000000    10042f50     FingerStrokeAssistance.obj
 0002:00000f60       __real@bfe0000000000000    10042f60     FingerStrokeAssistance.obj
 0002:00000f70       __real@bfe999999999999a    10042f70     FingerStrokeAssistance.obj
 0002:00000f80       __real@bff0000000000000    10042f80     FingerStrokeAssistance.obj
 0002:00000f90       __real@c020000000000000    10042f90     FingerStrokeAssistance.obj
 0002:00000fa0       __xmm@00000000000000003f50624dd2f1a9fc 10042fa0     FingerStrokeAssistance.obj
 0002:00000fc0       __xmm@000000eb000000660000006800000001 10042fc0     FingerStrokeAssistance.obj
 0002:00000fe0       __xmm@41f00000000000000000000000000000 10042fe0     FingerStrokeAssistance.obj
 0002:00001000       __xmm@7fffffffffffffff7fffffffffffffff 10043000     FingerStrokeAssistance.obj
 0002:00002960       ??_C@_0BE@OJENBPFA@HL?5Controller?1Gain1?$AA@ 10044960     FingerStrokeAssistance_capi.obj
 0002:00002978       ??_C@_0BN@NPMPBAJP@HL?5Controller?1Manual?5Switch3?$AA@ 10044978     FingerStrokeAssistance_capi.obj
 0002:0000299c       ??_C@_0BE@JOHLLJDM@HL?5Controller?1Delay?$AA@ 1004499c     FingerStrokeAssistance_capi.obj
 0002:000029b4       ??_C@_0BF@OJKMAAIM@HL?5Controller?1Delay1?$AA@ 100449b4     FingerStrokeAssistance_capi.obj
 0002:000029d0       ??_C@_0BO@GONBLMCA@HL?5Controller?1Discrete?5Filter?$AA@ 100449d0     FingerStrokeAssistance_capi.obj
 0002:000029f4       ??_C@_0BD@JGAMGINO@LL?5Controller?1Gain?$AA@ 100449f4     FingerStrokeAssistance_capi.obj
 0002:00002a0c       ??_C@_0BE@KHKAPEAJ@LL?5Controller?1Gain1?$AA@ 10044a0c     FingerStrokeAssistance_capi.obj
 0002:00002a24       ??_C@_0BG@MCAHGJNA@LL?5Controller?1Product?$AA@ 10044a24     FingerStrokeAssistance_capi.obj
 0002:00002a40       ??_C@_0BJ@BKJJCMHE@LL?5Controller?1Saturation?$AA@ 10044a40     FingerStrokeAssistance_capi.obj
 0002:00002a60       ??_C@_0BC@PPCBCHF@LL?5Controller?1Sum?$AA@ 10044a60     FingerStrokeAssistance_capi.obj
 0002:00002a78       ??_C@_0M@KEFEOOOC@Robot?1Gain1?$AA@ 10044a78     FingerStrokeAssistance_capi.obj
 0002:00002a88       ??_C@_0BE@OMELOOBD@Robot?1PCI?56221?5ENC?5?$AA@ 10044a88     FingerStrokeAssistance_capi.obj
 0002:00002aa0       ??_C@_0BF@ECAPANIC@Robot?1PCI?56221?5ENC?51?$AA@ 10044aa0     FingerStrokeAssistance_capi.obj
 0002:00002abc       ??_C@_0BG@HNHIMJLG@Robot?1PCI?96221?5AD1?1p1?$AA@ 10044abc     FingerStrokeAssistance_capi.obj
 0002:00002ad8       ??_C@_0BG@FGFFJKHF@Robot?1PCI?96221?5AD1?1p2?$AA@ 10044ad8     FingerStrokeAssistance_capi.obj
 0002:00002af4       ??_C@_0BG@EPEOKLDE@Robot?1PCI?96221?5AD1?1p3?$AA@ 10044af4     FingerStrokeAssistance_capi.obj
 0002:00002b10       ??_C@_0BG@PDNPD@Robot?1PCI?96221?5AD1?1p4?$AA@ 10044b10     FingerStrokeAssistance_capi.obj
 0002:00002b2c       ??_C@_0BG@BJBEAMLC@Robot?1PCI?96221?5AD1?1p5?$AA@ 10044b2c     FingerStrokeAssistance_capi.obj
 0002:00002b48       ??_C@_0BG@DCDJFPHB@Robot?1PCI?96221?5AD1?1p6?$AA@ 10044b48     FingerStrokeAssistance_capi.obj
 0002:00002b64       ??_C@_0BG@CLCCGODA@Robot?1PCI?96221?5AD1?1p7?$AA@ 10044b64     FingerStrokeAssistance_capi.obj
 0002:00002b80       ??_C@_0BG@KMLKHCPP@Robot?1PCI?96221?5AD1?1p8?$AA@ 10044b80     FingerStrokeAssistance_capi.obj
 0002:00002b9c       ??_C@_0BJ@LDIJMIN@parameters?1parChangeRate?$AA@ 10044b9c     FingerStrokeAssistance_capi.obj
 0002:00002bbc       ??_C@_0BG@MANKCMPG@parameters?1parFThresh?$AA@ 10044bbc     FingerStrokeAssistance_capi.obj
 0002:00002bd8       ??_C@_0BH@GKLAKHLL@parameters?1parFixedDur?$AA@ 10044bd8     FingerStrokeAssistance_capi.obj
 0002:00002bf4       ??_C@_0BL@EGOKLGEF@parameters?1parForceTrigger?$AA@ 10044bf4     FingerStrokeAssistance_capi.obj
 0002:00002c14       ??_C@_0BC@FKHIPIEO@parameters?1parKd1?$AA@ 10044c14     FingerStrokeAssistance_capi.obj
 0002:00002c2c       ??_C@_0BC@HBFFKLIN@parameters?1parKd2?$AA@ 10044c2c     FingerStrokeAssistance_capi.obj
 0002:00002c44       ??_C@_0BD@BKPLMOHI@parameters?1parKdV1?$AA@ 10044c44     FingerStrokeAssistance_capi.obj
 0002:00002c5c       ??_C@_0BD@DBNGJNLL@parameters?1parKdV2?$AA@ 10044c5c     FingerStrokeAssistance_capi.obj
 0002:00002c74       ??_C@_0BC@EBFHPDOC@parameters?1parKp1?$AA@ 10044c74     FingerStrokeAssistance_capi.obj
 0002:00002c8c       ??_C@_0BC@GKHKKACB@parameters?1parKp2?$AA@ 10044c8c     FingerStrokeAssistance_capi.obj
 0002:00002ca4       ??_C@_0BH@PENPCGFM@parameters?1parLeftMode?$AA@ 10044ca4     FingerStrokeAssistance_capi.obj
 0002:00002cc0       ??_C@_0BF@GLMDNGIG@parameters?1parMarker?$AA@ 10044cc0     FingerStrokeAssistance_capi.obj
 0002:00002cdc       ??_C@_0BJ@BNLOJEEL@parameters?1parMaxTrajDur?$AA@ 10044cdc     FingerStrokeAssistance_capi.obj
 0002:00002cfc       ??_C@_0BE@GHPCIJPH@parameters?1parPStop?$AA@ 10044cfc     FingerStrokeAssistance_capi.obj
 0002:00002d14       ??_C@_0BH@GJMCKDGC@parameters?1parTrajMode?$AA@ 10044d14     FingerStrokeAssistance_capi.obj
 0002:00002d30       ??_C@_0BG@LMGBBNNN@parameters?1parVThresh?$AA@ 10044d30     FingerStrokeAssistance_capi.obj
 0002:00002d4c       ??_C@_0BI@PBEPHEEP@parameters?1parWiggleAmp?$AA@ 10044d4c     FingerStrokeAssistance_capi.obj
 0002:00002d68       ??_C@_0BN@BNDFGDOE@parameters?1Rounding?5Function?$AA@ 10044d68     FingerStrokeAssistance_capi.obj
 0002:00002d8c       ??_C@_0BG@KKGOACNA@parameters?1Saturation?$AA@ 10044d8c     FingerStrokeAssistance_capi.obj
 0002:00002da8       ??_C@_0BH@EACELLGE@parameters?1Saturation1?$AA@ 10044da8     FingerStrokeAssistance_capi.obj
 0002:00002dc4       ??_C@_0BH@GLAJOIKH@parameters?1Saturation2?$AA@ 10044dc4     FingerStrokeAssistance_capi.obj
 0002:00002de0       ??_C@_0BG@IJAPOADM@signals?1Digital?5Clock?$AA@ 10044de0     FingerStrokeAssistance_capi.obj
 0002:00002dfc       ??_C@_0BG@ICCBOBMJ@signals?1sigTargetTime?$AA@ 10044dfc     FingerStrokeAssistance_capi.obj
 0002:00002e18       ??_C@_0CN@BMMFOADL@LL?5Controller?1Discrete?5PID?5Contr@ 10044e18     FingerStrokeAssistance_capi.obj
 0002:00002e50       ??_C@_0DB@HDHLABFB@LL?5Controller?1Discrete?5PID?5Contr@ 10044e50     FingerStrokeAssistance_capi.obj
 0002:00002e8c       ??_C@_0DG@HLAOPJGM@LL?5Controller?1Discrete?5PID?5Contr@ 10044e8c     FingerStrokeAssistance_capi.obj
 0002:00002ecc       ??_C@_0DJ@KOPOKLBH@LL?5Controller?1Discrete?5PID?5Contr@ 10044ecc     FingerStrokeAssistance_capi.obj
 0002:00002f10       ??_C@_0DE@EPKOKGAH@LL?5Controller?1Discrete?5PID?5Contr@ 10044f10     FingerStrokeAssistance_capi.obj
 0002:00002f50       ??_C@_0DI@CMDIPDHM@LL?5Controller?1Discrete?5PID?5Contr@ 10044f50     FingerStrokeAssistance_capi.obj
 0002:00002f94       ??_C@_0CK@BDBPDANN@LL?5Controller?1Discrete?5PID?5Contr@ 10044f94     FingerStrokeAssistance_capi.obj
 0002:00002fc8       ??_C@_0CL@GMGEDLFI@LL?5Controller?1Discrete?5PID?5Contr@ 10044fc8     FingerStrokeAssistance_capi.obj
 0002:00002ffc       ??_C@_0CK@ICNJGGKO@LL?5Controller?1gain?5transition?1ga@ 10044ffc     FingerStrokeAssistance_capi.obj
 0002:00003030       ??_C@_0CK@KJPEDFGN@LL?5Controller?1gain?5transition?1ga@ 10045030     FingerStrokeAssistance_capi.obj
 0002:00003064       ??_C@_0CF@GMBAPIP@LL?5Controller?1gain?5transition?1Me@ 10045064     FingerStrokeAssistance_capi.obj
 0002:00003090       ??_C@_0CL@HHNEBOEA@LL?5Controller?1initial?5ramp?1MATLA@ 10045090     FingerStrokeAssistance_capi.obj
 0002:000030c4       ??_C@_0CA@MHDJNIDM@LL?5Controller?1initial?5ramp?1ramp?$AA@ 100450c4     FingerStrokeAssistance_capi.obj
 0002:000030ec       ??_C@_0CH@OEMJKIEM@LL?5Controller?1initial?5ramp?1Satur@ 100450ec     FingerStrokeAssistance_capi.obj
 0002:0000311c       ??_C@_0DA@IHGHECDK@Robot?1account?5for?5handedness?1MAT@ 1004511c     FingerStrokeAssistance_capi.obj
 0002:00003158       ??_C@_0DA@KMEKBBPJ@Robot?1account?5for?5handedness?1MAT@ 10045158     FingerStrokeAssistance_capi.obj
 0002:00003194       ??_C@_0DD@LGPLBJIP@Robot?1account?5for?5handedness?5for@ 10045194     FingerStrokeAssistance_capi.obj
 0002:000031d4       ??_C@_0DB@GGNMPEDP@Robot?1account?5for?5handedness1?1MA@ 100451d4     FingerStrokeAssistance_capi.obj
 0002:00003210       ??_C@_0DB@ENPBKHPM@Robot?1account?5for?5handedness1?1MA@ 10045210     FingerStrokeAssistance_capi.obj
 0002:0000324c       ??_C@_0DB@BNMCHGNM@Robot?1account?5for?5handedness2?1MA@ 1004524c     FingerStrokeAssistance_capi.obj
 0002:00003288       ??_C@_0DB@DGOPCFBP@Robot?1account?5for?5handedness2?1MA@ 10045288     FingerStrokeAssistance_capi.obj
 0002:000032c4       ??_C@_0CM@LEIBMJGE@Robot?1filtered?5force?5output?1Low?5@ 100452c4     FingerStrokeAssistance_capi.obj
 0002:000032f8       ??_C@_0CN@IMDGCDDK@Robot?1filtered?5force?5output?1Low?5@ 100452f8     FingerStrokeAssistance_capi.obj
 0002:00003330       ??_C@_0CD@NAELEMPL@Robot?1filtered?5force?5output?1Memo@ 10045330     FingerStrokeAssistance_capi.obj
 0002:0000335c       ??_C@_0CE@OMOCGHGK@Robot?1filtered?5force?5output?1Memo@ 1004535c     FingerStrokeAssistance_capi.obj
 0002:00003388       ??_C@_0CF@CADMCOOP@Robot?1get?5offsets?1MATLAB?5Functio@ 10045388     FingerStrokeAssistance_capi.obj
 0002:000033b4       ??_C@_0CF@LBBHNCM@Robot?1get?5offsets?1MATLAB?5Functio@ 100453b4     FingerStrokeAssistance_capi.obj
 0002:000033e0       ??_C@_0CF@BCAKEMGN@Robot?1get?5offsets?1MATLAB?5Functio@ 100453e0     FingerStrokeAssistance_capi.obj
 0002:0000340c       ??_C@_0CF@FNELNKKK@Robot?1get?5offsets?1MATLAB?5Functio@ 1004540c     FingerStrokeAssistance_capi.obj
 0002:00003438       ??_C@_0CA@BJJACOKB@Robot?1get?5offsets?1Digital?5Clock?$AA@ 10045438     FingerStrokeAssistance_capi.obj
 0002:00003460       ??_C@_0BJ@CKGOFLIA@Robot?1get?5offsets?1Memory?$AA@ 10045460     FingerStrokeAssistance_capi.obj
 0002:00003480       ??_C@_0BK@CLMPOKMJ@Robot?1get?5offsets?1Memory1?$AA@ 10045480     FingerStrokeAssistance_capi.obj
 0002:000034a0       ??_C@_0BD@BNMELIGD@Robot?1gravDir?1gain?$AA@ 100454a0     FingerStrokeAssistance_capi.obj
 0002:000034b8       ??_C@_0BC@NJKIOKBB@Robot?1gravDir?1Sum?$AA@ 100454b8     FingerStrokeAssistance_capi.obj
 0002:000034d0       ??_C@_0CH@KJDMLLPO@parameters?1gain?5transition?1gainr@ 100454d0     FingerStrokeAssistance_capi.obj
 0002:00003500       ??_C@_0CH@ICBBOIDN@parameters?1gain?5transition?1gainr@ 10045500     FingerStrokeAssistance_capi.obj
 0002:00003530       ??_C@_0CC@BDCPHDEE@parameters?1gain?5transition?1Memor@ 10045530     FingerStrokeAssistance_capi.obj
 0002:00003558       ??_C@_0CI@PJCJMMGB@parameters?1gain?5transition1?1gain@ 10045558     FingerStrokeAssistance_capi.obj
 0002:00003588       ??_C@_0CI@NCAEJPKC@parameters?1gain?5transition1?1gain@ 10045588     FingerStrokeAssistance_capi.obj
 0002:000035b8       ??_C@_0CD@LNHEJADF@parameters?1gain?5transition1?1Memo@ 100455b8     FingerStrokeAssistance_capi.obj
 0002:000035e4       ??_C@_0CI@IFEIOJLK@parameters?1gain?5transition2?1gain@ 100455e4     FingerStrokeAssistance_capi.obj
 0002:00003614       ??_C@_0CI@KOGFLKHJ@parameters?1gain?5transition2?1gain@ 10045614     FingerStrokeAssistance_capi.obj
 0002:00003644       ??_C@_0CD@IEPJKMPA@parameters?1gain?5transition2?1Memo@ 10045644     FingerStrokeAssistance_capi.obj
 0002:00003670       ??_C@_0CI@BIEHAIMM@parameters?1gain?5transition3?1gain@ 10045670     FingerStrokeAssistance_capi.obj
 0002:000036a0       ??_C@_0CI@DDGKFLAP@parameters?1gain?5transition3?1gain@ 100456a0     FingerStrokeAssistance_capi.obj
 0002:000036d0       ??_C@_0CD@JDICLILD@parameters?1gain?5transition3?1Memo@ 100456d0     FingerStrokeAssistance_capi.obj
 0002:000036fc       ??_C@_0CI@HNIKKCAM@parameters?1gain?5transition4?1gain@ 100456fc     FingerStrokeAssistance_capi.obj
 0002:0000372c       ??_C@_0CI@FGKHPBMP@parameters?1gain?5transition4?1gain@ 1004572c     FingerStrokeAssistance_capi.obj
 0002:0000375c       ??_C@_0CD@PHODNFHK@parameters?1gain?5transition4?1Memo@ 1004575c     FingerStrokeAssistance_capi.obj
 0002:00003788       ??_C@_0CI@OAIFEDHK@parameters?1gain?5transition5?1gain@ 10045788     FingerStrokeAssistance_capi.obj
 0002:000037b8       ??_C@_0CI@MLKIBALJ@parameters?1gain?5transition5?1gain@ 100457b8     FingerStrokeAssistance_capi.obj
 0002:000037e8       ??_C@_0CD@OAJIMBDJ@parameters?1gain?5transition5?1Memo@ 100457e8     FingerStrokeAssistance_capi.obj
 0002:00003814       ??_C@_0BH@IBJBGMJI@HL?5Controller?1Constant?$AA@ 10045814     FingerStrokeAssistance_capi.obj
 0002:00003830       ??_C@_05LPIJGKJ@Value?$AA@ 10045830     FingerStrokeAssistance_capi.obj
 0002:00003838       ??_C@_0BI@DIAIINKI@HL?5Controller?1Constant1?$AA@ 10045838     FingerStrokeAssistance_capi.obj
 0002:00003854       ??_C@_0BI@BDCFNOGL@HL?5Controller?1Constant2?$AA@ 10045854     FingerStrokeAssistance_capi.obj
 0002:00003870       ??_C@_0BI@KDOOPCK@HL?5Controller?1Constant3?$AA@ 10045870     FingerStrokeAssistance_capi.obj
 0002:0000388c       ??_C@_0BH@JPCEIKJA@HL?5Controller?1Force?5On?$AA@ 1004588c     FingerStrokeAssistance_capi.obj
 0002:000038a8       ??_C@_07KKMCCDCH@gainval?$AA@ 100458a8     FingerStrokeAssistance_capi.obj
 0002:000038b4       ??_C@_0BB@CFEOEMDC@InitialCondition?$AA@ 100458b4     FingerStrokeAssistance_capi.obj
 0002:000038c8       ??_C@_0BF@GLIOIDJM@UpperSaturationLimit?$AA@ 100458c8     FingerStrokeAssistance_capi.obj
 0002:000038e4       ??_C@_0BF@EMCFELNH@LowerSaturationLimit?$AA@ 100458e4     FingerStrokeAssistance_capi.obj
 0002:00003900       ??_C@_04OMOMKKFL@Gain?$AA@ 10045900     FingerStrokeAssistance_capi.obj
 0002:00003908       ??_C@_0P@HMEAEHIM@CurrentSetting?$AA@ 10045908     FingerStrokeAssistance_capi.obj
 0002:0000391c       ??_C@_0M@KNNCJG@DelayLength?$AA@ 1004591c     FingerStrokeAssistance_capi.obj
 0002:0000392c       ??_C@_09OMDFKCLN@Numerator?$AA@ 1004592c     FingerStrokeAssistance_capi.obj
 0002:00003938       ??_C@_0M@KDILNJPK@Denominator?$AA@ 10045938     FingerStrokeAssistance_capi.obj
 0002:00003948       ??_C@_0O@KHJPNGBD@InitialStates?$AA@ 10045948     FingerStrokeAssistance_capi.obj
 0002:00003958       ??_C@_0CG@DLDPEALE@LL?5Controller?1Discrete?5PID?5Contr@ 10045958     FingerStrokeAssistance_capi.obj
 0002:00003988       ??_C@_01EJNLAFE@P?$AA@     10045988     FingerStrokeAssistance_capi.obj
 0002:0000398c       ??_C@_01JPJNBJEM@I?$AA@    1004598c     FingerStrokeAssistance_capi.obj
 0002:00003990       ??_C@_01CKDDGHAB@D?$AA@    10045990     FingerStrokeAssistance_capi.obj
 0002:00003994       ??_C@_01NANMIPIL@N?$AA@    10045994     FingerStrokeAssistance_capi.obj
 0002:00003998       ??_C@_0L@FBCGKKEN@UpperLimit?$AA@ 10045998     FingerStrokeAssistance_capi.obj
 0002:000039a8       ??_C@_0L@DGFJOHKP@LowerLimit?$AA@ 100459a8     FingerStrokeAssistance_capi.obj
 0002:000039b8       ??_C@_02KKFPAPOP@P1?$AA@   100459b8     FingerStrokeAssistance_capi.obj
 0002:000039bc       ??_C@_02IBHCFMCM@P2?$AA@   100459bc     FingerStrokeAssistance_capi.obj
 0002:000039c0       ??_C@_02JIGJGNGN@P3?$AA@   100459c0     FingerStrokeAssistance_capi.obj
 0002:000039c4       ??_C@_02NHCIPLKK@P4?$AA@   100459c4     FingerStrokeAssistance_capi.obj
 0002:000039c8       ??_C@_02MODDMKOL@P5?$AA@   100459c8     FingerStrokeAssistance_capi.obj
 0002:000039cc       ??_C@_02OFBOJJCI@P6?$AA@   100459cc     FingerStrokeAssistance_capi.obj
 0002:000039d0       ??_C@_02PMAFKIGJ@P7?$AA@   100459d0     FingerStrokeAssistance_capi.obj
 0002:000039d4       ??_C@_02HLJNLEKG@P8?$AA@   100459d4     FingerStrokeAssistance_capi.obj
 0002:000039d8       ??_C@_02GCIGIFOH@P9?$AA@   100459d8     FingerStrokeAssistance_capi.obj
 0002:000039dc       ??_C@_03OPFJJGBF@P10?$AA@  100459dc     FingerStrokeAssistance_capi.obj
 0002:000039e0       ??_C@_0BD@HJHAJHEM@Robot?1PCI?96221?5AD1?$AA@ 100459e0     FingerStrokeAssistance_capi.obj
 0002:000039f8       ??_C@_0BC@IGENNOJN@Robot?1PCI?96221?5DA?$AA@ 100459f8     FingerStrokeAssistance_capi.obj
 0002:00003a10       ??_C@_0CD@NBHNHEJB@parameters?1paremeters_?5must_be_o@ 10045a10     FingerStrokeAssistance_capi.obj
 0002:00003a3c       ??_C@_02LNFHGPBG@X0?$AA@   10045a3c     FingerStrokeAssistance_capi.obj
 0002:00003a40       ??_C@_0BH@BIOEOLDB@Robot?1gravDir?1Constant?$AA@ 10045a40     FingerStrokeAssistance_capi.obj
 0002:00003a5c       ??_C@_04OELFCIM@Alow?$AA@  10045a5c     FingerStrokeAssistance_capi.obj
 0002:00003a64       ??_C@_04EJOLCIFM@Blow?$AA@ 10045a64     FingerStrokeAssistance_capi.obj
 0002:00003a6c       ??_C@_04HEILABOM@Clow?$AA@ 10045a6c     FingerStrokeAssistance_capi.obj
 0002:00003a74       ??_C@_04MGKLNNPM@Dlow?$AA@ 10045a74     FingerStrokeAssistance_capi.obj
 0002:00003a7c       ??_C@_05FKGIECOB@x0low?$AA@ 10045a7c     FingerStrokeAssistance_capi.obj
 0002:00003a84       ??_C@_06BNJCAIGJ@double?$AA@ 10045a84     FingerStrokeAssistance_capi.obj
 0002:00003a8c       ??_C@_06CNMIJIPB@real_T?$AA@ 10045a8c     FingerStrokeAssistance_capi.obj
 0002:00003a94       ??_C@_0O@PPAIJIHF@unsigned?5char?$AA@ 10045a94     FingerStrokeAssistance_capi.obj
 0002:00003aa4       ??_C@_07NCEHLPOC@uint8_T?$AA@ 10045aa4     FingerStrokeAssistance_capi.obj
 0002:00003ab0       ??_C@_0N@OFHMGPAL@unsigned?5int?$AA@ 10045ab0     FingerStrokeAssistance_capi.obj
 0002:00003ac0       ??_C@_08CCMIKNJF@uint32_T?$AA@ 10045ac0     FingerStrokeAssistance_capi.obj
 0002:00003acc       ??_C@_05KNFBNCOH@float?$AA@ 10045acc     FingerStrokeAssistance_capi.obj
 0002:00003ad4       ??_C@_0CJ@GGPBKPNK@Could?5not?5start?5ToAsyncQueue?5app@ 10045ad4     FingerStrokeAssistance_tgtconn.obj
 0002:00004368       ??_C@_0DJ@FHKINPLE@Unexpected?5itemKind?5?$DN?5DATA_ITEM?5@ 10046368     rt_logging.obj
 0002:000043ac       ??_C@_0DA@IEHFPFCJ@Unexpected?5itemKind?$DN?$CFd?5in?5rt_Pro@ 100463ac     rt_logging.obj
 0002:000043e8       ??_C@_0DA@IFLHJPBO@Unexpected?5itemKind?$DN?$CFd?5in?5rt_Pro@ 100463e8     rt_logging.obj
 0002:00004424       ??_C@_0DA@IAPIIJJL@Unexpected?5itemKind?$DN?$CFd?5in?5rt_Pro@ 10046424     rt_logging.obj
 0002:00004460       ??_C@_0BE@LCIGPJIG@MATLAB?55?40?5MAT?9file?$AA@ 10046460     rt_logging.obj
 0002:00004478       ??_C@_0FB@PCJEAJIB@?$CK?$CK?$CK?5Log?5variable?5?$CFs?5has?5wrapped?5@ 10046478     rt_logging.obj
 0002:000044e0       ??_C@_0MG@NKMLMOGF@?$CK?$CK?$CK?5To?5avoid?5wrapping?0?5explicitl@ 100464e0     rt_logging.obj
 0002:000045d0       ??_C@_0N@IPAEOLLP@_rtw_tmw?4tmw?$AA@ 100465d0     rt_logging.obj
 0002:000045e0       ??_C@_04HDOCAJNK@?$CFs?$CFs?$AA@ 100465e0     rt_logging.obj
 0002:000045e8       ??_C@_03ELIABIOC@w?$CLb?$AA@ 100465e8     rt_logging.obj
 0002:000045ec       ??_C@_0BF@JPILDDFA@?$CK?$CK?$CK?5Error?5opening?5?$CFs?$AA@ 100465ec     rt_logging.obj
 0002:00004608       ??_C@_0BK@EEMDELA@unable?5to?5open?5data?5file?6?$AA@ 10046608     rt_logging.obj
 0002:00004628       ??_C@_04CGFJFPFD@none?$AA@ 10046628     rt_logging.obj
 0002:00004630       ??_C@_0EE@LCGFPNON@?$CK?$CK?$CK?5Error?5creating?5signals?5struc@ 10046630     rt_logging.obj
 0002:00004684       ??_C@_0CE@NHECEDMK@?$CK?$CK?$CK?5Error?5creating?5log?5variable?5@ 10046684     rt_logging.obj
 0002:000046b0       ??_C@_0DB@IOCGKAGH@?$CK?$CK?$CK?5Errors?5occurred?5when?5startin@ 100466b0     rt_logging.obj
 0002:000046ec       ??_C@_0BO@BBLOGEBK@?$CK?$CK?$CK?5Memory?5allocation?5error?4?6?$AA@ 100466ec     rt_logging.obj
 0002:00004710       ??_C@_0N@LGFBAGEL@?5?$CIreal?5part?$CJ?$AA@ 10046710     rt_logging.obj
 0002:00004720       ??_C@_0KH@CGNMHNFE@?5?5?5?5varName?5?5?5?5?5?5?5?5?5?5?$DN?5?$CFs?$CFs?6?5?5?5?5@ 10046720     rt_logging.obj
 0002:000047e8       ??_C@_0LE@OALKKEFM@?5?5?5?5varName?5?5?5?5?5?5?5?5?5?5?$DN?5?$CFs?5?$CIcompl@ 100467e8     rt_logging.obj
 0002:000048c0       ??_C@_0KF@JDDLEOKO@?5?5?5?5varName?5?5?5?5?5?5?5?5?5?5?$DN?5?$CFs?6?5?5?5?5nR@ 100468c0     rt_logging.obj
 0002:00004988       ??_C@_0DP@HPDMIOFM@?$CK?$CK?$CK?5Using?5a?5default?5buffer?5of?5si@ 10046988     rt_logging.obj
 0002:000049d8       ??_C@_0KE@JEFOLKNF@?6?$CK?$CK?$CK?5Memory?5required?5to?5log?5vari@ 100469d8     rt_logging.obj
 0002:00004aa0       ??_C@_0JP@DKLMHCBI@?$CK?$CK?$CK?5Details?3?6?5?5?5?5?5?5?5varName?5?5?5?5?5@ 10046aa0     rt_logging.obj
 0002:00004b60       ??_C@_0CM@CAMILBED@?$CK?$CK?$CK?5Error?5allocating?5memory?5for?5@ 10046b60     rt_logging.obj
 0002:00004b94       ??_C@_0DF@BBCNMOPM@?$CK?$CK?$CK?5Error?5allocating?5memory?5for?5@ 10046b94     rt_logging.obj
 0002:00004bd8       ??_C@_0JP@DBCLPCCI@?$CK?$CK?$CK?5Details?3?6?5?5?5?5?5?5?5varName?5?5?5?5?5@ 10046bd8     rt_logging.obj
 0002:00004c98       ??_C@_0FK@DPGAOBGA@?$CK?$CK?$CK?5Error?5allocating?5memory?5for?5@ 10046c98     rt_logging.obj
 0002:00004d04       ??_C@_0BI@GGDNPHLJ@?$CK?$CK?$CK?5Error?5writing?5to?5?$CFs?$AA@ 10046d04     rt_logging.obj
 0002:00004d20       ??_C@_0CB@IBGJGELG@?$CK?$CK?$CK?5Error?5writing?5?$CFs?5due?5to?3?5?$CFs?6@ 10046d20     rt_logging.obj
 0002:00004d48       ??_C@_0CN@FLMCHCPB@?$CK?$CK?$CK?5Error?5writing?5log?5variable?5?$CF@ 10046d48     rt_logging.obj
 0002:00004d80       ??_C@_0DH@GAJCNOJP@?$CK?$CK?$CK?5Error?5writing?5structure?5log?5@ 10046d80     rt_logging.obj
 0002:00004dc4       ??_C@_0BD@POEALECL@?$CK?$CK?5created?5?$CFs?5?$CK?$CK?6?6?$AA@ 10046dc4     rt_logging.obj
 0002:00004de0       __real@4020000000000000    10046de0     rt_logging.obj
 0002:00004df0       __real@41dfffffffc00000    10046df0     rt_logging.obj
 0002:00004e00       __real@41efffffffe00000    10046e00     rt_logging.obj
 0002:00004e10       __real@bfbf9add3afd2773    10046e10     rt_logging.obj
 0002:00004e20       __real@c000000000000000    10046e20     rt_logging.obj
 0002:00004e30       __xmm@20202020202020202020202020202020 10046e30     rt_logging.obj
 0002:00004e60       __real@3cb0000000000000    10046e60     rt_matrx.obj
 0002:00004e6c       ??_C@_0BI@INNPNFJN@Memory?5Allocation?5Error?$AA@ 10046e6c     rtw_modelmap_utils.obj
 0002:00004e88       ??_C@_1HC@OAPLBLFC@?$AAC?$AA?3?$AA?2?$AAP?$AAR?$AAO?$AAG?$AAR?$AAA?$AA?$HO?$AA1?$AA?2?$AAM?$AAA?$AAT?$AAL?$AAA?$AAB?$AA?2?$AAR?$AA2?$AA0?$AA1?$AA6?$AAa?$AA?2?$AAr?$AAt?$AAw?$AA?2?$AAc?$AA?2@ 10046e88     rtw_modelmap_utils.obj
 0002:00004f10       ??_C@_1CI@OEAJCJND@?$AAj?$AA?5?$AA?$DN?$AA?$DN?$AA?5?$AAe?$AAn?$AAc?$AAo?$AAd?$AAe?$AAd?$AAP?$AAa?$AAt?$AAh?$AAL?$AAe?$AAn?$AA?$AA@ 10046f10     rtw_modelmap_utils.obj
 0002:00004f40       ??_C@_1DC@NFAOIFKB@?$AAe?$AAn?$AAc?$AAo?$AAd?$AAe?$AAd?$AAP?$AAa?$AAt?$AAh?$AA?$FL?$AAj?$AA?9?$AA1?$AA?$FN?$AA?5?$AA?$DN?$AA?$DN?$AA?5?$AA?8?$AA?2?$AA0?$AA?8?$AA?$AA@ 10046f40     rtw_modelmap_utils.obj
 0002:00004f7c       ??_C@_1DI@FLNJGPEE@?$AAs?$AAi?$AAg?$AAC?$AAo?$AAm?$AAp?$AAl?$AAe?$AAx?$AAi?$AAt?$AAy?$AA?$FL?$AA?$CK?$AAs?$AAi?$AAg?$AAI?$AAd?$AAx?$AA?$FN?$AA?5?$AA?$CB?$AA?$DN?$AA?5?$AA1?$AA?$AA@ 10046f7c     rtw_modelmap_utils.obj
 0002:00004fc0       ??_C@_1KI@OFELMGBG@?$AA?$CI?$AA?$CI?$AA?$CI?$AAd?$AAa?$AAt?$AAa?$AAT?$AAy?$AAp?$AAe?$AAM?$AAa?$AAp?$AA?$CJ?$AA?$FL?$AA?$CI?$AA?$CI?$AA?$CI?$AAs?$AAt?$AAa?$AAt?$AAe?$AAs?$AA?$CJ?$AA?$FL?$AA?$CI?$AAi?$AA?$CJ?$AA?$FN?$AA?4@ 10046fc0     rtw_modelmap_utils.obj
 0002:0000508c       ??_C@_1DA@ILCMPHNE@?$AAf?$AAu?$AAl?$AAl?$AAP?$AAa?$AAt?$AAh?$AA?5?$AA?$CB?$AA?$DN?$AA?5?$AA?$CI?$AA?$CI?$AAv?$AAo?$AAi?$AAd?$AA?5?$AA?$CK?$AA?$CJ?$AA0?$AA?$CJ?$AA?$AA@ 1004708c     rtw_modelmap_utils.obj
 0002:000050c8       ??_C@_1CI@OEPPFCCA@?$AAp?$AAa?$AAt?$AAh?$AA?5?$AA?$CB?$AA?$DN?$AA?5?$AA?$CI?$AA?$CI?$AAv?$AAo?$AAi?$AAd?$AA?5?$AA?$CK?$AA?$CJ?$AA0?$AA?$CJ?$AA?$AA@ 100470c8     rtw_modelmap_utils.obj
 0002:000050f8       ??_C@_1FK@GLJIMFHB@?$AA?$CI?$AA?$CI?$AAm?$AAm?$AAi?$AA?$CJ?$AA?9?$AA?$DO?$AAI?$AAn?$AAs?$AAt?$AAa?$AAn?$AAc?$AAe?$AAM?$AAa?$AAp?$AA?4?$AAf?$AAu?$AAl?$AAl?$AAP?$AAa?$AAt?$AAh?$AA?$CJ?$AA?5?$AA?$DN?$AA?$DN@ 100470f8     rtw_modelmap_utils.obj
 0002:00005164       ??_C@_1DG@HPCJGNCE@?$AAm?$AAm?$AAi?$AAP?$AAa?$AAt?$AAh?$AA?$FL?$AAp?$AAa?$AAt?$AAh?$AAL?$AAe?$AAn?$AA?9?$AA1?$AA?$FN?$AA?5?$AA?$DN?$AA?$DN?$AA?5?$AA?8?$AA?2?$AA0?$AA?8?$AA?$AA@ 10047164     rtw_modelmap_utils.obj
 0002:000051a4       ??_C@_1DM@DBAOGGOO@?$AAm?$AAm?$AAi?$AAP?$AAa?$AAt?$AAh?$AA?$FL?$AAm?$AAm?$AAi?$AAP?$AAa?$AAt?$AAh?$AAL?$AAe?$AAn?$AA?9?$AA1?$AA?$FN?$AA?5?$AA?$DN?$AA?$DN?$AA?5?$AA?8?$AA?2?$AA0?$AA?8?$AA?$AA@ 100471a4     rtw_modelmap_utils.obj
 0002:000051ec       ??_C@_1DC@LHIAKAFE@?$AAb?$AAl?$AAo?$AAc?$AAk?$AAP?$AAa?$AAt?$AAh?$AA?5?$AA?$CB?$AA?$DN?$AA?5?$AA?$CI?$AA?$CI?$AAv?$AAo?$AAi?$AAd?$AA?5?$AA?$CK?$AA?$CJ?$AA0?$AA?$CJ?$AA?$AA@ 100471ec     rtw_modelmap_utils.obj
 0002:00005228       ??_C@_1GI@KIEJKPGC@?$AAf?$AAu?$AAl?$AAl?$AAS?$AAt?$AAa?$AAt?$AAe?$AAB?$AAl?$AAo?$AAc?$AAk?$AAP?$AAa?$AAt?$AAh?$AA?$FL?$AAf?$AAu?$AAl?$AAl?$AAS?$AAt?$AAa?$AAt?$AAe?$AAB?$AAl?$AAo?$AAc@ 10047228     rtw_modelmap_utils.obj
 0002:000052a8       ??_C@_1EE@DNPIBJHC@?$AA?$CI?$AA?$CI?$AAd?$AAi?$AAm?$AAM?$AAa?$AAp?$AA?$CJ?$AA?$FL?$AA?$CI?$AAm?$AAa?$AAp?$AAI?$AAd?$AAx?$AA?$CJ?$AA?$FN?$AA?4?$AAn?$AAu?$AAm?$AAD?$AAi?$AAm?$AAs?$AA?$CJ?$AA?5?$AA?$DN?$AA?$DN?$AA?5@ 100472a8     rtw_modelmap_utils.obj
 0002:000052fc       ??_C@_06JFOKFOED@CSTATE?$AA@ 100472fc     rtw_modelmap_utils.obj
 0002:00005304       ??_C@_06FAENGAMN@DSTATE?$AA@ 10047304     rtw_modelmap_utils.obj
 0002:0000530c       ??_C@_1BI@LEBJNOGG@?$AAc?$AAs?$AAv?$AAI?$AAd?$AAx?$AA?5?$AA?$DO?$AA?$DN?$AA?5?$AA0?$AA?$AA@ 1004730c     rtw_modelmap_utils.obj
 0002:00005328       ??_C@_1BA@KDMGHCHP@?$AAT?$AAI?$AAD?$AA?$DN?$AA?$DN?$AA?9?$AA1?$AA?$AA@ 10047328     rtw_modelmap_utils.obj
 0002:0000533c       ??_C@_1DM@DHGKBPCE@?$AAs?$AAi?$AAg?$AAP?$AAa?$AAt?$AAh?$AA?$FL?$AAs?$AAi?$AAg?$AAP?$AAa?$AAt?$AAh?$AAL?$AAe?$AAn?$AA?9?$AA1?$AA?$FN?$AA?5?$AA?$DN?$AA?$DN?$AA?5?$AA?8?$AA?2?$AA0?$AA?8?$AA?$AA@ 1004733c     rtw_modelmap_utils.obj
 0002:00005384       _serialfifoground          10047384     xpc_datatype_ground.obj
 0002:00005390       _bcmsg1553ground           10047390     xpc_datatype_ground.obj
 0002:000053a0       _bcstatground              100473a0     xpc_datatype_ground.obj
 0002:000053b8       _bmmsg1553ground           100473b8     xpc_datatype_ground.obj
 0002:000053d8       _ptsetfilename             100473d8     xpctarget.obj
 0002:000053dc       _xmlfile                   100473dc     xpctarget.obj
 0002:000053e4       ??_C@_0BH@DNMKOCPI@FingerStrokeAssistance?$AA@ 100473e4     xpctarget.obj
 0002:00005400       ??_C@_0L@CHBJKKFC@xpceSetVar?$AA@ 10047400     xpctarget.obj
 0002:00005410       ??_C@_03ICACBPID@6?44?$AA@ 10047410     xpctarget.obj
 0002:00005418       __real@408f400000000000    10047418     xpctarget.obj
 0002:00005428       _FingerStrokeAssistance_BIOMAP 10047428     appmappingData.obj
 0002:000058e4       _FingerStrokeAssistance_dtmap 100478e4     appmappingData.obj
 0002:00005908       _FingerStrokeAssistance_LBLMAP 10047908     appmappingData.obj
 0002:00005dc8       _FingerStrokeAssistance_SIDMAP 10047dc8     appmappingData.obj
 0002:00006288       _FingerStrokeAssistance_SBIO 10048288     appmappingData.obj
 0002:00006420       _FingerStrokeAssistance_SLBL 10048420     appmappingData.obj
 0002:000065b8       _FingerStrokeAssistance_PTIDSMAP 100485b8     appmappingData.obj
 0002:00006940       _FingerStrokeAssistance_PTNAMESMAP 10048940     appmappingData.obj
 0002:00006cc8       _FingerStrokeAssistance_SPTMAP 10048cc8     appmappingData.obj
 0002:00006e90       _appInfo                   10048e90     appmappingData.obj
 0002:00007434       ??_C@_0CC@FIFFDAB@?$CFd?5input?5args?5expected?0?5?$CFd?5passe@ 10049434     encnipcim.obj
 0002:0000745c       ??_C@_0BN@JIEFLHEB@?$CFs?3?5Too?5many?5M?5series?5boards?$AA@ 1004945c     encnipcim.obj
 0002:00007480       ??_C@_0ED@LKHIFFLC@Wrong?5number?5of?5input?5arguments?5@ 10049480     adnipcim.obj
 0002:000074d0       ??_C@_0CI@FOFDKLAN@NI?5?$CFs?3?5Can?8t?5allocate?5temporary?5@ 100494d0     adnipcim.obj
 0002:00007500       ??_C@_0CK@PIIIKEIH@NI?5M?5series?3?5Channel?5?$CFf?5out?5of?5r@ 10049500     adnipcim.obj
 0002:00007534       ??_C@_0CF@LKNEFAOG@NI?5M?5series?3?5Timeout?5waiting?5for@ 10049534     adnipcim.obj
 0002:00007560       __real@417312d000000000    10049560     adnipcim.obj
 0002:0000756c       ??_C@_0DB@HFHLNKLE@Channel?5?$CFd?5exceeds?5the?5max?5DA?5ch@ 1004956c     danipcim.obj
 0002:000075a8       ??_C@_0CL@GCJHHCMG@Output?5range?5?$CFd?5is?5not?5supported@ 100495a8     danipcim.obj
 0002:000075dc       ??_C@_0M@IMCLKBPP@NI?5PCI?96220?$AA@ 100495dc     xpcionim.obj
 0002:000075ec       ??_C@_0M@JFDAJALO@NI?5PCI?96221?$AA@ 100495ec     xpcionim.obj
 0002:000075fc       ??_C@_0P@NGCDCNKM@NI?5PCI?96221?137?$AA@ 100495fc     xpcionim.obj
 0002:00007610       ??_C@_0M@OIEHGEPL@NI?5PCI?96224?$AA@ 10049610     xpcionim.obj
 0002:00007620       ??_C@_0M@PBFMFFLK@NI?5PCI?96225?$AA@ 10049620     xpcionim.obj
 0002:00007630       ??_C@_0M@FNOJBKLG@NI?5PCI?96229?$AA@ 10049630     xpcionim.obj
 0002:00007640       ??_C@_0M@INOJMLMI@NI?5PCI?96230?$AA@ 10049640     xpcionim.obj
 0002:00007650       ??_C@_0M@LPNPKJEK@NI?5PCI?96232?$AA@ 10049650     xpcionim.obj
 0002:00007660       ??_C@_0M@KGMEJIAL@NI?5PCI?96233?$AA@ 10049660     xpcionim.obj
 0002:00007670       ??_C@_0M@NLLDGMEO@NI?5PCI?96236?$AA@ 10049670     xpcionim.obj
 0002:00007680       ??_C@_0M@EFDAEBMA@NI?5PCI?96238?$AA@ 10049680     xpcionim.obj
 0002:00007690       ??_C@_0M@FMCLHAIB@NI?5PCI?96239?$AA@ 10049690     xpcionim.obj
 0002:000076a0       ??_C@_0M@IJGELHHK@NI?5PCI?96250?$AA@ 100496a0     xpcionim.obj
 0002:000076b0       ??_C@_0M@JAHPIGDL@NI?5PCI?96251?$AA@ 100496b0     xpcionim.obj
 0002:000076c0       ??_C@_0M@ONAIHCHO@NI?5PCI?96254?$AA@ 100496c0     xpcionim.obj
 0002:000076d0       ??_C@_0M@PEBDEDDP@NI?5PCI?96255?$AA@ 100496d0     xpcionim.obj
 0002:000076e0       ??_C@_0M@FIKGAMDD@NI?5PCI?96259?$AA@ 100496e0     xpcionim.obj
 0002:000076f0       ??_C@_0M@IBLMCECJ@NI?5PCI?96280?$AA@ 100496f0     xpcionim.obj
 0002:00007700       ??_C@_0M@JIKHBFGI@NI?5PCI?96281?$AA@ 10049700     xpcionim.obj
 0002:00007710       ??_C@_0M@OFNAOBCN@NI?5PCI?96284?$AA@ 10049710     xpcionim.obj
 0002:00007720       ??_C@_0M@FAHOJPGA@NI?5PCI?96289?$AA@ 10049720     xpcionim.obj
 0002:00007730       ??_C@_0CI@NFFNBHJA@?$CFs?5?$CIbus?5?$CFd?0?5slot?5?$CFd?$CJ?3?5board?5not?5@ 10049730     xpcionim.obj
 0002:00007760       ??_C@_0CD@MBDNCLAI@NI?5M?5series?3?5Unknown?5board?5type?5@ 10049760     xpcionim.obj
 0002:0000778c       ??_C@_0CC@DMFKNLL@VendorId?5?$DN?50x?$CFx?0?5DeviceId?5?$DN?50x?$CFx@ 1004978c     xpcruntime:xpcimports.obj
 0002:000077b0       ??_C@_0DH@OHCBLNMG@Subsystem?5Device?5ID?5?$DN?50x?$CFx?6Subsy@ 100497b0     xpcruntime:xpcimports.obj
 0002:000077e8       ??_C@_0BD@MMMMEFCM@Class?5Code?5?$DN?50x?$CFx?6?$AA@ 100497e8     xpcruntime:xpcimports.obj
 0002:000077fc       ??_C@_0BE@OLDDDNHM@InterruptLine?5?$DN?5?$CFd?6?$AA@ 100497fc     xpcruntime:xpcimports.obj
 0002:00007810       ??_C@_0BF@OLKLEKBD@bus?5?$DN?5?$CFd?0?5slot?5?$DN?5?$CFd?6?$AA@ 10049810     xpcruntime:xpcimports.obj
 0002:00007828       ??_C@_0CE@DGLLGDFH@?5?5?5?5Phys?5?5?5Virtual?5?5?5Length?5IO?1M@ 10049828     xpcruntime:xpcimports.obj
 0002:0000784c       ??_C@_0BI@FEOPLEMG@?$CF08x?5?$CF08x?5?$CF08x?5?5?5?5?5?5?$CFc?6?$AA@ 1004984c     xpcruntime:xpcimports.obj
 0002:00007864       ??_C@_0BB@BNNCEDPC@rl32eScopeExists?$AA@ 10049864     xpcruntime:xpcimports.obj
 0002:00007878       ??_C@_0BM@FJBFEGFG@rl32eScopeExists?5not?5found?6?$AA@ 10049878     xpcruntime:xpcimports.obj
 0002:00007894       ??_C@_0O@BNNGKJEA@rl32eDefScope?$AA@ 10049894     xpcruntime:xpcimports.obj
 0002:000078a4       ??_C@_0BJ@CDNOENKA@rl32eDefScope?5not?5found?6?$AA@ 100498a4     xpcruntime:xpcimports.obj
 0002:000078c0       ??_C@_0P@CKNKILDP@rl32eAddSignal?$AA@ 100498c0     xpcruntime:xpcimports.obj
 0002:000078d0       ??_C@_0BK@GMJAJBAI@rl32eAddSignal?5not?5found?6?$AA@ 100498d0     xpcruntime:xpcimports.obj
 0002:000078ec       ??_C@_0BB@LDMIHGCE@rl32eGetSignalNo?$AA@ 100498ec     xpcruntime:xpcimports.obj
 0002:00007900       ??_C@_0BM@LGAMBAID@rl32eGetSignalNo?5not?5found?6?$AA@ 10049900     xpcruntime:xpcimports.obj
 0002:0000791c       ??_C@_0O@CFDGALBP@rl32eSetScope?$AA@ 1004991c     xpcruntime:xpcimports.obj
 0002:0000792c       ??_C@_0BJ@JCLHHIN@rl32eSetScope?5not?5found?6?$AA@ 1004992c     xpcruntime:xpcimports.obj
 0002:00007948       ??_C@_0P@IKMCBMHH@xpceFSScopeSet?$AA@ 10049948     xpcruntime:xpcimports.obj
 0002:00007958       ??_C@_0BK@JODJPNNH@xpceFSScopeSet?5not?5found?6?$AA@ 10049958     xpcruntime:xpcimports.obj
 0002:00007974       ??_C@_0BE@DLACEEJM@rl32eSetTargetScope?$AA@ 10049974     xpcruntime:xpcimports.obj
 0002:00007988       ??_C@_0BP@JCHFMKPJ@rl32eSetTargetScope?5not?5found?6?$AA@ 10049988     xpcruntime:xpcimports.obj
 0002:000079a8       ??_C@_0BJ@LIDLNDHC@rl32eSetTargetScopeSigFt?$AA@ 100499a8     xpcruntime:xpcimports.obj
 0002:000079c4       ??_C@_0CE@JLGHCFHI@rl32eSetTargetScopeSigFt?5not?5fou@ 100499c4     xpcruntime:xpcimports.obj
 0002:000079e8       ??_C@_0BI@JAPOIDNG@rl32eRestartAcquisition?$AA@ 100499e8     xpcruntime:xpcimports.obj
 0002:00007a00       ??_C@_0CD@LLBEFFBO@rl32eRestartAcquisition?5not?5foun@ 10049a00     xpcruntime:xpcimports.obj
 0002:00007a24       ??_C@_0P@IEIIADJB@xpceScopeAcqOK?$AA@ 10049a24     xpcruntime:xpcimports.obj
 0002:00007a34       ??_C@_0BK@NJCKNFPN@xpceScopeAcqOK?5not?5found?6?$AA@ 10049a34     xpcruntime:xpcimports.obj
 0002:00007a50       ??_C@_0BA@IJINKAHF@xpceRegisterISR?$AA@ 10049a50     xpcruntime:xpcimports.obj
 0002:00007a60       ??_C@_0BL@NNDLOEJE@xpceRegisterISR?5not?5found?6?$AA@ 10049a60     xpcruntime:xpcimports.obj
 0002:00007a7c       ??_C@_0BC@NLBADGKF@xpceDeRegisterISR?$AA@ 10049a7c     xpcruntime:xpcimports.obj
 0002:00007a90       ??_C@_0BN@DCAIKFFD@xpceDeRegisterISR?5not?5found?6?$AA@ 10049a90     xpcruntime:xpcimports.obj
 0002:00007ab0       ??_C@_0P@CPGPNKEB@xpceFTReadTime?$AA@ 10049ab0     xpcruntime:xpcimports.obj
 0002:00007ac0       ??_C@_0BK@NMABIODN@xpceFTReadTime?5not?5found?6?$AA@ 10049ac0     xpcruntime:xpcimports.obj
 0002:00007adc       ??_C@_09PHNHCHFH@xpceFTAdd?$AA@ 10049adc     xpcruntime:xpcimports.obj
 0002:00007ae8       ??_C@_0BF@FJLEIILA@xpceFTAdd?5not?5found?6?$AA@ 10049ae8     xpcruntime:xpcimports.obj
 0002:00007b00       ??_C@_0P@KEODBLHO@xpceFTSubtract?$AA@ 10049b00     xpcruntime:xpcimports.obj
 0002:00007b10       ??_C@_0BK@HONODOKP@xpceFTSubtract?5not?5found?6?$AA@ 10049b10     xpcruntime:xpcimports.obj
 0002:00007b2c       ??_C@_07JPMEPILD@xpcInpB?$AA@ 10049b2c     xpcruntime:xpcimports.obj
 0002:00007b34       ??_C@_0BD@PGABEJOL@xpcInpB?5not?5found?6?$AA@ 10049b34     xpcruntime:xpcimports.obj
 0002:00007b48       ??_C@_07KIHBBOKH@xpcInpW?$AA@ 10049b48     xpcruntime:xpcimports.obj
 0002:00007b50       ??_C@_0BD@FPCJFMCC@xpcInpW?5not?5found?6?$AA@ 10049b50     xpcruntime:xpcimports.obj
 0002:00007b64       ??_C@_08KDIAJBOP@xpcInpDW?$AA@ 10049b64     xpcruntime:xpcimports.obj
 0002:00007b70       ??_C@_0BE@PIELDNIL@xpcInpDW?5not?5found?6?$AA@ 10049b70     xpcruntime:xpcimports.obj
 0002:00007b84       ??_C@_08PJFMOIGO@xpcOutpB?$AA@ 10049b84     xpcruntime:xpcimports.obj
 0002:00007b90       ??_C@_0BE@HCKNCEKF@xpcOutpB?5not?5found?6?$AA@ 10049b90     xpcruntime:xpcimports.obj
 0002:00007ba4       ??_C@_08MOOJAOHK@xpcOutpW?$AA@ 10049ba4     xpcruntime:xpcimports.obj
 0002:00007bb0       ??_C@_0BE@NLIFDBGM@xpcOutpW?5not?5found?6?$AA@ 10049bb0     xpcruntime:xpcimports.obj
 0002:00007bc4       ??_C@_09FLIEKHJG@xpcOutpDW?$AA@ 10049bc4     xpcruntime:xpcimports.obj
 0002:00007bd0       ??_C@_0BF@GJKLPNHB@xpcOutpDW?5not?5found?6?$AA@ 10049bd0     xpcruntime:xpcimports.obj
 0002:00007be8       ??_C@_0BH@EHOLELHH@xpcReserveMemoryRegion?$AA@ 10049be8     xpcruntime:xpcimports.obj
 0002:00007c00       ??_C@_0CC@KAAAGPI@xpcReserveMemoryRegion?5not?5found@ 10049c00     xpcruntime:xpcimports.obj
 0002:00007c24       ??_C@_0BA@JGPMHGAF@rl32eShowPCIDev?$AA@ 10049c24     xpcruntime:xpcimports.obj
 0002:00007c34       ??_C@_0BL@DDFFLNHI@rl32eShowPCIDev?5not?5found?6?$AA@ 10049c34     xpcruntime:xpcimports.obj
 0002:00007c50       ??_C@_0BB@KBCOJPFB@rl32eShowPCIInfo?$AA@ 10049c50     xpcruntime:xpcimports.obj
 0002:00007c64       ??_C@_0BM@IFDMAGLO@rl32eShowPCIInfo?5not?5found?6?$AA@ 10049c64     xpcruntime:xpcimports.obj
 0002:00007c80       ??_C@_0BA@BGPAADB@rl32eGetPCIInfo?$AA@ 10049c80     xpcruntime:xpcimports.obj
 0002:00007c90       ??_C@_0BL@IGOMLDCK@rl32eGetPCIInfo?5not?5found?6?$AA@ 10049c90     xpcruntime:xpcimports.obj
 0002:00007cac       ??_C@_0BG@NJPFKFDP@rl32eGetPCIInfoAtSlot?$AA@ 10049cac     xpcruntime:xpcimports.obj
 0002:00007cc4       ??_C@_0CB@BBKIPMLA@rl32eGetPCIInfoAtSlot?5not?5found?6@ 10049cc4     xpcruntime:xpcimports.obj
 0002:00007ce8       ??_C@_0BH@OKBOPNFG@xpceAssignPCIInterrupt?$AA@ 10049ce8     xpcruntime:xpcimports.obj
 0002:00007d00       ??_C@_0CC@CDNDNJBJ@xpceAssignPCIInterrupt?5not?5found@ 10049d00     xpcruntime:xpcimports.obj
 0002:00007d24       ??_C@_0BB@FCHHFAAH@rl32eInitCOMPort?$AA@ 10049d24     xpcruntime:xpcimports.obj
 0002:00007d38       ??_C@_0BM@DDJGKAHB@rl32eInitCOMPort?5not?5found?6?$AA@ 10049d38     xpcruntime:xpcimports.obj
 0002:00007d54       ??_C@_0BC@CHEEFCP@rl32eCloseCOMPort?$AA@ 10049d54     xpcruntime:xpcimports.obj
 0002:00007d68       ??_C@_0BN@KCOFELEM@rl32eCloseCOMPort?5not?5found?6?$AA@ 10049d68     xpcruntime:xpcimports.obj
 0002:00007d88       ??_C@_0O@LLJGKFOG@rl32eSendChar?$AA@ 10049d88     xpcruntime:xpcimports.obj
 0002:00007d98       ??_C@_0BJ@JCJKDACJ@rl32eSendChar?5not?5found?6?$AA@ 10049d98     xpcruntime:xpcimports.obj
 0002:00007db4       ??_C@_0BB@OMFKCOEK@rl32eReceiveChar?$AA@ 10049db4     xpcruntime:xpcimports.obj
 0002:00007dc8       ??_C@_0BM@HGAIOAND@rl32eReceiveChar?5not?5found?6?$AA@ 10049dc8     xpcruntime:xpcimports.obj
 0002:00007de4       ??_C@_0BI@PKEJFHMJ@rl32eReceiveBufferCount?$AA@ 10049de4     xpcruntime:xpcimports.obj
 0002:00007dfc       ??_C@_0CD@LNMOFLAH@rl32eReceiveBufferCount?5not?5foun@ 10049dfc     xpcruntime:xpcimports.obj
 0002:00007e20       ??_C@_0BA@CFIJOJPK@rl32eLineStatus?$AA@ 10049e20     xpcruntime:xpcimports.obj
 0002:00007e30       ??_C@_0BL@PLIDKKGI@rl32eLineStatus?5not?5found?6?$AA@ 10049e30     xpcruntime:xpcimports.obj
 0002:00007e4c       ??_C@_0P@MDMKIJF@rl32eSendBlock?$AA@ 10049e4c     xpcruntime:xpcimports.obj
 0002:00007e5c       ??_C@_0BK@KNBNFIKH@rl32eSendBlock?5not?5found?6?$AA@ 10049e5c     xpcruntime:xpcimports.obj
 0002:00007e78       ??_C@_0BD@PCKOKHO@xpceGetSignalValue?$AA@ 10049e78     xpcruntime:xpcimports.obj
 0002:00007e8c       ??_C@_0BO@GCBDJHMB@xpceGetSignalValue?5not?5found?6?$AA@ 10049e8c     xpcruntime:xpcimports.obj
 0002:00007eac       ??_C@_0BB@BJONJAGA@xpceSetParameter?$AA@ 10049eac     xpcruntime:xpcimports.obj
 0002:00007ec0       ??_C@_0BM@BJIKDLHA@xpceSetParameter?5not?5found?6?$AA@ 10049ec0     xpcruntime:xpcimports.obj
 0002:00007edc       ??_C@_0BB@GNFDFMCM@xpceGetParameter?$AA@ 10049edc     xpcruntime:xpcimports.obj
 0002:00007ef0       ??_C@_0BM@POHNKBC@xpceGetParameter?5not?5found?6?$AA@ 10049ef0     xpcruntime:xpcimports.obj
 0002:00007f0c       ??_C@_0BB@CEIJLFCD@xpceGetParamDims?$AA@ 10049f0c     xpcruntime:xpcimports.obj
 0002:00007f20       ??_C@_0BM@OABDBKAO@xpceGetParamDims?5not?5found?6?$AA@ 10049f20     xpcruntime:xpcimports.obj
 0002:00007f3c       ??_C@_0L@OCBLLHBM@xpceGetTET?$AA@ 10049f3c     xpcruntime:xpcimports.obj
 0002:00007f48       ??_C@_0BG@HNOFBOB@xpceGetTET?5not?5found?6?$AA@ 10049f48     xpcruntime:xpcimports.obj
 0002:00007f60       ??_C@_0BA@FHMIOKFL@xpceUDPOpenSend?$AA@ 10049f60     xpcruntime:xpcimports.obj
 0002:00007f70       ??_C@_0BL@HNLPFEK@xpceUDPOpenSend?5not?5found?6?$AA@ 10049f70     xpcruntime:xpcimports.obj
 0002:00007f8c       ??_C@_0BD@BCELJJJL@xpceUDPOpenReceive?$AA@ 10049f8c     xpcruntime:xpcimports.obj
 0002:00007fa0       ??_C@_0BO@IFKJBHKC@xpceUDPOpenReceive?5not?5found?6?$AA@ 10049fa0     xpcruntime:xpcimports.obj
 0002:00007fc0       ??_C@_0M@OFPFLJGN@xpceUDPSend?$AA@ 10049fc0     xpcruntime:xpcimports.obj
 0002:00007fcc       ??_C@_0BH@NOIKLPAB@xpceUDPSend?5not?5found?6?$AA@ 10049fcc     xpcruntime:xpcimports.obj
 0002:00007fe4       ??_C@_0P@PLFDECIN@xpceUDPReceive?$AA@ 10049fe4     xpcruntime:xpcimports.obj
 0002:00007ff4       ??_C@_0BK@OPJMLDLH@xpceUDPReceive?5not?5found?6?$AA@ 10049ff4     xpcruntime:xpcimports.obj
 0002:00008010       ??_C@_0N@IEHPMFME@xpceUDPClose?$AA@ 1004a010     xpcruntime:xpcimports.obj
 0002:00008020       ??_C@_0BI@FHPFHECO@xpceUDPClose?5not?5found?6?$AA@ 1004a020     xpcruntime:xpcimports.obj
 0002:00008038       ??_C@_0P@OKGNGAGH@xpcIsModelInit?$AA@ 1004a038     xpcruntime:xpcimports.obj
 0002:00008048       ??_C@_0BK@DHEMLBIM@xpcIsModelInit?5not?5found?6?$AA@ 1004a048     xpcruntime:xpcimports.obj
 0002:00008064       ??_C@_0BH@KJJLCAOJ@xpcAllocPhysicalMemory?$AA@ 1004a064     xpcruntime:xpcimports.obj
 0002:0000807c       ??_C@_0CC@MOJPNHKL@xpcAllocPhysicalMemory?5not?5found@ 1004a07c     xpcruntime:xpcimports.obj
 0002:000080a0       ??_C@_0BG@CBNPGAEL@xpcFreePhysicalMemory?$AA@ 1004a0a0     xpcruntime:xpcimports.obj
 0002:000080b8       ??_C@_0CB@PKJEBPOG@xpcFreePhysicalMemory?5not?5found?6@ 1004a0b8     xpcruntime:xpcimports.obj
 0002:000080dc       ??_C@_0BC@JGKNLICL@xpcGetElapsedTime?$AA@ 1004a0dc     xpcruntime:xpcimports.obj
 0002:000080f0       ??_C@_0BN@OEOAHCIO@xpcGetElapsedTime?5not?5found?6?$AA@ 1004a0f0     xpcruntime:xpcimports.obj
 0002:00008110       ??_C@_0M@ICBLMODA@xpcBusyWait?$AA@ 1004a110     xpcruntime:xpcimports.obj
 0002:0000811c       ??_C@_0BH@FBOPECBI@xpcBusyWait?5not?5found?6?$AA@ 1004a11c     xpcruntime:xpcimports.obj
 0002:00008134       ??_C@_0N@LKKJEKKA@TBCreateSpin?$AA@ 1004a134     xpcruntime:xpcimports.obj
 0002:00008144       ??_C@_0BI@FHKMLKOE@TBCreateSpin?5not?5found?6?$AA@ 1004a144     xpcruntime:xpcimports.obj
 0002:0000815c       ??_C@_0N@HOAJHNBD@TBDeleteSpin?$AA@ 1004a15c     xpcruntime:xpcimports.obj
 0002:0000816c       ??_C@_0BI@BKCPAAG@TBDeleteSpin?5not?5found?6?$AA@ 1004a16c     xpcruntime:xpcimports.obj
 0002:00008184       ??_C@_0P@DAHDDBJG@TBTakeSpinFast?$AA@ 1004a184     xpcruntime:xpcimports.obj
 0002:00008194       ??_C@_0BK@NKAIBHGB@TBTakeSpinFast?5not?5found?6?$AA@ 1004a194     xpcruntime:xpcimports.obj
 0002:000081b0       ??_C@_0P@FKNAAELA@TBGiveSpinFast?$AA@ 1004a1b0     xpcruntime:xpcimports.obj
 0002:000081c0       ??_C@_0BK@KGPJBJND@TBGiveSpinFast?5not?5found?6?$AA@ 1004a1c0     xpcruntime:xpcimports.obj
 0002:000081dc       ??_C@_0BE@IIGBFDHK@xpceCreateSemaphore?$AA@ 1004a1dc     xpcruntime:xpcimports.obj
 0002:000081f0       ??_C@_0BP@KFBAFFKJ@xpceCreateSemaphore?5not?5found?6?$AA@ 1004a1f0     xpcruntime:xpcimports.obj
 0002:00008210       ??_C@_0BC@IFNIONKJ@xpceWaitSemaphore?$AA@ 1004a210     xpcruntime:xpcimports.obj
 0002:00008224       ??_C@_0BN@NMFAADIO@xpceWaitSemaphore?5not?5found?6?$AA@ 1004a224     xpcruntime:xpcimports.obj
 0002:00008244       ??_C@_0BE@NNDIOBKE@xpceSignalSemaphore?$AA@ 1004a244     xpcruntime:xpcimports.obj
 0002:00008258       ??_C@_0BP@LBANMHJP@xpceSignalSemaphore?5not?5found?6?$AA@ 1004a258     xpcruntime:xpcimports.obj
 0002:00008278       ??_C@_0BE@MEBEKOIM@xpceDeleteSemaphore?$AA@ 1004a278     xpcruntime:xpcimports.obj
 0002:0000828c       ??_C@_0BP@OFNCKOJH@xpceDeleteSemaphore?5not?5found?6?$AA@ 1004a28c     xpcruntime:xpcimports.obj
 0002:000082ac       ??_C@_0BD@MFNDMBOF@FindUsbVideoDevice?$AA@ 1004a2ac     xpcruntime:xpcimports.obj
 0002:000082c0       ??_C@_0BO@POKLDHMI@FindUsbVideoDevice?5not?5found?6?$AA@ 1004a2c0     xpcruntime:xpcimports.obj
 0002:000082e0       ??_C@_0BA@PLPAPNAB@GetVideoConfigs?$AA@ 1004a2e0     xpcruntime:xpcimports.obj
 0002:000082f0       ??_C@_0BL@DALDHKHC@GetVideoConfigs?5not?5found?6?$AA@ 1004a2f0     xpcruntime:xpcimports.obj
 0002:0000830c       ??_C@_0L@GBAEMHMH@StartVideo?$AA@ 1004a30c     xpcruntime:xpcimports.obj
 0002:00008318       ??_C@_0BG@HDCELEBP@StartVideo?5not?5found?6?$AA@ 1004a318     xpcruntime:xpcimports.obj
 0002:00008330       ??_C@_0BA@FDNPOCLN@ReadFrameBuffer?$AA@ 1004a330     xpcruntime:xpcimports.obj
 0002:00008340       ??_C@_0BL@JHGHPNBI@ReadFrameBuffer?5not?5found?6?$AA@ 1004a340     xpcruntime:xpcimports.obj
 0002:0000835c       ??_C@_09FAHCLKAG@StopVideo?$AA@ 1004a35c     xpcruntime:xpcimports.obj
 0002:00008368       ??_C@_0BF@NKGKKADL@StopVideo?5not?5found?6?$AA@ 1004a368     xpcruntime:xpcimports.obj
 0002:00008380       ??_C@_0O@MCPKDLLL@ConvertUImage?$AA@ 1004a380     xpcruntime:xpcimports.obj
 0002:00008390       ??_C@_0BJ@PHJKOAFL@ConvertUImage?5not?5found?6?$AA@ 1004a390     xpcruntime:xpcimports.obj
 0002:000083ac       ??_C@_0BD@NKCBPBJJ@CreateVideoDisplay?$AA@ 1004a3ac     xpcruntime:xpcimports.obj
 0002:000083c0       ??_C@_0BO@HPPLLNFP@CreateVideoDisplay?5not?5found?6?$AA@ 1004a3c0     xpcruntime:xpcimports.obj
 0002:000083e0       ??_C@_0BE@KJCKGPHA@DestroyVideoDisplay?$AA@ 1004a3e0     xpcruntime:xpcimports.obj
 0002:000083f4       ??_C@_0BP@FMGLJAIJ@DestroyVideoDisplay?5not?5found?6?$AA@ 1004a3f4     xpcruntime:xpcimports.obj
 0002:00008414       ??_C@_0BC@HCMIMIDN@StartVideoDisplay?$AA@ 1004a414     xpcruntime:xpcimports.obj
 0002:00008428       ??_C@_0BN@EFIEBGOO@StartVideoDisplay?5not?5found?6?$AA@ 1004a428     xpcruntime:xpcimports.obj
 0002:00008448       ??_C@_0BB@JBBLMILG@StopVideoDisplay?$AA@ 1004a448     xpcruntime:xpcimports.obj
 0002:0000845c       ??_C@_0BM@DBJBPLEL@StopVideoDisplay?5not?5found?6?$AA@ 1004a45c     xpcruntime:xpcimports.obj
 0002:00008478       ??_C@_0M@MFJEGMHC@StreamVideo?$AA@ 1004a478     xpcruntime:xpcimports.obj
 0002:00008484       ??_C@_0BH@OINCDMLA@StreamVideo?5not?5found?6?$AA@ 1004a484     xpcruntime:xpcimports.obj
 0002:0000849c       ??_C@_0N@IGGLCIGE@xpceaddEvent?$AA@ 1004a49c     xpcruntime:xpcimports.obj
 0002:000084ac       ??_C@_0BI@NHJNFMKH@xpceaddEvent?5not?5found?6?$AA@ 1004a4ac     xpcruntime:xpcimports.obj
 0002:000084c4       ??_C@_0BB@LCMHHHFN@getMemoryService?$AA@ 1004a4c4     xpcruntime:xpcimports.obj
 0002:000084d8       ??_C@_0BM@MPLCNIIE@getMemoryService?5not?5found?6?$AA@ 1004a4d8     xpcruntime:xpcimports.obj
 0002:000084f4       ??_C@_0P@KIKONDKK@getCommService?$AA@ 1004a4f4     xpcruntime:xpcimports.obj
 0002:00008504       ??_C@_0BK@NCECBKNM@getCommService?5not?5found?6?$AA@ 1004a504     xpcruntime:xpcimports.obj
 0002:00008520       ??_C@_0P@GDLHFECE@getStatusFlags?$AA@ 1004a520     xpcruntime:xpcimports.obj
 0002:00008530       ??_C@_0BK@NEKDLJHG@getStatusFlags?5not?5found?6?$AA@ 1004a530     xpcruntime:xpcimports.obj
 0002:0000854c       ??_C@_0BL@CDFCLKOL@startToAsyncQueueTgtAppSvc?$AA@ 1004a54c     xpcruntime:xpcimports.obj
 0002:00008568       ??_C@_0CG@JGOFFKEL@startToAsyncQueueTgtAppSvc?5not?5f@ 1004a568     xpcruntime:xpcimports.obj
 0002:00008590       ??_C@_0BP@IJNGPPPE@terminateToAsyncQueueTgtAppSvc?$AA@ 1004a590     xpcruntime:xpcimports.obj
 0002:000085b0       ??_C@_0CK@NDEMAMKF@terminateToAsyncQueueTgtAppSvc?5n@ 1004a5b0     xpcruntime:xpcimports.obj
 0002:000085dc       ??_C@_0BK@IDACEHAO@sendToAsyncQueueTgtAppSvc?$AA@ 1004a5dc     xpcruntime:xpcimports.obj
 0002:000085f8       ??_C@_0CF@PNCKPEHN@sendToAsyncQueueTgtAppSvc?5not?5fo@ 1004a5f8     xpcruntime:xpcimports.obj
 0002:00008620       ??_C@_0BN@HJOHIFOM@xpceGetIntTimerGranularityNS?$AA@ 1004a620     xpcruntime:xpcimports.obj
 0002:00008640       ??_C@_0CI@OADDPMKB@xpceGetIntTimerGranularityNS?5not@ 1004a640     xpcruntime:xpcimports.obj
 0002:00008668       ??_C@_0BG@CCHICKPN@slrteSetStepSizeDelta?$AA@ 1004a668     xpcruntime:xpcimports.obj
 0002:00008680       ??_C@_0CB@MKHINEIJ@slrteSetStepSizeDelta?5not?5found?6@ 1004a680     xpcruntime:xpcimports.obj
 0002:000086a4       ??_C@_0BI@CLNBLDKJ@slrteGetCurrentStepSize?$AA@ 1004a6a4     xpcruntime:xpcimports.obj
 0002:000086bc       ??_C@_0CD@GIOJPGJA@slrteGetCurrentStepSize?5not?5foun@ 1004a6bc     xpcruntime:xpcimports.obj
 0002:000086e0       ??_C@_0BE@FCLCBOC@registerPTPTimeRead?$AA@ 1004a6e0     xpcruntime:xpcimports.obj
 0002:000086f4       ??_C@_0BP@LHPKAJIP@registerPTPTimeRead?5not?5found?6?$AA@ 1004a6f4     xpcruntime:xpcimports.obj
 0002:00008714       ??_C@_0BG@KIGCDDJI@unRegisterPTPTimeRead?$AA@ 1004a714     xpcruntime:xpcimports.obj
 0002:0000872c       ??_C@_0CB@MLFFBFCM@unRegisterPTPTimeRead?5not?5found?6@ 1004a72c     xpcruntime:xpcimports.obj
 0002:00008750       ??_C@_0BB@IPMDDBHK@slTestInitialize?$AA@ 1004a750     xpcruntime:xpcimports.obj
 0002:00008764       ??_C@_0BM@LAJFCCJH@slTestInitialize?5not?5found?6?$AA@ 1004a764     xpcruntime:xpcimports.obj
 0002:00008780       ??_C@_0BF@OOMPMEBC@slTestLogAssessments?$AA@ 1004a780     xpcruntime:xpcimports.obj
 0002:00008798       ??_C@_0CA@FGJCEBAG@slTestLogAssessments?5not?5found?6?$AA@ 1004a798     xpcruntime:xpcimports.obj
 0002:000087b8       ??_C@_0BB@HJHKONHO@slTestEvalOnFail?$AA@ 1004a7b8     xpcruntime:xpcimports.obj
 0002:000087cc       ??_C@_0BM@JIKCFFNJ@slTestEvalOnFail?5not?5found?6?$AA@ 1004a7cc     xpcruntime:xpcimports.obj
 0002:000087e8       ??_C@_0BA@LBHLABFP@slTestTerminate?$AA@ 1004a7e8     xpcruntime:xpcimports.obj
 0002:000087f8       ??_C@_0BL@EMFGKAPA@slTestTerminate?5not?5found?6?$AA@ 1004a7f8     xpcruntime:xpcimports.obj
 0002:00008814       ??_C@_0BE@JPNPBBEO@slTestRegAssessment?$AA@ 1004a814     xpcruntime:xpcimports.obj
 0002:00008828       ??_C@_0BP@FBDEJJJH@slTestRegAssessment?5not?5found?6?$AA@ 1004a828     xpcruntime:xpcimports.obj
 0002:0000c678       __FPinit                   1004e678     LIBCMT:fpinit.obj
 0002:0000c684       ??_C@_1BI@BGOHAHKC@?$AAm?$AAs?$AAc?$AAo?$AAr?$AAe?$AAe?$AA?4?$AAd?$AAl?$AAl?$AA?$AA@ 1004e684     LIBCMT:crt0dat.obj
 0002:0000c69c       ??_C@_0P@MIGLKIOC@CorExitProcess?$AA@ 1004e69c     LIBCMT:crt0dat.obj
 0002:0000c734       ??_C@_17LGKOMLJ@?$AA?4?$AA?4?$AA?4?$AA?$AA@ 1004e734     LIBCMT:wassert.obj
 0002:0000c73c       ??_C@_13LBAGMAIH@?$AA?6?$AA?$AA@ 1004e73c     LIBCMT:wassert.obj
 0002:0000c740       ??_C@_15IABLJNFO@?$AA?6?$AA?6?$AA?$AA@ 1004e740     LIBCMT:wassert.obj
 0002:0000c748       ??_C@_1CE@OJBNHDMO@?$AAA?$AAs?$AAs?$AAe?$AAr?$AAt?$AAi?$AAo?$AAn?$AA?5?$AAf?$AAa?$AAi?$AAl?$AAe?$AAd?$AA?$CB?$AA?$AA@ 1004e748     LIBCMT:wassert.obj
 0002:0000c76c       ??_C@_1BE@PHKBBGE@?$AAP?$AAr?$AAo?$AAg?$AAr?$AAa?$AAm?$AA?3?$AA?5?$AA?$AA@ 1004e76c     LIBCMT:wassert.obj
 0002:0000c780       ??_C@_1CO@EAEJAADC@?$AA?$DM?$AAp?$AAr?$AAo?$AAg?$AAr?$AAa?$AAm?$AA?5?$AAn?$AAa?$AAm?$AAe?$AA?5?$AAu?$AAn?$AAk?$AAn?$AAo?$AAw?$AAn?$AA?$DO?$AA?$AA@ 1004e780     LIBCMT:wassert.obj
 0002:0000c7b0       ??_C@_1O@HEMHKNDC@?$AAF?$AAi?$AAl?$AAe?$AA?3?$AA?5?$AA?$AA@ 1004e7b0     LIBCMT:wassert.obj
 0002:0000c7c0       ??_C@_1O@KCAFKHJE@?$AAL?$AAi?$AAn?$AAe?$AA?3?$AA?5?$AA?$AA@ 1004e7c0     LIBCMT:wassert.obj
 0002:0000c7d0       ??_C@_1BK@PEDCIPMA@?$AAE?$AAx?$AAp?$AAr?$AAe?$AAs?$AAs?$AAi?$AAo?$AAn?$AA?3?$AA?5?$AA?$AA@ 1004e7d0     LIBCMT:wassert.obj
 0002:0000c7f0       ??_C@_1OA@EGMLFBHJ@?$AAF?$AAo?$AAr?$AA?5?$AAi?$AAn?$AAf?$AAo?$AAr?$AAm?$AAa?$AAt?$AAi?$AAo?$AAn?$AA?5?$AAo?$AAn?$AA?5?$AAh?$AAo?$AAw?$AA?5?$AAy?$AAo?$AAu?$AAr?$AA?5?$AAp?$AAr?$AAo?$AAg@ 1004e7f0     LIBCMT:wassert.obj
 0002:0000c8d0       ??_C@_1HK@POCJMFGK@?$AA?$CI?$AAP?$AAr?$AAe?$AAs?$AAs?$AA?5?$AAR?$AAe?$AAt?$AAr?$AAy?$AA?5?$AAt?$AAo?$AA?5?$AAd?$AAe?$AAb?$AAu?$AAg?$AA?5?$AAt?$AAh?$AAe?$AA?5?$AAa?$AAp?$AAp?$AAl?$AAi?$AAc@ 1004e8d0     LIBCMT:wassert.obj
 0002:0000c950       ??_C@_1EK@MBDPDCGA@?$AAM?$AAi?$AAc?$AAr?$AAo?$AAs?$AAo?$AAf?$AAt?$AA?5?$AAV?$AAi?$AAs?$AAu?$AAa?$AAl?$AA?5?$AAC?$AA?$CL?$AA?$CL?$AA?5?$AAR?$AAu?$AAn?$AAt?$AAi?$AAm?$AAe?$AA?5?$AAL?$AAi?$AAb@ 1004e950     LIBCMT:wassert.obj
 0002:0000c99c       __pRawDllMain              1004e99c     LIBCMT:dllcrt0.obj
 0002:0000c99c       __pDefaultRawDllMain       1004e99c     LIBCMT:dllcrt0.obj
 0002:0000c9a0       ?ProcessDetach@NativeDll@<CrtImplementationDetails>@@0IB 1004e9a0     LIBCMT:handler.obj
 0002:0000c9a4       ?ProcessAttach@NativeDll@<CrtImplementationDetails>@@0IB 1004e9a4     LIBCMT:handler.obj
 0002:0000c9a8       ?ThreadAttach@NativeDll@<CrtImplementationDetails>@@0IB 1004e9a8     LIBCMT:handler.obj
 0002:0000c9ac       ?ThreadDetach@NativeDll@<CrtImplementationDetails>@@0IB 1004e9ac     LIBCMT:handler.obj
 0002:0000c9b0       ?ProcessVerifier@NativeDll@<CrtImplementationDetails>@@0IB 1004e9b0     LIBCMT:handler.obj
 0002:0000ca70       ??_C@_1FK@PGACCAFB@?$AAR?$AA6?$AA0?$AA0?$AA2?$AA?$AN?$AA?6?$AA?9?$AA?5?$AAf?$AAl?$AAo?$AAa?$AAt?$AAi?$AAn?$AAg?$AA?5?$AAp?$AAo?$AAi?$AAn?$AAt?$AA?5?$AAs?$AAu?$AAp?$AAp?$AAo?$AAr?$AAt?$AA?5@ 1004ea70     LIBCMT:crt0msg.obj
 0002:0000cad0       ??_C@_1FE@LLNEDJMD@?$AAR?$AA6?$AA0?$AA0?$AA8?$AA?$AN?$AA?6?$AA?9?$AA?5?$AAn?$AAo?$AAt?$AA?5?$AAe?$AAn?$AAo?$AAu?$AAg?$AAh?$AA?5?$AAs?$AAp?$AAa?$AAc?$AAe?$AA?5?$AAf?$AAo?$AAr?$AA?5?$AAa?$AAr@ 1004ead0     LIBCMT:crt0msg.obj
 0002:0000cb28       ??_C@_1FI@HONFMGBI@?$AAR?$AA6?$AA0?$AA0?$AA9?$AA?$AN?$AA?6?$AA?9?$AA?5?$AAn?$AAo?$AAt?$AA?5?$AAe?$AAn?$AAo?$AAu?$AAg?$AAh?$AA?5?$AAs?$AAp?$AAa?$AAc?$AAe?$AA?5?$AAf?$AAo?$AAr?$AA?5?$AAe?$AAn@ 1004eb28     LIBCMT:crt0msg.obj
 0002:0000cb80       ??_C@_1EG@BEHAGFJD@?$AAR?$AA6?$AA0?$AA1?$AA0?$AA?$AN?$AA?6?$AA?9?$AA?5?$AAa?$AAb?$AAo?$AAr?$AAt?$AA?$CI?$AA?$CJ?$AA?5?$AAh?$AAa?$AAs?$AA?5?$AAb?$AAe?$AAe?$AAn?$AA?5?$AAc?$AAa?$AAl?$AAl?$AAe?$AAd@ 1004eb80     LIBCMT:crt0msg.obj
 0002:0000cbc8       ??_C@_1FI@LOGNIKDM@?$AAR?$AA6?$AA0?$AA1?$AA6?$AA?$AN?$AA?6?$AA?9?$AA?5?$AAn?$AAo?$AAt?$AA?5?$AAe?$AAn?$AAo?$AAu?$AAg?$AAh?$AA?5?$AAs?$AAp?$AAa?$AAc?$AAe?$AA?5?$AAf?$AAo?$AAr?$AA?5?$AAt?$AAh@ 1004ebc8     LIBCMT:crt0msg.obj
 0002:0000cc20       ??_C@_1FK@BEOGODMC@?$AAR?$AA6?$AA0?$AA1?$AA7?$AA?$AN?$AA?6?$AA?9?$AA?5?$AAu?$AAn?$AAe?$AAx?$AAp?$AAe?$AAc?$AAt?$AAe?$AAd?$AA?5?$AAm?$AAu?$AAl?$AAt?$AAi?$AAt?$AAh?$AAr?$AAe?$AAa?$AAd?$AA?5@ 1004ec20     LIBCMT:crt0msg.obj
 0002:0000cc80       ??_C@_1EC@JIBHAOPH@?$AAR?$AA6?$AA0?$AA1?$AA8?$AA?$AN?$AA?6?$AA?9?$AA?5?$AAu?$AAn?$AAe?$AAx?$AAp?$AAe?$AAc?$AAt?$AAe?$AAd?$AA?5?$AAh?$AAe?$AAa?$AAp?$AA?5?$AAe?$AAr?$AAr?$AAo?$AAr?$AA?$AN?$AA?6@ 1004ec80     LIBCMT:crt0msg.obj
 0002:0000ccc8       ??_C@_1FC@ECHBIFBC@?$AAR?$AA6?$AA0?$AA1?$AA9?$AA?$AN?$AA?6?$AA?9?$AA?5?$AAu?$AAn?$AAa?$AAb?$AAl?$AAe?$AA?5?$AAt?$AAo?$AA?5?$AAo?$AAp?$AAe?$AAn?$AA?5?$AAc?$AAo?$AAn?$AAs?$AAo?$AAl?$AAe?$AA?5@ 1004ecc8     LIBCMT:crt0msg.obj
 0002:0000cd20       ??_C@_1GK@FHCKBEFA@?$AAR?$AA6?$AA0?$AA2?$AA4?$AA?$AN?$AA?6?$AA?9?$AA?5?$AAn?$AAo?$AAt?$AA?5?$AAe?$AAn?$AAo?$AAu?$AAg?$AAh?$AA?5?$AAs?$AAp?$AAa?$AAc?$AAe?$AA?5?$AAf?$AAo?$AAr?$AA?5?$AA_?$AAo@ 1004ed20     LIBCMT:crt0msg.obj
 0002:0000cd90       ??_C@_1EM@MAADIHMB@?$AAR?$AA6?$AA0?$AA2?$AA5?$AA?$AN?$AA?6?$AA?9?$AA?5?$AAp?$AAu?$AAr?$AAe?$AA?5?$AAv?$AAi?$AAr?$AAt?$AAu?$AAa?$AAl?$AA?5?$AAf?$AAu?$AAn?$AAc?$AAt?$AAi?$AAo?$AAn?$AA?5?$AAc@ 1004ed90     LIBCMT:crt0msg.obj
 0002:0000cde0       ??_C@_1GK@MCAAGJMO@?$AAR?$AA6?$AA0?$AA2?$AA6?$AA?$AN?$AA?6?$AA?9?$AA?5?$AAn?$AAo?$AAt?$AA?5?$AAe?$AAn?$AAo?$AAu?$AAg?$AAh?$AA?5?$AAs?$AAp?$AAa?$AAc?$AAe?$AA?5?$AAf?$AAo?$AAr?$AA?5?$AAs?$AAt@ 1004ede0     LIBCMT:crt0msg.obj
 0002:0000ce50       ??_C@_1GK@MFGOKLAG@?$AAR?$AA6?$AA0?$AA2?$AA7?$AA?$AN?$AA?6?$AA?9?$AA?5?$AAn?$AAo?$AAt?$AA?5?$AAe?$AAn?$AAo?$AAu?$AAg?$AAh?$AA?5?$AAs?$AAp?$AAa?$AAc?$AAe?$AA?5?$AAf?$AAo?$AAr?$AA?5?$AAl?$AAo@ 1004ee50     LIBCMT:crt0msg.obj
 0002:0000cec0       ??_C@_1EK@HHFLMAOL@?$AAR?$AA6?$AA0?$AA2?$AA8?$AA?$AN?$AA?6?$AA?9?$AA?5?$AAu?$AAn?$AAa?$AAb?$AAl?$AAe?$AA?5?$AAt?$AAo?$AA?5?$AAi?$AAn?$AAi?$AAt?$AAi?$AAa?$AAl?$AAi?$AAz?$AAe?$AA?5?$AAh?$AAe@ 1004eec0     LIBCMT:crt0msg.obj
 0002:0000cf0c       ??_C@_1DO@BMFCDCD@?$AAR?$AA6?$AA0?$AA3?$AA0?$AA?$AN?$AA?6?$AA?9?$AA?5?$AAC?$AAR?$AAT?$AA?5?$AAn?$AAo?$AAt?$AA?5?$AAi?$AAn?$AAi?$AAt?$AAi?$AAa?$AAl?$AAi?$AAz?$AAe?$AAd?$AA?$AN?$AA?6?$AA?$AA@ 1004ef0c     LIBCMT:crt0msg.obj
 0002:0000cf50       ??_C@_1MG@ENCOOIDF@?$AAR?$AA6?$AA0?$AA3?$AA1?$AA?$AN?$AA?6?$AA?9?$AA?5?$AAA?$AAt?$AAt?$AAe?$AAm?$AAp?$AAt?$AA?5?$AAt?$AAo?$AA?5?$AAi?$AAn?$AAi?$AAt?$AAi?$AAa?$AAl?$AAi?$AAz?$AAe?$AA?5?$AAt@ 1004ef50     LIBCMT:crt0msg.obj
 0002:0000d018       ??_C@_1GG@GOPILAJP@?$AAR?$AA6?$AA0?$AA3?$AA2?$AA?$AN?$AA?6?$AA?9?$AA?5?$AAn?$AAo?$AAt?$AA?5?$AAe?$AAn?$AAo?$AAu?$AAg?$AAh?$AA?5?$AAs?$AAp?$AAa?$AAc?$AAe?$AA?5?$AAf?$AAo?$AAr?$AA?5?$AAl?$AAo@ 1004f018     LIBCMT:crt0msg.obj
 0002:0000d080       ??_C@_1BOO@KGEDBGAJ@?$AAR?$AA6?$AA0?$AA3?$AA3?$AA?$AN?$AA?6?$AA?9?$AA?5?$AAA?$AAt?$AAt?$AAe?$AAm?$AAp?$AAt?$AA?5?$AAt?$AAo?$AA?5?$AAu?$AAs?$AAe?$AA?5?$AAM?$AAS?$AAI?$AAL?$AA?5?$AAc?$AAo?$AAd@ 1004f080     LIBCMT:crt0msg.obj
 0002:0000d270       ??_C@_1GG@MKFPEKFO@?$AAR?$AA6?$AA0?$AA3?$AA4?$AA?$AN?$AA?6?$AA?9?$AA?5?$AAi?$AAn?$AAc?$AAo?$AAn?$AAs?$AAi?$AAs?$AAt?$AAe?$AAn?$AAt?$AA?5?$AAo?$AAn?$AAe?$AAx?$AAi?$AAt?$AA?5?$AAb?$AAe?$AAg@ 1004f270     LIBCMT:crt0msg.obj
 0002:0000d2d8       ??_C@_1BO@BFCDCGC@?$AAD?$AAO?$AAM?$AAA?$AAI?$AAN?$AA?5?$AAe?$AAr?$AAr?$AAo?$AAr?$AA?$AN?$AA?6?$AA?$AA@ 1004f2d8     LIBCMT:crt0msg.obj
 0002:0000d2f8       ??_C@_1BK@KMOMNAAI@?$AAS?$AAI?$AAN?$AAG?$AA?5?$AAe?$AAr?$AAr?$AAo?$AAr?$AA?$AN?$AA?6?$AA?$AA@ 1004f2f8     LIBCMT:crt0msg.obj
 0002:0000d314       ??_C@_1BM@JBBEPPHI@?$AAT?$AAL?$AAO?$AAS?$AAS?$AA?5?$AAe?$AAr?$AAr?$AAo?$AAr?$AA?$AN?$AA?6?$AA?$AA@ 1004f314     LIBCMT:crt0msg.obj
 0002:0000d330       ??_C@_15JNBOKNOG@?$AA?$AN?$AA?6?$AA?$AA@ 1004f330     LIBCMT:crt0msg.obj
 0002:0000d338       ??_C@_1BO@BKOMIGKJ@?$AAr?$AAu?$AAn?$AAt?$AAi?$AAm?$AAe?$AA?5?$AAe?$AAr?$AAr?$AAo?$AAr?$AA?5?$AA?$AA@ 1004f338     LIBCMT:crt0msg.obj
 0002:0000d358       ??_C@_1DE@JNGNBFGO@?$AAR?$AAu?$AAn?$AAt?$AAi?$AAm?$AAe?$AA?5?$AAE?$AAr?$AAr?$AAo?$AAr?$AA?$CB?$AA?6?$AA?6?$AAP?$AAr?$AAo?$AAg?$AAr?$AAa?$AAm?$AA?3?$AA?5?$AA?$AA@ 1004f358     LIBCMT:crt0msg.obj
 0002:0000d38c       ??_C@_06OJHGLDPL@?$CInull?$CJ?$AA@ 1004f38c     LIBCMT:output.obj
 0002:0000d394       ??_C@_1O@CEDCILHN@?$AA?$CI?$AAn?$AAu?$AAl?$AAl?$AA?$CJ?$AA?$AA@ 1004f394     LIBCMT:output.obj
 0002:0000d3a8       ___lookuptable             1004f3a8     LIBCMT:output.obj
 0002:0000d470       ??_C@_03MGHMBJCF@log?$AA@  1004f470     LIBCMT:libm_error.obj
 0002:0000d474       ??_C@_05HGHHAHAP@log10?$AA@ 1004f474     LIBCMT:libm_error.obj
 0002:0000d47c       ??_C@_03KHJOGHMM@exp?$AA@  1004f47c     LIBCMT:libm_error.obj
 0002:0000d480       ??_C@_03JGHBODFD@pow?$AA@  1004f480     LIBCMT:libm_error.obj
 0002:0000d484       ??_C@_04FIHNOPOL@asin?$AA@ 1004f484     LIBCMT:libm_error.obj
 0002:0000d48c       ??_C@_04PDIFKINK@acos?$AA@ 1004f48c     LIBCMT:libm_error.obj
 0002:0000d494       ??_C@_05EOHGHCHD@exp10?$AA@ 1004f494     LIBCMT:libm_error.obj
 0002:0000d49c       ??_C@_04MLLJIGOK@atan?$AA@ 1004f49c     LIBCMT:libm_error.obj
 0002:0000d4a4       ??_C@_04GFPJNGEK@ceil?$AA@ 1004f4a4     LIBCMT:libm_error.obj
 0002:0000d4ac       ??_C@_05PBJFFIGL@floor?$AA@ 1004f4ac     LIBCMT:libm_error.obj
 0002:0000d4b4       ??_C@_04EHEDPDJG@modf?$AA@ 1004f4b4     LIBCMT:libm_error.obj
 0002:0000d4bc       ??_C@_03BLEJJJBH@sin?$AA@  1004f4bc     LIBCMT:libm_error.obj
 0002:0000d4c0       ??_C@_03LALBNOCG@cos?$AA@  1004f4c0     LIBCMT:libm_error.obj
 0002:0000d4c4       ??_C@_03IIINPABG@tan?$AA@  1004f4c4     LIBCMT:libm_error.obj
 0002:0000d4c8       ??_C@_04EIAKFFMI@sqrt?$AA@ 1004f4c8     LIBCMT:libm_error.obj
 0002:0000d4d0       ??_C@_05KLBDPFGC@e?$CL000?$AA@ 1004f4d0     LIBCMT:cvt.obj
 0002:0000d4d8       ??_C@_1BK@MGMFAEKH@?$AAk?$AAe?$AAr?$AAn?$AAe?$AAl?$AA3?$AA2?$AA?4?$AAd?$AAl?$AAl?$AA?$AA@ 1004f4d8     LIBCMT:winapisupp.obj
 0002:0000d4f4       ??_C@_08KNHFBNJ@FlsAlloc?$AA@ 1004f4f4     LIBCMT:winapisupp.obj
 0002:0000d500       ??_C@_07PEJMOBNF@FlsFree?$AA@ 1004f500     LIBCMT:winapisupp.obj
 0002:0000d508       ??_C@_0M@GDNOONDI@FlsGetValue?$AA@ 1004f508     LIBCMT:winapisupp.obj
 0002:0000d514       ??_C@_0M@JCPCPOEF@FlsSetValue?$AA@ 1004f514     LIBCMT:winapisupp.obj
 0002:0000d520       ??_C@_0BM@HCFOFFN@InitializeCriticalSectionEx?$AA@ 1004f520     LIBCMT:winapisupp.obj
 0002:0000d53c       ??_C@_0P@DLHPPCNH@CreateEventExW?$AA@ 1004f53c     LIBCMT:winapisupp.obj
 0002:0000d54c       ??_C@_0BD@KIEEOEEH@CreateSemaphoreExW?$AA@ 1004f54c     LIBCMT:winapisupp.obj
 0002:0000d560       ??_C@_0BI@BKLFFAPO@SetThreadStackGuarantee?$AA@ 1004f560     LIBCMT:winapisupp.obj
 0002:0000d578       ??_C@_0BG@OGFAJCKC@CreateThreadpoolTimer?$AA@ 1004f578     LIBCMT:winapisupp.obj
 0002:0000d590       ??_C@_0BD@LPLEMMDI@SetThreadpoolTimer?$AA@ 1004f590     LIBCMT:winapisupp.obj
 0002:0000d5a4       ??_C@_0CA@FMNJENH@WaitForThreadpoolTimerCallbacks?$AA@ 1004f5a4     LIBCMT:winapisupp.obj
 0002:0000d5c4       ??_C@_0BF@DCFCCNOC@CloseThreadpoolTimer?$AA@ 1004f5c4     LIBCMT:winapisupp.obj
 0002:0000d5dc       ??_C@_0BF@FLABGKKM@CreateThreadpoolWait?$AA@ 1004f5dc     LIBCMT:winapisupp.obj
 0002:0000d5f4       ??_C@_0BC@MGCOHNA@SetThreadpoolWait?$AA@ 1004f5f4     LIBCMT:winapisupp.obj
 0002:0000d608       ??_C@_0BE@OCIOMIMP@CloseThreadpoolWait?$AA@ 1004f608     LIBCMT:winapisupp.obj
 0002:0000d61c       ??_C@_0BJ@LKGHFHBO@FlushProcessWriteBuffers?$AA@ 1004f61c     LIBCMT:winapisupp.obj
 0002:0000d638       ??_C@_0BP@KALKKPMO@FreeLibraryWhenCallbackReturns?$AA@ 1004f638     LIBCMT:winapisupp.obj
 0002:0000d658       ??_C@_0BK@DFNBACLA@GetCurrentProcessorNumber?$AA@ 1004f658     LIBCMT:winapisupp.obj
 0002:0000d674       ??_C@_0BP@KHGALBC@GetLogicalProcessorInformation?$AA@ 1004f674     LIBCMT:winapisupp.obj
 0002:0000d694       ??_C@_0BE@FKKLLFLM@CreateSymbolicLinkW?$AA@ 1004f694     LIBCMT:winapisupp.obj
 0002:0000d6a8       ??_C@_0BJ@OHNKDLIJ@SetDefaultDllDirectories?$AA@ 1004f6a8     LIBCMT:winapisupp.obj
 0002:0000d6c4       ??_C@_0BE@LJANKFHF@EnumSystemLocalesEx?$AA@ 1004f6c4     LIBCMT:winapisupp.obj
 0002:0000d6d8       ??_C@_0BA@IHGNDAEB@CompareStringEx?$AA@ 1004f6d8     LIBCMT:winapisupp.obj
 0002:0000d6e8       ??_C@_0BA@EPCJIIPD@GetDateFormatEx?$AA@ 1004f6e8     LIBCMT:winapisupp.obj
 0002:0000d6f8       ??_C@_0BA@ONOKGCMP@GetLocaleInfoEx?$AA@ 1004f6f8     LIBCMT:winapisupp.obj
 0002:0000d708       ??_C@_0BA@CIJJKCJJ@GetTimeFormatEx?$AA@ 1004f708     LIBCMT:winapisupp.obj
 0002:0000d718       ??_C@_0BJ@PBCCBIPI@GetUserDefaultLocaleName?$AA@ 1004f718     LIBCMT:winapisupp.obj
 0002:0000d734       ??_C@_0BC@CELBKLLA@IsValidLocaleName?$AA@ 1004f734     LIBCMT:winapisupp.obj
 0002:0000d748       ??_C@_0O@KKBNKAPF@LCMapStringEx?$AA@ 1004f748     LIBCMT:winapisupp.obj
 0002:0000d758       ??_C@_0BE@JOGNEJCI@GetCurrentPackageId?$AA@ 1004f758     LIBCMT:winapisupp.obj
 0002:0000d76c       ??_C@_0P@CDHHOHKP@GetTickCount64?$AA@ 1004f76c     LIBCMT:winapisupp.obj
 0002:0000d77c       ??_C@_0BO@KPCLFDJJ@GetFileInformationByHandleExW?$AA@ 1004f77c     LIBCMT:winapisupp.obj
 0002:0000d79c       ??_C@_0BM@MHIDLABK@SetFileInformationByHandleW?$AA@ 1004f79c     LIBCMT:winapisupp.obj
 0002:0000d7b8       ??_C@_1BK@GAEMIDIL@?$AAA?$AAD?$AAV?$AAA?$AAP?$AAI?$AA3?$AA2?$AA?4?$AAD?$AAL?$AAL?$AA?$AA@ 1004f7b8     LIBCMT:rand_s.obj
 0002:0000d7d4       ??_C@_0BC@JEAENNKH@SystemFunction036?$AA@ 1004f7d4     LIBCMT:rand_s.obj
 0002:0000d7f8       ??_C@_1M@HPNHIDJI@?$AAj?$AAa?$AA?9?$AAJ?$AAP?$AA?$AA@ 1004f7f8     LIBCMT:mbctype.obj
 0002:0000d804       ??_C@_1M@BIBDDEMK@?$AAz?$AAh?$AA?9?$AAC?$AAN?$AA?$AA@ 1004f804     LIBCMT:mbctype.obj
 0002:0000d810       ??_C@_1M@JLOOOEGK@?$AAk?$AAo?$AA?9?$AAK?$AAR?$AA?$AA@ 1004f810     LIBCMT:mbctype.obj
 0002:0000d81c       ??_C@_1M@CLNBBOPM@?$AAz?$AAh?$AA?9?$AAT?$AAW?$AA?$AA@ 1004f81c     LIBCMT:mbctype.obj
 0002:0000d848       ??_C@_04FJHINJAO@tanh?$AA@ 1004f848     LIBCMT:fpexcept.obj
 0002:0000d850       ??_C@_05KNGEOGJB@atan2?$AA@ 1004f850     LIBCMT:fpexcept.obj
 0002:0000d858       ??_C@_04ODHECPBC@fabs?$AA@ 1004f858     LIBCMT:fpexcept.obj
 0002:0000d860       ??_C@_05CEJMAHNP@ldexp?$AA@ 1004f860     LIBCMT:fpexcept.obj
 0002:0000d868       ??_C@_05KBKMEMPO@_cabs?$AA@ 1004f868     LIBCMT:fpexcept.obj
 0002:0000d870       ??_C@_06MEIMCGCF@_hypot?$AA@ 1004f870     LIBCMT:fpexcept.obj
 0002:0000d878       ??_C@_04KEPJIHGP@fmod?$AA@ 1004f878     LIBCMT:fpexcept.obj
 0002:0000d880       ??_C@_05GKKHEGJL@frexp?$AA@ 1004f880     LIBCMT:fpexcept.obj
 0002:0000d888       ??_C@_03MJLDFKDL@_y0?$AA@  1004f888     LIBCMT:fpexcept.obj
 0002:0000d88c       ??_C@_03NAKIGLHK@_y1?$AA@  1004f88c     LIBCMT:fpexcept.obj
 0002:0000d890       ??_C@_03ONILCKOB@_yn?$AA@  1004f890     LIBCMT:fpexcept.obj
 0002:0000d894       ??_C@_05JGDBENOH@_logb?$AA@ 1004f894     LIBCMT:fpexcept.obj
 0002:0000d89c       ??_C@_0L@KDOEJCKC@_nextafter?$AA@ 1004f89c     LIBCMT:fpexcept.obj
 0002:0000d8a8       ??_C@_04COOMCNPB@sinh?$AA@ 1004f8a8     LIBCMT:fpexcept.obj
 0002:0000d8b0       ??_C@_04HPJJNFIM@cosh?$AA@ 1004f8b0     LIBCMT:fpexcept.obj
 0002:0000d8b8       ??_C@_1BG@GOEBHBDC@?$AAU?$AAS?$AAE?$AAR?$AA3?$AA2?$AA?4?$AAD?$AAL?$AAL?$AA?$AA@ 1004f8b8     LIBCMT:crtmboxw.obj
 0002:0000d8d0       ??_C@_0M@DLDCCGNP@MessageBoxW?$AA@ 1004f8d0     LIBCMT:crtmboxw.obj
 0002:0000d8dc       ??_C@_0BA@HNOPNCHB@GetActiveWindow?$AA@ 1004f8dc     LIBCMT:crtmboxw.obj
 0002:0000d8ec       ??_C@_0BD@HHGDFDBJ@GetLastActivePopup?$AA@ 1004f8ec     LIBCMT:crtmboxw.obj
 0002:0000d900       ??_C@_0BK@DEKFELLI@GetUserObjectInformationW?$AA@ 1004f900     LIBCMT:crtmboxw.obj
 0002:0000d91c       ??_C@_0BI@DFKBFLJE@GetProcessWindowStation?$AA@ 1004f91c     LIBCMT:crtmboxw.obj
 0002:0000d938       __XcptActTab               1004f938     LIBCMT:winxfltr.obj
 0002:0000d9c8       __XcptActTabCount          1004f9c8     LIBCMT:winxfltr.obj
 0002:0000d9cc       __XcptActTabSize           1004f9cc     LIBCMT:winxfltr.obj
 0002:0000d9d0       __First_FPE_Indx           1004f9d0     LIBCMT:winxfltr.obj
 0002:0000d9d4       __Num_FPE                  1004f9d4     LIBCMT:winxfltr.obj
 0002:0000d9d8       ___lookuptable_s           1004f9d8     LIBCMT:outputs.obj
 0002:0000da34       ??_C@_03KOEHGMDN@Sun?$AA@  1004fa34     LIBCMT:nlsdata.obj
 0002:0000da38       ??_C@_03PDAGKDH@Mon?$AA@   1004fa38     LIBCMT:nlsdata.obj
 0002:0000da3c       ??_C@_03NAGEINEP@Tue?$AA@  1004fa3c     LIBCMT:nlsdata.obj
 0002:0000da40       ??_C@_03MHOMLAJA@Wed?$AA@  1004fa40     LIBCMT:nlsdata.obj
 0002:0000da44       ??_C@_03IOFIKPDN@Thu?$AA@  1004fa44     LIBCMT:nlsdata.obj
 0002:0000da48       ??_C@_03IDIOELNC@Fri?$AA@  1004fa48     LIBCMT:nlsdata.obj
 0002:0000da4c       ??_C@_03FEFJNEK@Sat?$AA@   1004fa4c     LIBCMT:nlsdata.obj
 0002:0000da50       ??_C@_06OOPIFAJ@Sunday?$AA@ 1004fa50     LIBCMT:nlsdata.obj
 0002:0000da58       ??_C@_06JLEDEDGH@Monday?$AA@ 1004fa58     LIBCMT:nlsdata.obj
 0002:0000da60       ??_C@_07BAAGCFCM@Tuesday?$AA@ 1004fa60     LIBCMT:nlsdata.obj
 0002:0000da68       ??_C@_09DLIGFAKA@Wednesday?$AA@ 1004fa68     LIBCMT:nlsdata.obj
 0002:0000da74       ??_C@_08HACCIKIA@Thursday?$AA@ 1004fa74     LIBCMT:nlsdata.obj
 0002:0000da80       ??_C@_06JECMNKMI@Friday?$AA@ 1004fa80     LIBCMT:nlsdata.obj
 0002:0000da88       ??_C@_08INBOOONO@Saturday?$AA@ 1004fa88     LIBCMT:nlsdata.obj
 0002:0000da94       ??_C@_03JIHJHPIE@Jan?$AA@  1004fa94     LIBCMT:nlsdata.obj
 0002:0000da98       ??_C@_03HJBDCHOM@Feb?$AA@  1004fa98     LIBCMT:nlsdata.obj
 0002:0000da9c       ??_C@_03ODNJBKGA@Mar?$AA@  1004fa9c     LIBCMT:nlsdata.obj
 0002:0000daa0       ??_C@_03LEOLGMJP@Apr?$AA@  1004faa0     LIBCMT:nlsdata.obj
 0002:0000daa4       ??_C@_03CNMDKL@May?$AA@    1004faa4     LIBCMT:nlsdata.obj
 0002:0000daa8       ??_C@_03IDFGHECI@Jun?$AA@  1004faa8     LIBCMT:nlsdata.obj
 0002:0000daac       ??_C@_03LBGABGKK@Jul?$AA@  1004faac     LIBCMT:nlsdata.obj
 0002:0000dab0       ??_C@_03IFJFEIGA@Aug?$AA@  1004fab0     LIBCMT:nlsdata.obj
 0002:0000dab4       ??_C@_03GGCAPAJC@Sep?$AA@  1004fab4     LIBCMT:nlsdata.obj
 0002:0000dab8       ??_C@_03BMAOKBAD@Oct?$AA@  1004fab8     LIBCMT:nlsdata.obj
 0002:0000dabc       ??_C@_03JPJOFNIA@Nov?$AA@  1004fabc     LIBCMT:nlsdata.obj
 0002:0000dac0       ??_C@_03MKABNOCG@Dec?$AA@  1004fac0     LIBCMT:nlsdata.obj
 0002:0000dac4       ??_C@_07CGJPFGJA@January?$AA@ 1004fac4     LIBCMT:nlsdata.obj
 0002:0000dacc       ??_C@_08GNJGEPFN@February?$AA@ 1004facc     LIBCMT:nlsdata.obj
 0002:0000dad8       ??_C@_05HPCKOFNC@March?$AA@ 1004fad8     LIBCMT:nlsdata.obj
 0002:0000dae0       ??_C@_05DMJDNLEJ@April?$AA@ 1004fae0     LIBCMT:nlsdata.obj
 0002:0000dae8       ??_C@_04CNLMGBGM@June?$AA@ 1004fae8     LIBCMT:nlsdata.obj
 0002:0000daf0       ??_C@_04MIEPOIFP@July?$AA@ 1004faf0     LIBCMT:nlsdata.obj
 0002:0000daf8       ??_C@_06LBBHFDDG@August?$AA@ 1004faf8     LIBCMT:nlsdata.obj
 0002:0000db00       ??_C@_09BHHEALKD@September?$AA@ 1004fb00     LIBCMT:nlsdata.obj
 0002:0000db0c       ??_C@_07JJNFCEND@October?$AA@ 1004fb0c     LIBCMT:nlsdata.obj
 0002:0000db14       ??_C@_08HCHEGEOA@November?$AA@ 1004fb14     LIBCMT:nlsdata.obj
 0002:0000db20       ??_C@_08EDHMEBNP@December?$AA@ 1004fb20     LIBCMT:nlsdata.obj
 0002:0000db2c       ??_C@_02DEDBPAFC@AM?$AA@   1004fb2c     LIBCMT:nlsdata.obj
 0002:0000db30       ??_C@_02CJNFDJBF@PM?$AA@   1004fb30     LIBCMT:nlsdata.obj
 0002:0000db34       ??_C@_08BPBNCDIB@MM?1dd?1yy?$AA@ 1004fb34     LIBCMT:nlsdata.obj
 0002:0000db40       ??_C@_0BE@CKGJFCPC@dddd?0?5MMMM?5dd?0?5yyyy?$AA@ 1004fb40     LIBCMT:nlsdata.obj
 0002:0000db54       ??_C@_08JCCMCCIL@HH?3mm?3ss?$AA@ 1004fb54     LIBCMT:nlsdata.obj
 0002:0000db60       ??_C@_17MBGCMIPB@?$AAS?$AAu?$AAn?$AA?$AA@ 1004fb60     LIBCMT:nlsdata.obj
 0002:0000db68       ??_C@_17KBOMKBF@?$AAM?$AAo?$AAn?$AA?$AA@ 1004fb68     LIBCMT:nlsdata.obj
 0002:0000db70       ??_C@_17BMKGEGOJ@?$AAT?$AAu?$AAe?$AA?$AA@ 1004fb70     LIBCMT:nlsdata.obj
 0002:0000db78       ??_C@_17CJEDCEPE@?$AAW?$AAe?$AAd?$AA?$AA@ 1004fb78     LIBCMT:nlsdata.obj
 0002:0000db80       ??_C@_17PDPHAADD@?$AAT?$AAh?$AAu?$AA?$AA@ 1004fb80     LIBCMT:nlsdata.obj
 0002:0000db88       ??_C@_17HFOLPPLP@?$AAF?$AAr?$AAi?$AA?$AA@ 1004fb88     LIBCMT:nlsdata.obj
 0002:0000db90       ??_C@_17GGIBDPIH@?$AAS?$AAa?$AAt?$AA?$AA@ 1004fb90     LIBCMT:nlsdata.obj
 0002:0000db98       ??_C@_1O@IHNHDHPB@?$AAS?$AAu?$AAn?$AAd?$AAa?$AAy?$AA?$AA@ 1004fb98     LIBCMT:nlsdata.obj
 0002:0000dba8       ??_C@_1O@MMNBFLIA@?$AAM?$AAo?$AAn?$AAd?$AAa?$AAy?$AA?$AA@ 1004fba8     LIBCMT:nlsdata.obj
 0002:0000dbb8       ??_C@_1BA@ENFBFFEK@?$AAT?$AAu?$AAe?$AAs?$AAd?$AAa?$AAy?$AA?$AA@ 1004fbb8     LIBCMT:nlsdata.obj
 0002:0000dbc8       ??_C@_1BE@EBOGMDOH@?$AAW?$AAe?$AAd?$AAn?$AAe?$AAs?$AAd?$AAa?$AAy?$AA?$AA@ 1004fbc8     LIBCMT:nlsdata.obj
 0002:0000dbdc       ??_C@_1BC@HHMNLIHE@?$AAT?$AAh?$AAu?$AAr?$AAs?$AAd?$AAa?$AAy?$AA?$AA@ 1004fbdc     LIBCMT:nlsdata.obj
 0002:0000dbf0       ??_C@_1O@PDICJHAG@?$AAF?$AAr?$AAi?$AAd?$AAa?$AAy?$AA?$AA@ 1004fbf0     LIBCMT:nlsdata.obj
 0002:0000dc00       ??_C@_1BC@ENMNNPAJ@?$AAS?$AAa?$AAt?$AAu?$AAr?$AAd?$AAa?$AAy?$AA?$AA@ 1004fc00     LIBCMT:nlsdata.obj
 0002:0000dc14       ??_C@_17DKNBKCHM@?$AAJ?$AAa?$AAn?$AA?$AA@ 1004fc14     LIBCMT:nlsdata.obj
 0002:0000dc1c       ??_C@_17LMDJEKJN@?$AAF?$AAe?$AAb?$AA?$AA@ 1004fc1c     LIBCMT:nlsdata.obj
 0002:0000dc24       ??_C@_17CKNLEDEC@?$AAM?$AAa?$AAr?$AA?$AA@ 1004fc24     LIBCMT:nlsdata.obj
 0002:0000dc2c       ??_C@_17LFPOIHDD@?$AAA?$AAp?$AAr?$AA?$AA@ 1004fc2c     LIBCMT:nlsdata.obj
 0002:0000dc34       ??_C@_17PNNKMEED@?$AAM?$AAa?$AAy?$AA?$AA@ 1004fc34     LIBCMT:nlsdata.obj
 0002:0000dc3c       ??_C@_17KCJGOCPB@?$AAJ?$AAu?$AAn?$AA?$AA@ 1004fc3c     LIBCMT:nlsdata.obj
 0002:0000dc44       ??_C@_17IJPCKHK@?$AAJ?$AAu?$AAl?$AA?$AA@ 1004fc44     LIBCMT:nlsdata.obj
 0002:0000dc4c       ??_C@_17ICPELBCN@?$AAA?$AAu?$AAg?$AA?$AA@ 1004fc4c     LIBCMT:nlsdata.obj
 0002:0000dc54       ??_C@_17HCHCOKMG@?$AAS?$AAe?$AAp?$AA?$AA@ 1004fc54     LIBCMT:nlsdata.obj
 0002:0000dc5c       ??_C@_17FNLKOI@?$AAO?$AAc?$AAt?$AA?$AA@ 1004fc5c     LIBCMT:nlsdata.obj
 0002:0000dc64       ??_C@_17BBDMLCIG@?$AAN?$AAo?$AAv?$AA?$AA@ 1004fc64     LIBCMT:nlsdata.obj
 0002:0000dc6c       ??_C@_17EGKACKIF@?$AAD?$AAe?$AAc?$AA?$AA@ 1004fc6c     LIBCMT:nlsdata.obj
 0002:0000dc74       ??_C@_1BA@EFMEIEBA@?$AAJ?$AAa?$AAn?$AAu?$AAa?$AAr?$AAy?$AA?$AA@ 1004fc74     LIBCMT:nlsdata.obj
 0002:0000dc84       ??_C@_1BC@JGDDFFAM@?$AAF?$AAe?$AAb?$AAr?$AAu?$AAa?$AAr?$AAy?$AA?$AA@ 1004fc84     LIBCMT:nlsdata.obj
 0002:0000dc98       ??_C@_1M@IKEENEDF@?$AAM?$AAa?$AAr?$AAc?$AAh?$AA?$AA@ 1004fc98     LIBCMT:nlsdata.obj
 0002:0000dca4       ??_C@_1M@GJNLMHFD@?$AAA?$AAp?$AAr?$AAi?$AAl?$AA?$AA@ 1004fca4     LIBCMT:nlsdata.obj
 0002:0000dcb0       ??_C@_19EPFLPGAP@?$AAJ?$AAu?$AAn?$AAe?$AA?$AA@ 1004fcb0     LIBCMT:nlsdata.obj
 0002:0000dcbc       ??_C@_19BIFMLPCD@?$AAJ?$AAu?$AAl?$AAy?$AA?$AA@ 1004fcbc     LIBCMT:nlsdata.obj
 0002:0000dcc8       ??_C@_1O@PAHLKOAC@?$AAA?$AAu?$AAg?$AAu?$AAs?$AAt?$AA?$AA@ 1004fcc8     LIBCMT:nlsdata.obj
 0002:0000dcd8       ??_C@_1BE@DKAAMBJL@?$AAS?$AAe?$AAp?$AAt?$AAe?$AAm?$AAb?$AAe?$AAr?$AA?$AA@ 1004fcd8     LIBCMT:nlsdata.obj
 0002:0000dcec       ??_C@_1BA@EPANDLNG@?$AAO?$AAc?$AAt?$AAo?$AAb?$AAe?$AAr?$AA?$AA@ 1004fcec     LIBCMT:nlsdata.obj
 0002:0000dcfc       ??_C@_1BC@BGLIFPF@?$AAN?$AAo?$AAv?$AAe?$AAm?$AAb?$AAe?$AAr?$AA?$AA@ 1004fcfc     LIBCMT:nlsdata.obj
 0002:0000dd10       ??_C@_1BC@FEMKIFH@?$AAD?$AAe?$AAc?$AAe?$AAm?$AAb?$AAe?$AAr?$AA?$AA@ 1004fd10     LIBCMT:nlsdata.obj
 0002:0000dd24       ??_C@_15ODEHAHHF@?$AAA?$AAM?$AA?$AA@ 1004fd24     LIBCMT:nlsdata.obj
 0002:0000dd2c       ??_C@_15CLMNNGEL@?$AAP?$AAM?$AA?$AA@ 1004fd2c     LIBCMT:nlsdata.obj
 0002:0000dd34       ??_C@_1BC@IEBCMHCM@?$AAM?$AAM?$AA?1?$AAd?$AAd?$AA?1?$AAy?$AAy?$AA?$AA@ 1004fd34     LIBCMT:nlsdata.obj
 0002:0000dd48       ??_C@_1CI@KNAKOEBC@?$AAd?$AAd?$AAd?$AAd?$AA?0?$AA?5?$AAM?$AAM?$AAM?$AAM?$AA?5?$AAd?$AAd?$AA?0?$AA?5?$AAy?$AAy?$AAy?$AAy?$AA?$AA@ 1004fd48     LIBCMT:nlsdata.obj
 0002:0000dd70       ??_C@_1BC@GDGBMEMK@?$AAH?$AAH?$AA?3?$AAm?$AAm?$AA?3?$AAs?$AAs?$AA?$AA@ 1004fd70     LIBCMT:nlsdata.obj
 0002:0000dd84       ??_C@_1M@BMHNFIME@?$AAe?$AAn?$AA?9?$AAU?$AAS?$AA?$AA@ 1004fd84     LIBCMT:nlsdata.obj
 0002:0000dd90       _LcidToLocaleNameTable     1004fd90     LIBCMT:winapinls.obj
 0002:0000e4b0       _LocaleNameToIndexTable    100504b0     LIBCMT:winapinls.obj
 0002:0000ebd0       ??_C@_15EMKDOKLE@?$AAa?$AAr?$AA?$AA@ 10050bd0     LIBCMT:winapinls.obj
 0002:0000ebd8       ??_C@_15KNPADPLH@?$AAb?$AAg?$AA?$AA@ 10050bd8     LIBCMT:winapinls.obj
 0002:0000ebe0       ??_C@_15EDMHLDMO@?$AAc?$AAa?$AA?$AA@ 10050be0     LIBCMT:winapinls.obj
 0002:0000ebe8       ??_C@_1O@BPEAJADD@?$AAz?$AAh?$AA?9?$AAC?$AAH?$AAS?$AA?$AA@ 10050be8     LIBCMT:winapinls.obj
 0002:0000ebf8       ??_C@_15LJNHCMNK@?$AAc?$AAs?$AA?$AA@ 10050bf8     LIBCMT:winapinls.obj
 0002:0000ec00       ??_C@_15FOMCIDHG@?$AAd?$AAa?$AA?$AA@ 10050c00     LIBCMT:winapinls.obj
 0002:0000ec08       ??_C@_15NBKABECB@?$AAd?$AAe?$AA?$AA@ 10050c08     LIBCMT:winapinls.obj
 0002:0000ec10       ??_C@_15GHPEIIAO@?$AAe?$AAl?$AA?$AA@ 10050c10     LIBCMT:winapinls.obj
 0002:0000ec18       ??_C@_15MNPNEAIF@?$AAe?$AAn?$AA?$AA@ 10050c18     LIBCMT:winapinls.obj
 0002:0000ec20       ??_C@_15GPIOMPMH@?$AAe?$AAs?$AA?$AA@ 10050c20     LIBCMT:winapinls.obj
 0002:0000ec28       ??_C@_15NGLOAKJC@?$AAf?$AAi?$AA?$AA@ 10050c28     LIBCMT:winapinls.obj
 0002:0000ec30       ??_C@_15FBKGNKAM@?$AAf?$AAr?$AA?$AA@ 10050c30     LIBCMT:winapinls.obj
 0002:0000ec38       ??_C@_15KGGCNEFK@?$AAh?$AAe?$AA?$AA@ 10050c38     LIBCMT:winapinls.obj
 0002:0000ec40       ??_C@_15PGHLIDMF@?$AAh?$AAu?$AA?$AA@ 10050c40     LIBCMT:winapinls.obj
 0002:0000ec48       ??_C@_15BIEMAPLM@?$AAi?$AAs?$AA?$AA@ 10050c48     LIBCMT:winapinls.obj
 0002:0000ec50       ??_C@_15IFJLDHAF@?$AAi?$AAt?$AA?$AA@ 10050c50     LIBCMT:winapinls.obj
 0002:0000ec58       ??_C@_15GEMIOCAG@?$AAj?$AAa?$AA?$AA@ 10050c58     LIBCMT:winapinls.obj
 0002:0000ec60       ??_C@_15EPELEGJA@?$AAk?$AAo?$AA?$AA@ 10050c60     LIBCMT:winapinls.obj
 0002:0000ec68       ??_C@_15NDDHIMN@?$AAn?$AAl?$AA?$AA@ 10050c68     LIBCMT:winapinls.obj
 0002:0000ec70       ??_C@_15BPIGNHCD@?$AAn?$AAo?$AA?$AA@ 10050c70     LIBCMT:winapinls.obj
 0002:0000ec78       ??_C@_15DEOPBLCG@?$AAp?$AAl?$AA?$AA@ 10050c78     LIBCMT:winapinls.obj
 0002:0000ec80       ??_C@_15KBECGEFG@?$AAp?$AAt?$AA?$AA@ 10050c80     LIBCMT:winapinls.obj
 0002:0000ec88       ??_C@_15GLJCBFMD@?$AAr?$AAo?$AA?$AA@ 10050c88     LIBCMT:winapinls.obj
 0002:0000ec90       ??_C@_15FEDGKCDI@?$AAr?$AAu?$AA?$AA@ 10050c90     LIBCMT:winapinls.obj
 0002:0000ec98       ??_C@_15GLKMLLHM@?$AAh?$AAr?$AA?$AA@ 10050c98     LIBCMT:winapinls.obj
 0002:0000eca0       ??_C@_15CPKMFBDB@?$AAs?$AAk?$AA?$AA@ 10050ca0     LIBCMT:winapinls.obj
 0002:0000eca8       ??_C@_15BAAIOGMK@?$AAs?$AAq?$AA?$AA@ 10050ca8     LIBCMT:winapinls.obj
 0002:0000ecb0       ??_C@_15INNPNOHD@?$AAs?$AAv?$AA?$AA@ 10050cb0     LIBCMT:winapinls.obj
 0002:0000ecb8       ??_C@_15CABMMOGH@?$AAt?$AAh?$AA?$AA@ 10050cb8     LIBCMT:winapinls.obj
 0002:0000ecc0       ??_C@_15BPLIHJJM@?$AAt?$AAr?$AA?$AA@ 10050cc0     LIBCMT:winapinls.obj
 0002:0000ecc8       ??_C@_15NEOEKKDJ@?$AAu?$AAr?$AA?$AA@ 10050cc8     LIBCMT:winapinls.obj
 0002:0000ecd0       ??_C@_15NFICGAJK@?$AAi?$AAd?$AA?$AA@ 10050cd0     LIBCMT:winapinls.obj
 0002:0000ecd8       ??_C@_15PJPFLCCM@?$AAu?$AAk?$AA?$AA@ 10050cd8     LIBCMT:winapinls.obj
 0002:0000ece0       ??_C@_15HPJPHDM@?$AAb?$AAe?$AA?$AA@ 10050ce0     LIBCMT:winapinls.obj
 0002:0000ece8       ??_C@_15LCHLGJII@?$AAs?$AAl?$AA?$AA@ 10050ce8     LIBCMT:winapinls.obj
 0002:0000ecf0       ??_C@_15PCFJPHHO@?$AAe?$AAt?$AA?$AA@ 10050cf0     LIBCMT:winapinls.obj
 0002:0000ecf8       ??_C@_15HPFPGODN@?$AAl?$AAv?$AA?$AA@ 10050cf8     LIBCMT:winapinls.obj
 0002:0000ed00       ??_C@_15NFFGKGLG@?$AAl?$AAt?$AA?$AA@ 10050d00     LIBCMT:winapinls.obj
 0002:0000ed08       ??_C@_15BDAKCCHN@?$AAf?$AAa?$AA?$AA@ 10050d08     LIBCMT:winapinls.obj
 0002:0000ed10       ??_C@_15NFGIAIAJ@?$AAv?$AAi?$AA?$AA@ 10050d10     LIBCMT:winapinls.obj
 0002:0000ed18       ??_C@_15LMKNDMHN@?$AAh?$AAy?$AA?$AA@ 10050d18     LIBCMT:winapinls.obj
 0002:0000ed20       ??_C@_15IJBHMCFL@?$AAa?$AAz?$AA?$AA@ 10050d20     LIBCMT:winapinls.obj
 0002:0000ed28       ??_C@_15EKOFJABL@?$AAe?$AAu?$AA?$AA@ 10050d28     LIBCMT:winapinls.obj
 0002:0000ed30       ??_C@_15BGHADCNK@?$AAm?$AAk?$AA?$AA@ 10050d30     LIBCMT:winapinls.obj
 0002:0000ed38       ??_C@_15JDNICKHM@?$AAa?$AAf?$AA?$AA@ 10050d38     LIBCMT:winapinls.obj
 0002:0000ed40       ??_C@_15KPJEDBKD@?$AAk?$AAa?$AA?$AA@ 10050d40     LIBCMT:winapinls.obj
 0002:0000ed48       ??_C@_15PDNFFFEO@?$AAf?$AAo?$AA?$AA@ 10050d48     LIBCMT:winapinls.obj
 0002:0000ed50       ??_C@_15OMLEGLOC@?$AAh?$AAi?$AA?$AA@ 10050d50     LIBCMT:winapinls.obj
 0002:0000ed58       ??_C@_15IDNNENKK@?$AAm?$AAs?$AA?$AA@ 10050d58     LIBCMT:winapinls.obj
 0002:0000ed60       ??_C@_15MACJNBMH@?$AAk?$AAk?$AA?$AA@ 10050d60     LIBCMT:winapinls.obj
 0002:0000ed68       ??_C@_15DKDJEOND@?$AAk?$AAy?$AA?$AA@ 10050d68     LIBCMT:winapinls.obj
 0002:0000ed70       ??_C@_15DFGDLJBG@?$AAs?$AAw?$AA?$AA@ 10050d70     LIBCMT:winapinls.obj
 0002:0000ed78       ??_C@_15BBFAICNG@?$AAu?$AAz?$AA?$AA@ 10050d78     LIBCMT:winapinls.obj
 0002:0000ed80       ??_C@_15DKNDCGEA@?$AAt?$AAt?$AA?$AA@ 10050d80     LIBCMT:winapinls.obj
 0002:0000ed88       ??_C@_15MGIFMDPL@?$AAp?$AAa?$AA?$AA@ 10050d88     LIBCMT:winapinls.obj
 0002:0000ed90       ??_C@_15HCNDBBA@?$AAg?$AAu?$AA?$AA@ 10050d90     LIBCMT:winapinls.obj
 0002:0000ed98       ??_C@_15FNBEIBON@?$AAt?$AAa?$AA?$AA@ 10050d98     LIBCMT:winapinls.obj
 0002:0000eda0       ??_C@_15NCHGBGLK@?$AAt?$AAe?$AA?$AA@ 10050da0     LIBCMT:winapinls.obj
 0002:0000eda8       ??_C@_15PHPHCBPF@?$AAk?$AAn?$AA?$AA@ 10050da8     LIBCMT:winapinls.obj
 0002:0000edb0       ??_C@_15DLGBCKMP@?$AAm?$AAr?$AA?$AA@ 10050db0     LIBCMT:winapinls.obj
 0002:0000edb8       ??_C@_15EABBLBFF@?$AAs?$AAa?$AA?$AA@ 10050db8     LIBCMT:winapinls.obj
 0002:0000edc0       ??_C@_15CBKOMCOI@?$AAm?$AAn?$AA?$AA@ 10050dc0     LIBCMT:winapinls.obj
 0002:0000edc8       ??_C@_15CKDMCJAF@?$AAg?$AAl?$AA?$AA@ 10050dc8     LIBCMT:winapinls.obj
 0002:0000edd0       ??_C@_17CNJFBPG@?$AAk?$AAo?$AAk?$AA?$AA@ 10050dd0     LIBCMT:winapinls.obj
 0002:0000edd8       ??_C@_17FFBJICPL@?$AAs?$AAy?$AAr?$AA?$AA@ 10050dd8     LIBCMT:winapinls.obj
 0002:0000ede0       ??_C@_17KPNDCPAF@?$AAd?$AAi?$AAv?$AA?$AA@ 10050de0     LIBCMT:winapinls.obj
 0002:0000ede8       ??_C@_11LOCGONAA@?$AA?$AA@ 10050de8     LIBCMT:winapinls.obj
 0002:0000edec       ??_C@_1M@OKAHONE@?$AAa?$AAr?$AA?9?$AAS?$AAA?$AA?$AA@ 10050dec     LIBCMT:winapinls.obj
 0002:0000edf8       ??_C@_1M@FFFIGIGK@?$AAb?$AAg?$AA?9?$AAB?$AAG?$AA?$AA@ 10050df8     LIBCMT:winapinls.obj
 0002:0000ee04       ??_C@_1M@BJNKEDC@?$AAc?$AAa?$AA?9?$AAE?$AAS?$AA?$AA@ 10050e04     LIBCMT:winapinls.obj
 0002:0000ee10       ??_C@_1M@IJJHFJHA@?$AAc?$AAs?$AA?9?$AAC?$AAZ?$AA?$AA@ 10050e10     LIBCMT:winapinls.obj
 0002:0000ee1c       ??_C@_1M@CLPEOBGI@?$AAd?$AAa?$AA?9?$AAD?$AAK?$AA?$AA@ 10050e1c     LIBCMT:winapinls.obj
 0002:0000ee28       ??_C@_1M@MCMADGCB@?$AAd?$AAe?$AA?9?$AAD?$AAE?$AA?$AA@ 10050e28     LIBCMT:winapinls.obj
 0002:0000ee34       ??_C@_1M@OOCKEMAM@?$AAe?$AAl?$AA?9?$AAG?$AAR?$AA?$AA@ 10050e34     LIBCMT:winapinls.obj
 0002:0000ee40       ??_C@_1M@DDNJFGID@?$AAf?$AAi?$AA?9?$AAF?$AAI?$AA?$AA@ 10050e40     LIBCMT:winapinls.obj
 0002:0000ee4c       ??_C@_1M@GLIPPMAC@?$AAf?$AAr?$AA?9?$AAF?$AAR?$AA?$AA@ 10050e4c     LIBCMT:winapinls.obj
 0002:0000ee58       ??_C@_1M@GFMCHPE@?$AAh?$AAe?$AA?9?$AAI?$AAL?$AA?$AA@ 10050e58     LIBCMT:winapinls.obj
 0002:0000ee64       ??_C@_1M@MHLPGNKM@?$AAh?$AAu?$AA?9?$AAH?$AAU?$AA?$AA@ 10050e64     LIBCMT:winapinls.obj
 0002:0000ee70       ??_C@_1M@LPDDNNPN@?$AAi?$AAs?$AA?9?$AAI?$AAS?$AA?$AA@ 10050e70     LIBCMT:winapinls.obj
 0002:0000ee7c       ??_C@_1M@MADIPODN@?$AAi?$AAt?$AA?9?$AAI?$AAT?$AA?$AA@ 10050e7c     LIBCMT:winapinls.obj
 0002:0000ee88       ??_C@_1M@IHBJJGG@?$AAn?$AAl?$AA?9?$AAN?$AAL?$AA?$AA@ 10050e88     LIBCMT:winapinls.obj
 0002:0000ee94       ??_C@_1M@EANAGDL@?$AAn?$AAb?$AA?9?$AAN?$AAO?$AA?$AA@ 10050e94     LIBCMT:winapinls.obj
 0002:0000eea0       ??_C@_1M@NEIEMEGP@?$AAp?$AAl?$AA?9?$AAP?$AAL?$AA?$AA@ 10050ea0     LIBCMT:winapinls.obj
 0002:0000eeac       ??_C@_1M@BOCFIGEP@?$AAp?$AAt?$AA?9?$AAB?$AAR?$AA?$AA@ 10050eac     LIBCMT:winapinls.obj
 0002:0000eeb8       ??_C@_1M@IMPFOPBG@?$AAr?$AAo?$AA?9?$AAR?$AAO?$AA?$AA@ 10050eb8     LIBCMT:winapinls.obj
 0002:0000eec4       ??_C@_1M@IDNNEJMM@?$AAr?$AAu?$AA?9?$AAR?$AAU?$AA?$AA@ 10050ec4     LIBCMT:winapinls.obj
 0002:0000eed0       ??_C@_1M@LILEEOGM@?$AAh?$AAr?$AA?9?$AAH?$AAR?$AA?$AA@ 10050ed0     LIBCMT:winapinls.obj
 0002:0000eedc       ??_C@_1M@FKIFEHPB@?$AAs?$AAk?$AA?9?$AAS?$AAK?$AA?$AA@ 10050edc     LIBCMT:winapinls.obj
 0002:0000eee8       ??_C@_1M@LJMAMNPJ@?$AAs?$AAq?$AA?9?$AAA?$AAL?$AA?$AA@ 10050ee8     LIBCMT:winapinls.obj
 0002:0000eef4       ??_C@_1M@GIAKDKJK@?$AAs?$AAv?$AA?9?$AAS?$AAE?$AA?$AA@ 10050ef4     LIBCMT:winapinls.obj
 0002:0000ef00       ??_C@_1M@MKJKIKCL@?$AAt?$AAh?$AA?9?$AAT?$AAH?$AA?$AA@ 10050f00     LIBCMT:winapinls.obj
 0002:0000ef0c       ??_C@_1M@MFLCCMPB@?$AAt?$AAr?$AA?9?$AAT?$AAR?$AA?$AA@ 10050f0c     LIBCMT:winapinls.obj
 0002:0000ef18       ??_C@_1M@OIJHDKJN@?$AAu?$AAr?$AA?9?$AAP?$AAK?$AA?$AA@ 10050f18     LIBCMT:winapinls.obj
 0002:0000ef24       ??_C@_1M@LHIPCIEK@?$AAi?$AAd?$AA?9?$AAI?$AAD?$AA?$AA@ 10050f24     LIBCMT:winapinls.obj
 0002:0000ef30       ??_C@_1M@MFMOBGI@?$AAu?$AAk?$AA?9?$AAU?$AAA?$AA?$AA@ 10050f30     LIBCMT:winapinls.obj
 0002:0000ef3c       ??_C@_1M@OBGLJIPL@?$AAb?$AAe?$AA?9?$AAB?$AAY?$AA?$AA@ 10050f3c     LIBCMT:winapinls.obj
 0002:0000ef48       ??_C@_1M@BCFAJEAD@?$AAs?$AAl?$AA?9?$AAS?$AAI?$AA?$AA@ 10050f48     LIBCMT:winapinls.obj
 0002:0000ef54       ??_C@_1M@FKFFEDDN@?$AAe?$AAt?$AA?9?$AAE?$AAE?$AA?$AA@ 10050f54     LIBCMT:winapinls.obj
 0002:0000ef60       ??_C@_1M@KGKKAACI@?$AAl?$AAv?$AA?9?$AAL?$AAV?$AA?$AA@ 10050f60     LIBCMT:winapinls.obj
 0002:0000ef6c       ??_C@_1M@IFGBIJO@?$AAl?$AAt?$AA?9?$AAL?$AAT?$AA?$AA@ 10050f6c     LIBCMT:winapinls.obj
 0002:0000ef78       ??_C@_1M@FGEAHEDM@?$AAf?$AAa?$AA?9?$AAI?$AAR?$AA?$AA@ 10050f78     LIBCMT:winapinls.obj
 0002:0000ef84       ??_C@_1M@KBMAIBFN@?$AAv?$AAi?$AA?9?$AAV?$AAN?$AA?$AA@ 10050f84     LIBCMT:winapinls.obj
 0002:0000ef90       ??_C@_1M@GPCBKDJK@?$AAh?$AAy?$AA?9?$AAA?$AAM?$AA?$AA@ 10050f90     LIBCMT:winapinls.obj
 0002:0000ef9c       ??_C@_1BG@BECMDDJB@?$AAa?$AAz?$AA?9?$AAA?$AAZ?$AA?9?$AAL?$AAa?$AAt?$AAn?$AA?$AA@ 10050f9c     LIBCMT:winapinls.obj
 0002:0000efb4       ??_C@_1M@MAOFCAEA@?$AAe?$AAu?$AA?9?$AAE?$AAS?$AA?$AA@ 10050fb4     LIBCMT:winapinls.obj
 0002:0000efc0       ??_C@_1M@IGHABKPI@?$AAm?$AAk?$AA?9?$AAM?$AAK?$AA?$AA@ 10050fc0     LIBCMT:winapinls.obj
 0002:0000efcc       ??_C@_1M@IAIGNEJG@?$AAt?$AAn?$AA?9?$AAZ?$AAA?$AA?$AA@ 10050fcc     LIBCMT:winapinls.obj
 0002:0000efd8       ??_C@_1M@IIJCOJFA@?$AAx?$AAh?$AA?9?$AAZ?$AAA?$AA?$AA@ 10050fd8     LIBCMT:winapinls.obj
 0002:0000efe4       ??_C@_1M@LGPJHNJH@?$AAz?$AAu?$AA?9?$AAZ?$AAA?$AA?$AA@ 10050fe4     LIBCMT:winapinls.obj
 0002:0000eff0       ??_C@_1M@HOKAOIO@?$AAa?$AAf?$AA?9?$AAZ?$AAA?$AA?$AA@ 10050ff0     LIBCMT:winapinls.obj
 0002:0000effc       ??_C@_1M@DPCLHLIE@?$AAk?$AAa?$AA?9?$AAG?$AAE?$AA?$AA@ 10050ffc     LIBCMT:winapinls.obj
 0002:0000f008       ??_C@_1M@BLKMHJBI@?$AAf?$AAo?$AA?9?$AAF?$AAO?$AA?$AA@ 10051008     LIBCMT:winapinls.obj
 0002:0000f014       ??_C@_1M@LGGJAPPB@?$AAh?$AAi?$AA?9?$AAI?$AAN?$AA?$AA@ 10051014     LIBCMT:winapinls.obj
 0002:0000f020       ??_C@_1M@FIKPIHFE@?$AAm?$AAt?$AA?9?$AAM?$AAT?$AA?$AA@ 10051020     LIBCMT:winapinls.obj
 0002:0000f02c       ??_C@_1M@HEGGPBFA@?$AAs?$AAe?$AA?9?$AAN?$AAO?$AA?$AA@ 1005102c     LIBCMT:winapinls.obj
 0002:0000f038       ??_C@_1M@EIBJEEPA@?$AAm?$AAs?$AA?9?$AAM?$AAY?$AA?$AA@ 10051038     LIBCMT:winapinls.obj
 0002:0000f044       ??_C@_1M@FHLBGMPP@?$AAk?$AAk?$AA?9?$AAK?$AAZ?$AA?$AA@ 10051044     LIBCMT:winapinls.obj
 0002:0000f050       ??_C@_1M@NGJJLCGI@?$AAk?$AAy?$AA?9?$AAK?$AAG?$AA?$AA@ 10051050     LIBCMT:winapinls.obj
 0002:0000f05c       ??_C@_1M@GIENNBFC@?$AAs?$AAw?$AA?9?$AAK?$AAE?$AA?$AA@ 1005105c     LIBCMT:winapinls.obj
 0002:0000f068       ??_C@_1BG@NDGMJIMJ@?$AAu?$AAz?$AA?9?$AAU?$AAZ?$AA?9?$AAL?$AAa?$AAt?$AAn?$AA?$AA@ 10051068     LIBCMT:winapinls.obj
 0002:0000f080       ??_C@_1M@IDCCIHBC@?$AAt?$AAt?$AA?9?$AAR?$AAU?$AA?$AA@ 10051080     LIBCMT:winapinls.obj
 0002:0000f08c       ??_C@_1M@LOICPMOJ@?$AAb?$AAn?$AA?9?$AAI?$AAN?$AA?$AA@ 1005108c     LIBCMT:winapinls.obj
 0002:0000f098       ??_C@_1M@KPKKNEAH@?$AAp?$AAa?$AA?9?$AAI?$AAN?$AA?$AA@ 10051098     LIBCMT:winapinls.obj
 0002:0000f0a4       ??_C@_1M@PJGPPBOG@?$AAg?$AAu?$AA?9?$AAI?$AAN?$AA?$AA@ 100510a4     LIBCMT:winapinls.obj
 0002:0000f0b0       ??_C@_1M@KMKMOPHI@?$AAt?$AAa?$AA?9?$AAI?$AAN?$AA?$AA@ 100510b0     LIBCMT:winapinls.obj
 0002:0000f0bc       ??_C@_1M@KFEHEPAC@?$AAt?$AAe?$AA?9?$AAI?$AAN?$AA?$AA@ 100510bc     LIBCMT:winapinls.obj
 0002:0000f0c8       ??_C@_1M@CDCLMGHI@?$AAk?$AAn?$AA?9?$AAI?$AAN?$AA?$AA@ 100510c8     LIBCMT:winapinls.obj
 0002:0000f0d4       ??_C@_1M@MIODLDKF@?$AAm?$AAl?$AA?9?$AAI?$AAN?$AA?$AA@ 100510d4     LIBCMT:winapinls.obj
 0002:0000f0e0       ??_C@_1M@PBIEACPO@?$AAm?$AAr?$AA?9?$AAI?$AAN?$AA?$AA@ 100510e0     LIBCMT:winapinls.obj
 0002:0000f0ec       ??_C@_1M@NIDEAGPH@?$AAs?$AAa?$AA?9?$AAI?$AAN?$AA?$AA@ 100510ec     LIBCMT:winapinls.obj
 0002:0000f0f8       ??_C@_1M@FHIHCBIO@?$AAm?$AAn?$AA?9?$AAM?$AAN?$AA?$AA@ 100510f8     LIBCMT:winapinls.obj
 0002:0000f104       ??_C@_1M@JAIJPENP@?$AAc?$AAy?$AA?9?$AAG?$AAB?$AA?$AA@ 10051104     LIBCMT:winapinls.obj
 0002:0000f110       ??_C@_1M@PHGFBEPN@?$AAg?$AAl?$AA?9?$AAE?$AAS?$AA?$AA@ 10051110     LIBCMT:winapinls.obj
 0002:0000f11c       ??_C@_1O@KPIPDNCP@?$AAk?$AAo?$AAk?$AA?9?$AAI?$AAN?$AA?$AA@ 1005111c     LIBCMT:winapinls.obj
 0002:0000f12c       ??_C@_1O@KNHJLDJA@?$AAs?$AAy?$AAr?$AA?9?$AAS?$AAY?$AA?$AA@ 1005112c     LIBCMT:winapinls.obj
 0002:0000f13c       ??_C@_1O@MKEKBLAH@?$AAd?$AAi?$AAv?$AA?9?$AAM?$AAV?$AA?$AA@ 1005113c     LIBCMT:winapinls.obj
 0002:0000f14c       ??_C@_1O@OHDCKDDF@?$AAq?$AAu?$AAz?$AA?9?$AAB?$AAO?$AA?$AA@ 1005114c     LIBCMT:winapinls.obj
 0002:0000f15c       ??_C@_1M@LEPJNLFD@?$AAn?$AAs?$AA?9?$AAZ?$AAA?$AA?$AA@ 1005115c     LIBCMT:winapinls.obj
 0002:0000f168       ??_C@_1M@OMLEIIJB@?$AAm?$AAi?$AA?9?$AAN?$AAZ?$AA?$AA@ 10051168     LIBCMT:winapinls.obj
 0002:0000f174       ??_C@_1M@PMPEAILG@?$AAa?$AAr?$AA?9?$AAI?$AAQ?$AA?$AA@ 10051174     LIBCMT:winapinls.obj
 0002:0000f180       ??_C@_1M@CNKPNOEE@?$AAd?$AAe?$AA?9?$AAC?$AAH?$AA?$AA@ 10051180     LIBCMT:winapinls.obj
 0002:0000f18c       ??_C@_1M@LKMGMLKO@?$AAe?$AAn?$AA?9?$AAG?$AAB?$AA?$AA@ 1005118c     LIBCMT:winapinls.obj
 0002:0000f198       ??_C@_1M@PGKJFFGL@?$AAe?$AAs?$AA?9?$AAM?$AAX?$AA?$AA@ 10051198     LIBCMT:winapinls.obj
 0002:0000f1a4       ??_C@_1M@DNNANBDC@?$AAf?$AAr?$AA?9?$AAB?$AAE?$AA?$AA@ 100511a4     LIBCMT:winapinls.obj
 0002:0000f1b0       ??_C@_1M@HLGMDFHM@?$AAi?$AAt?$AA?9?$AAC?$AAH?$AA?$AA@ 100511b0     LIBCMT:winapinls.obj
 0002:0000f1bc       ??_C@_1M@CLLBGJH@?$AAn?$AAl?$AA?9?$AAB?$AAE?$AA?$AA@ 100511bc     LIBCMT:winapinls.obj
 0002:0000f1c8       ??_C@_1M@BODBOGLF@?$AAn?$AAn?$AA?9?$AAN?$AAO?$AA?$AA@ 100511c8     LIBCMT:winapinls.obj
 0002:0000f1d4       ??_C@_1M@HFFAHKAD@?$AAp?$AAt?$AA?9?$AAP?$AAT?$AA?$AA@ 100511d4     LIBCMT:winapinls.obj
 0002:0000f1e0       ??_C@_1BG@LNOAKHIE@?$AAs?$AAr?$AA?9?$AAS?$AAP?$AA?9?$AAL?$AAa?$AAt?$AAn?$AA?$AA@ 100511e0     LIBCMT:winapinls.obj
 0002:0000f1f8       ??_C@_1M@HBMHBGAK@?$AAs?$AAv?$AA?9?$AAF?$AAI?$AA?$AA@ 100511f8     LIBCMT:winapinls.obj
 0002:0000f204       ??_C@_1BG@DGCJGJBE@?$AAa?$AAz?$AA?9?$AAA?$AAZ?$AA?9?$AAC?$AAy?$AAr?$AAl?$AA?$AA@ 10051204     LIBCMT:winapinls.obj
 0002:0000f21c       ??_C@_1M@KEJDAAHB@?$AAs?$AAe?$AA?9?$AAS?$AAE?$AA?$AA@ 1005121c     LIBCMT:winapinls.obj
 0002:0000f228       ??_C@_1M@HEIBJJAD@?$AAm?$AAs?$AA?9?$AAB?$AAN?$AA?$AA@ 10051228     LIBCMT:winapinls.obj
 0002:0000f234       ??_C@_1BG@PBGJMCEM@?$AAu?$AAz?$AA?9?$AAU?$AAZ?$AA?9?$AAC?$AAy?$AAr?$AAl?$AA?$AA@ 10051234     LIBCMT:winapinls.obj
 0002:0000f24c       ??_C@_1O@LAOBCMDF@?$AAq?$AAu?$AAz?$AA?9?$AAE?$AAC?$AA?$AA@ 1005124c     LIBCMT:winapinls.obj
 0002:0000f25c       ??_C@_1M@POEEMAIO@?$AAa?$AAr?$AA?9?$AAE?$AAG?$AA?$AA@ 1005125c     LIBCMT:winapinls.obj
 0002:0000f268       ??_C@_1M@EFAKDEDL@?$AAz?$AAh?$AA?9?$AAH?$AAK?$AA?$AA@ 10051268     LIBCMT:winapinls.obj
 0002:0000f274       ??_C@_1M@HKKIJHGI@?$AAd?$AAe?$AA?9?$AAA?$AAT?$AA?$AA@ 10051274     LIBCMT:winapinls.obj
 0002:0000f280       ??_C@_1M@KBFBEHJF@?$AAe?$AAn?$AA?9?$AAA?$AAU?$AA?$AA@ 10051280     LIBCMT:winapinls.obj
 0002:0000f28c       ??_C@_1M@MNPLFAAH@?$AAe?$AAs?$AA?9?$AAE?$AAS?$AA?$AA@ 1005128c     LIBCMT:winapinls.obj
 0002:0000f298       ??_C@_1M@HJOOJFMA@?$AAf?$AAr?$AA?9?$AAC?$AAA?$AA?$AA@ 10051298     LIBCMT:winapinls.obj
 0002:0000f2a4       ??_C@_1BG@JPOFPNAB@?$AAs?$AAr?$AA?9?$AAS?$AAP?$AA?9?$AAC?$AAy?$AAr?$AAl?$AA?$AA@ 100512a4     LIBCMT:winapinls.obj
 0002:0000f2bc       ??_C@_1M@LNFOCMOB@?$AAs?$AAe?$AA?9?$AAF?$AAI?$AA?$AA@ 100512bc     LIBCMT:winapinls.obj
 0002:0000f2c8       ??_C@_1O@MGJBOAMB@?$AAq?$AAu?$AAz?$AA?9?$AAP?$AAE?$AA?$AA@ 100512c8     LIBCMT:winapinls.obj
 0002:0000f2d8       ??_C@_1M@GJINLBOK@?$AAa?$AAr?$AA?9?$AAL?$AAY?$AA?$AA@ 100512d8     LIBCMT:winapinls.obj
 0002:0000f2e4       ??_C@_1M@GGMNHJNL@?$AAz?$AAh?$AA?9?$AAS?$AAG?$AA?$AA@ 100512e4     LIBCMT:winapinls.obj
 0002:0000f2f0       ??_C@_1M@HOIKODND@?$AAd?$AAe?$AA?9?$AAL?$AAU?$AA?$AA@ 100512f0     LIBCMT:winapinls.obj
 0002:0000f2fc       ??_C@_1M@DDOCCGFG@?$AAe?$AAn?$AA?9?$AAC?$AAA?$AA?$AA@ 100512fc     LIBCMT:winapinls.obj
 0002:0000f308       ??_C@_1M@BNOEMJLF@?$AAe?$AAs?$AA?9?$AAG?$AAT?$AA?$AA@ 10051308     LIBCMT:winapinls.obj
 0002:0000f314       ??_C@_1M@EOGNKEK@?$AAf?$AAr?$AA?9?$AAC?$AAH?$AA?$AA@ 10051314     LIBCMT:winapinls.obj
 0002:0000f320       ??_C@_1M@FLIDJFHL@?$AAh?$AAr?$AA?9?$AAB?$AAA?$AA?$AA@ 10051320     LIBCMT:winapinls.obj
 0002:0000f32c       ??_C@_1O@FMCELNAJ@?$AAs?$AAm?$AAj?$AA?9?$AAN?$AAO?$AA?$AA@ 1005132c     LIBCMT:winapinls.obj
 0002:0000f33c       ??_C@_1M@JHGLJMGJ@?$AAa?$AAr?$AA?9?$AAD?$AAZ?$AA?$AA@ 1005133c     LIBCMT:winapinls.obj
 0002:0000f348       ??_C@_1M@JKKFDCNP@?$AAz?$AAh?$AA?9?$AAM?$AAO?$AA?$AA@ 10051348     LIBCMT:winapinls.obj
 0002:0000f354       ??_C@_1M@GEEFALPE@?$AAd?$AAe?$AA?9?$AAL?$AAI?$AA?$AA@ 10051354     LIBCMT:winapinls.obj
 0002:0000f360       ??_C@_1M@IGEOFBG@?$AAe?$AAn?$AA?9?$AAN?$AAZ?$AA?$AA@ 10051360     LIBCMT:winapinls.obj
 0002:0000f36c       ??_C@_1M@KDBONEHP@?$AAe?$AAs?$AA?9?$AAC?$AAR?$AA?$AA@ 1005136c     LIBCMT:winapinls.obj
 0002:0000f378       ??_C@_1M@FHMDOHNN@?$AAf?$AAr?$AA?9?$AAL?$AAU?$AA?$AA@ 10051378     LIBCMT:winapinls.obj
 0002:0000f384       ??_C@_1BG@NFKKMAFG@?$AAb?$AAs?$AA?9?$AAB?$AAA?$AA?9?$AAL?$AAa?$AAt?$AAn?$AA?$AA@ 10051384     LIBCMT:winapinls.obj
 0002:0000f39c       ??_C@_1O@IMNBEMCI@?$AAs?$AAm?$AAj?$AA?9?$AAS?$AAE?$AA?$AA@ 1005139c     LIBCMT:winapinls.obj
 0002:0000f3ac       ??_C@_1M@DHHMBNDP@?$AAa?$AAr?$AA?9?$AAM?$AAA?$AA?$AA@ 100513ac     LIBCMT:winapinls.obj
 0002:0000f3b8       ??_C@_1M@BNBLJCGH@?$AAe?$AAn?$AA?9?$AAI?$AAE?$AA?$AA@ 100513b8     LIBCMT:winapinls.obj
 0002:0000f3c4       ??_C@_1M@GEPAFMDL@?$AAe?$AAs?$AA?9?$AAP?$AAA?$AA?$AA@ 100513c4     LIBCMT:winapinls.obj
 0002:0000f3d0       ??_C@_1M@OJONDMDL@?$AAf?$AAr?$AA?9?$AAM?$AAC?$AA?$AA@ 100513d0     LIBCMT:winapinls.obj
 0002:0000f3dc       ??_C@_1BG@OBCNFJB@?$AAs?$AAr?$AA?9?$AAB?$AAA?$AA?9?$AAL?$AAa?$AAt?$AAn?$AA?$AA@ 100513dc     LIBCMT:winapinls.obj
 0002:0000f3f4       ??_C@_1O@KEMEEGPO@?$AAs?$AAm?$AAa?$AA?9?$AAN?$AAO?$AA?$AA@ 100513f4     LIBCMT:winapinls.obj
 0002:0000f404       ??_C@_1M@ELMGFODK@?$AAa?$AAr?$AA?9?$AAT?$AAN?$AA?$AA@ 10051404     LIBCMT:winapinls.obj
 0002:0000f410       ??_C@_1M@BHDLHFAF@?$AAe?$AAn?$AA?9?$AAZ?$AAA?$AA?$AA@ 10051410     LIBCMT:winapinls.obj
 0002:0000f41c       ??_C@_1M@BMGIGLIF@?$AAe?$AAs?$AA?9?$AAD?$AAO?$AA?$AA@ 1005141c     LIBCMT:winapinls.obj
 0002:0000f428       ??_C@_1BG@CMBHIPBE@?$AAs?$AAr?$AA?9?$AAB?$AAA?$AA?9?$AAC?$AAy?$AAr?$AAl?$AA?$AA@ 10051428     LIBCMT:winapinls.obj
 0002:0000f440       ??_C@_1O@HEDBLHNP@?$AAs?$AAm?$AAa?$AA?9?$AAS?$AAE?$AA?$AA@ 10051440     LIBCMT:winapinls.obj
 0002:0000f450       ??_C@_1M@DAGCADIM@?$AAa?$AAr?$AA?9?$AAO?$AAM?$AA?$AA@ 10051450     LIBCMT:winapinls.obj
 0002:0000f45c       ??_C@_1M@FODLMICG@?$AAe?$AAn?$AA?9?$AAJ?$AAM?$AA?$AA@ 1005145c     LIBCMT:winapinls.obj
 0002:0000f468       ??_C@_1M@DNMLCIHB@?$AAe?$AAs?$AA?9?$AAV?$AAE?$AA?$AA@ 10051468     LIBCMT:winapinls.obj
 0002:0000f474       ??_C@_1O@EOKHMKJK@?$AAs?$AAm?$AAs?$AA?9?$AAF?$AAI?$AA?$AA@ 10051474     LIBCMT:winapinls.obj
 0002:0000f484       ??_C@_1M@CAFJMKOF@?$AAa?$AAr?$AA?9?$AAY?$AAE?$AA?$AA@ 10051484     LIBCMT:winapinls.obj
 0002:0000f490       ??_C@_1M@CBFHIJLI@?$AAe?$AAn?$AA?9?$AAC?$AAB?$AA?$AA@ 10051490     LIBCMT:winapinls.obj
 0002:0000f49c       ??_C@_1M@BGNFLDN@?$AAe?$AAs?$AA?9?$AAC?$AAO?$AA?$AA@ 1005149c     LIBCMT:winapinls.obj
 0002:0000f4a8       ??_C@_1O@JMPHMAMC@?$AAs?$AAm?$AAn?$AA?9?$AAF?$AAI?$AA?$AA@ 100514a8     LIBCMT:winapinls.obj
 0002:0000f4b8       ??_C@_1M@JLANABKE@?$AAa?$AAr?$AA?9?$AAS?$AAY?$AA?$AA@ 100514b8     LIBCMT:winapinls.obj
 0002:0000f4c4       ??_C@_1M@HPKGCFGN@?$AAe?$AAn?$AA?9?$AAB?$AAZ?$AA?$AA@ 100514c4     LIBCMT:winapinls.obj
 0002:0000f4d0       ??_C@_1M@OLJCMLGM@?$AAe?$AAs?$AA?9?$AAP?$AAE?$AA?$AA@ 100514d0     LIBCMT:winapinls.obj
 0002:0000f4dc       ??_C@_1M@MKKGFKLE@?$AAa?$AAr?$AA?9?$AAJ?$AAO?$AA?$AA@ 100514dc     LIBCMT:winapinls.obj
 0002:0000f4e8       ??_C@_1M@EKPGLDNI@?$AAe?$AAn?$AA?9?$AAT?$AAT?$AA?$AA@ 100514e8     LIBCMT:winapinls.obj
 0002:0000f4f4       ??_C@_1M@OONGHFHE@?$AAe?$AAs?$AA?9?$AAA?$AAR?$AA?$AA@ 100514f4     LIBCMT:winapinls.obj
 0002:0000f500       ??_C@_1M@OOJFGBHE@?$AAa?$AAr?$AA?9?$AAL?$AAB?$AA?$AA@ 10051500     LIBCMT:winapinls.obj
 0002:0000f50c       ??_C@_1M@GCEJHNEG@?$AAe?$AAn?$AA?9?$AAZ?$AAW?$AA?$AA@ 1005150c     LIBCMT:winapinls.obj
 0002:0000f518       ??_C@_1M@JNOCAHJI@?$AAe?$AAs?$AA?9?$AAE?$AAC?$AA?$AA@ 10051518     LIBCMT:winapinls.obj
 0002:0000f524       ??_C@_1M@JEFHPGGB@?$AAa?$AAr?$AA?9?$AAK?$AAW?$AA?$AA@ 10051524     LIBCMT:winapinls.obj
 0002:0000f530       ??_C@_1M@MLKIBJOJ@?$AAe?$AAn?$AA?9?$AAP?$AAH?$AA?$AA@ 10051530     LIBCMT:winapinls.obj
 0002:0000f53c       ??_C@_1M@BDNIPEND@?$AAe?$AAs?$AA?9?$AAC?$AAL?$AA?$AA@ 1005153c     LIBCMT:winapinls.obj
 0002:0000f548       ??_C@_1M@MPNMEKBD@?$AAa?$AAr?$AA?9?$AAA?$AAE?$AA?$AA@ 10051548     LIBCMT:winapinls.obj
 0002:0000f554       ??_C@_1M@KBJALCPI@?$AAe?$AAs?$AA?9?$AAU?$AAY?$AA?$AA@ 10051554     LIBCMT:winapinls.obj
 0002:0000f560       ??_C@_1M@LLCCOAGA@?$AAa?$AAr?$AA?9?$AAB?$AAH?$AA?$AA@ 10051560     LIBCMT:winapinls.obj
 0002:0000f56c       ??_C@_1M@PBFNCDEL@?$AAe?$AAs?$AA?9?$AAP?$AAY?$AA?$AA@ 1005156c     LIBCMT:winapinls.obj
 0002:0000f578       ??_C@_1M@EDGINPNP@?$AAa?$AAr?$AA?9?$AAQ?$AAA?$AA?$AA@ 10051578     LIBCMT:winapinls.obj
 0002:0000f584       ??_C@_1M@MKDBIIJI@?$AAe?$AAs?$AA?9?$AAB?$AAO?$AA?$AA@ 10051584     LIBCMT:winapinls.obj
 0002:0000f590       ??_C@_1M@CPKKEBLD@?$AAe?$AAs?$AA?9?$AAS?$AAV?$AA?$AA@ 10051590     LIBCMT:winapinls.obj
 0002:0000f59c       ??_C@_1M@NDBGMMJL@?$AAe?$AAs?$AA?9?$AAH?$AAN?$AA?$AA@ 1005159c     LIBCMT:winapinls.obj
 0002:0000f5a8       ??_C@_1M@JIJIBHDP@?$AAe?$AAs?$AA?9?$AAN?$AAI?$AA?$AA@ 100515a8     LIBCMT:winapinls.obj
 0002:0000f5b4       ??_C@_1M@CGFMKEEK@?$AAe?$AAs?$AA?9?$AAP?$AAR?$AA?$AA@ 100515b4     LIBCMT:winapinls.obj
 0002:0000f5c0       ??_C@_1O@ICJHKIIK@?$AAz?$AAh?$AA?9?$AAC?$AAH?$AAT?$AA?$AA@ 100515c0     LIBCMT:winapinls.obj
 0002:0000f5d0       ??_C@_15CLNEJCE@?$AAs?$AAr?$AA?$AA@ 100515d0     LIBCMT:winapinls.obj
 0002:0000f5d8       ??_C@_1M@KAHEKEIG@?$AAa?$AAf?$AA?9?$AAz?$AAa?$AA?$AA@ 100515d8     LIBCMT:winapinls.obj
 0002:0000f5e4       ??_C@_1M@GIECOABL@?$AAa?$AAr?$AA?9?$AAa?$AAe?$AA?$AA@ 100515e4     LIBCMT:winapinls.obj
 0002:0000f5f0       ??_C@_1M@BMLMEKGI@?$AAa?$AAr?$AA?9?$AAb?$AAh?$AA?$AA@ 100515f0     LIBCMT:winapinls.obj
 0002:0000f5fc       ??_C@_1M@DAPFDGGB@?$AAa?$AAr?$AA?9?$AAd?$AAz?$AA?$AA@ 100515fc     LIBCMT:winapinls.obj
 0002:0000f608       ??_C@_1M@FJNKGKIG@?$AAa?$AAr?$AA?9?$AAe?$AAg?$AA?$AA@ 10051608     LIBCMT:winapinls.obj
 0002:0000f614       ??_C@_1M@FLGKKCLO@?$AAa?$AAr?$AA?9?$AAi?$AAq?$AA?$AA@ 10051614     LIBCMT:winapinls.obj
 0002:0000f620       ??_C@_1M@GNDIPALM@?$AAa?$AAr?$AA?9?$AAj?$AAo?$AA?$AA@ 10051620     LIBCMT:winapinls.obj
 0002:0000f62c       ??_C@_1M@DDMJFMGJ@?$AAa?$AAr?$AA?9?$AAk?$AAw?$AA?$AA@ 1005162c     LIBCMT:winapinls.obj
 0002:0000f638       ??_C@_1M@EJALMLHM@?$AAa?$AAr?$AA?9?$AAl?$AAb?$AA?$AA@ 10051638     LIBCMT:winapinls.obj
 0002:0000f644       ??_C@_1M@MOBDBLOC@?$AAa?$AAr?$AA?9?$AAl?$AAy?$AA?$AA@ 10051644     LIBCMT:winapinls.obj
 0002:0000f650       ??_C@_1M@JAOCLHDH@?$AAa?$AAr?$AA?9?$AAm?$AAa?$AA?$AA@ 10051650     LIBCMT:winapinls.obj
 0002:0000f65c       ??_C@_1M@JHPMKJIE@?$AAa?$AAr?$AA?9?$AAo?$AAm?$AA?$AA@ 1005165c     LIBCMT:winapinls.obj
 0002:0000f668       ??_C@_1M@OEPGHFNH@?$AAa?$AAr?$AA?9?$AAq?$AAa?$AA?$AA@ 10051668     LIBCMT:winapinls.obj
 0002:0000f674       ??_C@_1M@KJDONENM@?$AAa?$AAr?$AA?9?$AAs?$AAa?$AA?$AA@ 10051674     LIBCMT:winapinls.obj
 0002:0000f680       ??_C@_1M@DMJDKLKM@?$AAa?$AAr?$AA?9?$AAs?$AAy?$AA?$AA@ 10051680     LIBCMT:winapinls.obj
 0002:0000f68c       ??_C@_1M@OMFIPEDC@?$AAa?$AAr?$AA?9?$AAt?$AAn?$AA?$AA@ 1005168c     LIBCMT:winapinls.obj
 0002:0000f698       ??_C@_1M@IHMHGAON@?$AAa?$AAr?$AA?9?$AAy?$AAe?$AA?$AA@ 10051698     LIBCMT:winapinls.obj
 0002:0000f6a4       ??_C@_1BG@KDCPGJGB@?$AAa?$AAz?$AA?9?$AAa?$AAz?$AA?9?$AAc?$AAy?$AAr?$AAl?$AA?$AA@ 100516a4     LIBCMT:winapinls.obj
 0002:0000f6bc       ??_C@_1BG@IBCKDDOE@?$AAa?$AAz?$AA?9?$AAa?$AAz?$AA?9?$AAl?$AAa?$AAt?$AAn?$AA?$AA@ 100516bc     LIBCMT:winapinls.obj
 0002:0000f6d4       ??_C@_1M@EGPFDCPD@?$AAb?$AAe?$AA?9?$AAb?$AAy?$AA?$AA@ 100516d4     LIBCMT:winapinls.obj
 0002:0000f6e0       ??_C@_1M@PCMGMCGC@?$AAb?$AAg?$AA?9?$AAb?$AAg?$AA?$AA@ 100516e0     LIBCMT:winapinls.obj
 0002:0000f6ec       ??_C@_1M@BJBMFGOB@?$AAb?$AAn?$AA?9?$AAi?$AAn?$AA?$AA@ 100516ec     LIBCMT:winapinls.obj
 0002:0000f6f8       ??_C@_1BG@EAKMMACD@?$AAb?$AAs?$AA?9?$AAb?$AAa?$AA?9?$AAl?$AAa?$AAt?$AAn?$AA?$AA@ 100516f8     LIBCMT:winapinls.obj
 0002:0000f710       ??_C@_1M@KGADAODK@?$AAc?$AAa?$AA?9?$AAe?$AAs?$AA?$AA@ 10051710     LIBCMT:winapinls.obj
 0002:0000f71c       ??_C@_1M@COAJPDHI@?$AAc?$AAs?$AA?9?$AAc?$AAz?$AA?$AA@ 1005171c     LIBCMT:winapinls.obj
 0002:0000f728       ??_C@_1M@DHBHFONH@?$AAc?$AAy?$AA?9?$AAg?$AAb?$AA?$AA@ 10051728     LIBCMT:winapinls.obj
 0002:0000f734       ??_C@_1M@IMGKELGA@?$AAd?$AAa?$AA?9?$AAd?$AAk?$AA?$AA@ 10051734     LIBCMT:winapinls.obj
 0002:0000f740       ??_C@_1M@NNDGDNGA@?$AAd?$AAe?$AA?9?$AAa?$AAt?$AA?$AA@ 10051740     LIBCMT:winapinls.obj
 0002:0000f74c       ??_C@_1M@IKDBHEEM@?$AAd?$AAe?$AA?9?$AAc?$AAh?$AA?$AA@ 1005174c     LIBCMT:winapinls.obj
 0002:0000f758       ??_C@_1M@GFFOJMCJ@?$AAd?$AAe?$AA?9?$AAd?$AAe?$AA?$AA@ 10051758     LIBCMT:winapinls.obj
 0002:0000f764       ??_C@_1M@MDNLKBPM@?$AAd?$AAe?$AA?9?$AAl?$AAi?$AA?$AA@ 10051764     LIBCMT:winapinls.obj
 0002:0000f770       ??_C@_1M@NJBEEJNL@?$AAd?$AAe?$AA?9?$AAl?$AAu?$AA?$AA@ 10051770     LIBCMT:winapinls.obj
 0002:0000f77c       ??_C@_1O@GNNELBAP@?$AAd?$AAi?$AAv?$AA?9?$AAm?$AAv?$AA?$AA@ 1005177c     LIBCMT:winapinls.obj
 0002:0000f78c       ??_C@_1M@EJLEOGAE@?$AAe?$AAl?$AA?9?$AAg?$AAr?$AA?$AA@ 1005178c     LIBCMT:winapinls.obj
 0002:0000f798       ??_C@_1M@GMPONJN@?$AAe?$AAn?$AA?9?$AAa?$AAu?$AA?$AA@ 10051798     LIBCMT:winapinls.obj
 0002:0000f7a4       ??_C@_1M@NIDIIPGF@?$AAe?$AAn?$AA?9?$AAb?$AAz?$AA?$AA@ 100517a4     LIBCMT:winapinls.obj
 0002:0000f7b0       ??_C@_1M@JEHMIMFO@?$AAe?$AAn?$AA?9?$AAc?$AAa?$AA?$AA@ 100517b0     LIBCMT:winapinls.obj
 0002:0000f7bc       ??_C@_1M@IGMJCDLA@?$AAe?$AAn?$AA?9?$AAc?$AAb?$AA?$AA@ 100517bc     LIBCMT:winapinls.obj
 0002:0000f7c8       ??_C@_1M@BNFIGBKG@?$AAe?$AAn?$AA?9?$AAg?$AAb?$AA?$AA@ 100517c8     LIBCMT:winapinls.obj
 0002:0000f7d4       ??_C@_1M@LKIFDIGP@?$AAe?$AAn?$AA?9?$AAi?$AAe?$AA?$AA@ 100517d4     LIBCMT:winapinls.obj
 0002:0000f7e0       ??_C@_1M@PJKFGCCO@?$AAe?$AAn?$AA?9?$AAj?$AAm?$AA?$AA@ 100517e0     LIBCMT:winapinls.obj
 0002:0000f7ec       ??_C@_1M@KPPKEPBO@?$AAe?$AAn?$AA?9?$AAn?$AAz?$AA?$AA@ 100517ec     LIBCMT:winapinls.obj
 0002:0000f7f8       ??_C@_1M@GMDGLDOB@?$AAe?$AAn?$AA?9?$AAp?$AAh?$AA?$AA@ 100517f8     LIBCMT:winapinls.obj
 0002:0000f804       ??_C@_1M@ONGIBJNA@?$AAe?$AAn?$AA?9?$AAt?$AAt?$AA?$AA@ 10051804     LIBCMT:winapinls.obj
 0002:0000f810       ??_C@_1M@LLODPCMM@?$AAe?$AAn?$AA?9?$AAu?$AAs?$AA?$AA@ 10051810     LIBCMT:winapinls.obj
 0002:0000f81c       ??_C@_1M@LAKFNPAN@?$AAe?$AAn?$AA?9?$AAz?$AAa?$AA?$AA@ 1005181c     LIBCMT:winapinls.obj
 0002:0000f828       ??_C@_1M@MFNHNHEO@?$AAe?$AAn?$AA?9?$AAz?$AAw?$AA?$AA@ 10051828     LIBCMT:winapinls.obj
 0002:0000f834       ??_C@_1M@EJEINPHM@?$AAe?$AAs?$AA?9?$AAa?$AAr?$AA?$AA@ 10051834     LIBCMT:winapinls.obj
 0002:0000f840       ??_C@_1M@GNKPCCJA@?$AAe?$AAs?$AA?9?$AAb?$AAo?$AA?$AA@ 10051840     LIBCMT:winapinls.obj
 0002:0000f84c       ??_C@_1M@LEEGFONL@?$AAe?$AAs?$AA?9?$AAc?$AAl?$AA?$AA@ 1005184c     LIBCMT:winapinls.obj
 0002:0000f858       ??_C@_1M@KGPDPBDF@?$AAe?$AAs?$AA?9?$AAc?$AAo?$AA?$AA@ 10051858     LIBCMT:winapinls.obj
 0002:0000f864       ??_C@_1M@EIAHOHH@?$AAe?$AAs?$AA?9?$AAc?$AAr?$AA?$AA@ 10051864     LIBCMT:winapinls.obj
 0002:0000f870       ??_C@_1M@LLPGMBIN@?$AAe?$AAs?$AA?9?$AAd?$AAo?$AA?$AA@ 10051870     LIBCMT:winapinls.obj
 0002:0000f87c       ??_C@_1M@DKHMKNJA@?$AAe?$AAs?$AA?9?$AAe?$AAc?$AA?$AA@ 1005187c     LIBCMT:winapinls.obj
 0002:0000f888       ??_C@_1M@GKGFPKAP@?$AAe?$AAs?$AA?9?$AAe?$AAs?$AA?$AA@ 10051888     LIBCMT:winapinls.obj
 0002:0000f894       ??_C@_1M@LKHKGDLN@?$AAe?$AAs?$AA?9?$AAg?$AAt?$AA?$AA@ 10051894     LIBCMT:winapinls.obj
 0002:0000f8a0       ??_C@_1M@HEIIGGJD@?$AAe?$AAs?$AA?9?$AAh?$AAn?$AA?$AA@ 100518a0     LIBCMT:winapinls.obj
 0002:0000f8ac       ??_C@_1M@FBDHPPGD@?$AAe?$AAs?$AA?9?$AAm?$AAx?$AA?$AA@ 100518ac     LIBCMT:winapinls.obj
 0002:0000f8b8       ??_C@_1M@DPAGLNDH@?$AAe?$AAs?$AA?9?$AAn?$AAi?$AA?$AA@ 100518b8     LIBCMT:winapinls.obj
 0002:0000f8c4       ??_C@_1M@MDGOPGDD@?$AAe?$AAs?$AA?9?$AAp?$AAa?$AA?$AA@ 100518c4     LIBCMT:winapinls.obj
 0002:0000f8d0       ??_C@_1M@EMAMGBGE@?$AAe?$AAs?$AA?9?$AAp?$AAe?$AA?$AA@ 100518d0     LIBCMT:winapinls.obj
 0002:0000f8dc       ??_C@_1M@IBMCAOEC@?$AAe?$AAs?$AA?9?$AAp?$AAr?$AA?$AA@ 100518dc     LIBCMT:winapinls.obj
 0002:0000f8e8       ??_C@_1M@FGMDIJED@?$AAe?$AAs?$AA?9?$AAp?$AAy?$AA?$AA@ 100518e8     LIBCMT:winapinls.obj
 0002:0000f8f4       ??_C@_1M@IIDEOLLL@?$AAe?$AAs?$AA?9?$AAs?$AAv?$AA?$AA@ 100518f4     LIBCMT:winapinls.obj
 0002:0000f900       ??_C@_1M@GAOBIPA@?$AAe?$AAs?$AA?9?$AAu?$AAy?$AA?$AA@ 10051900     LIBCMT:winapinls.obj
 0002:0000f90c       ??_C@_1M@JKFFICHJ@?$AAe?$AAs?$AA?9?$AAv?$AAe?$AA?$AA@ 1005190c     LIBCMT:winapinls.obj
 0002:0000f918       ??_C@_1M@PNMLOJDF@?$AAe?$AAt?$AA?9?$AAe?$AAe?$AA?$AA@ 10051918     LIBCMT:winapinls.obj
 0002:0000f924       ??_C@_1M@GHHLIKEI@?$AAe?$AAu?$AA?9?$AAe?$AAs?$AA?$AA@ 10051924     LIBCMT:winapinls.obj
 0002:0000f930       ??_C@_1M@PBNONODE@?$AAf?$AAa?$AA?9?$AAi?$AAr?$AA?$AA@ 10051930     LIBCMT:winapinls.obj
 0002:0000f93c       ??_C@_1M@JEEHPMIL@?$AAf?$AAi?$AA?9?$AAf?$AAi?$AA?$AA@ 1005193c     LIBCMT:winapinls.obj
 0002:0000f948       ??_C@_1M@LMDCNDBA@?$AAf?$AAo?$AA?9?$AAf?$AAo?$AA?$AA@ 10051948     LIBCMT:winapinls.obj
 0002:0000f954       ??_C@_1M@JKEOHLDK@?$AAf?$AAr?$AA?9?$AAb?$AAe?$AA?$AA@ 10051954     LIBCMT:winapinls.obj
 0002:0000f960       ??_C@_1M@NOHADPMI@?$AAf?$AAr?$AA?9?$AAc?$AAa?$AA?$AA@ 10051960     LIBCMT:winapinls.obj
 0002:0000f96c       ??_C@_1M@KDHIHAEC@?$AAf?$AAr?$AA?9?$AAc?$AAh?$AA?$AA@ 1005196c     LIBCMT:winapinls.obj
 0002:0000f978       ??_C@_1M@MMBBFGAK@?$AAf?$AAr?$AA?9?$AAf?$AAr?$AA?$AA@ 10051978     LIBCMT:winapinls.obj
 0002:0000f984       ??_C@_1M@PAFNENNF@?$AAf?$AAr?$AA?9?$AAl?$AAu?$AA?$AA@ 10051984     LIBCMT:winapinls.obj
 0002:0000f990       ??_C@_1M@EOHDJGDD@?$AAf?$AAr?$AA?9?$AAm?$AAc?$AA?$AA@ 10051990     LIBCMT:winapinls.obj
 0002:0000f99c       ??_C@_1M@FAPLLOPF@?$AAg?$AAl?$AA?9?$AAe?$AAs?$AA?$AA@ 1005199c     LIBCMT:winapinls.obj
 0002:0000f9a8       ??_C@_1M@FOPBFLOO@?$AAg?$AAu?$AA?9?$AAi?$AAn?$AA?$AA@ 100519a8     LIBCMT:winapinls.obj
 0002:0000f9b4       ??_C@_1M@KBMCINPM@?$AAh?$AAe?$AA?9?$AAi?$AAl?$AA?$AA@ 100519b4     LIBCMT:winapinls.obj
 0002:0000f9c0       ??_C@_1M@BBPHKFPJ@?$AAh?$AAi?$AA?9?$AAi?$AAn?$AA?$AA@ 100519c0     LIBCMT:winapinls.obj
 0002:0000f9cc       ??_C@_1M@PMBNDPHD@?$AAh?$AAr?$AA?9?$AAb?$AAa?$AA?$AA@ 100519cc     LIBCMT:winapinls.obj
 0002:0000f9d8       ??_C@_1M@BPCKOEGE@?$AAh?$AAr?$AA?9?$AAh?$AAr?$AA?$AA@ 100519d8     LIBCMT:winapinls.obj
 0002:0000f9e4       ??_C@_1M@GACBMHKE@?$AAh?$AAu?$AA?9?$AAh?$AAu?$AA?$AA@ 100519e4     LIBCMT:winapinls.obj
 0002:0000f9f0       ??_C@_1M@MILPAJJC@?$AAh?$AAy?$AA?9?$AAa?$AAm?$AA?$AA@ 100519f0     LIBCMT:winapinls.obj
 0002:0000f9fc       ??_C@_1M@BABBICEC@?$AAi?$AAd?$AA?9?$AAi?$AAd?$AA?$AA@ 100519fc     LIBCMT:winapinls.obj
 0002:0000fa08       ??_C@_1M@BIKNHHPF@?$AAi?$AAs?$AA?9?$AAi?$AAs?$AA?$AA@ 10051a08     LIBCMT:winapinls.obj
 0002:0000fa14       ??_C@_1M@NMPCJPHE@?$AAi?$AAt?$AA?9?$AAc?$AAh?$AA?$AA@ 10051a14     LIBCMT:winapinls.obj
 0002:0000fa20       ??_C@_1M@GHKGFEDF@?$AAi?$AAt?$AA?9?$AAi?$AAt?$AA?$AA@ 10051a20     LIBCMT:winapinls.obj
 0002:0000fa2c       ??_C@_1M@NIEJCJJA@?$AAj?$AAa?$AA?9?$AAj?$AAp?$AA?$AA@ 10051a2c     LIBCMT:winapinls.obj
 0002:0000fa38       ??_C@_1M@JILFNBIM@?$AAk?$AAa?$AA?9?$AAg?$AAe?$AA?$AA@ 10051a38     LIBCMT:winapinls.obj
 0002:0000fa44       ??_C@_1M@PACPMGPH@?$AAk?$AAk?$AA?9?$AAk?$AAz?$AA?$AA@ 10051a44     LIBCMT:winapinls.obj
 0002:0000fa50       ??_C@_1M@IELFGMHA@?$AAk?$AAn?$AA?9?$AAi?$AAn?$AA?$AA@ 10051a50     LIBCMT:winapinls.obj
 0002:0000fa5c       ??_C@_1O@IBBJHCH@?$AAk?$AAo?$AAk?$AA?9?$AAi?$AAn?$AA?$AA@ 10051a5c     LIBCMT:winapinls.obj
 0002:0000fa6c       ??_C@_1M@DMHAEOGC@?$AAk?$AAo?$AA?9?$AAk?$AAr?$AA?$AA@ 10051a6c     LIBCMT:winapinls.obj
 0002:0000fa78       ??_C@_1M@HBAHBIGA@?$AAk?$AAy?$AA?9?$AAk?$AAg?$AA?$AA@ 10051a78     LIBCMT:winapinls.obj
 0002:0000fa84       ??_C@_1M@KPMILCJG@?$AAl?$AAt?$AA?9?$AAl?$AAt?$AA?$AA@ 10051a84     LIBCMT:winapinls.obj
 0002:0000fa90       ??_C@_1M@BDEKKCA@?$AAl?$AAv?$AA?9?$AAl?$AAv?$AA?$AA@ 10051a90     LIBCMT:winapinls.obj
 0002:0000fa9c       ??_C@_1M@ELCKCCJJ@?$AAm?$AAi?$AA?9?$AAn?$AAz?$AA?$AA@ 10051a9c     LIBCMT:winapinls.obj
 0002:0000faa8       ??_C@_1M@CBOOLAPA@?$AAm?$AAk?$AA?9?$AAm?$AAk?$AA?$AA@ 10051aa8     LIBCMT:winapinls.obj
 0002:0000fab4       ??_C@_1M@GPHNBJKN@?$AAm?$AAl?$AA?9?$AAi?$AAn?$AA?$AA@ 10051ab4     LIBCMT:winapinls.obj
 0002:0000fac0       ??_C@_1M@PABJILIG@?$AAm?$AAn?$AA?9?$AAm?$AAn?$AA?$AA@ 10051ac0     LIBCMT:winapinls.obj
 0002:0000facc       ??_C@_1M@FGBKKIPG@?$AAm?$AAr?$AA?9?$AAi?$AAn?$AA?$AA@ 10051acc     LIBCMT:winapinls.obj
 0002:0000fad8       ??_C@_1M@NDBPDDAL@?$AAm?$AAs?$AA?9?$AAb?$AAn?$AA?$AA@ 10051ad8     LIBCMT:winapinls.obj
 0002:0000fae4       ??_C@_1M@OPIHOOPI@?$AAm?$AAs?$AA?9?$AAm?$AAy?$AA?$AA@ 10051ae4     LIBCMT:winapinls.obj
 0002:0000faf0       ??_C@_1M@PPDBCNFM@?$AAm?$AAt?$AA?9?$AAm?$AAt?$AA?$AA@ 10051af0     LIBCMT:winapinls.obj
 0002:0000fafc       ??_C@_1M@KDJDKMDD@?$AAn?$AAb?$AA?9?$AAn?$AAo?$AA?$AA@ 10051afc     LIBCMT:winapinls.obj
 0002:0000fb08       ??_C@_1M@KFCFLMJP@?$AAn?$AAl?$AA?9?$AAb?$AAe?$AA?$AA@ 10051b08     LIBCMT:winapinls.obj
 0002:0000fb14       ??_C@_1M@KPOPDDGO@?$AAn?$AAl?$AA?9?$AAn?$AAl?$AA?$AA@ 10051b14     LIBCMT:winapinls.obj
 0002:0000fb20       ??_C@_1M@LJKPEMLN@?$AAn?$AAn?$AA?9?$AAn?$AAo?$AA?$AA@ 10051b20     LIBCMT:winapinls.obj
 0002:0000fb2c       ??_C@_1M@BDGHHBFL@?$AAn?$AAs?$AA?9?$AAz?$AAa?$AA?$AA@ 10051b2c     LIBCMT:winapinls.obj
 0002:0000fb38       ??_C@_1M@IDEHOAP@?$AAp?$AAa?$AA?9?$AAi?$AAn?$AA?$AA@ 10051b38     LIBCMT:winapinls.obj
 0002:0000fb44       ??_C@_1M@HDBKGOGH@?$AAp?$AAl?$AA?9?$AAp?$AAl?$AA?$AA@ 10051b44     LIBCMT:winapinls.obj
 0002:0000fb50       ??_C@_1M@LJLLCMEH@?$AAp?$AAt?$AA?9?$AAb?$AAr?$AA?$AA@ 10051b50     LIBCMT:winapinls.obj
 0002:0000fb5c       ??_C@_1M@NCMONAAL@?$AAp?$AAt?$AA?9?$AAp?$AAt?$AA?$AA@ 10051b5c     LIBCMT:winapinls.obj
 0002:0000fb68       ??_C@_1O@EAKMAJDN@?$AAq?$AAu?$AAz?$AA?9?$AAb?$AAo?$AA?$AA@ 10051b68     LIBCMT:winapinls.obj
 0002:0000fb78       ??_C@_1O@BHHPIGDN@?$AAq?$AAu?$AAz?$AA?9?$AAe?$AAc?$AA?$AA@ 10051b78     LIBCMT:winapinls.obj
 0002:0000fb88       ??_C@_1O@GBAPEKMJ@?$AAq?$AAu?$AAz?$AA?9?$AAp?$AAe?$AA?$AA@ 10051b88     LIBCMT:winapinls.obj
 0002:0000fb98       ??_C@_1M@CLGLEFBO@?$AAr?$AAo?$AA?9?$AAr?$AAo?$AA?$AA@ 10051b98     LIBCMT:winapinls.obj
 0002:0000fba4       ??_C@_1M@CEEDODME@?$AAr?$AAu?$AA?9?$AAr?$AAu?$AA?$AA@ 10051ba4     LIBCMT:winapinls.obj
 0002:0000fbb0       ??_C@_1M@HPKKKMPP@?$AAs?$AAa?$AA?9?$AAi?$AAn?$AA?$AA@ 10051bb0     LIBCMT:winapinls.obj
 0002:0000fbbc       ??_C@_1M@BKMAIGOJ@?$AAs?$AAe?$AA?9?$AAf?$AAi?$AA?$AA@ 10051bbc     LIBCMT:winapinls.obj
 0002:0000fbc8       ??_C@_1M@NDPIFLFI@?$AAs?$AAe?$AA?9?$AAn?$AAo?$AA?$AA@ 10051bc8     LIBCMT:winapinls.obj
 0002:0000fbd4       ??_C@_1M@DANKKHJ@?$AAs?$AAe?$AA?9?$AAs?$AAe?$AA?$AA@ 10051bd4     LIBCMT:winapinls.obj
 0002:0000fbe0       ??_C@_1M@PNBLONPJ@?$AAs?$AAk?$AA?9?$AAs?$AAk?$AA?$AA@ 10051be0     LIBCMT:winapinls.obj
 0002:0000fbec       ??_C@_1M@LFMODOAL@?$AAs?$AAl?$AA?9?$AAs?$AAi?$AA?$AA@ 10051bec     LIBCMT:winapinls.obj
 0002:0000fbf8       ??_C@_1O@DFKOMPG@?$AAs?$AAm?$AAa?$AA?9?$AAn?$AAo?$AA?$AA@ 10051bf8     LIBCMT:winapinls.obj
 0002:0000fc08       ??_C@_1O@NDKPBNNH@?$AAs?$AAm?$AAa?$AA?9?$AAs?$AAe?$AA?$AA@ 10051c08     LIBCMT:winapinls.obj
 0002:0000fc18       ??_C@_1O@PLLKBHAB@?$AAs?$AAm?$AAj?$AA?9?$AAn?$AAo?$AA?$AA@ 10051c18     LIBCMT:winapinls.obj
 0002:0000fc28       ??_C@_1O@CLEPOGCA@?$AAs?$AAm?$AAj?$AA?9?$AAs?$AAe?$AA?$AA@ 10051c28     LIBCMT:winapinls.obj
 0002:0000fc38       ??_C@_1O@DLGJGKMK@?$AAs?$AAm?$AAn?$AA?9?$AAf?$AAi?$AA?$AA@ 10051c38     LIBCMT:winapinls.obj
 0002:0000fc48       ??_C@_1O@OJDJGAJC@?$AAs?$AAm?$AAs?$AA?9?$AAf?$AAi?$AA?$AA@ 10051c48     LIBCMT:winapinls.obj
 0002:0000fc58       ??_C@_1M@BOFOGHPB@?$AAs?$AAq?$AA?9?$AAa?$AAl?$AA?$AA@ 10051c58     LIBCMT:winapinls.obj
 0002:0000fc64       ??_C@_1BG@LJBBIPGB@?$AAs?$AAr?$AA?9?$AAb?$AAa?$AA?9?$AAc?$AAy?$AAr?$AAl?$AA?$AA@ 10051c64     LIBCMT:winapinls.obj
 0002:0000fc7c       ??_C@_1BG@JLBENFOE@?$AAs?$AAr?$AA?9?$AAb?$AAa?$AA?9?$AAl?$AAa?$AAt?$AAn?$AA?$AA@ 10051c7c     LIBCMT:winapinls.obj
 0002:0000fc94       ??_C@_1BG@KODPNHE@?$AAs?$AAr?$AA?9?$AAs?$AAp?$AA?9?$AAc?$AAy?$AAr?$AAl?$AA?$AA@ 10051c94     LIBCMT:winapinls.obj
 0002:0000fcac       ??_C@_1BG@CIOGKHPB@?$AAs?$AAr?$AA?9?$AAs?$AAp?$AA?9?$AAl?$AAa?$AAt?$AAn?$AA?$AA@ 10051cac     LIBCMT:winapinls.obj
 0002:0000fcc4       ??_C@_1M@NGFJLMAC@?$AAs?$AAv?$AA?9?$AAf?$AAi?$AA?$AA@ 10051cc4     LIBCMT:winapinls.obj
 0002:0000fcd0       ??_C@_1M@MPJEJAJC@?$AAs?$AAv?$AA?9?$AAs?$AAe?$AA?$AA@ 10051cd0     LIBCMT:winapinls.obj
 0002:0000fcdc       ??_C@_1M@MPNDHLFK@?$AAs?$AAw?$AA?9?$AAk?$AAe?$AA?$AA@ 10051cdc     LIBCMT:winapinls.obj
 0002:0000fce8       ??_C@_1O@KOHBJJI@?$AAs?$AAy?$AAr?$AA?9?$AAs?$AAy?$AA?$AA@ 10051ce8     LIBCMT:winapinls.obj
 0002:0000fcf8       ??_C@_1M@LDCEFHA@?$AAt?$AAa?$AA?9?$AAi?$AAn?$AA?$AA@ 10051cf8     LIBCMT:winapinls.obj
 0002:0000fd04       ??_C@_1M@CNJOFAK@?$AAt?$AAe?$AA?9?$AAi?$AAn?$AA?$AA@ 10051d04     LIBCMT:winapinls.obj
 0002:0000fd10       ??_C@_1M@GNAECACD@?$AAt?$AAh?$AA?9?$AAt?$AAh?$AA?$AA@ 10051d10     LIBCMT:winapinls.obj
 0002:0000fd1c       ??_C@_1M@CHBIHOJO@?$AAt?$AAn?$AA?9?$AAz?$AAa?$AA?$AA@ 10051d1c     LIBCMT:winapinls.obj
 0002:0000fd28       ??_C@_1M@GCCMIGPJ@?$AAt?$AAr?$AA?9?$AAt?$AAr?$AA?$AA@ 10051d28     LIBCMT:winapinls.obj
 0002:0000fd34       ??_C@_1M@CELMCNBK@?$AAt?$AAt?$AA?9?$AAr?$AAu?$AA?$AA@ 10051d34     LIBCMT:winapinls.obj
 0002:0000fd40       ??_C@_1M@KLMCELGA@?$AAu?$AAk?$AA?9?$AAu?$AAa?$AA?$AA@ 10051d40     LIBCMT:winapinls.obj
 0002:0000fd4c       ??_C@_1M@EPAJJAJF@?$AAu?$AAr?$AA?9?$AAp?$AAk?$AA?$AA@ 10051d4c     LIBCMT:winapinls.obj
 0002:0000fd58       ??_C@_1BG@GEGPMCDJ@?$AAu?$AAz?$AA?9?$AAu?$AAz?$AA?9?$AAc?$AAy?$AAr?$AAl?$AA?$AA@ 10051d58     LIBCMT:winapinls.obj
 0002:0000fd70       ??_C@_1BG@EGGKJILM@?$AAu?$AAz?$AA?9?$AAu?$AAz?$AA?9?$AAl?$AAa?$AAt?$AAn?$AA?$AA@ 10051d70     LIBCMT:winapinls.obj
 0002:0000fd88       ??_C@_1M@GFOCLFF@?$AAv?$AAi?$AA?9?$AAv?$AAn?$AA?$AA@ 10051d88     LIBCMT:winapinls.obj
 0002:0000fd94       ??_C@_1M@CPAMEDFI@?$AAx?$AAh?$AA?9?$AAz?$AAa?$AA?$AA@ 10051d94     LIBCMT:winapinls.obj
 0002:0000fda0       ??_C@_1O@EBKIFIGN@?$AAz?$AAh?$AA?9?$AAc?$AAh?$AAs?$AA?$AA@ 10051da0     LIBCMT:winapinls.obj
 0002:0000fdb0       ??_C@_1O@NMHPGANE@?$AAz?$AAh?$AA?9?$AAc?$AAh?$AAt?$AA?$AA@ 10051db0     LIBCMT:winapinls.obj
 0002:0000fdc0       ??_C@_1M@LPINJOMC@?$AAz?$AAh?$AA?9?$AAc?$AAn?$AA?$AA@ 10051dc0     LIBCMT:winapinls.obj
 0002:0000fdcc       ??_C@_1M@OCJEJODD@?$AAz?$AAh?$AA?9?$AAh?$AAk?$AA?$AA@ 10051dcc     LIBCMT:winapinls.obj
 0002:0000fdd8       ??_C@_1M@DNDLJINH@?$AAz?$AAh?$AA?9?$AAm?$AAo?$AA?$AA@ 10051dd8     LIBCMT:winapinls.obj
 0002:0000fde4       ??_C@_1M@MBFDNDND@?$AAz?$AAh?$AA?9?$AAs?$AAg?$AA?$AA@ 10051de4     LIBCMT:winapinls.obj
 0002:0000fdf0       ??_C@_1M@IMEPLEPE@?$AAz?$AAh?$AA?9?$AAt?$AAw?$AA?$AA@ 10051df0     LIBCMT:winapinls.obj
 0002:0000fdfc       ??_C@_1M@BBGHNHJP@?$AAz?$AAu?$AA?9?$AAz?$AAa?$AA?$AA@ 10051dfc     LIBCMT:winapinls.obj
 0002:0000fe08       ___newctype                10051e08     LIBCMT:ctype.obj
 0002:00010108       __wctype                   10052108     LIBCMT:ctype.obj
 0002:00010310       ___newclmap                10052310     LIBCMT:ctype.obj
 0002:00010490       ___newcumap                10052490     LIBCMT:ctype.obj
 0002:00010610       ___lc_category             10052610     LIBCMT:wsetloca.obj
 0002:00010658       ??_C@_1O@GIFLHMA@?$AAL?$AAC?$AA_?$AAA?$AAL?$AAL?$AA?$AA@ 10052658     LIBCMT:wsetloca.obj
 0002:00010668       ??_C@_1BG@PPOMIBNJ@?$AAL?$AAC?$AA_?$AAC?$AAO?$AAL?$AAL?$AAA?$AAT?$AAE?$AA?$AA@ 10052668     LIBCMT:wsetloca.obj
 0002:00010680       ??_C@_1BC@FFJGAPJM@?$AAL?$AAC?$AA_?$AAC?$AAT?$AAY?$AAP?$AAE?$AA?$AA@ 10052680     LIBCMT:wsetloca.obj
 0002:00010694       ??_C@_1BI@PCKFNJFB@?$AAL?$AAC?$AA_?$AAM?$AAO?$AAN?$AAE?$AAT?$AAA?$AAR?$AAY?$AA?$AA@ 10052694     LIBCMT:wsetloca.obj
 0002:000106ac       ??_C@_1BG@ENIEDKID@?$AAL?$AAC?$AA_?$AAN?$AAU?$AAM?$AAE?$AAR?$AAI?$AAC?$AA?$AA@ 100526ac     LIBCMT:wsetloca.obj
 0002:000106c4       ??_C@_1BA@HAAOMIIG@?$AAL?$AAC?$AA_?$AAT?$AAI?$AAM?$AAE?$AA?$AA@ 100526c4     LIBCMT:wsetloca.obj
 0002:00010758       ??_C@_15NBPDDFIP@?$AA?$DN?$AA?$DL?$AA?$AA@ 10052758     LIBCMT:wsetloca.obj
 0002:00010760       ??_C@_13PJJBFPED@?$AA?$DL?$AA?$AA@ 10052760     LIBCMT:wsetloca.obj
 0002:00010764       ??_C@_13NMPKAAJP@?$AA?$DN?$AA?$AA@ 10052764     LIBCMT:wsetloca.obj
 0002:00010768       ??_C@_13FHBKNHDA@?$AAC?$AA?$AA@ 10052768     LIBCMT:wsetloca.obj
 0002:0001076c       ??_C@_17MBJJLFDM@?$AA_?$AA?4?$AA?0?$AA?$AA@ 1005276c     LIBCMT:wsetloca.obj
 0002:00010774       ??_C@_13ENNFDPBH@?$AA_?$AA?$AA@ 10052774     LIBCMT:wsetloca.obj
 0002:00010778       ??_C@_13JOFGPIOO@?$AA?4?$AA?$AA@ 10052778     LIBCMT:wsetloca.obj
 0002:0001077c       ??_C@_06PGGFOGJG@1?$CDSNAN?$AA@ 1005277c     LIBCMT:x10fout.obj
 0002:00010784       ??_C@_05PHHOCPM@1?$CDIND?$AA@ 10052784     LIBCMT:x10fout.obj
 0002:0001078c       ??_C@_05DNEBIAHO@1?$CDINF?$AA@ 1005278c     LIBCMT:x10fout.obj
 0002:00010794       ??_C@_06IMKFLFPG@1?$CDQNAN?$AA@ 10052794     LIBCMT:x10fout.obj
 0002:0001079c       ??_C@_0M@HHGEPIBF@CreateFile2?$AA@ 1005279c     LIBCMT:wopen.obj
 0002:000107a8       ??_C@_1BA@BALFACEM@?$AAC?$AAO?$AAN?$AAO?$AAU?$AAT?$AA$?$AA?$AA@ 100527a8     LIBCMT:initcon.obj
 0002:000107b8       ___rg_language             100527b8     LIBCMT:getqloc.obj
 0002:00010ac4       ??_C@_1BC@LLOKLNP@?$AAa?$AAm?$AAe?$AAr?$AAi?$AAc?$AAa?$AAn?$AA?$AA@ 10052ac4     LIBCMT:getqloc.obj
 0002:00010ad8       ??_C@_1CC@HEIGCDGG@?$AAa?$AAm?$AAe?$AAr?$AAi?$AAc?$AAa?$AAn?$AA?5?$AAe?$AAn?$AAg?$AAl?$AAi?$AAs?$AAh?$AA?$AA@ 10052ad8     LIBCMT:getqloc.obj
 0002:00010afc       ??_C@_1CC@IHCNOMIN@?$AAa?$AAm?$AAe?$AAr?$AAi?$AAc?$AAa?$AAn?$AA?9?$AAe?$AAn?$AAg?$AAl?$AAi?$AAs?$AAh?$AA?$AA@ 10052afc     LIBCMT:getqloc.obj
 0002:00010b20       ??_C@_1BG@GKAGPCGG@?$AAa?$AAu?$AAs?$AAt?$AAr?$AAa?$AAl?$AAi?$AAa?$AAn?$AA?$AA@ 10052b20     LIBCMT:getqloc.obj
 0002:00010b38       ??_C@_1BA@GMENCENF@?$AAb?$AAe?$AAl?$AAg?$AAi?$AAa?$AAn?$AA?$AA@ 10052b38     LIBCMT:getqloc.obj
 0002:00010b48       ??_C@_1BC@PJMIIAAN@?$AAc?$AAa?$AAn?$AAa?$AAd?$AAi?$AAa?$AAn?$AA?$AA@ 10052b48     LIBCMT:getqloc.obj
 0002:00010b5c       ??_C@_17NOIMNFBF@?$AAc?$AAh?$AAh?$AA?$AA@ 10052b5c     LIBCMT:getqloc.obj
 0002:00010b64       ??_C@_17GGDALCHA@?$AAc?$AAh?$AAi?$AA?$AA@ 10052b64     LIBCMT:getqloc.obj
 0002:00010b6c       ??_C@_1BA@NPNJKIBL@?$AAc?$AAh?$AAi?$AAn?$AAe?$AAs?$AAe?$AA?$AA@ 10052b6c     LIBCMT:getqloc.obj
 0002:00010b7c       ??_C@_1CC@DINBAMMJ@?$AAc?$AAh?$AAi?$AAn?$AAe?$AAs?$AAe?$AA?9?$AAh?$AAo?$AAn?$AAg?$AAk?$AAo?$AAn?$AAg?$AA?$AA@ 10052b7c     LIBCMT:getqloc.obj
 0002:00010ba0       ??_C@_1CG@IOBJPACO@?$AAc?$AAh?$AAi?$AAn?$AAe?$AAs?$AAe?$AA?9?$AAs?$AAi?$AAm?$AAp?$AAl?$AAi?$AAf?$AAi?$AAe?$AAd?$AA?$AA@ 10052ba0     LIBCMT:getqloc.obj
 0002:00010bc8       ??_C@_1CE@GAJNDCKG@?$AAc?$AAh?$AAi?$AAn?$AAe?$AAs?$AAe?$AA?9?$AAs?$AAi?$AAn?$AAg?$AAa?$AAp?$AAo?$AAr?$AAe?$AA?$AA@ 10052bc8     LIBCMT:getqloc.obj
 0002:00010bec       ??_C@_1CI@PAJPIOOD@?$AAc?$AAh?$AAi?$AAn?$AAe?$AAs?$AAe?$AA?9?$AAt?$AAr?$AAa?$AAd?$AAi?$AAt?$AAi?$AAo?$AAn?$AAa?$AAl?$AA?$AA@ 10052bec     LIBCMT:getqloc.obj
 0002:00010c14       ??_C@_1BM@NILJBMMD@?$AAd?$AAu?$AAt?$AAc?$AAh?$AA?9?$AAb?$AAe?$AAl?$AAg?$AAi?$AAa?$AAn?$AA?$AA@ 10052c14     LIBCMT:getqloc.obj
 0002:00010c30       ??_C@_1CC@OOJPJNEJ@?$AAe?$AAn?$AAg?$AAl?$AAi?$AAs?$AAh?$AA?9?$AAa?$AAm?$AAe?$AAr?$AAi?$AAc?$AAa?$AAn?$AA?$AA@ 10052c30     LIBCMT:getqloc.obj
 0002:00010c54       ??_C@_1BI@IOLFEEM@?$AAe?$AAn?$AAg?$AAl?$AAi?$AAs?$AAh?$AA?9?$AAa?$AAu?$AAs?$AA?$AA@ 10052c54     LIBCMT:getqloc.obj
 0002:00010c6c       ??_C@_1BO@HFFNLENJ@?$AAe?$AAn?$AAg?$AAl?$AAi?$AAs?$AAh?$AA?9?$AAb?$AAe?$AAl?$AAi?$AAz?$AAe?$AA?$AA@ 10052c6c     LIBCMT:getqloc.obj
 0002:00010c8c       ??_C@_1BI@HAPKJMPO@?$AAe?$AAn?$AAg?$AAl?$AAi?$AAs?$AAh?$AA?9?$AAc?$AAa?$AAn?$AA?$AA@ 10052c8c     LIBCMT:getqloc.obj
 0002:00010ca4       ??_C@_1CE@HLNDMIOJ@?$AAe?$AAn?$AAg?$AAl?$AAi?$AAs?$AAh?$AA?9?$AAc?$AAa?$AAr?$AAi?$AAb?$AAb?$AAe?$AAa?$AAn?$AA?$AA@ 10052ca4     LIBCMT:getqloc.obj
 0002:00010cc8       ??_C@_1BI@LDHJHHAC@?$AAe?$AAn?$AAg?$AAl?$AAi?$AAs?$AAh?$AA?9?$AAi?$AAr?$AAe?$AA?$AA@ 10052cc8     LIBCMT:getqloc.obj
 0002:00010ce0       ??_C@_1CA@NJMMCFOC@?$AAe?$AAn?$AAg?$AAl?$AAi?$AAs?$AAh?$AA?9?$AAj?$AAa?$AAm?$AAa?$AAi?$AAc?$AAa?$AA?$AA@ 10052ce0     LIBCMT:getqloc.obj
 0002:00010d00       ??_C@_1BG@BHJEBBGG@?$AAe?$AAn?$AAg?$AAl?$AAi?$AAs?$AAh?$AA?9?$AAn?$AAz?$AA?$AA@ 10052d00     LIBCMT:getqloc.obj
 0002:00010d18       ??_C@_1CK@FGOEJJCO@?$AAe?$AAn?$AAg?$AAl?$AAi?$AAs?$AAh?$AA?9?$AAs?$AAo?$AAu?$AAt?$AAh?$AA?5?$AAa?$AAf?$AAr?$AAi?$AAc?$AAa?$AA?$AA@ 10052d18     LIBCMT:getqloc.obj
 0002:00010d44       ??_C@_1DE@PDBJPCJ@?$AAe?$AAn?$AAg?$AAl?$AAi?$AAs?$AAh?$AA?9?$AAt?$AAr?$AAi?$AAn?$AAi?$AAd?$AAa?$AAd?$AA?5?$AAy?$AA?5?$AAt?$AAo?$AAb?$AAa?$AAg?$AAo?$AA?$AA@ 10052d44     LIBCMT:getqloc.obj
 0002:00010d78       ??_C@_1BG@JGCANDME@?$AAe?$AAn?$AAg?$AAl?$AAi?$AAs?$AAh?$AA?9?$AAu?$AAk?$AA?$AA@ 10052d78     LIBCMT:getqloc.obj
 0002:00010d90       ??_C@_1BG@DINKMLE@?$AAe?$AAn?$AAg?$AAl?$AAi?$AAs?$AAh?$AA?9?$AAu?$AAs?$AA?$AA@ 10052d90     LIBCMT:getqloc.obj
 0002:00010da8       ??_C@_1BI@NMFDBHJE@?$AAe?$AAn?$AAg?$AAl?$AAi?$AAs?$AAh?$AA?9?$AAu?$AAs?$AAa?$AA?$AA@ 10052da8     LIBCMT:getqloc.obj
 0002:00010dc0       ??_C@_1BO@OIHKJKII@?$AAf?$AAr?$AAe?$AAn?$AAc?$AAh?$AA?9?$AAb?$AAe?$AAl?$AAg?$AAi?$AAa?$AAn?$AA?$AA@ 10052dc0     LIBCMT:getqloc.obj
 0002:00010de0       ??_C@_1CA@NKAELJKI@?$AAf?$AAr?$AAe?$AAn?$AAc?$AAh?$AA?9?$AAc?$AAa?$AAn?$AAa?$AAd?$AAi?$AAa?$AAn?$AA?$AA@ 10052de0     LIBCMT:getqloc.obj
 0002:00010e00       ??_C@_1CE@MGKCNLGN@?$AAf?$AAr?$AAe?$AAn?$AAc?$AAh?$AA?9?$AAl?$AAu?$AAx?$AAe?$AAm?$AAb?$AAo?$AAu?$AAr?$AAg?$AA?$AA@ 10052e00     LIBCMT:getqloc.obj
 0002:00010e24       ??_C@_1BK@CEGEAILM@?$AAf?$AAr?$AAe?$AAn?$AAc?$AAh?$AA?9?$AAs?$AAw?$AAi?$AAs?$AAs?$AA?$AA@ 10052e24     LIBCMT:getqloc.obj
 0002:00010e40       ??_C@_1CA@PAFKEOCC@?$AAg?$AAe?$AAr?$AAm?$AAa?$AAn?$AA?9?$AAa?$AAu?$AAs?$AAt?$AAr?$AAi?$AAa?$AAn?$AA?$AA@ 10052e40     LIBCMT:getqloc.obj
 0002:00010e60       ??_C@_1CI@HCFHGOFD@?$AAg?$AAe?$AAr?$AAm?$AAa?$AAn?$AA?9?$AAl?$AAi?$AAc?$AAh?$AAt?$AAe?$AAn?$AAs?$AAt?$AAe?$AAi?$AAn?$AA?$AA@ 10052e60     LIBCMT:getqloc.obj
 0002:00010e88       ??_C@_1CE@FEDDNPDG@?$AAg?$AAe?$AAr?$AAm?$AAa?$AAn?$AA?9?$AAl?$AAu?$AAx?$AAe?$AAm?$AAb?$AAo?$AAu?$AAr?$AAg?$AA?$AA@ 10052e88     LIBCMT:getqloc.obj
 0002:00010eac       ??_C@_1BK@LIMINNMN@?$AAg?$AAe?$AAr?$AAm?$AAa?$AAn?$AA?9?$AAs?$AAw?$AAi?$AAs?$AAs?$AA?$AA@ 10052eac     LIBCMT:getqloc.obj
 0002:00010ec8       ??_C@_1BM@LGMDBEPD@?$AAi?$AAr?$AAi?$AAs?$AAh?$AA?9?$AAe?$AAn?$AAg?$AAl?$AAi?$AAs?$AAh?$AA?$AA@ 10052ec8     LIBCMT:getqloc.obj
 0002:00010ee4       ??_C@_1BM@NNCFBAEE@?$AAi?$AAt?$AAa?$AAl?$AAi?$AAa?$AAn?$AA?9?$AAs?$AAw?$AAi?$AAs?$AAs?$AA?$AA@ 10052ee4     LIBCMT:getqloc.obj
 0002:00010f00       ??_C@_1BE@FEDJNPIB@?$AAn?$AAo?$AAr?$AAw?$AAe?$AAg?$AAi?$AAa?$AAn?$AA?$AA@ 10052f00     LIBCMT:getqloc.obj
 0002:00010f14       ??_C@_1CC@CILKDEIE@?$AAn?$AAo?$AAr?$AAw?$AAe?$AAg?$AAi?$AAa?$AAn?$AA?9?$AAb?$AAo?$AAk?$AAm?$AAa?$AAl?$AA?$AA@ 10052f14     LIBCMT:getqloc.obj
 0002:00010f38       ??_C@_1CE@DHMMHEPL@?$AAn?$AAo?$AAr?$AAw?$AAe?$AAg?$AAi?$AAa?$AAn?$AA?9?$AAn?$AAy?$AAn?$AAo?$AAr?$AAs?$AAk?$AA?$AA@ 10052f38     LIBCMT:getqloc.obj
 0002:00010f5c       ??_C@_1CK@OPNMHECD@?$AAp?$AAo?$AAr?$AAt?$AAu?$AAg?$AAu?$AAe?$AAs?$AAe?$AA?9?$AAb?$AAr?$AAa?$AAz?$AAi?$AAl?$AAi?$AAa?$AAn?$AA?$AA@ 10052f5c     LIBCMT:getqloc.obj
 0002:00010f88       ??_C@_1CE@KEEHCDB@?$AAs?$AAp?$AAa?$AAn?$AAi?$AAs?$AAh?$AA?9?$AAa?$AAr?$AAg?$AAe?$AAn?$AAt?$AAi?$AAn?$AAa?$AA?$AA@ 10052f88     LIBCMT:getqloc.obj
 0002:00010fac       ??_C@_1CA@GIAOLHJD@?$AAs?$AAp?$AAa?$AAn?$AAi?$AAs?$AAh?$AA?9?$AAb?$AAo?$AAl?$AAi?$AAv?$AAi?$AAa?$AA?$AA@ 10052fac     LIBCMT:getqloc.obj
 0002:00010fcc       ??_C@_1BM@OJNDFNPD@?$AAs?$AAp?$AAa?$AAn?$AAi?$AAs?$AAh?$AA?9?$AAc?$AAh?$AAi?$AAl?$AAe?$AA?$AA@ 10052fcc     LIBCMT:getqloc.obj
 0002:00010fe8       ??_C@_1CC@OCOLPALL@?$AAs?$AAp?$AAa?$AAn?$AAi?$AAs?$AAh?$AA?9?$AAc?$AAo?$AAl?$AAo?$AAm?$AAb?$AAi?$AAa?$AA?$AA@ 10052fe8     LIBCMT:getqloc.obj
 0002:0001100c       ??_C@_1CG@BPOFMKBB@?$AAs?$AAp?$AAa?$AAn?$AAi?$AAs?$AAh?$AA?9?$AAc?$AAo?$AAs?$AAt?$AAa?$AA?5?$AAr?$AAi?$AAc?$AAa?$AA?$AA@ 1005300c     LIBCMT:getqloc.obj
 0002:00011034       ??_C@_1DG@IGOBAPBB@?$AAs?$AAp?$AAa?$AAn?$AAi?$AAs?$AAh?$AA?9?$AAd?$AAo?$AAm?$AAi?$AAn?$AAi?$AAc?$AAa?$AAn?$AA?5?$AAr?$AAe?$AAp?$AAu?$AAb?$AAl?$AAi?$AAc?$AA?$AA@ 10053034     LIBCMT:getqloc.obj
 0002:0001106c       ??_C@_1CA@JHAPGEGI@?$AAs?$AAp?$AAa?$AAn?$AAi?$AAs?$AAh?$AA?9?$AAe?$AAc?$AAu?$AAa?$AAd?$AAo?$AAr?$AA?$AA@ 1005306c     LIBCMT:getqloc.obj
 0002:0001108c       ??_C@_1CI@LAPALJPP@?$AAs?$AAp?$AAa?$AAn?$AAi?$AAs?$AAh?$AA?9?$AAe?$AAl?$AA?5?$AAs?$AAa?$AAl?$AAv?$AAa?$AAd?$AAo?$AAr?$AA?$AA@ 1005308c     LIBCMT:getqloc.obj
 0002:000110b4       ??_C@_1CE@PDGBOFOM@?$AAs?$AAp?$AAa?$AAn?$AAi?$AAs?$AAh?$AA?9?$AAg?$AAu?$AAa?$AAt?$AAe?$AAm?$AAa?$AAl?$AAa?$AA?$AA@ 100530b4     LIBCMT:getqloc.obj
 0002:000110d8       ??_C@_1CC@NBEBAODI@?$AAs?$AAp?$AAa?$AAn?$AAi?$AAs?$AAh?$AA?9?$AAh?$AAo?$AAn?$AAd?$AAu?$AAr?$AAa?$AAs?$AA?$AA@ 100530d8     LIBCMT:getqloc.obj
 0002:000110fc       ??_C@_1CA@LLKGHBMF@?$AAs?$AAp?$AAa?$AAn?$AAi?$AAs?$AAh?$AA?9?$AAm?$AAe?$AAx?$AAi?$AAc?$AAa?$AAn?$AA?$AA@ 100530fc     LIBCMT:getqloc.obj
 0002:0001111c       ??_C@_1BO@LKNDOIGD@?$AAs?$AAp?$AAa?$AAn?$AAi?$AAs?$AAh?$AA?9?$AAm?$AAo?$AAd?$AAe?$AAr?$AAn?$AA?$AA@ 1005311c     LIBCMT:getqloc.obj
 0002:0001113c       ??_C@_1CE@NMDMOEEB@?$AAs?$AAp?$AAa?$AAn?$AAi?$AAs?$AAh?$AA?9?$AAn?$AAi?$AAc?$AAa?$AAr?$AAa?$AAg?$AAu?$AAa?$AA?$AA@ 1005313c     LIBCMT:getqloc.obj
 0002:00011160       ??_C@_1BO@LLCBEJGB@?$AAs?$AAp?$AAa?$AAn?$AAi?$AAs?$AAh?$AA?9?$AAp?$AAa?$AAn?$AAa?$AAm?$AAa?$AA?$AA@ 10053160     LIBCMT:getqloc.obj
 0002:00011180       ??_C@_1CC@FKPGGIHO@?$AAs?$AAp?$AAa?$AAn?$AAi?$AAs?$AAh?$AA?9?$AAp?$AAa?$AAr?$AAa?$AAg?$AAu?$AAa?$AAy?$AA?$AA@ 10053180     LIBCMT:getqloc.obj
 0002:000111a4       ??_C@_1BK@CDEIHOOP@?$AAs?$AAp?$AAa?$AAn?$AAi?$AAs?$AAh?$AA?9?$AAp?$AAe?$AAr?$AAu?$AA?$AA@ 100531a4     LIBCMT:getqloc.obj
 0002:000111c0       ??_C@_1CI@GAHAKKGP@?$AAs?$AAp?$AAa?$AAn?$AAi?$AAs?$AAh?$AA?9?$AAp?$AAu?$AAe?$AAr?$AAt?$AAo?$AA?5?$AAr?$AAi?$AAc?$AAo?$AA?$AA@ 100531c0     LIBCMT:getqloc.obj
 0002:000111e8       ??_C@_1CA@NKJBCAGP@?$AAs?$AAp?$AAa?$AAn?$AAi?$AAs?$AAh?$AA?9?$AAu?$AAr?$AAu?$AAg?$AAu?$AAa?$AAy?$AA?$AA@ 100531e8     LIBCMT:getqloc.obj
 0002:00011208       ??_C@_1CE@ODILCONM@?$AAs?$AAp?$AAa?$AAn?$AAi?$AAs?$AAh?$AA?9?$AAv?$AAe?$AAn?$AAe?$AAz?$AAu?$AAe?$AAl?$AAa?$AA?$AA@ 10053208     LIBCMT:getqloc.obj
 0002:0001122c       ??_C@_1CA@OBNMCGFO@?$AAs?$AAw?$AAe?$AAd?$AAi?$AAs?$AAh?$AA?9?$AAf?$AAi?$AAn?$AAl?$AAa?$AAn?$AAd?$AA?$AA@ 1005322c     LIBCMT:getqloc.obj
 0002:0001124c       ??_C@_1M@PIPDDPPI@?$AAs?$AAw?$AAi?$AAs?$AAs?$AA?$AA@ 1005324c     LIBCMT:getqloc.obj
 0002:00011258       ??_C@_15GMFIMNFM@?$AAu?$AAs?$AA?$AA@ 10053258     LIBCMT:getqloc.obj
 0002:00011260       ??_C@_17HAEBFAGL@?$AAu?$AAs?$AAa?$AA?$AA@ 10053260     LIBCMT:getqloc.obj
 0002:00011268       ___rg_country              10053268     LIBCMT:getqloc.obj
 0002:0001137c       ??_C@_1BA@DPFJEPHB@?$AAa?$AAm?$AAe?$AAr?$AAi?$AAc?$AAa?$AA?$AA@ 1005337c     LIBCMT:getqloc.obj
 0002:0001138c       ??_C@_1BA@ELOGGFK@?$AAb?$AAr?$AAi?$AAt?$AAa?$AAi?$AAn?$AA?$AA@ 1005338c     LIBCMT:getqloc.obj
 0002:0001139c       ??_C@_1M@GHBGIGDA@?$AAc?$AAh?$AAi?$AAn?$AAa?$AA?$AA@ 1005339c     LIBCMT:getqloc.obj
 0002:000113a8       ??_C@_1M@NCHEJOPO@?$AAc?$AAz?$AAe?$AAc?$AAh?$AA?$AA@ 100533a8     LIBCMT:getqloc.obj
 0002:000113b4       ??_C@_1BA@BKPAPBLA@?$AAe?$AAn?$AAg?$AAl?$AAa?$AAn?$AAd?$AA?$AA@ 100533b4     LIBCMT:getqloc.obj
 0002:000113c4       ??_C@_1BM@HKBCKIPC@?$AAg?$AAr?$AAe?$AAa?$AAt?$AA?5?$AAb?$AAr?$AAi?$AAt?$AAa?$AAi?$AAn?$AA?$AA@ 100533c4     LIBCMT:getqloc.obj
 0002:000113e0       ??_C@_1BA@PPCHPGJB@?$AAh?$AAo?$AAl?$AAl?$AAa?$AAn?$AAd?$AA?$AA@ 100533e0     LIBCMT:getqloc.obj
 0002:000113f0       ??_C@_1BE@JBMPEGDG@?$AAh?$AAo?$AAn?$AAg?$AA?9?$AAk?$AAo?$AAn?$AAg?$AA?$AA@ 100533f0     LIBCMT:getqloc.obj
 0002:00011404       ??_C@_1BI@KOELBBPJ@?$AAn?$AAe?$AAw?$AA?9?$AAz?$AAe?$AAa?$AAl?$AAa?$AAn?$AAd?$AA?$AA@ 10053404     LIBCMT:getqloc.obj
 0002:0001141c       ??_C@_15HIEBHAIO@?$AAn?$AAz?$AA?$AA@ 1005341c     LIBCMT:getqloc.obj
 0002:00011424       ??_C@_1BC@CHBCPFPI@?$AAp?$AAr?$AA?5?$AAc?$AAh?$AAi?$AAn?$AAa?$AA?$AA@ 10053424     LIBCMT:getqloc.obj
 0002:00011438       ??_C@_1BC@JAOIIFKD@?$AAp?$AAr?$AA?9?$AAc?$AAh?$AAi?$AAn?$AAa?$AA?$AA@ 10053438     LIBCMT:getqloc.obj
 0002:0001144c       ??_C@_1BI@BEHPPHKC@?$AAp?$AAu?$AAe?$AAr?$AAt?$AAo?$AA?9?$AAr?$AAi?$AAc?$AAo?$AA?$AA@ 1005344c     LIBCMT:getqloc.obj
 0002:00011464       ??_C@_1O@PAEOFKDI@?$AAs?$AAl?$AAo?$AAv?$AAa?$AAk?$AA?$AA@ 10053464     LIBCMT:getqloc.obj
 0002:00011474       ??_C@_1BK@FIHMCKAM@?$AAs?$AAo?$AAu?$AAt?$AAh?$AA?5?$AAa?$AAf?$AAr?$AAi?$AAc?$AAa?$AA?$AA@ 10053474     LIBCMT:getqloc.obj
 0002:00011490       ??_C@_1BI@NAEOODKB@?$AAs?$AAo?$AAu?$AAt?$AAh?$AA?5?$AAk?$AAo?$AAr?$AAe?$AAa?$AA?$AA@ 10053490     LIBCMT:getqloc.obj
 0002:000114a8       ??_C@_1BK@FBDGGIFF@?$AAs?$AAo?$AAu?$AAt?$AAh?$AA?9?$AAa?$AAf?$AAr?$AAi?$AAc?$AAa?$AA?$AA@ 100534a8     LIBCMT:getqloc.obj
 0002:000114c4       ??_C@_1BI@GHLEJDPK@?$AAs?$AAo?$AAu?$AAt?$AAh?$AA?9?$AAk?$AAo?$AAr?$AAe?$AAa?$AA?$AA@ 100534c4     LIBCMT:getqloc.obj
 0002:000114dc       ??_C@_1CE@PLHLOMJF@?$AAt?$AAr?$AAi?$AAn?$AAi?$AAd?$AAa?$AAd?$AA?5?$AA?$CG?$AA?5?$AAt?$AAo?$AAb?$AAa?$AAg?$AAo?$AA?$AA@ 100534dc     LIBCMT:getqloc.obj
 0002:00011500       ??_C@_1BO@MODIMHHI@?$AAu?$AAn?$AAi?$AAt?$AAe?$AAd?$AA?9?$AAk?$AAi?$AAn?$AAg?$AAd?$AAo?$AAm?$AA?$AA@ 10053500     LIBCMT:getqloc.obj
 0002:00011520       ??_C@_1BM@FFHJONBJ@?$AAu?$AAn?$AAi?$AAt?$AAe?$AAd?$AA?9?$AAs?$AAt?$AAa?$AAt?$AAe?$AAs?$AA?$AA@ 10053520     LIBCMT:getqloc.obj
 0002:0001153c       ___rg_language_count       1005353c     LIBCMT:getqloc.obj
 0002:00011540       ___rg_country_count        10053540     LIBCMT:getqloc.obj
 0002:00011544       ??_C@_17DNCLJFIF@?$AAA?$AAC?$AAP?$AA?$AA@ 10053544     LIBCMT:getqloc.obj
 0002:0001154c       ??_C@_17CIKBIHLH@?$AAO?$AAC?$AAP?$AA?$AA@ 1005354c     LIBCMT:getqloc.obj
 0002:00011554       ___rglangidNotDefault      10053554     LIBCMT:getqloc_downlevel.obj
 0002:00011568       __real@00000000            10053568     LIBCMT:wcstoq.obj
 0002:00011570       __load_config_used         10053570     LIBCMT:loadcfg.obj
 0002:00013930       ___safe_se_handler_table   10055930     <linker-defined>
 0002:00013a40       ___rtc_iaa                 10055a40     LIBCMT:initsect.obj
 0002:00013b44       ___rtc_izz                 10055b44     LIBCMT:initsect.obj
 0002:00013c48       ___rtc_taa                 10055c48     LIBCMT:initsect.obj
 0002:00013d4c       ___rtc_tzz                 10055d4c     LIBCMT:initsect.obj
 0003:00000478       _FingerStrokeAssistance_P  10057478     FingerStrokeAssistance_data.obj
 0003:00000d48       _pci20041digout            10057d48     xpctarget.obj
 0003:00000d4c       _nipcdio24cnfg             10057d4c     xpctarget.obj
 0003:00000d50       _rtddm6604cnfg             10057d50     xpctarget.obj
 0003:00001478       _DefaultCOMIOBase          10058478     xpcruntime:xpcimports.obj
 0003:00001488       _DefaultCOMIRQ             10058488     xpcruntime:xpcimports.obj
 0003:000014a0       __fltused                  100584a0     LIBCMT:fpinit.obj
 0003:000014a4       __ldused                   100584a4     LIBCMT:fpinit.obj
 0003:000014b0       __iob                      100584b0     LIBCMT:_file.obj
 0003:00001730       ___isa_enabled             10058730     LIBCMT:cpu_disp.obj
 0003:00001734       ___security_cookie         10058734     LIBCMT:gs_cookie.obj
 0003:00001738       ___security_cookie_complement 10058738     LIBCMT:gs_cookie.obj
 0003:00001910       ___nullstring              10058910     LIBCMT:output.obj
 0003:00001914       ___wnullstring             10058914     LIBCMT:output.obj
 0003:00001924       __cfltcvt_tab              10058924     LIBCMT:cmiscdat.obj
 0003:00001a70       __mbctype                  10058a70     LIBCMT:mbctype.obj
 0003:00001b78       __mbcasemap                10058b78     LIBCMT:mbctype.obj
 0003:00001c78       ___initialmbcinfo          10058c78     LIBCMT:mbctype.obj
 0003:00001e9c       ___ptmbcinfo               10058e9c     LIBCMT:mbctype.obj
 0003:00001f90       ___badioinfo               10058f90     LIBCMT:ioinit.obj
 0003:00001fd0       __lookuptrailbytes         10058fd0     LIBCMT:read.obj
 0003:000020d0       __d_inf                    100590d0     LIBCMT:util.obj
 0003:000020d8       __d_ind                    100590d8     LIBCMT:util.obj
 0003:000020e0       __d_max                    100590e0     LIBCMT:util.obj
 0003:000020e8       __d_min                    100590e8     LIBCMT:util.obj
 0003:000020f0       __d_mzero                  100590f0     LIBCMT:util.obj
 0003:000021fc       ___abort_behavior          100591fc     LIBCMT:abort.obj
 0003:00002200       ___flsindex                10059200     LIBCMT:tidtable.obj
 0003:00002210       ___mb_cur_max              10059210     LIBCMT:nlsdata.obj
 0003:00002214       ___wclocalestr             10059214     LIBCMT:nlsdata.obj
 0003:00002218       ___lc_time_c               10059218     LIBCMT:nlsdata.obj
 0003:0000237c       ___ptlocinfo               1005937c     LIBCMT:nlsdata.obj
 0003:00002380       ___initiallocinfo          10059380     LIBCMT:nlsdata.obj
 0003:00002438       ___initiallocalestructinfo 10059438     LIBCMT:nlsdata.obj
 0003:00002440       ___globallocalestatus      10059440     LIBCMT:glstatus.obj
 0003:00002444       __matherr_flag             10059444     LIBCMT:matherr.obj
 0003:00002450       __NLG_Destination          10059450     LIBCMT:exsup.obj
 0003:00002460       ___lconv                   10059460     LIBCMT:lconv.obj
 0003:00002464       ___lconv_static_decimal    10059464     LIBCMT:lconv.obj
 0003:00002468       ___lconv_c                 10059468     LIBCMT:lconv.obj
 0003:000024b8       ___lconv_static_W_decimal  100594b8     LIBCMT:lconv.obj
 0003:000024bc       __pctype                   100594bc     LIBCMT:ctype.obj
 0003:000024c0       __pwctype                  100594c0     LIBCMT:ctype.obj
 0003:00002500       __confh                    10059500     LIBCMT:initcon.obj
 0003:00002508       __pow10pos                 10059508     LIBCMT:constpow.obj
 0003:00002668       __pow10neg                 10059668     LIBCMT:constpow.obj
 0003:000027d0       __HUGE                     100597d0     LIBCMT:huge.obj
 0003:00002d1c       ___isa_available_default   10059d1c     rt_logging.obj
 0003:00002d2c       _pci20098PortA             10059d2c     xpctarget.obj
 0003:00002d30       _pci20098PortB             10059d30     xpctarget.obj
 0003:00002d34       _siepowercan_firmware_initialized 10059d34     xpctarget.obj
 0003:00002d38       _siepowercan_port1_configured 10059d38     xpctarget.obj
 0003:00002d3c       _siepowercan_port2_configured 10059d3c     xpctarget.obj
 0003:00002d40       _CANAC2_FIRMWARE_LOADED    10059d40     xpctarget.obj
 0003:00002d44       _rs232ports                10059d44     xpctarget.obj
 0003:00002d54       _NI_AT_MIO_16F_5_commreg2  10059d54     xpctarget.obj
 0003:00002d58       _RTD_DM6430_init           10059d58     xpctarget.obj
 0003:00002d5c       _RTD_DM6420_init           10059d5c     xpctarget.obj
 0003:00002d60       _CANAC2_FIRMWARE_LOADED_mb1 10059d60     xpctarget.obj
 0003:00002d64       _CANAC2_FIRMWARE_LOADED_mb2 10059d64     xpctarget.obj
 0003:00002d68       _CANAC2_FIRMWARE_LOADED_mb3 10059d68     xpctarget.obj
 0003:00002d6c       _xmlsize                   10059d6c     xpctarget.obj
 0003:00003478       ___fastflag                1005a478     LIBCMT:fpinit.obj
 0003:000037a0       __C_Exit_Done              1005a7a0     LIBCMT:crt0dat.obj
 0003:000037a4       ___argc                    1005a7a4     LIBCMT:crt0dat.obj
 0003:000037a8       ___argv                    1005a7a8     LIBCMT:crt0dat.obj
 0003:000037ac       ___wargv                   1005a7ac     LIBCMT:crt0dat.obj
 0003:000037b0       __environ                  1005a7b0     LIBCMT:crt0dat.obj
 0003:000037b4       __wenviron                 1005a7b4     LIBCMT:crt0dat.obj
 0003:000037b8       __pgmptr                   1005a7b8     LIBCMT:crt0dat.obj
 0003:000037bc       __wpgmptr                  1005a7bc     LIBCMT:crt0dat.obj
 0003:000037c0       __umaskval                 1005a7c0     LIBCMT:crt0dat.obj
 0003:000037c4       __exitflag                 1005a7c4     LIBCMT:crt0dat.obj
 0003:000037c8       __C_Termination_Done       1005a7c8     LIBCMT:crt0dat.obj
 0003:000037cc       ___winitenv                1005a7cc     LIBCMT:crt0dat.obj
 0003:000037d0       ___initenv                 1005a7d0     LIBCMT:crt0dat.obj
 0003:000037d4       __cflush                   1005a7d4     LIBCMT:_file.obj
 0003:000037d8       ___isa_available           1005a7d8     LIBCMT:cpu_disp.obj
 0003:000037dc       ___favor                   1005a7dc     LIBCMT:cpu_disp.obj
 0003:000037e4       __aenvptr                  1005a7e4     LIBCMT:dllcrt0.obj
 0003:000037e8       __wenvptr                  1005a7e8     LIBCMT:dllcrt0.obj
 0003:000037ec       ?_pnhHeap@@3P6AHI@ZA       1005a7ec     LIBCMT:handler.obj
 0003:000037f0       ___app_type                1005a7f0     LIBCMT:crt0msg.obj
 0003:00003e20       __newmode                  1005ae20     LIBCMT:_newmode.obj
 0003:00003e24       __crtheap                  1005ae24     LIBCMT:heapinit.obj
 0003:00003e28       ___pInvalidArgHandler      1005ae28     LIBCMT:invarg.obj
 0003:00003e2c       __stdbuf                   1005ae2c     LIBCMT:_sftbuf.obj
 0003:00003f88       __maxwait                  1005af88     LIBCMT:crtheap.obj
 0003:00003f8c       ?__pInconsistency@@3P6AXXZA 1005af8c     LIBCMT:hooks.obj
 0003:00003f90       ___pPurecall               1005af90     LIBCMT:inithelp.obj
 0003:00003fac       ___mbcodepage              1005afac     LIBCMT:mbctype.obj
 0003:00003fb0       ___ismbcodepage            1005afb0     LIBCMT:mbctype.obj
 0003:00003fb4       ___mbulinfo                1005afb4     LIBCMT:mbctype.obj
 0003:00003fc0       ___mblocalename            1005afc0     LIBCMT:mbctype.obj
 0003:00003fc8       ___pioinfo                 1005afc8     LIBCMT:ioinit.obj
 0003:000040c8       ___error_mode              1005b0c8     LIBCMT:errmode.obj
 0003:000041e8       __outputformat             1005b1e8     LIBCMT:outputformat.obj
 0003:000041f0       __commode                  1005b1f0     LIBCMT:ncommode.obj
 0003:000041f4       ___lconv_static_null       1005b1f4     LIBCMT:lconv.obj
 0003:000041f8       ___lconv_static_W_null     1005b1f8     LIBCMT:lconv.obj
 0003:000041fc       ___locale_changed          1005b1fc     LIBCMT:wsetloca.obj
 0003:00004200       __fmode                    1005b200     LIBCMT:txtmode.obj
 0003:00004220       _CANAC2_2_receiveindex_mb3 1005b220     <common>
 0003:000072f4       _CANAC2_2_receivemaxindex_mb3 1005e2f4     <common>
 0003:00007300       _CANAC2_2_sendindex_mb3    1005e300     <common>
 0003:00007620       _CANAC2_2_sendmaxindex_mb3 1005e620     <common>
 0003:00007640       _CANAC2_1_receiveindex_mb3 1005e640     <common>
 0003:00007960       _CANAC2_1_receivemaxindex_mb3 1005e960     <common>
 0003:00007980       _CANAC2_1_sendindex_mb3    1005e980     <common>
 0003:00007ca0       _CANAC2_1_sendmaxindex_mb3 1005eca0     <common>
 0003:00007cc0       _CANAC2_2_receive_mb3      1005ecc0     <common>
 0003:00007fe0       _CANAC2_2_send_mb3         1005efe0     <common>
 0003:00008300       _CANAC2_1_receive_mb3      1005f300     <common>
 0003:00008620       _CANAC2_1_send_mb3         1005f620     <common>
 0003:00008940       _CANAC2_2_receiveindex_mb2 1005f940     <common>
 0003:00008c60       _CANAC2_2_receivemaxindex_mb2 1005fc60     <common>
 0003:00008c80       _CANAC2_2_sendindex_mb2    1005fc80     <common>
 0003:00008fa0       _CANAC2_2_sendmaxindex_mb2 1005ffa0     <common>
 0003:00008fc0       _CANAC2_1_receiveindex_mb2 1005ffc0     <common>
 0003:000092e0       _CANAC2_1_receivemaxindex_mb2 100602e0     <common>
 0003:00009300       _CANAC2_1_sendindex_mb2    10060300     <common>
 0003:00009620       _CANAC2_1_sendmaxindex_mb2 10060620     <common>
 0003:00009640       _CANAC2_2_receive_mb2      10060640     <common>
 0003:00009960       _CANAC2_2_send_mb2         10060960     <common>
 0003:00009c80       _CANAC2_1_receive_mb2      10060c80     <common>
 0003:00009fa0       _CANAC2_1_send_mb2         10060fa0     <common>
 0003:0000a2c0       _CANAC2_2_receiveindex_mb1 100612c0     <common>
 0003:0000a5e0       _CANAC2_2_receivemaxindex_mb1 100615e0     <common>
 0003:0000a600       _CANAC2_2_sendindex_mb1    10061600     <common>
 0003:0000a920       _CANAC2_2_sendmaxindex_mb1 10061920     <common>
 0003:0000a940       _CANAC2_1_receiveindex_mb1 10061940     <common>
 0003:0000ac60       _CANAC2_1_receivemaxindex_mb1 10061c60     <common>
 0003:0000ac80       _CANAC2_1_sendindex_mb1    10061c80     <common>
 0003:0000afa0       _CANAC2_1_sendmaxindex_mb1 10061fa0     <common>
 0003:0000afc0       _CANAC2_2_receive_mb1      10061fc0     <common>
 0003:0000b2e0       _CANAC2_2_send_mb1         100622e0     <common>
 0003:0000b600       _CANAC2_1_receive_mb1      10062600     <common>
 0003:0000b920       _CANAC2_1_send_mb1         10062920     <common>
 0003:0000bc40       _CANAC2_2_receiveindex     10062c40     <common>
 0003:0000bf60       _CANAC2_2_receivemaxindex  10062f60     <common>
 0003:0000bf80       _CANAC2_2_sendindex        10062f80     <common>
 0003:0000c2a0       _CANAC2_2_sendmaxindex     100632a0     <common>
 0003:0000c2c0       _CANAC2_1_receiveindex     100632c0     <common>
 0003:0000c5e0       _CANAC2_1_receivemaxindex  100635e0     <common>
 0003:0000c600       _CANAC2_1_sendindex        10063600     <common>
 0003:0000c920       _CANAC2_1_sendmaxindex     10063920     <common>
 0003:0000c940       _CANAC2_2_receive          10063940     <common>
 0003:0000cc60       _CANAC2_2_send             10063c60     <common>
 0003:0000cf80       _CANAC2_1_receive          10063f80     <common>
 0003:0000d2a0       _CANAC2_1_send             100642a0     <common>
 0003:0000d5c0       _siepowercan_can_object_buffer_port2 100645c0     <common>
 0003:000115e0       _siepowercan_can_object_buffer_port1 100685e0     <common>
 0003:000155e0       _rtNaNF                    1006c5e0     <common>
 0003:000155f4       _rtMinusInfF               1006c5f4     <common>
 0003:000155f8       _rtInfF                    1006c5f8     <common>
 0003:00015600       _rtNaN                     1006c600     <common>
 0003:00015608       _rtMinusInf                1006c608     <common>
 0003:00015610       _rtInf                     1006c610     <common>
 0003:00015620       _FingerStrokeAssistance_DW 1006c620     <common>
 0003:00015f60       _FingerStrokeAssistance_B  1006cf60     <common>
 0003:000164a0       _FingerStrokeAssistance_M_ 1006d4a0     <common>
 0003:00017a58       _xpceaddEvent              1006ea58     <common>
 0003:00017aa8       _xpceDeRegisterISR         1006eaa8     <common>
 0003:00017aac       _xpceRegisterISR           1006eaac     <common>
 0003:00017ab0       _xpcIsModelInit            1006eab0     <common>
 0003:00017ab4       _xpcGetElapsedTime         1006eab4     <common>
 0003:00017ab8       _xpcBusyWait               1006eab8     <common>
 0003:00017abc       _xpcFreePhysicalMemory     1006eabc     <common>
 0003:00017ac0       _xpcAllocPhysicalMemory    1006eac0     <common>
 0003:00017ac4       _xpcReserveMemoryRegion    1006eac4     <common>
 0003:00017ac8       _xpcOutpB                  1006eac8     <common>
 0003:00017acc       _xpcOutpW                  1006eacc     <common>
 0003:00017ad0       _xpcOutpDW                 1006ead0     <common>
 0003:00017ad4       _xpcInpB                   1006ead4     <common>
 0003:00017ad8       _xpcInpW                   1006ead8     <common>
 0003:00017adc       _xpcInpDW                  1006eadc     <common>
 0003:00017ae0       _slTestRegAssessment       1006eae0     <common>
 0003:00017ae4       _slTestTerminate           1006eae4     <common>
 0003:00017ae8       _slTestEvalOnFail          1006eae8     <common>
 0003:00017aec       _slTestLogAssessments      1006eaec     <common>
 0003:00017af0       _slTestInitialize          1006eaf0     <common>
 0003:00017af4       _unRegisterPTPTimeRead     1006eaf4     <common>
 0003:00017af8       _registerPTPTimeRead       1006eaf8     <common>
 0003:00017afc       _slrteGetCurrentStepSize   1006eafc     <common>
 0003:00017b00       _slrteSetStepSizeDelta     1006eb00     <common>
 0003:00017b04       _xpceGetIntTimerGranularityNS 1006eb04     <common>
 0003:00017b08       _sendToAsyncQueueTgtAppSvc 1006eb08     <common>
 0003:00017b0c       _terminateToAsyncQueueTgtAppSvc 1006eb0c     <common>
 0003:00017b10       _startToAsyncQueueTgtAppSvc 1006eb10     <common>
 0003:00017b14       _getStatusFlags            1006eb14     <common>
 0003:00017b18       _getCommService            1006eb18     <common>
 0003:00017b1c       _getMemoryService          1006eb1c     <common>
 0003:00017b20       _StreamVideo               1006eb20     <common>
 0003:00017b24       _StopVideoDisplay          1006eb24     <common>
 0003:00017b28       _StartVideoDisplay         1006eb28     <common>
 0003:00017b2c       _DestroyVideoDisplay       1006eb2c     <common>
 0003:00017b30       _CreateVideoDisplay        1006eb30     <common>
 0003:00017b34       _ConvertUImage             1006eb34     <common>
 0003:00017b38       _StopVideo                 1006eb38     <common>
 0003:00017b3c       _ReadFrameBuffer           1006eb3c     <common>
 0003:00017b40       _StartVideo                1006eb40     <common>
 0003:00017b44       _GetVideoConfigs           1006eb44     <common>
 0003:00017b48       _FindUsbVideoDevice        1006eb48     <common>
 0003:00017b4c       _xpceDeleteSemaphore       1006eb4c     <common>
 0003:00017b50       _xpceSignalSemaphore       1006eb50     <common>
 0003:00017b54       _xpceWaitSemaphore         1006eb54     <common>
 0003:00017b58       _xpceCreateSemaphore       1006eb58     <common>
 0003:00017b5c       _TBGiveSpinFast            1006eb5c     <common>
 0003:00017b60       _TBTakeSpinFast            1006eb60     <common>
 0003:00017b64       _TBDeleteSpin              1006eb64     <common>
 0003:00017b68       _TBCreateSpin              1006eb68     <common>
 0003:00017b6c       _xpceScopeAcqOK            1006eb6c     <common>
 0003:00017b70       _rl32eRestartAcquisition   1006eb70     <common>
 0003:00017b74       _rl32eSetTargetScopeSigFt  1006eb74     <common>
 0003:00017b78       _rl32eSetTargetScope       1006eb78     <common>
 0003:00017b7c       _xpceFSScopeSet            1006eb7c     <common>
 0003:00017b80       _rl32eSetScope             1006eb80     <common>
 0003:00017b84       _rl32eAddSignal            1006eb84     <common>
 0003:00017b88       _rl32eGetSignalNo          1006eb88     <common>
 0003:00017b8c       _rl32eDefScope             1006eb8c     <common>
 0003:00017b90       _rl32eScopeExists          1006eb90     <common>
 0003:00017b94       _xpceUDPClose              1006eb94     <common>
 0003:00017b98       _xpceUDPReceive            1006eb98     <common>
 0003:00017b9c       _xpceUDPSend               1006eb9c     <common>
 0003:00017ba0       _xpceUDPOpenReceive        1006eba0     <common>
 0003:00017ba4       _xpceUDPOpenSend           1006eba4     <common>
 0003:00017ba8       _rl32eSendBlock            1006eba8     <common>
 0003:00017bac       _rl32eLineStatus           1006ebac     <common>
 0003:00017bb0       _rl32eReceiveBufferCount   1006ebb0     <common>
 0003:00017bb4       _rl32eReceiveChar          1006ebb4     <common>
 0003:00017bb8       _rl32eSendChar             1006ebb8     <common>
 0003:00017bbc       _rl32eCloseCOMPort         1006ebbc     <common>
 0003:00017bc0       _rl32eInitCOMPort          1006ebc0     <common>
 0003:00017bc4       _xpceGetParamDims          1006ebc4     <common>
 0003:00017bc8       _xpceGetParameter          1006ebc8     <common>
 0003:00017bcc       _xpceSetParameter          1006ebcc     <common>
 0003:00017bd0       _xpceGetSignalValue        1006ebd0     <common>
 0003:00017bd4       _xpceAssignPCIInterrupt    1006ebd4     <common>
 0003:00017bd8       _rl32eGetPCIInfoAtSlot     1006ebd8     <common>
 0003:00017bdc       _rl32eGetPCIInfo           1006ebdc     <common>
 0003:00017be0       _rl32eShowPCIInfo          1006ebe0     <common>
 0003:00017be4       _rl32eShowPCIDev           1006ebe4     <common>
 0003:00017be8       _xpceGetTET                1006ebe8     <common>
 0003:00017bec       _xpceFTSubtract            1006ebec     <common>
 0003:00017bf0       _xpceFTAdd                 1006ebf0     <common>
 0003:00017bf4       _xpceFTReadTime            1006ebf4     <common>
 0003:00017bf8       ___unguarded_readlc_active 1006ebf8     <common>
 0003:00017c08       ___setlc_active            1006ec08     <common>
 0003:00017c0c       __nhandle                  1006ec0c     <common>
 0003:00017c20       _encodedKERNEL32Functions  1006ec20     <common>
 0003:00017cc8       __debugger_hook_dummy      1006ecc8     <common>
 0003:00017cd4       ___use_sse2_mathfcns       1006ecd4     <common>
 0003:00017ce0       __pmatherr                 1006ece0     <common>
 0003:00017cec       __pDestructExceptionObject 1006ecec     <common>
 0003:00017cf8       __acmdln                   1006ecf8     <common>
 0003:00017d20       __bufin                    1006ed20     <common>
 0003:0001905c       ___piob                    1007005c     <common>
 0003:00019060       __nstream                  10070060     <common>
 0003:00019064       ___dyn_tls_init_callback   10070064     <common>
 0003:00019074       ___onexitend               10070074     <common>
 0003:00019078       ___onexitbegin             10070078     <common>
 0003:0001907c       ___mbctype_initialized     1007007c     <common>
 0003:00019080       ___env_initialized         10070080     <common>
 0004:00000000       __imp__GetModuleHandleA@4  10071000     kernel32:KERNEL32.dll
 0004:00000004       __imp__GetProcAddress@8    10071004     kernel32:KERNEL32.dll
 0004:00000008       __imp__HeapAlloc@12        10071008     kernel32:KERNEL32.dll
 0004:0000000c       __imp__IsDebuggerPresent@0 1007100c     kernel32:KERNEL32.dll
 0004:00000010       __imp__IsProcessorFeaturePresent@4 10071010     kernel32:KERNEL32.dll
 0004:00000014       __imp__EncodePointer@4     10071014     kernel32:KERNEL32.dll
 0004:00000018       __imp__DecodePointer@4     10071018     kernel32:KERNEL32.dll
 0004:0000001c       __imp__GetLastError@0      1007101c     kernel32:KERNEL32.dll
 0004:00000020       __imp__ExitProcess@4       10071020     kernel32:KERNEL32.dll
 0004:00000024       __imp__GetModuleHandleExW@12 10071024     kernel32:KERNEL32.dll
 0004:00000028       __imp__AreFileApisANSI@0   10071028     kernel32:KERNEL32.dll
 0004:0000002c       __imp__MultiByteToWideChar@24 1007102c     kernel32:KERNEL32.dll
 0004:00000030       __imp__WideCharToMultiByte@32 10071030     kernel32:KERNEL32.dll
 0004:00000034       __imp__HeapFree@12         10071034     kernel32:KERNEL32.dll
 0004:00000038       __imp__HeapReAlloc@16      10071038     kernel32:KERNEL32.dll
 0004:0000003c       __imp__EnterCriticalSection@4 1007103c     kernel32:KERNEL32.dll
 0004:00000040       __imp__LeaveCriticalSection@4 10071040     kernel32:KERNEL32.dll
 0004:00000044       __imp__GetStdHandle@4      10071044     kernel32:KERNEL32.dll
 0004:00000048       __imp__GetFileType@4       10071048     kernel32:KERNEL32.dll
 0004:0000004c       __imp__GetModuleFileNameW@12 1007104c     kernel32:KERNEL32.dll
 0004:00000050       __imp__WriteConsoleW@20    10071050     kernel32:KERNEL32.dll
 0004:00000054       __imp__GetCommandLineA@0   10071054     kernel32:KERNEL32.dll
 0004:00000058       __imp__GetCurrentThreadId@0 10071058     kernel32:KERNEL32.dll
 0004:0000005c       __imp__WriteFile@20        1007105c     kernel32:KERNEL32.dll
 0004:00000060       __imp__GetProcessHeap@0    10071060     kernel32:KERNEL32.dll
 0004:00000064       __imp__UnhandledExceptionFilter@4 10071064     kernel32:KERNEL32.dll
 0004:00000068       __imp__SetUnhandledExceptionFilter@4 10071068     kernel32:KERNEL32.dll
 0004:0000006c       __imp__SetLastError@4      1007106c     kernel32:KERNEL32.dll
 0004:00000070       __imp__InitializeCriticalSectionAndSpinCount@8 10071070     kernel32:KERNEL32.dll
 0004:00000074       __imp__CreateEventW@16     10071074     kernel32:KERNEL32.dll
 0004:00000078       __imp__Sleep@4             10071078     kernel32:KERNEL32.dll
 0004:0000007c       __imp__GetCurrentProcess@0 1007107c     kernel32:KERNEL32.dll
 0004:00000080       __imp__TerminateProcess@8  10071080     kernel32:KERNEL32.dll
 0004:00000084       __imp__TlsAlloc@0          10071084     kernel32:KERNEL32.dll
 0004:00000088       __imp__TlsGetValue@4       10071088     kernel32:KERNEL32.dll
 0004:0000008c       __imp__TlsSetValue@8       1007108c     kernel32:KERNEL32.dll
 0004:00000090       __imp__TlsFree@4           10071090     kernel32:KERNEL32.dll
 0004:00000094       __imp__GetStartupInfoW@4   10071094     kernel32:KERNEL32.dll
 0004:00000098       __imp__GetTickCount@0      10071098     kernel32:KERNEL32.dll
 0004:0000009c       __imp__GetModuleHandleW@4  1007109c     kernel32:KERNEL32.dll
 0004:000000a0       __imp__CreateSemaphoreW@16 100710a0     kernel32:KERNEL32.dll
 0004:000000a4       __imp__DeleteCriticalSection@4 100710a4     kernel32:KERNEL32.dll
 0004:000000a8       __imp__FatalAppExitA@8     100710a8     kernel32:KERNEL32.dll
 0004:000000ac       __imp__SetConsoleCtrlHandler@8 100710ac     kernel32:KERNEL32.dll
 0004:000000b0       __imp__FreeLibrary@4       100710b0     kernel32:KERNEL32.dll
 0004:000000b4       __imp__LoadLibraryExW@12   100710b4     kernel32:KERNEL32.dll
 0004:000000b8       __imp__IsValidCodePage@4   100710b8     kernel32:KERNEL32.dll
 0004:000000bc       __imp__GetACP@0            100710bc     kernel32:KERNEL32.dll
 0004:000000c0       __imp__GetOEMCP@0          100710c0     kernel32:KERNEL32.dll
 0004:000000c4       __imp__GetCPInfo@8         100710c4     kernel32:KERNEL32.dll
 0004:000000c8       __imp__CloseHandle@4       100710c8     kernel32:KERNEL32.dll
 0004:000000cc       __imp__RtlUnwind@16        100710cc     kernel32:KERNEL32.dll
 0004:000000d0       __imp__ReadFile@20         100710d0     kernel32:KERNEL32.dll
 0004:000000d4       __imp__GetConsoleMode@8    100710d4     kernel32:KERNEL32.dll
 0004:000000d8       __imp__ReadConsoleW@20     100710d8     kernel32:KERNEL32.dll
 0004:000000dc       __imp__GetConsoleCP@0      100710dc     kernel32:KERNEL32.dll
 0004:000000e0       __imp__DeleteFileW@4       100710e0     kernel32:KERNEL32.dll
 0004:000000e4       __imp__SetFilePointerEx@20 100710e4     kernel32:KERNEL32.dll
 0004:000000e8       __imp__RaiseException@16   100710e8     kernel32:KERNEL32.dll
 0004:000000ec       __imp__OutputDebugStringW@4 100710ec     kernel32:KERNEL32.dll
 0004:000000f0       __imp__GetCurrentThread@0  100710f0     kernel32:KERNEL32.dll
 0004:000000f4       __imp__GetModuleFileNameA@12 100710f4     kernel32:KERNEL32.dll
 0004:000000f8       __imp__QueryPerformanceCounter@4 100710f8     kernel32:KERNEL32.dll
 0004:000000fc       __imp__GetCurrentProcessId@0 100710fc     kernel32:KERNEL32.dll
 0004:00000100       __imp__GetSystemTimeAsFileTime@4 10071100     kernel32:KERNEL32.dll
 0004:00000104       __imp__GetEnvironmentStringsW@0 10071104     kernel32:KERNEL32.dll
 0004:00000108       __imp__FreeEnvironmentStringsW@4 10071108     kernel32:KERNEL32.dll
 0004:0000010c       __imp__HeapSize@12         1007110c     kernel32:KERNEL32.dll
 0004:00000110       __imp__GetDateFormatW@24   10071110     kernel32:KERNEL32.dll
 0004:00000114       __imp__GetTimeFormatW@24   10071114     kernel32:KERNEL32.dll
 0004:00000118       __imp__CompareStringW@24   10071118     kernel32:KERNEL32.dll
 0004:0000011c       __imp__LCMapStringW@24     1007111c     kernel32:KERNEL32.dll
 0004:00000120       __imp__GetLocaleInfoW@16   10071120     kernel32:KERNEL32.dll
 0004:00000124       __imp__IsValidLocale@8     10071124     kernel32:KERNEL32.dll
 0004:00000128       __imp__GetUserDefaultLCID@0 10071128     kernel32:KERNEL32.dll
 0004:0000012c       __imp__EnumSystemLocalesW@8 1007112c     kernel32:KERNEL32.dll
 0004:00000130       __imp__GetStringTypeW@16   10071130     kernel32:KERNEL32.dll
 0004:00000134       __imp__FlushFileBuffers@4  10071134     kernel32:KERNEL32.dll
 0004:00000138       __imp__SetStdHandle@8      10071138     kernel32:KERNEL32.dll
 0004:0000013c       __imp__CreateFileW@28      1007113c     kernel32:KERNEL32.dll
 0004:00000140       __imp__SetEndOfFile@4      10071140     kernel32:KERNEL32.dll
 0004:00000144       \177KERNEL32_NULL_THUNK_DATA 10071144     kernel32:KERNEL32.dll
 0004:000001b0       __IMPORT_DESCRIPTOR_KERNEL32 100711b0     kernel32:KERNEL32.dll
 0004:000001c4       __NULL_IMPORT_DESCRIPTOR   100711c4     kernel32:KERNEL32.dll

 entry point at        0001:000163b3

