 FingerStrokeAssistance_xpc

 Timestamp is 589bd4bf (Wed Feb 08 18:32:31 2017)

 Preferred load address is 10000000

 Start         Length     Name                   Class
 0001:00000000 000419d6H .text$mn                CODE
 0002:00000000 00000104H .CRT$XCA                DATA
 0002:00000104 00000104H .CRT$XCZ                DATA
 0002:00000208 00000104H .CRT$XIA                DATA
 0002:0000030c 00000118H .CRT$XIC                DATA
 0002:00000424 00000104H .CRT$XIZ                DATA
 0002:00000528 00000104H .CRT$XPA                DATA
 0002:0000062c 00000109H .CRT$XPX                DATA
 0002:00000738 00000104H .CRT$XPXA               DATA
 0002:0000083c 00000104H .CRT$XPZ                DATA
 0002:00000940 00000104H .CRT$XTA                DATA
 0002:00000a44 00000104H .CRT$XTZ                DATA
 0002:00000b50 00016390H .rdata                  DATA
 0002:00016ee0 000001c4H .rdata$debug            DATA
 0002:000170b0 0000010eH .rdata$sxdata           DATA
 0002:000171c0 00000104H .rtc$IAA                DATA
 0002:000172c4 00000104H .rtc$IZZ                DATA
 0002:000173c8 00000104H .rtc$TAA                DATA
 0002:000174cc 00000104H .rtc$TZZ                DATA
 0002:000175d0 00000991H .xdata$x                DATA
 0002:00017f70 00000226H .edata                  DATA
 0003:00000000 00002e98H .data                   DATA
 0003:00002ea0 000164c4H .bss                    DATA
 0004:00000000 000001b0H .idata$5                DATA
 0004:000001b0 00000014H .idata$2                DATA
 0004:000001c4 00000014H .idata$3                DATA
 0004:000001d8 000001b0H .idata$4                DATA
 0004:00000388 0000076bH .idata$6                DATA

  Address         Publics by Value              Rva+Base       Lib:Object

 0000:00000000       ___guard_flags             00000000     <absolute>
 0000:00000000       __except_list              00000000     <absolute>
 0000:00000000       ___guard_fids_table        00000000     <absolute>
 0000:00000000       ___guard_fids_count        00000000     <absolute>
 0000:00000003       ___safe_se_handler_count   00000003     <absolute>
 0000:00000000       ___ImageBase               10000000     <linker-defined>
 0001:00000460       _FingerStrokeAssi_MATLABFunction 10001460 f   FingerStrokeAssistance.obj
 0001:000004c0       _FingerStrokeAssistance    100014c0 f   FingerStrokeAssistance.obj
 0001:00001680       _FingerStrokeAssistance_gainramp 10002680 f   FingerStrokeAssistance.obj
 0001:00003da0       _MdlInitialize             10004da0 f   FingerStrokeAssistance.obj
 0001:00003db0       _MdlInitializeSampleTimes  10004db0 f   FingerStrokeAssistance.obj
 0001:00003dc0       _MdlInitializeSizes        10004dc0 f   FingerStrokeAssistance.obj
 0001:00003dd0       _MdlOutputs                10004dd0 f   FingerStrokeAssistance.obj
 0001:00003de0       _MdlStart                  10004de0 f   FingerStrokeAssistance.obj
 0001:00003df0       _MdlTerminate              10004df0 f   FingerStrokeAssistance.obj
 0001:00003e50       _MdlUpdate                 10004e50 f   FingerStrokeAssistance.obj
 0001:00003e60       _rt_powd_snf               10004e60 f   FingerStrokeAssistance.obj
 0001:000040f0       _rt_roundd_snf             100050f0 f   FingerStrokeAssistance.obj
 0001:000041f0       _FingerStrokeAssistance_GetCAPIStaticMap 100051f0 f   FingerStrokeAssistance_capi.obj
 0001:00004200       _FingerStrokeAssistance_InitializeDataMapInfo 10005200 f   FingerStrokeAssistance_capi.obj
 0001:00004290       _TgtConnBackgroundTask     10005290 f   FingerStrokeAssistance_tgtconn.obj
 0001:000042a0       _TgtConnInit               100052a0 f   FingerStrokeAssistance_tgtconn.obj
 0001:000042c0       _TgtConnPostStep           100052c0 f   FingerStrokeAssistance_tgtconn.obj
 0001:000042d0       _TgtConnPreStep            100052d0 f   FingerStrokeAssistance_tgtconn.obj
 0001:000042e0       _TgtConnTerm               100052e0 f   FingerStrokeAssistance_tgtconn.obj
 0001:000042f0       _rtGetInf                  100052f0 f   rtGetInf.obj
 0001:00004320       _rtGetInfF                 10005320 f   rtGetInf.obj
 0001:00004340       _rtGetMinusInf             10005340 f   rtGetInf.obj
 0001:00004370       _rtGetMinusInfF            10005370 f   rtGetInf.obj
 0001:00004390       _rtGetNaN                  10005390 f   rtGetNaN.obj
 0001:000043c0       _rtGetNaNF                 100053c0 f   rtGetNaN.obj
 0001:00004cf0       _rt_CreateLogVar           10005cf0 f   rt_logging.obj
 0001:00004d80       _rt_CreateLogVarWithConvert 10005d80 f   rt_logging.obj
 0001:00005700       _rt_CreateStructLogVar     10006700 f   rt_logging.obj
 0001:00006470       _rt_GetMxIdFromDTypeId     10007470 f   rt_logging.obj
 0001:000064a0       _rt_GetMxIdFromDTypeIdForRSim 100074a0 f   rt_logging.obj
 0001:00008de0       _rt_StartDataLogging       10009de0 f   rt_logging.obj
 0001:000092a0       _rt_StartDataLoggingWithStartTime 1000a2a0 f   rt_logging.obj
 0001:00009c00       _rt_StopDataLogging        1000ac00 f   rt_logging.obj
 0001:00009c20       _rt_StopDataLoggingImpl    1000ac20 f   rt_logging.obj
 0001:00009f40       _rt_UpdateLogVar           1000af40 f   rt_logging.obj
 0001:0000b300       _rt_UpdateStructLogVar     1000c300 f   rt_logging.obj
 0001:0000b390       _rt_UpdateTXXFYLogVars     1000c390 f   rt_logging.obj
 0001:0000b6d0       _rt_UpdateTXYLogVars       1000c6d0 f   rt_logging.obj
 0001:0000b920       _rt_CleanUpForStateLogWithMMI 1000c920 f   rt_logging_mmi.obj
 0001:0000ba30       _rt_FillStateSigInfoFromMMI 1000ca30 f   rt_logging_mmi.obj
 0001:0000bde0       _rt_mxCreateCharMatrixFromStrings 1000cde0 f   rt_matrx.obj
 0001:0000bf30       _rt_mxCreateDoubleMatrix   1000cf30 f   rt_matrx.obj
 0001:0000bf90       _rt_mxCreateNumericArray   1000cf90 f   rt_matrx.obj
 0001:0000c010       _rt_mxCreateString         1000d010 f   rt_matrx.obj
 0001:0000c0a0       _rt_mxDuplicateArray       1000d0a0 f   rt_matrx.obj
 0001:0000c100       _rt_mxGetDimensions        1000d100 f   rt_matrx.obj
 0001:0000c140       _rt_mxGetEps               1000d140 f   rt_matrx.obj
 0001:0000c150       _rt_mxGetString            1000d150 f   rt_matrx.obj
 0001:0000c1d0       _rtIsInf                   1000d1d0 f   rt_nonfinite.obj
 0001:0000c210       _rtIsInfF                  1000d210 f   rt_nonfinite.obj
 0001:0000c250       _rtIsNaN                   1000d250 f   rt_nonfinite.obj
 0001:0000c270       _rtIsNaNF                  1000d270 f   rt_nonfinite.obj
 0001:0000c290       _rt_InitInfAndNaN          1000d290 f   rt_nonfinite.obj
 0001:0000c2f0       _rtPrintfNoOp              1000d2f0 f   rt_printf.obj
 0001:0000c300       _rtwCAPI_CountSysRan       1000d300 f   rtw_modelmap_utils.obj
 0001:0000c3a0       _rtwCAPI_EncodePath        1000d3a0 f   rtw_modelmap_utils.obj
 0001:0000c490       _rtwCAPI_FillSysRan        1000d490 f   rtw_modelmap_utils.obj
 0001:0000c580       _rtwCAPI_FreeFullPaths     1000d580 f   rtw_modelmap_utils.obj
 0001:0000c610       _rtwCAPI_GetFullStateBlockPath 1000d610 f   rtw_modelmap_utils.obj
 0001:0000c7c0       _rtwCAPI_GetNumContStateRecords 1000d7c0 f   rtw_modelmap_utils.obj
 0001:0000c880       _rtwCAPI_GetNumSigLogRecords 1000d880 f   rtw_modelmap_utils.obj
 0001:0000c8d0       _rtwCAPI_GetNumSigLogRecordsForRTWLogging 1000d8d0 f   rtw_modelmap_utils.obj
 0001:0000c960       _rtwCAPI_GetNumStateRecords 1000d960 f   rtw_modelmap_utils.obj
 0001:0000c9b0       _rtwCAPI_GetNumStateRecordsForRTWLogging 1000d9b0 f   rtw_modelmap_utils.obj
 0001:0000ca40       _rtwCAPI_GetSigAddrFromMap 1000da40 f   rtw_modelmap_utils.obj
 0001:0000cb00       _rtwCAPI_GetSigLogRecordInfo 1000db00 f   rtw_modelmap_utils.obj
 0001:0000cf30       _rtwCAPI_GetStateRecordInfo 1000df30 f   rtw_modelmap_utils.obj
 0001:0000d3e0       _rtwCAPI_GetStateWidth     1000e3e0 f   rtw_modelmap_utils.obj
 0001:0000d440       _rtwCAPI_HasStates         1000e440 f   rtw_modelmap_utils.obj
 0001:0000d4b0       _rtwCAPI_UpdateFullPaths   1000e4b0 f   rtw_modelmap_utils.obj
 0001:0000d690       _DllMain@12                1000e690 f   xpctarget.obj
 0001:0000d6a0       _FingerStrokeAssistance_ChangeStepSize 1000e6a0 f   xpctarget.obj
 0001:0000d6f0       _SLRTSetErrorStatus        1000e6f0 f   xpctarget.obj
 0001:0000d710       _changeStepSize            1000e710 f   xpctarget.obj
 0001:0000d760       _getDLMVersion             1000e760 f   xpctarget.obj
 0001:0000d770       _getRefMdlPath             1000e770 f   xpctarget.obj
 0001:0000d7f0       _getRefMdlSignalNumber     1000e7f0 f   xpctarget.obj
 0001:0000d8a0       _getrlmdlinfo              1000e8a0 f   xpctarget.obj
 0001:0000da80       _updateDiscreteEvents      1000ea80 f   xpctarget.obj
 0001:0000da90       _getNumRef                 1000ea90 f   appmappingData.obj
 0001:0000daa0       _encnipcim                 1000eaa0 f   encnipcim.obj
 0001:0000e0d0       _adnipcim                  1000f0d0 f   adnipcim.obj
 0001:0000eaa0       _danipcim                  1000faa0 f   danipcim.obj
 0001:0000f2a0       _niMIdentify               100102a0 f   xpcionim.obj
 0001:0000f420       _niM_AISetup               10010420 f   xpcionim.obj
 0001:0000f830       _niM_AO_Setup              10010830 f   xpcionim.obj
 0001:0000f9c0       _niM_Cont_Pulse_Train_Generation 100109c0 f   xpcionim.obj
 0001:0000fb00       _niM_Counter_Reset_All     10010b00 f   xpcionim.obj
 0001:0000fbb0       _niM_CtrArm                10010bb0 f   xpcionim.obj
 0001:0000fbd0       _niM_CtrDisarm             10010bd0 f   xpcionim.obj
 0001:0000fbf0       _niM_CtrReadArm            10010bf0 f   xpcionim.obj
 0001:0000fc10       _niM_CtrReadDisarm         10010c10 f   xpcionim.obj
 0001:0000fc30       _niM_PeriodConfigure       10010c30 f   xpcionim.obj
 0001:0000fda0       _niM_Private_Data          10010da0 f   xpcionim.obj
 0001:00010380       _niM_SetPFIFilter          10011380 f   xpcionim.obj
 0001:00010400       _niM_SetPFI_DO             10011400 f   xpcionim.obj
 0001:00010450       _niM_SetPFI_Select         10011450 f   xpcionim.obj
 0001:000104d0       _niM_aiConfigureChannel    100114d0 f   xpcionim.obj
 0001:00010540       _niM_aiGetScalingCoefficients 10011540 f   xpcionim.obj
 0001:00010720       _niM_aiPolynomialScaler    10011720 f   xpcionim.obj
 0001:00010840       _niM_analogTriggerReset    10011840 f   xpcionim.obj
 0001:00010890       _niM_aoConfigureDAC        10011890 f   xpcionim.obj
 0001:000108e0       _niM_aoGetScalingCoefficients 100118e0 f   xpcionim.obj
 0001:00010990       _niM_aoLinearScaler        10011990 f   xpcionim.obj
 0001:000109c0       _niM_configureTimebase     100119c0 f   xpcionim.obj
 0001:000109e0       _niM_eepromReadMSeries     100119e0 f   xpcionim.obj
 0001:00010ab0       _niM_pllReset              10011ab0 f   xpcionim.obj
 0001:00010ae0       _niM_resetCtr              10011ae0 f   xpcionim.obj
 0001:00010b00       _niM_whichBank             10011b00 f   xpcionim.obj
 0001:00010b40       _niMconfig                 10011b40 f   xpcionim.obj
 0001:00010be0       _GetPCIDeviceFull          10011be0 f   xpcruntime:xpcimports.obj
 0001:00010c10       _ShowPCIDevice             10011c10 f   xpcruntime:xpcimports.obj
 0001:00011280       _xpcGetPciConfigAtSlot     10012280 f   xpcruntime:xpcimports.obj
 0001:00011500       _xpcInitProcs              10012500 f   xpcruntime:xpcimports.obj
 0001:00012060       _xpceuploadevent           10013060 f   xpcruntime:xpcimports.obj
 0001:00012061       __heap_alloc               10013061 f i LIBCMT:malloc.obj
 0001:0001209e       _malloc                    1001309e f   LIBCMT:malloc.obj
 0001:00012130       __get_printf_count_output  10013130 f   LIBCMT:printf.obj
 0001:00012145       __printf_l                 10013145 f   LIBCMT:printf.obj
 0001:0001215c       __printf_p                 1001315c f   LIBCMT:printf.obj
 0001:00012172       __printf_p_l               10013172 f   LIBCMT:printf.obj
 0001:00012189       __printf_s_l               10013189 f   LIBCMT:printf.obj
 0001:000121a0       __set_printf_count_output  100131a0 f   LIBCMT:printf.obj
 0001:000121c8       _printf                    100131c8 f   LIBCMT:printf.obj
 0001:00012277       _printf_s                  10013277 f   LIBCMT:printf.obj
 0001:0001228d       ___libm_sse2_cos           1001328d f   LIBCMT:cos_sse2.obj
 0001:0001242e       ___libm_sse2_exp           1001342e f   LIBCMT:exp_sse2.obj
 0001:00012644       ___libm_sse2_pow           10013644 f   LIBCMT:pow_sse2.obj
 0001:000130bc       ___libm_sse2_sin           100140bc f   LIBCMT:sin_sse2.obj
 0001:00013270       _ceil                      10014270 f   LIBCMT:ceil_pentium4.obj
 0001:000132b0       __ceil_pentium4            100142b0 f   LIBCMT:ceil_pentium4.obj
 0001:00013390       _memset                    10014390 f   LIBCMT:memset.obj
 0001:00013420       __fpmath                   10014420 f   LIBCMT:fpinit.obj
 0001:00013437       ___setfflag                10014437 f   LIBCMT:fpinit.obj
 0001:0001344a       __cfltcvt_init             1001444a f   LIBCMT:fpinit.obj
 0001:000134aa       ___raise_securityfailure   100144aa f   LIBCMT:gs_report.obj
 0001:000134e7       ___report_gsfailure        100144e7 f   LIBCMT:gs_report.obj
 0001:000135e2       ___report_rangecheckfailure 100145e2 f   LIBCMT:gs_report.obj
 0001:000135ee       ___report_securityfailure  100145ee f   LIBCMT:gs_report.obj
 0001:000136be       ___report_securityfailureEx 100146be f   LIBCMT:gs_report.obj
 0001:000137d4       ___copy_path_to_wide_string 100147d4 f   LIBCMT:crt0dat.obj
 0001:00013886       ___copy_to_char            10014886 f   LIBCMT:crt0dat.obj
 0001:0001393b       ___crtCorExitProcess       1001493b f   LIBCMT:crt0dat.obj
 0001:0001396f       ___crtExitProcess          1001496f f   LIBCMT:crt0dat.obj
 0001:00013985       ___freeCrtMemory           10014985 f   LIBCMT:crt0dat.obj
 0001:00013a92       __amsg_exit                10014a92 f   LIBCMT:crt0dat.obj
 0001:00013aae       __c_exit                   10014aae f   LIBCMT:crt0dat.obj
 0001:00013abd       __cexit                    10014abd f   LIBCMT:crt0dat.obj
 0001:00013acc       __cinit                    10014acc f   LIBCMT:crt0dat.obj
 0001:00013b50       __exit                     10014b50 f   LIBCMT:crt0dat.obj
 0001:00013b64       __exit_app                 10014b64 f   LIBCMT:crt0dat.obj
 0001:00013b72       __get_pgmptr               10014b72 f   LIBCMT:crt0dat.obj
 0001:00013ba1       __get_wpgmptr              10014ba1 f   LIBCMT:crt0dat.obj
 0001:00013bd0       __init_pointers            10014bd0 f   LIBCMT:crt0dat.obj
 0001:00013c3e       __initterm_e               10014c3e f   LIBCMT:crt0dat.obj
 0001:00013c60       __lockexit                 10014c60 f   LIBCMT:crt0dat.obj
 0001:00013c69       __unlockexit               10014c69 f   LIBCMT:crt0dat.obj
 0001:00013da1       _exit                      10014da1 f   LIBCMT:crt0dat.obj
 0001:00013db5       _calloc                    10014db5 f   LIBCMT:calloc.obj
 0001:00013df5       _free                      10014df5 f   LIBCMT:free.obj
 0001:00013e2d       _realloc                   10014e2d f   LIBCMT:realloc.obj
 0001:00013ee0       _memmove                   10014ee0 f   LIBCMT:memmove.obj
 0001:00014530       _strchr                    10015530 f   LIBCMT:strchr.obj
 0001:0001459e       ___from_strstr_to_strchr   1001559e     LIBCMT:strchr.obj
 0001:00014660       _strncat                   10015660 f   LIBCMT:strncat.obj
 0001:000147a0       _strncpy                   100157a0 f   LIBCMT:strncpy.obj
 0001:000148c4       ___initstdio               100158c4 f   LIBCMT:_file.obj
 0001:00014937       ___endstdio                10015937 f   LIBCMT:_file.obj
 0001:0001495e       ___iob_func                1001595e f   LIBCMT:_file.obj
 0001:00014964       __lock_file                10015964 f   LIBCMT:_file.obj
 0001:000149a3       __lock_file2               100159a3 f   LIBCMT:_file.obj
 0001:000149d3       __unlock_file              100159d3 f   LIBCMT:_file.obj
 0001:00014a0d       __unlock_file2             10015a0d f   LIBCMT:_file.obj
 0001:00014a3a       __fclose_nolock            10015a3a f   LIBCMT:fclose.obj
 0001:00014aa6       _fclose                    10015aa6 f   LIBCMT:fclose.obj
 0001:00014b1d       __fsopen                   10015b1d f   LIBCMT:fopen.obj
 0001:00014be1       _fopen                     10015be1 f   LIBCMT:fopen.obj
 0001:00014bf6       _fopen_s                   10015bf6 f   LIBCMT:fopen.obj
 0001:00014c3b       __fprintf_l                10015c3b f   LIBCMT:fprintf.obj
 0001:00014c55       __fprintf_p                10015c55 f   LIBCMT:fprintf.obj
 0001:00014c6e       __fprintf_p_l              10015c6e f   LIBCMT:fprintf.obj
 0001:00014c88       __fprintf_s_l              10015c88 f   LIBCMT:fprintf.obj
 0001:00014ca2       _fprintf                   10015ca2 f   LIBCMT:fprintf.obj
 0001:00014db4       _fprintf_s                 10015db4 f   LIBCMT:fprintf.obj
 0001:00014dcd       __fread_nolock             10015dcd f   LIBCMT:fread.obj
 0001:00014de8       __fread_nolock_s           10015de8 f   LIBCMT:fread.obj
 0001:00014fad       _fread                     10015fad f   LIBCMT:fread.obj
 0001:00014fc8       _fread_s                   10015fc8 f   LIBCMT:fread.obj
 0001:00015059       __fwrite_nolock            10016059 f   LIBCMT:fwrite.obj
 0001:000151b2       _fwrite                    100161b2 f   LIBCMT:fwrite.obj
 0001:00015234       __unlink                   10016234 f   LIBCMT:unlink.obj
 0001:0001523d       _remove                    1001623d f   LIBCMT:unlink.obj
 0001:0001527f       _rewind                    1001627f f   LIBCMT:rewind.obj
 0001:0001533e       __scprintf                 1001633e f   LIBCMT:sprintf.obj
 0001:00015351       __scprintf_l               10016351 f   LIBCMT:sprintf.obj
 0001:00015368       __scprintf_p               10016368 f   LIBCMT:sprintf.obj
 0001:0001537b       __scprintf_p_l             1001637b f   LIBCMT:sprintf.obj
 0001:00015392       __snprintf_s               10016392 f   LIBCMT:sprintf.obj
 0001:000153b1       __snprintf_s_l             100163b1 f   LIBCMT:sprintf.obj
 0001:000153d1       __sprintf_l                100163d1 f   LIBCMT:sprintf.obj
 0001:000153eb       __sprintf_p                100163eb f   LIBCMT:sprintf.obj
 0001:00015407       __sprintf_p_l              10016407 f   LIBCMT:sprintf.obj
 0001:00015424       __sprintf_s_l              10016424 f   LIBCMT:sprintf.obj
 0001:00015441       _sprintf                   10016441 f   LIBCMT:sprintf.obj
 0001:000154c5       _sprintf_s                 100164c5 f   LIBCMT:sprintf.obj
 0001:000154e1       _ldexp                     100164e1 f   LIBCMT:ldexp.obj
 0001:000156cd       @__security_check_cookie@4 100166cd f   LIBCMT:secchk.obj
 0001:000156e0       __ftoui3                   100166e0 f   LIBCMT:ftol3.obj
 0001:000156ef       __ftoul3                   100166ef f   LIBCMT:ftol3.obj
 0001:000156fe       __ftol3                    100166fe f   LIBCMT:ftol3.obj
 0001:0001570b       __ftol3_NaN                1001670b f   LIBCMT:ftol3.obj
 0001:00015723       __ftol3_work               10016723 f   LIBCMT:ftol3.obj
 0001:000157a9       __ftol3_common             100167a9 f   LIBCMT:ftol3.obj
 0001:0001586b       __ftol3_arg_error          1001686b f   LIBCMT:ftol3.obj
 0001:0001587d       __ftol3_except             1001687d f   LIBCMT:ftol3.obj
 0001:000158bf       __dtoui3                   100168bf f   LIBCMT:ftol3.obj
 0001:000158ce       __dtoul3                   100168ce f   LIBCMT:ftol3.obj
 0001:000158dd       __dtol3                    100168dd f   LIBCMT:ftol3.obj
 0001:000158ea       __dtol3_NaN                100168ea f   LIBCMT:ftol3.obj
 0001:00015907       __dtol3_work               10016907 f   LIBCMT:ftol3.obj
 0001:000159ec       __ultod3                   100169ec f   LIBCMT:ftol3.obj
 0001:00015a7d       __ltod3                    10016a7d f   LIBCMT:ftol3.obj
 0001:00015ab0       _memcpy                    10016ab0 f   LIBCMT:memcpy.obj
 0001:000160f4       ___isa_available_init      100170f4 f   LIBCMT:cpu_disp.obj
 0001:0001626d       __invoke_watson_if_error   1001726d f i LIBCMT:wassert.obj
 0001:0001628d       __wassert                  1001728d f   LIBCMT:wassert.obj
 0001:00016931       __CRT_INIT@12              10017931 f   LIBCMT:dllcrt0.obj
 0001:00016aa3       __DllMainCRTStartup@12     10017aa3 f   LIBCMT:dllcrt0.obj
 0001:00016bd4       ___DllXcptFilter           10017bd4 f   LIBCMT:dllcrt0.obj
 0001:00016bf9       ?_query_new_handler@@YAP6AHI@ZXZ 10017bf9 f   LIBCMT:handler.obj
 0001:00016c06       ?_set_new_handler@@YAP6AHI@ZH@Z 10017c06 f   LIBCMT:handler.obj
 0001:00016c0f       ?_set_new_handler@@YAP6AHI@ZP6AHI@Z@Z 10017c0f f   LIBCMT:handler.obj
 0001:00016c44       __callnewh                 10017c44 f   LIBCMT:handler.obj
 0001:00016c6a       __initp_heap_handler       10017c6a f   LIBCMT:handler.obj
 0001:00016c77       __FF_MSGBANNER             10017c77 f   LIBCMT:crt0msg.obj
 0001:00016cb0       __GET_RTERRMSG             10017cb0 f   LIBCMT:crt0msg.obj
 0001:00016cd4       __NMSG_WRITE               10017cd4 f   LIBCMT:crt0msg.obj
 0001:00016e91       ___doserrno                10017e91 f   LIBCMT:dosmap.obj
 0001:00016ea4       __dosmaperr                10017ea4 f   LIBCMT:dosmap.obj
 0001:00016ec5       __errno                    10017ec5 f   LIBCMT:dosmap.obj
 0001:00016ed8       __get_doserrno             10017ed8 f   LIBCMT:dosmap.obj
 0001:00016efb       __get_errno                10017efb f   LIBCMT:dosmap.obj
 0001:00016f1e       __get_errno_from_oserr     10017f1e f   LIBCMT:dosmap.obj
 0001:00016f5f       __set_doserrno             10017f5f f   LIBCMT:dosmap.obj
 0001:00016f7e       __set_errno                10017f7e f   LIBCMT:dosmap.obj
 0001:00016f9d       __get_heap_handle          10017f9d f   LIBCMT:heapinit.obj
 0001:00016fa3       __heap_init                10017fa3 f   LIBCMT:heapinit.obj
 0001:00016fb8       __heap_term                10017fb8 f   LIBCMT:heapinit.obj
 0001:00016fc0       ?_invalid_parameter@@YAXPBG00II@Z 10017fc0 f   LIBCMT:invarg.obj
 0001:00016fc5       ?_invoke_watson@@YAXPBG00II@Z 10017fc5 f   LIBCMT:invarg.obj
 0001:00016fdd       __call_reportfault         10017fdd f   LIBCMT:invarg.obj
 0001:00017102       __get_invalid_parameter_handler 10018102 f   LIBCMT:invarg.obj
 0001:0001710f       __initp_misc_invarg        1001810f f   LIBCMT:invarg.obj
 0001:0001711c       __invalid_parameter        1001811c f   LIBCMT:invarg.obj
 0001:00017147       __invalid_parameter_noinfo 10018147 f   LIBCMT:invarg.obj
 0001:00017157       __invalid_parameter_noinfo_noreturn 10018157 f   LIBCMT:invarg.obj
 0001:00017172       __invoke_watson            10018172 f   LIBCMT:invarg.obj
 0001:0001719d       __set_invalid_parameter_handler 1001819d f   LIBCMT:invarg.obj
 0001:000171c2       __vprintf_l                100181c2 f   LIBCMT:vprintf.obj
 0001:000171dd       __vprintf_p                100181dd f   LIBCMT:vprintf.obj
 0001:000171f7       __vprintf_p_l              100181f7 f   LIBCMT:vprintf.obj
 0001:00017212       __vprintf_s_l              10018212 f   LIBCMT:vprintf.obj
 0001:0001722d       _vprintf                   1001822d f   LIBCMT:vprintf.obj
 0001:00017247       _vprintf_helper            10018247 f   LIBCMT:vprintf.obj
 0001:000172d4       _vprintf_s                 100182d4 f   LIBCMT:vprintf.obj
 0001:000172ee       __ftbuf                    100182ee f   LIBCMT:_sftbuf.obj
 0001:0001731f       __stbuf                    1001831f f   LIBCMT:_sftbuf.obj
 0001:000173c5       ??0_LocaleUpdate@@QAE@PAUlocaleinfo_struct@@@Z 100183c5 f i LIBCMT:output.obj
 0001:0001744d       ??1_LocaleUpdate@@QAE@XZ   1001844d f i LIBCMT:output.obj
 0001:0001745b       ?GetLocaleT@_LocaleUpdate@@QAEPAUlocaleinfo_struct@@XZ 1001845b f i LIBCMT:output.obj
 0001:0001745e       __output_l                 1001845e f   LIBCMT:output.obj
 0001:00017fde       _get_int64_arg             10018fde f i LIBCMT:output.obj
 0001:00017ff1       _get_int_arg               10018ff1 f i LIBCMT:output.obj
 0001:00018001       _get_short_arg             10019001 f i LIBCMT:output.obj
 0001:00018100       __SEH_prolog4              10019100 f   LIBCMT:sehprolg4.obj
 0001:00018145       __SEH_epilog4              10019145 f   LIBCMT:sehprolg4.obj
 0001:000181a0       __except_handler4          100191a0 f   LIBCMT:chandler4.obj
 0001:00018340       _cos                       10019340 f   LIBCMT:cos.obj
 0001:00018380       __CIcos                    10019380 f   LIBCMT:cos.obj
 0001:000183bb       __CIcos_default            100193bb f   LIBCMT:cos.obj
 0001:000183cf       __cos_default              100193cf     LIBCMT:cos.obj
 0001:00018470       _sin                       10019470 f   LIBCMT:sin.obj
 0001:000184b0       __CIsin                    100194b0 f   LIBCMT:sin.obj
 0001:000184eb       __CIsin_default            100194eb f   LIBCMT:sin.obj
 0001:000184ff       __sin_default              100194ff     LIBCMT:sin.obj
 0001:00018599       ___libm_error_support      10019599 f   LIBCMT:libm_error.obj
 0001:00018881       ___libm_setusermatherr     10019881 f   LIBCMT:libm_error.obj
 0001:000188ad       __sse2_mathfcns_init       100198ad f   LIBCMT:mathfcns.obj
 0001:000188bc       __set_SSE2_enable          100198bc f   LIBCMT:mathfcns.obj
 0001:000188db       __ceil_default             100198db f   LIBCMT:ceil.obj
 0001:000189b2       __VEC_memset               100199b2 f   LIBCMT:p4_memset.obj
 0001:00018a7a       ?strrchr@@YAPADPADH@Z      10019a7a f i LIBCMT:cvt.obj
 0001:00018a83       __cfltcvt                  10019a83 f   LIBCMT:cvt.obj
 0001:00018aa4       __cfltcvt_l                10019aa4 f   LIBCMT:cvt.obj
 0001:00018b2a       __cftoa                    10019b2a f   LIBCMT:cvt.obj
 0001:00018b48       __cftoa_l                  10019b48 f   LIBCMT:cvt.obj
 0001:00018ea4       __cftoe                    10019ea4 f   LIBCMT:cvt.obj
 0001:00019013       __cftoe_l                  1001a013 f   LIBCMT:cvt.obj
 0001:000190e1       __cftof                    1001a0e1 f   LIBCMT:cvt.obj
 0001:000191e8       __cftof_l                  1001a1e8 f   LIBCMT:cvt.obj
 0001:000192a9       __cftog                    1001a2a9 f   LIBCMT:cvt.obj
 0001:000192c7       __cftog_l                  1001a2c7 f   LIBCMT:cvt.obj
 0001:000193c6       __cropzeros                1001a3c6 f   LIBCMT:cvt.obj
 0001:000193d7       __cropzeros_l              1001a3d7 f   LIBCMT:cvt.obj
 0001:00019457       __fassign                  1001a457 f   LIBCMT:cvt.obj
 0001:0001946f       __fassign_l                1001a46f f   LIBCMT:cvt.obj
 0001:000194b1       __forcdecpt                1001a4b1 f   LIBCMT:cvt.obj
 0001:000194c2       __forcdecpt_l              1001a4c2 f   LIBCMT:cvt.obj
 0001:00019536       __positive                 1001a536 f   LIBCMT:cvt.obj
 0001:00019578       __setdefaultprecision      1001a578 f   LIBCMT:fp8.obj
 0001:0001959f       __initp_misc_cfltcvt_tab   1001a59f f   LIBCMT:cmiscdat.obj
 0001:000195be       __crt_debugger_hook        1001a5be f   LIBCMT:dbghook.obj
 0001:000195f3       ___crtCloseThreadpoolTimer 1001a5f3 f   LIBCMT:winapisupp.obj
 0001:0001960a       ___crtCloseThreadpoolWait  1001a60a f   LIBCMT:winapisupp.obj
 0001:00019621       ___crtCreateEventExW       1001a621 f   LIBCMT:winapisupp.obj
 0001:0001965c       ___crtCreateSemaphoreExW   1001a65c f   LIBCMT:winapisupp.obj
 0001:00019696       ___crtCreateSymbolicLinkW  1001a696 f   LIBCMT:winapisupp.obj
 0001:000196bf       ___crtCreateThreadpoolTimer 1001a6bf f   LIBCMT:winapisupp.obj
 0001:000196e0       ___crtCreateThreadpoolWait 1001a6e0 f   LIBCMT:winapisupp.obj
 0001:00019701       ___crtFlsAlloc             1001a701 f   LIBCMT:winapisupp.obj
 0001:0001971f       ___crtFlsFree              1001a71f f   LIBCMT:winapisupp.obj
 0001:0001973e       ___crtFlsGetValue          1001a73e f   LIBCMT:winapisupp.obj
 0001:0001975d       ___crtFlsSetValue          1001a75d f   LIBCMT:winapisupp.obj
 0001:0001977f       ___crtFlushProcessWriteBuffers 1001a77f f   LIBCMT:winapisupp.obj
 0001:0001978f       ___crtFreeLibraryWhenCallbackReturns 1001a78f f   LIBCMT:winapisupp.obj
 0001:000197a9       ___crtGetCurrentProcessorNumber 1001a7a9 f   LIBCMT:winapisupp.obj
 0001:000197bb       ___crtGetFileInformationByHandleEx 1001a7bb f   LIBCMT:winapisupp.obj
 0001:000197e7       ___crtGetLogicalProcessorInformation 1001a7e7 f   LIBCMT:winapisupp.obj
 0001:0001980d       ___crtGetShowWindowMode    1001a80d f   LIBCMT:winapisupp.obj
 0001:00019830       ___crtGetTickCount64       1001a830 f   LIBCMT:winapisupp.obj
 0001:00019848       ___crtInitializeCriticalSectionEx 1001a848 f   LIBCMT:winapisupp.obj
 0001:00019876       ___crtIsPackagedApp        1001a876 f   LIBCMT:winapisupp.obj
 0001:000198b6       ___crtLoadWinApiPointers   1001a8b6 f   LIBCMT:winapisupp.obj
 0001:00019b41       ___crtSetFileInformationByHandle 1001ab41 f   LIBCMT:winapisupp.obj
 0001:00019b6d       ___crtSetThreadStackGuarantee 1001ab6d f   LIBCMT:winapisupp.obj
 0001:00019b88       ___crtSetThreadpoolTimer   1001ab88 f   LIBCMT:winapisupp.obj
 0001:00019ba8       ___crtSetThreadpoolWait    1001aba8 f   LIBCMT:winapisupp.obj
 0001:00019bc5       ___crtSetUnhandledExceptionFilter 1001abc5 f   LIBCMT:winapisupp.obj
 0001:00019bd3       ___crtSleep                1001abd3 f   LIBCMT:winapisupp.obj
 0001:00019be1       ___crtTerminateProcess     1001abe1 f   LIBCMT:winapisupp.obj
 0001:00019bf6       ___crtUnhandledException   1001abf6 f   LIBCMT:winapisupp.obj
 0001:00019c0c       ___crtWaitForThreadpoolTimerCallbacks 1001ac0c f   LIBCMT:winapisupp.obj
 0001:00019c26       __RTC_Initialize           1001ac26 f   LIBCMT:initsect.obj
 0001:00019c46       __RTC_Terminate            1001ac46 f   LIBCMT:initsect.obj
 0001:00019c66       __lock                     1001ac66 f   LIBCMT:mlock.obj
 0001:00019c9a       __lockerr_exit             1001ac9a f   LIBCMT:mlock.obj
 0001:00019cba       __mtdeletelocks            1001acba f   LIBCMT:mlock.obj
 0001:00019d0e       __mtinitlocknum            1001ad0e f   LIBCMT:mlock.obj
 0001:00019db7       __mtinitlocks              1001adb7 f   LIBCMT:mlock.obj
 0001:00019df0       __unlock                   1001adf0 f   LIBCMT:mlock.obj
 0001:00019e10       __FindPESection            1001ae10 f   LIBCMT:pesect.obj
 0001:00019e60       __IsNonwritableInCurrentImage 1001ae60 f   LIBCMT:pesect.obj
 0001:00019f20       __ValidateImageBase        1001af20 f   LIBCMT:pesect.obj
 0001:00019f51       ___onexitinit              1001af51 f   LIBCMT:onexit.obj
 0001:00019f80       __onexit                   1001af80 f   LIBCMT:onexit.obj
 0001:0001a07c       _atexit                    1001b07c f   LIBCMT:onexit.obj
 0001:0001a091       __calloc_crt               1001b091 f   LIBCMT:crtheap.obj
 0001:0001a0d9       __malloc_crt               1001b0d9 f   LIBCMT:crtheap.obj
 0001:0001a120       __realloc_crt              1001b120 f   LIBCMT:crtheap.obj
 0001:0001a16a       __recalloc_crt             1001b16a f   LIBCMT:crtheap.obj
 0001:0001a1b8       __set_malloc_crt_max_wait  1001b1b8 f   LIBCMT:crtheap.obj
 0001:0001a1cb       _wait_a_bit                1001b1cb f i LIBCMT:crtheap.obj
 0001:0001a1ef       ?_inconsistency@@YAXXZ     1001b1ef f   LIBCMT:hooks.obj
 0001:0001a227       ?terminate@@YAXXZ          1001b227 f   LIBCMT:hooks.obj
 0001:0001a25b       ?unexpected@@YAXXZ         1001b25b f   LIBCMT:hooks.obj
 0001:0001a26e       __initp_eh_hooks           1001b26e f   LIBCMT:hooks.obj
 0001:0001a27f       ___getlocaleinfo           1001b27f f   LIBCMT:inithelp.obj
 0001:0001a458       __initp_misc_purevirt      1001b458 f   LIBCMT:inithelp.obj
 0001:0001a465       ___fpecode                 1001b465 f   LIBCMT:winsig.obj
 0001:0001a46e       ___get_sigabrt             1001b46e f   LIBCMT:winsig.obj
 0001:0001a47b       ___pxcptinfoptrs           1001b47b f   LIBCMT:winsig.obj
 0001:0001a484       __initp_misc_winsig        1001b484 f   LIBCMT:winsig.obj
 0001:0001a545       _raise                     1001b545 f   LIBCMT:winsig.obj
 0001:0001a73a       _signal                    1001b73a f   LIBCMT:winsig.obj
 0001:0001a991       __initp_misc_rand_s        1001b991 f   LIBCMT:rand_s.obj
 0001:0001a99e       _rand_s                    1001b99e f   LIBCMT:rand_s.obj
 0001:0001aaa4       ___initmbctable            1001baa4 f   LIBCMT:mbctype.obj
 0001:0001ad5b       ___updatetmbcinfo          1001bd5b f   LIBCMT:mbctype.obj
 0001:0001ae01       __getmbcp                  1001be01 f   LIBCMT:mbctype.obj
 0001:0001ae32       __setmbcp                  1001be32 f   LIBCMT:mbctype.obj
 0001:0001afda       __setmbcp_nolock           1001bfda f   LIBCMT:mbctype.obj
 0001:0001b1c5       __calloc_impl              1001c1c5 f   LIBCMT:calloc_impl.obj
 0001:0001b23f       __fcloseall                1001c23f f   LIBCMT:closeall.obj
 0001:0001b2dc       __fflush_nolock            1001c2dc f   LIBCMT:fflush.obj
 0001:0001b322       __flush                    1001c322 f   LIBCMT:fflush.obj
 0001:0001b386       __flushall                 1001c386 f   LIBCMT:fflush.obj
 0001:0001b38f       _fflush                    1001c38f f   LIBCMT:fflush.obj
 0001:0001b4cc       __fileno                   1001c4cc f   LIBCMT:fileno.obj
 0001:0001b4f0       __close                    1001c4f0 f   LIBCMT:close.obj
 0001:0001b5cb       __close_nolock             1001c5cb f   LIBCMT:close.obj
 0001:0001b665       __freebuf                  1001c665 f   LIBCMT:_freebuf.obj
 0001:0001b695       __getstream                1001c695 f   LIBCMT:stream.obj
 0001:0001b7b4       __openfile                 1001c7b4 f   LIBCMT:_open.obj
 0001:0001ba30       __local_unwind4            1001ca30 f   LIBCMT:exsup4.obj
 0001:0001bb06       __seh_longjmp_unwind4@4    1001cb06 f   LIBCMT:exsup4.obj
 0001:0001bb22       @_EH4_CallFilterFunc@8     1001cb22 f   LIBCMT:exsup4.obj
 0001:0001bb39       @_EH4_TransferToHandler@8  1001cb39 f   LIBCMT:exsup4.obj
 0001:0001bb52       @_EH4_GlobalUnwind2@8      1001cb52 f   LIBCMT:exsup4.obj
 0001:0001bb6b       @_EH4_LocalUnwind@16       1001cb6b f   LIBCMT:exsup4.obj
 0001:0001bb82       __vfprintf_l               1001cb82 f   LIBCMT:vfprintf.obj
 0001:0001bba0       __vfprintf_p               1001cba0 f   LIBCMT:vfprintf.obj
 0001:0001bbbd       __vfprintf_p_l             1001cbbd f   LIBCMT:vfprintf.obj
 0001:0001bbdb       __vfprintf_s_l             1001cbdb f   LIBCMT:vfprintf.obj
 0001:0001bbf9       _vfprintf                  1001cbf9 f   LIBCMT:vfprintf.obj
 0001:0001bc16       _vfprintf_helper           1001cc16 f   LIBCMT:vfprintf.obj
 0001:0001bd27       _vfprintf_s                1001cd27 f   LIBCMT:vfprintf.obj
 0001:0001bd44       __ioinit                   1001cd44 f   LIBCMT:ioinit.obj
 0001:0001bff8       __ioterm                   1001cff8 f   LIBCMT:ioinit.obj
 0001:0001c04a       __filbuf                   1001d04a f   LIBCMT:_filbuf.obj
 0001:0001c16b       _memcpy_s                  1001d16b f   LIBCMT:memcpy_s.obj
 0001:0001c1ea       __read                     1001d1ea f   LIBCMT:read.obj
 0001:0001c2fe       __read_nolock              1001d2fe f   LIBCMT:read.obj
 0001:0001ca8f       __flsbuf                   1001da8f f   LIBCMT:_flsbuf.obj
 0001:0001cbde       __write                    1001dbde f   LIBCMT:write.obj
 0001:0001cccd       __write_nolock             1001dccd f   LIBCMT:write.obj
 0001:0001d532       __wremove                  1001e532 f   LIBCMT:wunlink.obj
 0001:0001d560       __wunlink                  1001e560 f   LIBCMT:wunlink.obj
 0001:0001d569       __lseek                    1001e569 f   LIBCMT:lseek.obj
 0001:0001d658       __lseek_nolock             1001e658 f   LIBCMT:lseek.obj
 0001:0001d6ff       __vscprintf                1001e6ff f   LIBCMT:vsprintf.obj
 0001:0001d719       __vscprintf_helper         1001e719 f   LIBCMT:vsprintf.obj
 0001:0001d775       __vscprintf_l              1001e775 f   LIBCMT:vsprintf.obj
 0001:0001d790       __vscprintf_p              1001e790 f   LIBCMT:vsprintf.obj
 0001:0001d7aa       __vscprintf_p_l            1001e7aa f   LIBCMT:vsprintf.obj
 0001:0001d7c5       __vsprintf_l               1001e7c5 f   LIBCMT:vsprintf.obj
 0001:0001d849       _vsprintf                  1001e849 f   LIBCMT:vsprintf.obj
 0001:0001d861       __vsnprintf_c              1001e861 f   LIBCMT:vsnprnc.obj
 0001:0001d888       __vsnprintf_c_l            1001e888 f   LIBCMT:vsnprnc.obj
 0001:0001d8b0       __vsnprintf_helper         1001e8b0 f   LIBCMT:vsnprnc.obj
 0001:0001d97a       __vsnprintf_s              1001e97a f   LIBCMT:vsnprnc.obj
 0001:0001d998       __vsnprintf_s_l            1001e998 f   LIBCMT:vsnprnc.obj
 0001:0001da98       __vsprintf_p               1001ea98 f   LIBCMT:vsnprnc.obj
 0001:0001dabf       __vsprintf_p_l             1001eabf f   LIBCMT:vsnprnc.obj
 0001:0001dae7       __vsprintf_s_l             1001eae7 f   LIBCMT:vsnprnc.obj
 0001:0001db5c       _vsprintf_s                1001eb5c f   LIBCMT:vsnprnc.obj
 0001:0001db77       __chgsign                  1001eb77 f   LIBCMT:ieeemisc.obj
 0001:0001dba4       __chgsignf                 1001eba4 f   LIBCMT:ieeemisc.obj
 0001:0001dbc5       __copysign                 1001ebc5 f   LIBCMT:ieeemisc.obj
 0001:0001dbed       __copysignf                1001ebed f   LIBCMT:ieeemisc.obj
 0001:0001dc09       __finite                   1001ec09 f   LIBCMT:ieeemisc.obj
 0001:0001dc21       __fpclass                  1001ec21 f   LIBCMT:ieeemisc.obj
 0001:0001dcbd       __isnan                    1001ecbd f   LIBCMT:ieeemisc.obj
 0001:0001dcf0       __logb                     1001ecf0 f   LIBCMT:ieeemisc.obj
 0001:0001ddd1       __nextafter                1001edd1 f   LIBCMT:ieeemisc.obj
 0001:0001e071       __scalb                    1001f071 f   LIBCMT:ieeemisc.obj
 0001:0001e089       __add_exp                  1001f089 f   LIBCMT:util.obj
 0001:0001e0b8       __decomp                   1001f0b8 f   LIBCMT:util.obj
 0001:0001e18a       __get_exp                  1001f18a f   LIBCMT:util.obj
 0001:0001e1a3       __set_bexp                 1001f1a3 f   LIBCMT:util.obj
 0001:0001e1cc       __set_exp                  1001f1cc f   LIBCMT:util.obj
 0001:0001e1fb       __sptype                   1001f1fb f   LIBCMT:util.obj
 0001:0001e256       __errcode                  1001f256 f   LIBCMT:fpexcept.obj
 0001:0001e288       __except1                  1001f288 f   LIBCMT:fpexcept.obj
 0001:0001e350       __except2                  1001f350 f   LIBCMT:fpexcept.obj
 0001:0001e450       __handle_exc               1001f450 f   LIBCMT:fpexcept.obj
 0001:0001e62e       __handle_qnan1             1001f62e f   LIBCMT:fpexcept.obj
 0001:0001e67e       __handle_qnan2             1001f67e f   LIBCMT:fpexcept.obj
 0001:0001e6de       __raise_exc                1001f6de f   LIBCMT:fpexcept.obj
 0001:0001e6ff       __raise_exc_ex             1001f6ff f   LIBCMT:fpexcept.obj
 0001:0001e9e4       __raise_excf               1001f9e4 f   LIBCMT:fpexcept.obj
 0001:0001ea05       __set_errno_from_matherr   1001fa05 f   LIBCMT:fpexcept.obj
 0001:0001ea32       __umatherr                 1001fa32 f   LIBCMT:fpexcept.obj
 0001:0001ead2       ___clrfp_sse2              1001fad2 f   LIBCMT:fpctrl.obj
 0001:0001eaf3       ___ctrlfp_sse2             1001faf3 f   LIBCMT:fpctrl.obj
 0001:0001eb2c       ___fclrf_sse2              1001fb2c f   LIBCMT:fpctrl.obj
 0001:0001eb49       ___get_fpsr_sse2           1001fb49 f   LIBCMT:fpctrl.obj
 0001:0001eb65       ___set_fpsr_sse2           1001fb65 f   LIBCMT:fpctrl.obj
 0001:0001ebdb       ___set_statfp_sse2         1001fbdb f   LIBCMT:fpctrl.obj
 0001:0001ebf4       ___statfp_sse2             1001fbf4 f   LIBCMT:fpctrl.obj
 0001:0001ec09       __clrfp                    1001fc09 f   LIBCMT:fpctrl.obj
 0001:0001ec1a       __ctrlfp                   1001fc1a f   LIBCMT:fpctrl.obj
 0001:0001ec45       __set_statfp               1001fc45 f   LIBCMT:fpctrl.obj
 0001:0001ec9d       __statfp                   1001fc9d f   LIBCMT:fpctrl.obj
 0001:0001ecad       _wcscat_s                  1001fcad f   LIBCMT:wcscat_s.obj
 0001:0001ed19       _wcscpy_s                  1001fd19 f   LIBCMT:wcscpy_s.obj
 0001:0001ed75       _wcslen                    1001fd75 f   LIBCMT:wcslen.obj
 0001:0001ed8e       _wcsncat_s                 1001fd8e f   LIBCMT:wcsncat_s.obj
 0001:0001ee5c       __set_abort_behavior       1001fe5c f   LIBCMT:abort.obj
 0001:0001ee7b       _abort                     1001fe7b f   LIBCMT:abort.obj
 0001:0001eebe       ___set_app_type            1001febe f   LIBCMT:errmode.obj
 0001:0001eecb       __set_error_mode           1001fecb f   LIBCMT:errmode.obj
 0001:0001f027       __i64tow_s                 10020027 f   LIBCMT:xtows.obj
 0001:0001f058       __itow_s                   10020058 f   LIBCMT:xtows.obj
 0001:0001f081       __ltow_s                   10020081 f   LIBCMT:xtows.obj
 0001:0001f0ab       __ui64tow_s                100200ab f   LIBCMT:xtows.obj
 0001:0001f0c6       __ultow_s                  100200c6 f   LIBCMT:xtows.obj
 0001:0001f1d1       _setvbuf                   100201d1 f   LIBCMT:setvbuf.obj
 0001:0001f2d7       __fwprintf_l               100202d7 f   LIBCMT:fwprintf.obj
 0001:0001f2f1       __fwprintf_p               100202f1 f   LIBCMT:fwprintf.obj
 0001:0001f30a       __fwprintf_p_l             1002030a f   LIBCMT:fwprintf.obj
 0001:0001f324       __fwprintf_s_l             10020324 f   LIBCMT:fwprintf.obj
 0001:0001f33e       _fwprintf                  1002033e f   LIBCMT:fwprintf.obj
 0001:0001f3d2       _fwprintf_s                100203d2 f   LIBCMT:fwprintf.obj
 0001:0001f3eb       __vsnwprintf_s             100203eb f   LIBCMT:vswprnc.obj
 0001:0001f409       __vsnwprintf_s_l           10020409 f   LIBCMT:vswprnc.obj
 0001:0001f50d       __vswprintf_c              1002050d f   LIBCMT:vswprnc.obj
 0001:0001f534       __vswprintf_c_l            10020534 f   LIBCMT:vswprnc.obj
 0001:0001f55c       __vswprintf_helper         1002055c f   LIBCMT:vswprnc.obj
 0001:0001f657       __vswprintf_p              10020657 f   LIBCMT:vswprnc.obj
 0001:0001f67e       __vswprintf_p_l            1002067e f   LIBCMT:vswprnc.obj
 0001:0001f6a6       __vswprintf_s_l            100206a6 f   LIBCMT:vswprnc.obj
 0001:0001f71d       _vswprintf_s               1002071d f   LIBCMT:vswprnc.obj
 0001:0001f738       ___crtMessageBoxW          10020738 f   LIBCMT:crtmboxw.obj
 0001:0001f91e       ___crtMessageBoxWaitThreadW@4 1002091e f   LIBCMT:crtmboxw.obj
 0001:0001f93c       __XcptFilter               1002093c f   LIBCMT:winxfltr.obj
 0001:0001fa97       ___CppXcptFilter           10020a97 f   LIBCMT:winxfltr.obj
 0001:0001fae9       ___get_flsindex            10020ae9 f   LIBCMT:tidtable.obj
 0001:0001faef       ___threadhandle            10020aef f   LIBCMT:tidtable.obj
 0001:0001faf5       ___threadid                10020af5 f   LIBCMT:tidtable.obj
 0001:0001fafb       __freefls@4                10020afb f   LIBCMT:tidtable.obj
 0001:0001fc30       __freeptd                  10020c30 f   LIBCMT:tidtable.obj
 0001:0001fc66       __getptd                   10020c66 f   LIBCMT:tidtable.obj
 0001:0001fc7e       __getptd_noexit            10020c7e f   LIBCMT:tidtable.obj
 0001:0001fced       __initptd                  10020ced f   LIBCMT:tidtable.obj
 0001:0001fda0       __mtinit                   10020da0 f   LIBCMT:tidtable.obj
 0001:0001fe16       __mtterm                   10020e16 f   LIBCMT:tidtable.obj
 0001:0001fe33       __set_pgmptr               10020e33 f i LIBCMT:stdargv.obj
 0001:0001fe40       __setargv                  10020e40 f   LIBCMT:stdargv.obj
 0001:0002006f       __setenvp                  1002106f f   LIBCMT:stdenvp.obj
 0001:00020150       ___security_init_cookie    10021150 f   LIBCMT:gs_support.obj
 0001:000201ec       ___crtGetEnvironmentStringsA 100211ec f   LIBCMT:a_env.obj
 0001:00020280       _strlen                    10021280 f   LIBCMT:strlen.obj
 0001:0002030b       _wcsncpy_s                 1002130b f   LIBCMT:wcsncpy_s.obj
 0001:000203c9       __output_s_l               100213c9 f   LIBCMT:outputs.obj
 0001:00021051       __output_p_l               10022051 f   LIBCMT:outputp.obj
 0001:00022389       __validate_param_reuseA    10023389 f   LIBCMT:outputp.obj
 0001:000224bf       _get_crtdouble_arg         100234bf f i LIBCMT:outputp.obj
 0001:000225be       __isatty                   100235be f   LIBCMT:isatty.obj
 0001:00022612       ___addlocaleref            10023612 f   LIBCMT:localref.obj
 0001:000226a7       ___freetlocinfo            100236a7 f   LIBCMT:localref.obj
 0001:00022801       ___removelocaleref         10023801 f   LIBCMT:localref.obj
 0001:000228a1       ___updatetlocinfo          100238a1 f   LIBCMT:localref.obj
 0001:00022921       __updatetlocinfoEx_nolock  10023921 f   LIBCMT:localref.obj
 0001:0002296c       ___iswcsym                 1002396c f i LIBCMT:_wctype.obj
 0001:00022990       ___iswcsymf                10023990 f i LIBCMT:_wctype.obj
 0001:000229b4       __isleadbyte_l             100239b4 f i LIBCMT:_wctype.obj
 0001:000229ee       __iswalnum_l               100239ee f i LIBCMT:_wctype.obj
 0001:00022a02       __iswalpha_l               10023a02 f i LIBCMT:_wctype.obj
 0001:00022a16       __iswblank_l               10023a16 f i LIBCMT:_wctype.obj
 0001:00022a31       __iswcntrl_l               10023a31 f i LIBCMT:_wctype.obj
 0001:00022a42       __iswcsym_l                10023a42 f i LIBCMT:_wctype.obj
 0001:00022a66       __iswcsymf_l               10023a66 f i LIBCMT:_wctype.obj
 0001:00022a8a       __iswdigit_l               10023a8a f i LIBCMT:_wctype.obj
 0001:00022a9b       __iswgraph_l               10023a9b f i LIBCMT:_wctype.obj
 0001:00022aaf       __iswlower_l               10023aaf f i LIBCMT:_wctype.obj
 0001:00022ac0       __iswprint_l               10023ac0 f i LIBCMT:_wctype.obj
 0001:00022ad4       __iswpunct_l               10023ad4 f i LIBCMT:_wctype.obj
 0001:00022ae5       __iswspace_l               10023ae5 f i LIBCMT:_wctype.obj
 0001:00022af6       __iswupper_l               10023af6 f i LIBCMT:_wctype.obj
 0001:00022b07       __iswxdigit_l              10023b07 f i LIBCMT:_wctype.obj
 0001:00022b1b       _isleadbyte                10023b1b f i LIBCMT:_wctype.obj
 0001:00022b2c       _iswalnum                  10023b2c f i LIBCMT:_wctype.obj
 0001:00022b40       _iswalpha                  10023b40 f i LIBCMT:_wctype.obj
 0001:00022b54       _iswascii                  10023b54 f i LIBCMT:_wctype.obj
 0001:00022b66       _iswblank                  10023b66 f i LIBCMT:_wctype.obj
 0001:00022b81       _iswcntrl                  10023b81 f i LIBCMT:_wctype.obj
 0001:00022b92       _iswdigit                  10023b92 f i LIBCMT:_wctype.obj
 0001:00022ba3       _iswgraph                  10023ba3 f i LIBCMT:_wctype.obj
 0001:00022bb7       _iswlower                  10023bb7 f i LIBCMT:_wctype.obj
 0001:00022bc8       _iswprint                  10023bc8 f i LIBCMT:_wctype.obj
 0001:00022bdc       _iswpunct                  10023bdc f i LIBCMT:_wctype.obj
 0001:00022bed       _iswspace                  10023bed f i LIBCMT:_wctype.obj
 0001:00022bfe       _iswupper                  10023bfe f i LIBCMT:_wctype.obj
 0001:00022c0f       _iswxdigit                 10023c0f f i LIBCMT:_wctype.obj
 0001:00022c23       __wctomb_l                 10023c23 f   LIBCMT:wctomb.obj
 0001:00022c72       __wctomb_s_l               10023c72 f   LIBCMT:wctomb.obj
 0001:00022d96       _wctomb                    10023d96 f   LIBCMT:wctomb.obj
 0001:00022dc9       _wctomb_s                  10023dc9 f   LIBCMT:wctomb.obj
 0001:00022df0       __aulldvrm                 10023df0 f   LIBCMT:ulldvrm.obj
 0001:00022e90       __CIcos_pentium4           10023e90 f   LIBCMT:cos_pentium4.obj
 0001:00022ea8       __cos_pentium4             10023ea8     LIBCMT:cos_pentium4.obj
 0001:00023040       __trandisp1                10024040 f   LIBCMT:87disp.obj
 0001:000230a7       __trandisp2                100240a7 f   LIBCMT:87disp.obj
 0001:00023133       __rttospopde               10024133     LIBCMT:87disp.obj
 0001:00023138       __rttospop                 10024138     LIBCMT:87disp.obj
 0001:0002313a       __rtnospop                 1002413a     LIBCMT:87disp.obj
 0001:0002313c       __rttosnpop                1002413c     LIBCMT:87disp.obj
 0001:0002313d       __rtnospopde               1002413d     LIBCMT:87disp.obj
 0001:00023144       __rtzeropop                10024144     LIBCMT:87disp.obj
 0001:00023146       __rtzeronpop               10024146     LIBCMT:87disp.obj
 0001:0002314b       __rtonepop                 1002414b     LIBCMT:87disp.obj
 0001:0002314d       __rtonenpop                1002414d     LIBCMT:87disp.obj
 0001:00023152       __tosnan1                  10024152     LIBCMT:87disp.obj
 0001:0002317d       __nosnan2                  1002417d     LIBCMT:87disp.obj
 0001:0002317f       __tosnan2                  1002417f     LIBCMT:87disp.obj
 0001:000231a7       __nan2                     100241a7     LIBCMT:87disp.obj
 0001:000231e6       __rtindfpop                100241e6     LIBCMT:87disp.obj
 0001:000231e8       __rtindfnpop               100241e8     LIBCMT:87disp.obj
 0001:000231f9       __rttosnpopde              100241f9     LIBCMT:87disp.obj
 0001:00023203       __rtchsifneg               10024203     LIBCMT:87disp.obj
 0001:00023210       __twoToTOS                 10024210 f   LIBCMT:common.obj
 0001:00023225       __load_CW                  10024225 f   LIBCMT:common.obj
 0001:0002323c       __convertTOStoQNaN         1002423c f   LIBCMT:common.obj
 0001:00023255       __fload_withFB             10024255 f   LIBCMT:common.obj
 0001:00023298       __checkTOS_withFB          10024298 f   LIBCMT:common.obj
 0001:000232ae       __fast_exit                100242ae f   LIBCMT:common.obj
 0001:000232bb       __math_exit                100242bb f   LIBCMT:common.obj
 0001:000232e5       __check_overflow_exit      100242e5 f   LIBCMT:common.obj
 0001:000232f9       __check_range_exit         100242f9 f   LIBCMT:common.obj
 0001:000233a0       __startTwoArgErrorHandling 100243a0 f   LIBCMT:genexcep.obj
 0001:000233b7       __startOneArgErrorHandling 100243b7 f   LIBCMT:genexcep.obj
 0001:00023400       __CIsin_pentium4           10024400 f   LIBCMT:sin_pentium4.obj
 0001:00023418       __sin_pentium4             10024418     LIBCMT:sin_pentium4.obj
 0001:000235c8       __matherr                  100245c8 f   LIBCMT:matherr.obj
 0001:000235cb       __frnd                     100245cb f   LIBCMT:frnd.obj
 0001:000235df       ___isascii                 100245df f i LIBCMT:_ctype.obj
 0001:000235ef       ___iscsym                  100245ef f i LIBCMT:_ctype.obj
 0001:0002360f       ___iscsymf                 1002460f f i LIBCMT:_ctype.obj
 0001:0002362c       ___toascii                 1002462c f i LIBCMT:_ctype.obj
 0001:00023637       __isalnum_l                10024637 f i LIBCMT:_ctype.obj
 0001:0002368f       __isalpha_l                1002468f f i LIBCMT:_ctype.obj
 0001:000236e7       __isblank_l                100246e7 f i LIBCMT:_ctype.obj
 0001:00023741       __iscntrl_l                10024741 f i LIBCMT:_ctype.obj
 0001:00023793       __iscsym_l                 10024793 f i LIBCMT:_ctype.obj
 0001:000237b4       __iscsymf_l                100247b4 f i LIBCMT:_ctype.obj
 0001:000237d5       __isdigit_l                100247d5 f i LIBCMT:_ctype.obj
 0001:00023827       __isgraph_l                10024827 f i LIBCMT:_ctype.obj
 0001:0002387f       __islower_l                1002487f f i LIBCMT:_ctype.obj
 0001:000238d1       __isprint_l                100248d1 f i LIBCMT:_ctype.obj
 0001:00023929       __ispunct_l                10024929 f i LIBCMT:_ctype.obj
 0001:0002397b       __isspace_l                1002497b f i LIBCMT:_ctype.obj
 0001:000239cd       __isupper_l                100249cd f i LIBCMT:_ctype.obj
 0001:00023a1f       __isxdigit_l               10024a1f f i LIBCMT:_ctype.obj
 0001:00023a77       _isalnum                   10024a77 f i LIBCMT:_ctype.obj
 0001:00023aa4       _isalpha                   10024aa4 f i LIBCMT:_ctype.obj
 0001:00023ad1       _isblank                   10024ad1 f i LIBCMT:_ctype.obj
 0001:00023b06       _iscntrl                   10024b06 f i LIBCMT:_ctype.obj
 0001:00023b31       _isdigit                   10024b31 f i LIBCMT:_ctype.obj
 0001:00023b5c       _isgraph                   10024b5c f i LIBCMT:_ctype.obj
 0001:00023b89       _islower                   10024b89 f i LIBCMT:_ctype.obj
 0001:00023bb4       _isprint                   10024bb4 f i LIBCMT:_ctype.obj
 0001:00023be1       _ispunct                   10024be1 f i LIBCMT:_ctype.obj
 0001:00023c0c       _isspace                   10024c0c f i LIBCMT:_ctype.obj
 0001:00023c37       _isupper                   10024c37 f i LIBCMT:_ctype.obj
 0001:00023c62       _isxdigit                  10024c62 f i LIBCMT:_ctype.obj
 0001:00023c8f       __tolower                  10024c8f f   LIBCMT:tolower.obj
 0001:00023c9a       __tolower_l                10024c9a f   LIBCMT:tolower.obj
 0001:00023ddd       _tolower                   10024ddd f   LIBCMT:tolower.obj
 0001:00023e09       _strcpy_s                  10024e09 f   LIBCMT:strcpy_s.obj
 0001:00023e60       _strrchr                   10024e60 f   LIBCMT:strrchr.obj
 0001:00023f97       __fptostr                  10024f97 f   LIBCMT:_fptostr.obj
 0001:00024047       ___crt_atoflt_l            10025047 f   LIBCMT:atodbl.obj
 0001:000240eb       __atodbl                   100250eb f   LIBCMT:atodbl.obj
 0001:00024100       __atodbl_l                 10025100 f   LIBCMT:atodbl.obj
 0001:0002418e       __atoflt                   1002518e f   LIBCMT:atodbl.obj
 0001:000241a3       __atoflt_l                 100251a3 f   LIBCMT:atodbl.obj
 0001:000241bb       __atoldbl                  100251bb f   LIBCMT:atodbl.obj
 0001:000241d0       __atoldbl_l                100251d0 f   LIBCMT:atodbl.obj
 0001:0002425f       ___dtold                   1002525f f   LIBCMT:cfout.obj
 0001:00024327       __fltout2                  10025327 f   LIBCMT:cfout.obj
 0001:000243c0       __alldvrm                  100253c0 f   LIBCMT:lldvrm.obj
 0001:000244a0       __aullshr                  100254a0 f   LIBCMT:ullshr.obj
 0001:000244bf       __get_output_format        100254bf f   LIBCMT:outputformat.obj
 0001:000244c5       __set_output_format        100254c5 f   LIBCMT:outputformat.obj
 0001:000244f7       __controlfp_s              100254f7 f   LIBCMT:contrlfp.obj
 0001:00024554       __fptrap                   10025554 f   LIBCMT:crt0fp.obj
 0001:0002455d       __msize                    1002555d f   LIBCMT:msize.obj
 0001:0002458e       __recalloc                 1002558e f   LIBCMT:recalloc.obj
 0001:000245f7       _strncpy_s                 100255f7 f   LIBCMT:strncpy_s.obj
 0001:0002477f       __MallocaIsSizeInRange     1002577f f i LIBCMT:a_loc.obj
 0001:00024790       __MarkAllocaS              10025790 f i LIBCMT:a_loc.obj
 0001:000247a4       ___crtGetLocaleInfoA       100257a4 f   LIBCMT:a_loc.obj
 0001:000247de       __freea                    100257de f i LIBCMT:a_loc.obj
 0001:000247fc       _GetTableIndexFromLcid     100257fc f   LIBCMT:winapinls.obj
 0001:00024831       _GetTableIndexFromLocaleName 10025831 f   LIBCMT:winapinls.obj
 0001:0002487f       ___crtCompareStringEx      1002587f f   LIBCMT:winapinls.obj
 0001:000248cb       ___crtDownlevelLCIDToLocaleName 100258cb f   LIBCMT:winapinls.obj
 0001:00024947       ___crtDownlevelLocaleNameToLCID 10025947 f   LIBCMT:winapinls.obj
 0001:00024985       ___crtEnumSystemLocalesEx  10025985 f   LIBCMT:winapinls.obj
 0001:000249c2       ___crtGetDateFormatEx      100259c2 f   LIBCMT:winapinls.obj
 0001:00024a0b       ___crtGetLocaleInfoEx      10025a0b f   LIBCMT:winapinls.obj
 0001:00024a3a       ___crtGetTimeFormatEx      10025a3a f   LIBCMT:winapinls.obj
 0001:00024a6f       ___crtGetUserDefaultLocaleName 10025a6f f   LIBCMT:winapinls.obj
 0001:00024a9a       ___crtIsValidLocaleName    10025a9a f   LIBCMT:winapinls.obj
 0001:00024ac5       ___crtLCMapStringEx        10025ac5 f   LIBCMT:winapinls.obj
 0001:00024b11       ___wcsnicmp_ascii          10025b11 f   LIBCMT:winapinls.obj
 0001:00024da3       ___crtLCMapStringA         10025da3 f   LIBCMT:a_map.obj
 0001:00024ee1       ___crtGetStringTypeA       10025ee1 f   LIBCMT:a_str.obj
 0001:00024f21       __commit                   10025f21 f   LIBCMT:commit.obj
 0001:0002500a       ___lock_fhandle            1002600a f   LIBCMT:osfinfo.obj
 0001:00025098       __alloc_osfhnd             10026098 f   LIBCMT:osfinfo.obj
 0001:00025241       __free_osfhnd              10026241 f   LIBCMT:osfinfo.obj
 0001:000252c7       __get_osfhandle            100262c7 f   LIBCMT:osfinfo.obj
 0001:0002532e       __open_osfhandle           1002632e f   LIBCMT:osfinfo.obj
 0001:00025444       __set_osfhnd               10026444 f   LIBCMT:osfinfo.obj
 0001:000254c6       __unlock_fhandle           100264c6 f   LIBCMT:osfinfo.obj
 0001:000254ec       __open                     100264ec f   LIBCMT:open.obj
 0001:0002559c       __sopen                    1002659c f   LIBCMT:open.obj
 0001:000255cf       __sopen_helper             100265cf f   LIBCMT:open.obj
 0001:00025698       __sopen_nolock             10026698 f   LIBCMT:open.obj
 0001:000256e6       __sopen_s                  100266e6 f   LIBCMT:open.obj
 0001:00025704       __mbsnbcmp                 10026704 f   LIBCMT:mbsnbcmp.obj
 0001:0002571c       __mbsnbcmp_l               1002671c f   LIBCMT:mbsnbcmp.obj
 0001:00025833       __mbsnbicmp                10026833 f   LIBCMT:mbsnbicm.obj
 0001:0002584b       __mbsnbicmp_l              1002684b f   LIBCMT:mbsnbicm.obj
 0001:00025a10       __global_unwind2           10026a10 f   LIBCMT:exsup.obj
 0001:00025a75       __local_unwind2            10026a75 f   LIBCMT:exsup.obj
 0001:00025af9       __abnormal_termination     10026af9 f   LIBCMT:exsup.obj
 0001:00025b1c       __NLG_Notify1              10026b1c f   LIBCMT:exsup.obj
 0001:00025b25       __NLG_Notify               10026b25 f   LIBCMT:exsup.obj
 0001:00025b3c       __NLG_Dispatch             10026b3c     LIBCMT:exsup.obj
 0001:00025b3c       __NLG_Dispatch2            10026b3c     LIBCMT:exsup.obj
 0001:00025b44       __NLG_Call                 10026b44 f   LIBCMT:exsup.obj
 0001:00025b46       __NLG_Return2              10026b46     LIBCMT:exsup.obj
 0001:00025b47       __getbuf                   10026b47 f   LIBCMT:_getbuf.obj
 0001:00025b8d       __lseeki64                 10026b8d f   LIBCMT:lseeki64.obj
 0001:00025c89       __lseeki64_nolock          10026c89 f   LIBCMT:lseeki64.obj
 0001:00025cfc       __mbtowc_l                 10026cfc f   LIBCMT:mbtowc.obj
 0001:00025df1       _mbtowc                    10026df1 f   LIBCMT:mbtowc.obj
 0001:00025e09       __putwch                   10026e09 f   LIBCMT:putwch.obj
 0001:00025e55       __putwch_nolock            10026e55 f   LIBCMT:putwch.obj
 0001:00025ea0       __chkstk                   10026ea0 f   LIBCMT:chkstk.obj
 0001:00025ea0       __alloca_probe             10026ea0 f   LIBCMT:chkstk.obj
 0001:00025ecb       __vfwprintf_l              10026ecb f   LIBCMT:vfwprint.obj
 0001:00025ee9       __vfwprintf_p              10026ee9 f   LIBCMT:vfwprint.obj
 0001:00025f06       __vfwprintf_p_l            10026f06 f   LIBCMT:vfwprint.obj
 0001:00025f24       __vfwprintf_s_l            10026f24 f   LIBCMT:vfwprint.obj
 0001:00025f42       _vfwprintf                 10026f42 f   LIBCMT:vfwprint.obj
 0001:00025f5f       _vfwprintf_helper          10026f5f f   LIBCMT:vfwprint.obj
 0001:00025ff2       _vfwprintf_s               10026ff2 f   LIBCMT:vfwprint.obj
 0001:0002600f       __woutput_l                1002700f f   LIBCMT:woutput.obj
 0001:00026cee       __woutput_s_l              10027cee f   LIBCMT:woutputs.obj
 0001:00027a05       __validate_param_reuseW    10028a05 f   LIBCMT:woutputp.obj
 0001:00027b7d       __woutput_p_l              10028b7d f   LIBCMT:woutputp.obj
 0001:00028fa6       __ismbbalnum               10029fa6 f   LIBCMT:ismbbyte.obj
 0001:00028fbf       __ismbbalnum_l             10029fbf f   LIBCMT:ismbbyte.obj
 0001:00028fd9       __ismbbalpha               10029fd9 f   LIBCMT:ismbbyte.obj
 0001:00028ff2       __ismbbalpha_l             10029ff2 f   LIBCMT:ismbbyte.obj
 0001:0002900c       __ismbbblank               1002a00c f   LIBCMT:ismbbyte.obj
 0001:0002902d       __ismbbblank_l             1002a02d f   LIBCMT:ismbbyte.obj
 0001:0002904f       __ismbbgraph               1002a04f f   LIBCMT:ismbbyte.obj
 0001:00029068       __ismbbgraph_l             1002a068 f   LIBCMT:ismbbyte.obj
 0001:00029082       __ismbbkalnum              1002a082 f   LIBCMT:ismbbyte.obj
 0001:00029098       __ismbbkalnum_l            1002a098 f   LIBCMT:ismbbyte.obj
 0001:000290af       __ismbbkana                1002a0af f   LIBCMT:ismbbyte.obj
 0001:000290c0       __ismbbkana_l              1002a0c0 f   LIBCMT:ismbbyte.obj
 0001:0002910c       __ismbbkprint              1002a10c f   LIBCMT:ismbbyte.obj
 0001:00029122       __ismbbkprint_l            1002a122 f   LIBCMT:ismbbyte.obj
 0001:00029139       __ismbbkpunct              1002a139 f   LIBCMT:ismbbyte.obj
 0001:0002914f       __ismbbkpunct_l            1002a14f f   LIBCMT:ismbbyte.obj
 0001:00029166       __ismbblead                1002a166 f   LIBCMT:ismbbyte.obj
 0001:0002917c       __ismbblead_l              1002a17c f   LIBCMT:ismbbyte.obj
 0001:00029193       __ismbbprint               1002a193 f   LIBCMT:ismbbyte.obj
 0001:000291ac       __ismbbprint_l             1002a1ac f   LIBCMT:ismbbyte.obj
 0001:000291c6       __ismbbpunct               1002a1c6 f   LIBCMT:ismbbyte.obj
 0001:000291dc       __ismbbpunct_l             1002a1dc f   LIBCMT:ismbbyte.obj
 0001:000291f3       __ismbbtrail               1002a1f3 f   LIBCMT:ismbbyte.obj
 0001:00029209       __ismbbtrail_l             1002a209 f   LIBCMT:ismbbyte.obj
 0001:00029446       __strtol_l                 1002a446 f   LIBCMT:strtol.obj
 0001:00029461       __strtoul_l                1002a461 f   LIBCMT:strtol.obj
 0001:0002947c       _strtol                    1002a47c f   LIBCMT:strtol.obj
 0001:000294a6       _strtoul                   1002a4a6 f   LIBCMT:strtol.obj
 0001:000294d0       ___free_lconv_mon          1002a4d0 f   LIBCMT:initmon.obj
 0001:000295cc       ___init_monetary           1002a5cc f   LIBCMT:initmon.obj
 0001:000299a5       ___free_lconv_num          1002a9a5 f   LIBCMT:initnum.obj
 0001:00029a0c       ___init_numeric            1002aa0c f   LIBCMT:initnum.obj
 0001:00029c4a       ___free_lc_time            1002ac4a f   LIBCMT:inittime.obj
 0001:00029fca       ___init_time               1002afca f   LIBCMT:inittime.obj
 0001:0002a839       _localeconv                1002b839 f   LIBCMT:lconv.obj
 0001:0002a85f       __iswctype_l               1002b85f f   LIBCMT:iswctype.obj
 0001:0002a871       _is_wctype                 1002b871 f   LIBCMT:iswctype.obj
 0001:0002a87a       _iswctype                  1002b87a f   LIBCMT:iswctype.obj
 0001:0002a8d0       ____lc_codepage_func       1002b8d0 f   LIBCMT:initctyp.obj
 0001:0002a8f6       ____lc_collate_cp_func     1002b8f6 f   LIBCMT:initctyp.obj
 0001:0002a91c       ____lc_locale_name_func    1002b91c f   LIBCMT:initctyp.obj
 0001:0002a944       ____mb_cur_max_func        1002b944 f   LIBCMT:initctyp.obj
 0001:0002a96a       ____mb_cur_max_l_func      1002b96a f   LIBCMT:initctyp.obj
 0001:0002a981       ___init_ctype              1002b981 f   LIBCMT:initctyp.obj
 0001:0002ad19       ___pctype_func             1002bd19 f   LIBCMT:ctype.obj
 0001:0002ad42       ___pwctype_func            1002bd42 f   LIBCMT:ctype.obj
 0001:0002ad48       __87except                 1002bd48 f   LIBCMT:87except.obj
 0001:0002ae51       __isctype                  1002be51 f   LIBCMT:isctype.obj
 0001:0002ae80       __isctype_l                1002be80 f   LIBCMT:isctype.obj
 0001:0002af31       ___init_dummy              1002bf31 f   LIBCMT:wsetloca.obj
 0001:0002af34       __locterm                  1002bf34 f   LIBCMT:wsetloca.obj
 0001:0002af86       ____setlc_active_func      1002bf86 f   LIBCMT:wsetloca.obj
 0001:0002af8c       ____unguarded_readlc_active_add_func 1002bf8c f   LIBCMT:wsetloca.obj
 0001:0002af92       ___copy_locale_name        1002bf92 f   LIBCMT:wsetloca.obj
 0001:0002aff6       ___create_locale           1002bff6 f   LIBCMT:wsetloca.obj
 0001:0002afff       ___free_locale             1002bfff f   LIBCMT:wsetloca.obj
 0001:0002b004       ___get_current_locale      1002c004 f   LIBCMT:wsetloca.obj
 0001:0002b009       ___lc_lctowcs              1002c009 f   LIBCMT:wsetloca.obj
 0001:0002b077       ___lc_wcstolc              1002c077 f   LIBCMT:wsetloca.obj
 0001:0002b1a3       __configthreadlocale       1002c1a3 f   LIBCMT:wsetloca.obj
 0001:0002b229       __create_locale            1002c229 f   LIBCMT:wsetloca.obj
 0001:0002b28b       __expandlocale             1002c28b f   LIBCMT:wsetloca.obj
 0001:0002b582       __free_locale              1002c582 f   LIBCMT:wsetloca.obj
 0001:0002b639       __get_current_locale       1002c639 f   LIBCMT:wsetloca.obj
 0001:0002b6e8       __wcreate_locale           1002c6e8 f   LIBCMT:wsetloca.obj
 0001:0002b7bf       __wcscats                  1002c7bf f   LIBCMT:wsetloca.obj
 0001:0002b7fe       __wsetlocale               1002c7fe f   LIBCMT:wsetloca.obj
 0001:0002c140       __CopyMan                  1002d140 f i LIBCMT:intrncvt.obj
 0001:0002c15d       __FillZeroMan              1002d15d f i LIBCMT:intrncvt.obj
 0001:0002c16c       __IncMan                   1002d16c f i LIBCMT:intrncvt.obj
 0001:0002c1ce       __IsZeroMan                1002d1ce f i LIBCMT:intrncvt.obj
 0001:0002c1eb       __RoundMan                 1002d1eb f i LIBCMT:intrncvt.obj
 0001:0002c2ec       __ShrMan                   1002d2ec f i LIBCMT:intrncvt.obj
 0001:0002c37a       __ZeroTail                 1002d37a f i LIBCMT:intrncvt.obj
 0001:0002c3c2       ___addl                    1002d3c2 f i LIBCMT:intrncvt.obj
 0001:0002c3e6       __ld12cvt                  1002d3e6 f i LIBCMT:intrncvt.obj
 0001:0002c951       __ld12tod                  1002d951 f   LIBCMT:intrncvt.obj
 0001:0002cec3       __ld12tof                  1002dec3 f   LIBCMT:intrncvt.obj
 0001:0002d435       __ld12told                 1002e435 f   LIBCMT:intrncvt.obj
 0001:0002d504       ___STRINGTOLD_L            1002e504 f   LIBCMT:strgtold.obj
 0001:0002d55f       ___ld12mul                 1002e55f f i LIBCMT:strgtold.obj
 0001:0002d82b       ___multtenpow12            1002e82b f i LIBCMT:strgtold.obj
 0001:0002db7e       ___shl_12                  1002eb7e f i LIBCMT:strgtold.obj
 0001:0002dbaf       ___shr_12                  1002ebaf f i LIBCMT:strgtold.obj
 0001:0002dbdf       ___strgtold12_l            1002ebdf f   LIBCMT:strgtold.obj
 0001:0002e387       _$I10_OUTPUT               1002f387 f   LIBCMT:x10fout.obj
 0001:0002ed5b       ___add_12                  1002fd5b f i LIBCMT:x10fout.obj
 0001:0002ef07       ___control87_2             1002ff07 f   LIBCMT:ieee87.obj
 0001:0002f57b       __clearfp                  1003057b f   LIBCMT:ieee87.obj
 0001:0002f65b       __control87                1003065b f i LIBCMT:ieee87.obj
 0001:0002f95d       __controlfp                1003095d f   LIBCMT:ieee87.obj
 0001:0002fc68       __fpreset                  10030c68 f   LIBCMT:ieee87.obj
 0001:0002fd35       __set_controlfp            10030d35 f   LIBCMT:ieee87.obj
 0001:0002fda8       __statusfp                 10030da8 f   LIBCMT:ieee87.obj
 0001:0002fe42       __statusfp2                10030e42 f   LIBCMT:ieee87.obj
 0001:0002feb0       __alloca_probe_16          10030eb0 f   LIBCMT:alloca16.obj
 0001:0002fec6       __alloca_probe_8           10030ec6     LIBCMT:alloca16.obj
 0001:0002fedc       _wcsnlen                   10030edc f   LIBCMT:wcslen_s.obj
 0001:0002ff83       __wopen                    10030f83 f   LIBCMT:wopen.obj
 0001:00030033       __wsopen                   10031033 f   LIBCMT:wopen.obj
 0001:00030066       __wsopen_helper            10031066 f   LIBCMT:wopen.obj
 0001:0003012f       __wsopen_nolock            1003112f f   LIBCMT:wopen.obj
 0001:00030882       __wsopen_s                 10031882 f   LIBCMT:wopen.obj
 0001:000308a0       _strncmp                   100318a0 f   LIBCMT:strncmp.obj
 0001:00030918       __strnicmp                 10031918 f   LIBCMT:strnicmp.obj
 0001:00030983       __strnicmp_l               10031983 f   LIBCMT:strnicmp.obj
 0001:00030a34       ___termconout              10031a34 f   LIBCMT:initcon.obj
 0001:00030a4b       ___initconout              10031a4b f   LIBCMT:initcon.obj
 0001:00030a6a       __fputwc_nolock            10031a6a f   LIBCMT:fputwc.obj
 0001:00030bf0       _fputwc                    10031bf0 f   LIBCMT:fputwc.obj
 0001:00030c67       _putwc                     10031c67 f   LIBCMT:fputwc.obj
 0001:00030e51       __wcstol_l                 10031e51 f   LIBCMT:wcstol.obj
 0001:00030e69       __wcstoul_l                10031e69 f   LIBCMT:wcstol.obj
 0001:00030e81       _wcstol                    10031e81 f   LIBCMT:wcstol.obj
 0001:00030e99       _wcstoul                   10031e99 f   LIBCMT:wcstol.obj
 0001:00030eb1       ___init_collate            10031eb1 f   LIBCMT:initcoll.obj
 0001:00030fd1       _memcmp                    10031fd1 f   LIBCMT:memcmp.obj
 0001:00033ee5       _wcscmp                    10034ee5 f   LIBCMT:wcscmp.obj
 0001:00033f23       _wcscspn                   10034f23 f   LIBCMT:wcscspn.obj
 0001:00033f6e       _wcsncmp                   10034f6e f   LIBCMT:wcsncmp.obj
 0001:00033fa4       _wcspbrk                   10034fa4 f   LIBCMT:wcspbrk.obj
 0001:000345a8       ___get_qualified_locale    100355a8 f   LIBCMT:getqloc.obj
 0001:00034e18       ___get_qualified_locale_downlevel 10035e18 f   LIBCMT:getqloc_downlevel.obj
 0001:00035034       ___mtold12                 10036034 f   LIBCMT:mantold.obj
 0001:00035214       __chsize                   10036214 f   LIBCMT:chsize.obj
 0001:0003522e       __chsize_nolock            1003622e f   LIBCMT:chsize.obj
 0001:000353e4       __chsize_s                 100363e4 f   LIBCMT:chsize.obj
 0001:000354d2       __get_fmode                100364d2 f   LIBCMT:setmode.obj
 0001:000354fc       __set_fmode                100364fc f   LIBCMT:setmode.obj
 0001:00035537       __setmode                  10036537 f   LIBCMT:setmode.obj
 0001:0003563c       __setmode_nolock           1003663c f   LIBCMT:setmode.obj
 0001:00035710       ___ascii_strnicmp          10036710 f   LIBCMT:_strnicm.obj
 0001:00035771       __flswbuf                  10036771 f   LIBCMT:_flswbuf.obj
 0001:000358d3       __wchartodigit             100368d3 f   LIBCMT:wchtodig.obj
 0001:00035a72       __wtoi                     10036a72 f   LIBCMT:wtox.obj
 0001:00035a7b       __wtoi64                   10036a7b f   LIBCMT:wtox.obj
 0001:00035a8f       __wtoi64_l                 10036a8f f   LIBCMT:wtox.obj
 0001:00035aa6       __wtoi_l                   10036aa6 f   LIBCMT:wtox.obj
 0001:00035aaf       __wtol                     10036aaf f   LIBCMT:wtox.obj
 0001:00035ac3       __wtol_l                   10036ac3 f   LIBCMT:wtox.obj
 0001:00035ada       __wtoll                    10036ada f   LIBCMT:wtox.obj
 0001:00035aee       __wtoll_l                  10036aee f   LIBCMT:wtox.obj
 0001:00035b05       _wcschr                    10036b05 f   LIBCMT:wcschr.obj
 0001:00035bb3       __wcsicmp                  10036bb3 f   LIBCMT:wcsicmp.obj
 0001:00035c46       __wcsicmp_l                10036c46 f   LIBCMT:wcsicmp.obj
 0001:00035d21       __wcsnicmp                 10036d21 f   LIBCMT:wcsnicmp.obj
 0001:00035dd7       __wcsnicmp_l               10036dd7 f   LIBCMT:wcsnicmp.obj
 0001:000361a0       __wcstof_l                 100371a0 f   LIBCMT:wcstoq.obj
 0001:00036253       __wcstoi64                 10037253 f   LIBCMT:wcstoq.obj
 0001:0003627d       __wcstoi64_l               1003727d f   LIBCMT:wcstoq.obj
 0001:00036298       __wcstoimax_l              10037298 f   LIBCMT:wcstoq.obj
 0001:000362a1       __wcstold_l                100372a1 f   LIBCMT:wcstoq.obj
 0001:000362aa       __wcstoll_l                100372aa f   LIBCMT:wcstoq.obj
 0001:000362b3       __wcstoui64                100372b3 f   LIBCMT:wcstoq.obj
 0001:000362dd       __wcstoui64_l              100372dd f   LIBCMT:wcstoq.obj
 0001:000362f8       __wcstoull_l               100372f8 f   LIBCMT:wcstoq.obj
 0001:00036301       __wcstoumax_l              10037301 f   LIBCMT:wcstoq.obj
 0001:0003630a       _wcstof                    1003730a f   LIBCMT:wcstoq.obj
 0001:0003631f       _wcstoimax                 1003731f f   LIBCMT:wcstoq.obj
 0001:00036328       _wcstold                   10037328 f   LIBCMT:wcstoq.obj
 0001:00036331       _wcstoll                   10037331 f   LIBCMT:wcstoq.obj
 0001:0003633a       _wcstoull                  1003733a f   LIBCMT:wcstoq.obj
 0001:00036343       _wcstoumax                 10037343 f   LIBCMT:wcstoq.obj
 0001:0003634c       __towlower_l               1003734c f   LIBCMT:towlower.obj
 0001:000363fd       _towlower                  100373fd f   LIBCMT:towlower.obj
 0001:0003640e       __wcstod_l                 1003740e f   LIBCMT:wcstod.obj
 0001:00036509       _wcstod                    10037509 f   LIBCMT:wcstod.obj
 0001:00036520       __allmul                   10037520 f   LIBCMT:llmul.obj
 0001:00036554       ___crtLCMapStringW         10037554 f   LIBCMT:w_map.obj
 0001:00036583       __wfltin2                  10037583 f   LIBCMT:wcfin.obj
 0001:00036630       ___WSTRINGTOLD_L           10037630 f   LIBCMT:wstrgtold.obj
 0001:0003668b       ___wstrgtold12_l           1003768b f   LIBCMT:wstrgtold.obj
 0001:00036edc       _GetModuleHandleA@4        10037edc f   kernel32:KERNEL32.dll
 0001:00036ee2       _GetProcAddress@8          10037ee2 f   kernel32:KERNEL32.dll
 0001:00036ee8       _HeapAlloc@12              10037ee8 f   kernel32:KERNEL32.dll
 0001:00036eee       _IsDebuggerPresent@0       10037eee f   kernel32:KERNEL32.dll
 0001:00036ef4       _IsProcessorFeaturePresent@4 10037ef4 f   kernel32:KERNEL32.dll
 0001:00036efa       _EncodePointer@4           10037efa f   kernel32:KERNEL32.dll
 0001:00036f00       _DecodePointer@4           10037f00 f   kernel32:KERNEL32.dll
 0001:00036f06       _GetLastError@0            10037f06 f   kernel32:KERNEL32.dll
 0001:00036f0c       _ExitProcess@4             10037f0c f   kernel32:KERNEL32.dll
 0001:00036f12       _GetModuleHandleExW@12     10037f12 f   kernel32:KERNEL32.dll
 0001:00036f18       _AreFileApisANSI@0         10037f18 f   kernel32:KERNEL32.dll
 0001:00036f1e       _MultiByteToWideChar@24    10037f1e f   kernel32:KERNEL32.dll
 0001:00036f24       _WideCharToMultiByte@32    10037f24 f   kernel32:KERNEL32.dll
 0001:00036f2a       _HeapFree@12               10037f2a f   kernel32:KERNEL32.dll
 0001:00036f30       _HeapReAlloc@16            10037f30 f   kernel32:KERNEL32.dll
 0001:00036f36       _EnterCriticalSection@4    10037f36 f   kernel32:KERNEL32.dll
 0001:00036f3c       _LeaveCriticalSection@4    10037f3c f   kernel32:KERNEL32.dll
 0001:00036f42       _GetStdHandle@4            10037f42 f   kernel32:KERNEL32.dll
 0001:00036f48       _GetFileType@4             10037f48 f   kernel32:KERNEL32.dll
 0001:00036f4e       _GetModuleFileNameW@12     10037f4e f   kernel32:KERNEL32.dll
 0001:00036f54       _WriteConsoleW@20          10037f54 f   kernel32:KERNEL32.dll
 0001:00036f5a       _GetCommandLineA@0         10037f5a f   kernel32:KERNEL32.dll
 0001:00036f60       _GetCurrentThreadId@0      10037f60 f   kernel32:KERNEL32.dll
 0001:00036f66       _WriteFile@20              10037f66 f   kernel32:KERNEL32.dll
 0001:00036f6c       _GetProcessHeap@0          10037f6c f   kernel32:KERNEL32.dll
 0001:00036f72       _UnhandledExceptionFilter@4 10037f72 f   kernel32:KERNEL32.dll
 0001:00036f78       _SetUnhandledExceptionFilter@4 10037f78 f   kernel32:KERNEL32.dll
 0001:00036f7e       _SetLastError@4            10037f7e f   kernel32:KERNEL32.dll
 0001:00036f84       _InitializeCriticalSectionAndSpinCount@8 10037f84 f   kernel32:KERNEL32.dll
 0001:00036f8a       _CreateEventW@16           10037f8a f   kernel32:KERNEL32.dll
 0001:00036f90       _Sleep@4                   10037f90 f   kernel32:KERNEL32.dll
 0001:00036f96       _GetCurrentProcess@0       10037f96 f   kernel32:KERNEL32.dll
 0001:00036f9c       _TerminateProcess@8        10037f9c f   kernel32:KERNEL32.dll
 0001:00036fa2       _TlsAlloc@0                10037fa2 f   kernel32:KERNEL32.dll
 0001:00036fa8       _TlsGetValue@4             10037fa8 f   kernel32:KERNEL32.dll
 0001:00036fae       _TlsSetValue@8             10037fae f   kernel32:KERNEL32.dll
 0001:00036fb4       _TlsFree@4                 10037fb4 f   kernel32:KERNEL32.dll
 0001:00036fba       _GetStartupInfoW@4         10037fba f   kernel32:KERNEL32.dll
 0001:00036fc0       _GetTickCount@0            10037fc0 f   kernel32:KERNEL32.dll
 0001:00036fc6       _GetModuleHandleW@4        10037fc6 f   kernel32:KERNEL32.dll
 0001:00036fcc       _CreateSemaphoreW@16       10037fcc f   kernel32:KERNEL32.dll
 0001:00036fd2       _DeleteCriticalSection@4   10037fd2 f   kernel32:KERNEL32.dll
 0001:00036fd8       _FatalAppExitA@8           10037fd8 f   kernel32:KERNEL32.dll
 0001:00036fde       _SetConsoleCtrlHandler@8   10037fde f   kernel32:KERNEL32.dll
 0001:00036fe4       _FreeLibrary@4             10037fe4 f   kernel32:KERNEL32.dll
 0001:00036fea       _LoadLibraryExW@12         10037fea f   kernel32:KERNEL32.dll
 0001:00036ff0       _IsValidCodePage@4         10037ff0 f   kernel32:KERNEL32.dll
 0001:00036ff6       _GetACP@0                  10037ff6 f   kernel32:KERNEL32.dll
 0001:00036ffc       _GetOEMCP@0                10037ffc f   kernel32:KERNEL32.dll
 0001:00037002       _GetCPInfo@8               10038002 f   kernel32:KERNEL32.dll
 0001:00037008       _CloseHandle@4             10038008 f   kernel32:KERNEL32.dll
 0001:0003700e       _RtlUnwind@16              1003800e f   kernel32:KERNEL32.dll
 0001:00037014       _ReadFile@20               10038014 f   kernel32:KERNEL32.dll
 0001:0003701a       _GetConsoleMode@8          1003801a f   kernel32:KERNEL32.dll
 0001:00037020       _ReadConsoleW@20           10038020 f   kernel32:KERNEL32.dll
 0001:00037026       _GetConsoleCP@0            10038026 f   kernel32:KERNEL32.dll
 0001:0003702c       _DeleteFileW@4             1003802c f   kernel32:KERNEL32.dll
 0001:00037032       _SetFilePointerEx@20       10038032 f   kernel32:KERNEL32.dll
 0001:00037038       _RaiseException@16         10038038 f   kernel32:KERNEL32.dll
 0001:0003703e       _OutputDebugStringW@4      1003803e f   kernel32:KERNEL32.dll
 0001:00037044       _GetCurrentThread@0        10038044 f   kernel32:KERNEL32.dll
 0001:0003704a       _GetModuleFileNameA@12     1003804a f   kernel32:KERNEL32.dll
 0001:00037050       _QueryPerformanceCounter@4 10038050 f   kernel32:KERNEL32.dll
 0001:00037056       _GetCurrentProcessId@0     10038056 f   kernel32:KERNEL32.dll
 0001:0003705c       _GetSystemTimeAsFileTime@4 1003805c f   kernel32:KERNEL32.dll
 0001:00037062       _GetEnvironmentStringsW@0  10038062 f   kernel32:KERNEL32.dll
 0001:00037068       _FreeEnvironmentStringsW@4 10038068 f   kernel32:KERNEL32.dll
 0001:0003706e       _HeapSize@12               1003806e f   kernel32:KERNEL32.dll
 0001:00037074       _GetDateFormatW@24         10038074 f   kernel32:KERNEL32.dll
 0001:0003707a       _GetTimeFormatW@24         1003807a f   kernel32:KERNEL32.dll
 0001:00037080       _CompareStringW@24         10038080 f   kernel32:KERNEL32.dll
 0001:00037086       _LCMapStringW@24           10038086 f   kernel32:KERNEL32.dll
 0001:0003708c       _GetLocaleInfoW@16         1003808c f   kernel32:KERNEL32.dll
 0001:00037092       _IsValidLocale@8           10038092 f   kernel32:KERNEL32.dll
 0001:00037098       _GetUserDefaultLCID@0      10038098 f   kernel32:KERNEL32.dll
 0001:0003709e       _EnumSystemLocalesW@8      1003809e f   kernel32:KERNEL32.dll
 0001:000370a4       _GetStringTypeW@16         100380a4 f   kernel32:KERNEL32.dll
 0001:000370aa       _FlushFileBuffers@4        100380aa f   kernel32:KERNEL32.dll
 0001:000370b0       _SetStdHandle@8            100380b0 f   kernel32:KERNEL32.dll
 0001:000370b6       _CreateFileW@28            100380b6 f   kernel32:KERNEL32.dll
 0001:000370bc       _SetEndOfFile@4            100380bc f   kernel32:KERNEL32.dll
 0002:00000000       ___xc_a                    10043000     LIBCMT:crt0init.obj
 0002:00000104       ___xc_z                    10043104     LIBCMT:crt0init.obj
 0002:00000208       ___xi_a                    10043208     LIBCMT:crt0init.obj
 0002:00000424       ___xi_z                    10043424     LIBCMT:crt0init.obj
 0002:00000528       ___xp_a                    10043528     LIBCMT:crt0init.obj
 0002:0000083c       ___xp_z                    1004383c     LIBCMT:crt0init.obj
 0002:00000940       ___xt_a                    10043940     LIBCMT:crt0init.obj
 0002:00000a44       ___xt_z                    10043a44     LIBCMT:crt0init.obj
 0002:00000b88       _FingerStrokeAssistance_M  10043b88     FingerStrokeAssistance.obj
 0002:00000b8c       ??_C@_0BI@PBFPDHLE@Error?5creating?5scope?54?6?$AA@ 10043b8c     FingerStrokeAssistance.obj
 0002:00000ba8       ??_C@_0BB@HDIKJIBG@Multiport?5Switch?$AA@ 10043ba8     FingerStrokeAssistance.obj
 0002:00000bbc       ??_C@_0L@NEPEIPFM@Robot?1Gain?$AA@ 10043bbc     FingerStrokeAssistance.obj
 0002:00000bcc       ??_C@_0BC@GJDPDOKH@controller?1Sum?1s1?$AA@ 10043bcc     FingerStrokeAssistance.obj
 0002:00000be4       ??_C@_0BI@PFNCELAG@Error?5creating?5scope?52?6?$AA@ 10043be4     FingerStrokeAssistance.obj
 0002:00000c00       ??_C@_0BF@ENIEHMOD@signals?1sigGravAccel?$AA@ 10043c00     FingerStrokeAssistance.obj
 0002:00000c1c       ??_C@_0BI@PHJEPFFP@Error?5creating?5scope?51?6?$AA@ 10043c1c     FingerStrokeAssistance.obj
 0002:00000c38       ??_C@_0CK@IEELAALA@controller?1Discrete?5PID?5Controll@ 10043c38     FingerStrokeAssistance.obj
 0002:00000c6c       ??_C@_0CK@KPGGFDHD@controller?1Discrete?5PID?5Controll@ 10043c6c     FingerStrokeAssistance.obj
 0002:00000ca0       ??_C@_0BI@PEBACBDB@Error?5creating?5scope?53?6?$AA@ 10043ca0     FingerStrokeAssistance.obj
 0002:00000cbc       ??_C@_06KFNFIEK@?$CF15?46f?$AA@ 10043cbc     FingerStrokeAssistance.obj
 0002:00000cc4       ??_C@_0BC@OJJPBDHH@FixedStepDiscrete?$AA@ 10043cc4     FingerStrokeAssistance.obj
 0002:00000cdc       ??_C@_04EPKDLPPB@tout?$AA@ 10043cdc     FingerStrokeAssistance.obj
 0002:00000ce2       ??_C@_00CNPNBAHC@?$AA@     10043ce2     FingerStrokeAssistance.obj
 0002:00000ce4       ??_C@_03HBFGMJOD@rt_?$AA@  10043ce4     FingerStrokeAssistance.obj
 0002:00000ce8       ??_C@_0O@IFKELIIB@PCI?56221?5ENC?5?$AA@ 10043ce8     FingerStrokeAssistance.obj
 0002:00000cf8       ??_C@_0CL@FGFCPCFH@FingerStrokeAssistance?1Robot?1PCI@ 10043cf8     FingerStrokeAssistance.obj
 0002:00000d2c       ??_C@_0P@FMGHBALM@PCI?56221?5ENC?51?$AA@ 10043d2c     FingerStrokeAssistance.obj
 0002:00000d40       ??_C@_0CM@DDAEJBBH@FingerStrokeAssistance?1Robot?1PCI@ 10043d40     FingerStrokeAssistance.obj
 0002:00000d74       ??_C@_0N@JAOEPLNP@PCI?96221?5AD1?$AA@ 10043d74     FingerStrokeAssistance.obj
 0002:00000d84       ??_C@_0CK@LAFKNGLI@FingerStrokeAssistance?1Robot?1PCI@ 10043d84     FingerStrokeAssistance.obj
 0002:00000db8       ??_C@_0M@HBIEHIJL@PCI?96221?5DA?$AA@ 10043db8     FingerStrokeAssistance.obj
 0002:00000dc8       ??_C@_0CJ@KACMKMOO@FingerStrokeAssistance?1Robot?1PCI@ 10043dc8     FingerStrokeAssistance.obj
 0002:00000e00       __real@0000000000000000    10043e00     FingerStrokeAssistance.obj
 0002:00000e10       __real@3f50624dd2f1a9fc    10043e10     FingerStrokeAssistance.obj
 0002:00000e20       __real@3f9eb851eb851eb8    10043e20     FingerStrokeAssistance.obj
 0002:00000e30       __real@3fb999999999999a    10043e30     FingerStrokeAssistance.obj
 0002:00000e40       __real@3fe0000000000000    10043e40     FingerStrokeAssistance.obj
 0002:00000e50       __real@3ff0000000000000    10043e50     FingerStrokeAssistance.obj
 0002:00000e60       __real@4000000000000000    10043e60     FingerStrokeAssistance.obj
 0002:00000e70       __real@4008000000000000    10043e70     FingerStrokeAssistance.obj
 0002:00000e80       __real@4010000000000000    10043e80     FingerStrokeAssistance.obj
 0002:00000e90       __real@4014000000000000    10043e90     FingerStrokeAssistance.obj
 0002:00000ea0       __real@4018000000000000    10043ea0     FingerStrokeAssistance.obj
 0002:00000eb0       __real@4024000000000000    10043eb0     FingerStrokeAssistance.obj
 0002:00000ec0       __real@402e000000000000    10043ec0     FingerStrokeAssistance.obj
 0002:00000ed0       __real@409f400000000000    10043ed0     FingerStrokeAssistance.obj
 0002:00000ee0       __real@41f0000000000000    10043ee0     FingerStrokeAssistance.obj
 0002:00000ef0       __real@4330000000000000    10043ef0     FingerStrokeAssistance.obj
 0002:00000f00       __real@8000000000000000    10043f00     FingerStrokeAssistance.obj
 0002:00000f10       __real@bfe0000000000000    10043f10     FingerStrokeAssistance.obj
 0002:00000f20       __real@bfe999999999999a    10043f20     FingerStrokeAssistance.obj
 0002:00000f30       __real@bff0000000000000    10043f30     FingerStrokeAssistance.obj
 0002:00000f40       __real@c020000000000000    10043f40     FingerStrokeAssistance.obj
 0002:00000f50       __xmm@00000000000000003f50624dd2f1a9fc 10043f50     FingerStrokeAssistance.obj
 0002:00000f70       __xmm@000001030000007a0000007f00000001 10043f70     FingerStrokeAssistance.obj
 0002:00000f90       __xmm@41f00000000000000000000000000000 10043f90     FingerStrokeAssistance.obj
 0002:00000fb0       __xmm@7fffffffffffffff7fffffffffffffff 10043fb0     FingerStrokeAssistance.obj
 0002:00002e08       ??_C@_04BAMHDAGA@Bias?$AA@ 10045e08     FingerStrokeAssistance_capi.obj
 0002:00002e10       ??_C@_0BF@GGMNNFDC@Data?5Type?5Conversion?$AA@ 10045e10     FingerStrokeAssistance_capi.obj
 0002:00002e2c       ??_C@_0BJ@OJGJJAHB@Discrete?9Time?5Integrator?$AA@ 10045e2c     FingerStrokeAssistance_capi.obj
 0002:00002e4c       ??_C@_04OMOMKKFL@Gain?$AA@ 10045e4c     FingerStrokeAssistance_capi.obj
 0002:00002e54       ??_C@_05DKAIGDGE@Gain1?$AA@ 10045e54     FingerStrokeAssistance_capi.obj
 0002:00002e5c       ??_C@_0L@EICILOBK@Saturation?$AA@ 10045e5c     FingerStrokeAssistance_capi.obj
 0002:00002e6c       ??_C@_09OEIKEBHN@Sine?5Wave?$AA@ 10045e6c     FingerStrokeAssistance_capi.obj
 0002:00002e78       ??_C@_0P@OHECFDED@Manual?5Switch1?$AA@ 10045e78     FingerStrokeAssistance_capi.obj
 0002:00002e8c       ??_C@_0P@MMGPAAIA@Manual?5Switch2?$AA@ 10045e8c     FingerStrokeAssistance_capi.obj
 0002:00002ea0       ??_C@_0P@NFHEDBMB@Manual?5Switch3?$AA@ 10045ea0     FingerStrokeAssistance_capi.obj
 0002:00002eb4       ??_C@_05ENDOMFAI@Delay?$AA@ 10045eb4     FingerStrokeAssistance_capi.obj
 0002:00002ebc       ??_C@_0BA@OCAIHLPC@Discrete?5Filter?$AA@ 10045ebc     FingerStrokeAssistance_capi.obj
 0002:00002ed0       ??_C@_0CI@LMEDCDNN@Detect?5Change?1FixPt?5Relational?5O@ 10045ed0     FingerStrokeAssistance_capi.obj
 0002:00002f00       ??_C@_0BL@FKJCOAKD@Detect?5Change?1Delay?5Input1?$AA@ 10045f00     FingerStrokeAssistance_capi.obj
 0002:00002f20       ??_C@_06CFNEEADJ@U?$CIk?91?$CJ?$AA@ 10045f20     FingerStrokeAssistance_capi.obj
 0002:00002f28       ??_C@_0CC@NCGMOMFC@Feedback?1Discrete?9Time?5Integrato@ 10045f28     FingerStrokeAssistance_capi.obj
 0002:00002f50       ??_C@_0CD@EDOKFLIG@Feedback?1Discrete?9Time?5Integrato@ 10045f50     FingerStrokeAssistance_capi.obj
 0002:00002f7c       ??_C@_0M@KEFEOOOC@Robot?1Gain1?$AA@ 10045f7c     FingerStrokeAssistance_capi.obj
 0002:00002f8c       ??_C@_0BE@OMELOOBD@Robot?1PCI?56221?5ENC?5?$AA@ 10045f8c     FingerStrokeAssistance_capi.obj
 0002:00002fa4       ??_C@_0BF@ECAPANIC@Robot?1PCI?56221?5ENC?51?$AA@ 10045fa4     FingerStrokeAssistance_capi.obj
 0002:00002fc0       ??_C@_0BG@HNHIMJLG@Robot?1PCI?96221?5AD1?1p1?$AA@ 10045fc0     FingerStrokeAssistance_capi.obj
 0002:00002fdc       ??_C@_0BG@FGFFJKHF@Robot?1PCI?96221?5AD1?1p2?$AA@ 10045fdc     FingerStrokeAssistance_capi.obj
 0002:00002ff8       ??_C@_0BG@EPEOKLDE@Robot?1PCI?96221?5AD1?1p3?$AA@ 10045ff8     FingerStrokeAssistance_capi.obj
 0002:00003014       ??_C@_0BG@PDNPD@Robot?1PCI?96221?5AD1?1p4?$AA@ 10046014     FingerStrokeAssistance_capi.obj
 0002:00003030       ??_C@_0BG@BJBEAMLC@Robot?1PCI?96221?5AD1?1p5?$AA@ 10046030     FingerStrokeAssistance_capi.obj
 0002:0000304c       ??_C@_0BG@DCDJFPHB@Robot?1PCI?96221?5AD1?1p6?$AA@ 1004604c     FingerStrokeAssistance_capi.obj
 0002:00003068       ??_C@_0BG@CLCCGODA@Robot?1PCI?96221?5AD1?1p7?$AA@ 10046068     FingerStrokeAssistance_capi.obj
 0002:00003084       ??_C@_0BG@KMLKHCPP@Robot?1PCI?96221?5AD1?1p8?$AA@ 10046084     FingerStrokeAssistance_capi.obj
 0002:000030a0       ??_C@_0BA@JCJGFGEG@controller?1Gain?$AA@ 100460a0     FingerStrokeAssistance_capi.obj
 0002:000030b4       ??_C@_0BB@FJHAHFEB@controller?1Gain1?$AA@ 100460b4     FingerStrokeAssistance_capi.obj
 0002:000030c8       ??_C@_0BD@GABIOBLL@controller?1Product?$AA@ 100460c8     FingerStrokeAssistance_capi.obj
 0002:000030e0       ??_C@_0BG@CAEJBHKB@controller?1Saturation?$AA@ 100460e0     FingerStrokeAssistance_capi.obj
 0002:000030fc       ??_C@_0P@EOOKJPPD@controller?1Sum?$AA@ 100460fc     FingerStrokeAssistance_capi.obj
 0002:00003110       ??_C@_0BJ@LDIJMIN@parameters?1parChangeRate?$AA@ 10046110     FingerStrokeAssistance_capi.obj
 0002:00003130       ??_C@_0BG@MANKCMPG@parameters?1parFThresh?$AA@ 10046130     FingerStrokeAssistance_capi.obj
 0002:0000314c       ??_C@_0BH@GKLAKHLL@parameters?1parFixedDur?$AA@ 1004614c     FingerStrokeAssistance_capi.obj
 0002:00003168       ??_C@_0BL@EGOKLGEF@parameters?1parForceTrigger?$AA@ 10046168     FingerStrokeAssistance_capi.obj
 0002:00003188       ??_C@_0BC@FKHIPIEO@parameters?1parKd1?$AA@ 10046188     FingerStrokeAssistance_capi.obj
 0002:000031a0       ??_C@_0BC@HBFFKLIN@parameters?1parKd2?$AA@ 100461a0     FingerStrokeAssistance_capi.obj
 0002:000031b8       ??_C@_0BD@BKPLMOHI@parameters?1parKdV1?$AA@ 100461b8     FingerStrokeAssistance_capi.obj
 0002:000031d0       ??_C@_0BD@DBNGJNLL@parameters?1parKdV2?$AA@ 100461d0     FingerStrokeAssistance_capi.obj
 0002:000031e8       ??_C@_0BC@EBFHPDOC@parameters?1parKp1?$AA@ 100461e8     FingerStrokeAssistance_capi.obj
 0002:00003200       ??_C@_0BC@GKHKKACB@parameters?1parKp2?$AA@ 10046200     FingerStrokeAssistance_capi.obj
 0002:00003218       ??_C@_0BH@PENPCGFM@parameters?1parLeftMode?$AA@ 10046218     FingerStrokeAssistance_capi.obj
 0002:00003234       ??_C@_0BF@GLMDNGIG@parameters?1parMarker?$AA@ 10046234     FingerStrokeAssistance_capi.obj
 0002:00003250       ??_C@_0BJ@BNLOJEEL@parameters?1parMaxTrajDur?$AA@ 10046250     FingerStrokeAssistance_capi.obj
 0002:00003270       ??_C@_0BE@GHPCIJPH@parameters?1parPStop?$AA@ 10046270     FingerStrokeAssistance_capi.obj
 0002:00003288       ??_C@_0BH@GJMCKDGC@parameters?1parTrajMode?$AA@ 10046288     FingerStrokeAssistance_capi.obj
 0002:000032a4       ??_C@_0BG@LMGBBNNN@parameters?1parVThresh?$AA@ 100462a4     FingerStrokeAssistance_capi.obj
 0002:000032c0       ??_C@_0BI@PBEPHEEP@parameters?1parWiggleAmp?$AA@ 100462c0     FingerStrokeAssistance_capi.obj
 0002:000032dc       ??_C@_0BN@BNDFGDOE@parameters?1Rounding?5Function?$AA@ 100462dc     FingerStrokeAssistance_capi.obj
 0002:00003300       ??_C@_0BG@KKGOACNA@parameters?1Saturation?$AA@ 10046300     FingerStrokeAssistance_capi.obj
 0002:0000331c       ??_C@_0BH@EACELLGE@parameters?1Saturation1?$AA@ 1004631c     FingerStrokeAssistance_capi.obj
 0002:00003338       ??_C@_0BH@GLAJOIKH@parameters?1Saturation2?$AA@ 10046338     FingerStrokeAssistance_capi.obj
 0002:00003354       ??_C@_0BG@IJAPOADM@signals?1Digital?5Clock?$AA@ 10046354     FingerStrokeAssistance_capi.obj
 0002:00003370       ??_C@_0BC@MKKOBPPB@signals?1sigForce1?$AA@ 10046370     FingerStrokeAssistance_capi.obj
 0002:00003388       ??_C@_0BH@PEEAHDAL@signals?1sigForce1Clean?$AA@ 10046388     FingerStrokeAssistance_capi.obj
 0002:000033a4       ??_C@_0BC@OBIDEMDC@signals?1sigForce2?$AA@ 100463a4     FingerStrokeAssistance_capi.obj
 0002:000033bc       ??_C@_0BH@MFKIGJJG@signals?1sigForce2Clean?$AA@ 100463bc     FingerStrokeAssistance_capi.obj
 0002:000033d8       ??_C@_0BG@ICCBOBMJ@signals?1sigTargetTime?$AA@ 100463d8     FingerStrokeAssistance_capi.obj
 0002:000033f4       ??_C@_0CC@BEBADDAG@Feedback?1Discrete?5Derivative?1Dif@ 100463f4     FingerStrokeAssistance_capi.obj
 0002:0000341c       ??_C@_0CD@LPINLJBE@Feedback?1Discrete?5Derivative?1TSa@ 1004641c     FingerStrokeAssistance_capi.obj
 0002:00003448       ??_C@_0CA@PHFNBHHI@Feedback?1Discrete?5Derivative?1UD?$AA@ 10046448     FingerStrokeAssistance_capi.obj
 0002:00003470       ??_C@_0CD@OODAJKMO@Feedback?1Discrete?5Derivative1?1Di@ 10046470     FingerStrokeAssistance_capi.obj
 0002:0000349c       ??_C@_0CE@CKMINDDP@Feedback?1Discrete?5Derivative1?1TS@ 1004649c     FingerStrokeAssistance_capi.obj
 0002:000034c8       ??_C@_0CB@MIKIOEE@Feedback?1Discrete?5Derivative1?1UD@ 100464c8     FingerStrokeAssistance_capi.obj
 0002:000034f0       ??_C@_0DA@IHGHECDK@Robot?1account?5for?5handedness?1MAT@ 100464f0     FingerStrokeAssistance_capi.obj
 0002:0000352c       ??_C@_0DA@KMEKBBPJ@Robot?1account?5for?5handedness?1MAT@ 1004652c     FingerStrokeAssistance_capi.obj
 0002:00003568       ??_C@_0DD@LGPLBJIP@Robot?1account?5for?5handedness?5for@ 10046568     FingerStrokeAssistance_capi.obj
 0002:000035a8       ??_C@_0DB@GGNMPEDP@Robot?1account?5for?5handedness1?1MA@ 100465a8     FingerStrokeAssistance_capi.obj
 0002:000035e4       ??_C@_0DB@ENPBKHPM@Robot?1account?5for?5handedness1?1MA@ 100465e4     FingerStrokeAssistance_capi.obj
 0002:00003620       ??_C@_0DB@BNMCHGNM@Robot?1account?5for?5handedness2?1MA@ 10046620     FingerStrokeAssistance_capi.obj
 0002:0000365c       ??_C@_0DB@DGOPCFBP@Robot?1account?5for?5handedness2?1MA@ 1004665c     FingerStrokeAssistance_capi.obj
 0002:00003698       ??_C@_0CM@LEIBMJGE@Robot?1filtered?5force?5output?1Low?5@ 10046698     FingerStrokeAssistance_capi.obj
 0002:000036cc       ??_C@_0CN@IMDGCDDK@Robot?1filtered?5force?5output?1Low?5@ 100466cc     FingerStrokeAssistance_capi.obj
 0002:00003704       ??_C@_0CD@NAELEMPL@Robot?1filtered?5force?5output?1Memo@ 10046704     FingerStrokeAssistance_capi.obj
 0002:00003730       ??_C@_0CE@OMOCGHGK@Robot?1filtered?5force?5output?1Memo@ 10046730     FingerStrokeAssistance_capi.obj
 0002:0000375c       ??_C@_0CF@CADMCOOP@Robot?1get?5offsets?1MATLAB?5Functio@ 1004675c     FingerStrokeAssistance_capi.obj
 0002:00003788       ??_C@_0CF@LBBHNCM@Robot?1get?5offsets?1MATLAB?5Functio@ 10046788     FingerStrokeAssistance_capi.obj
 0002:000037b4       ??_C@_0CF@BCAKEMGN@Robot?1get?5offsets?1MATLAB?5Functio@ 100467b4     FingerStrokeAssistance_capi.obj
 0002:000037e0       ??_C@_0CF@FNELNKKK@Robot?1get?5offsets?1MATLAB?5Functio@ 100467e0     FingerStrokeAssistance_capi.obj
 0002:0000380c       ??_C@_0CA@BJJACOKB@Robot?1get?5offsets?1Digital?5Clock?$AA@ 1004680c     FingerStrokeAssistance_capi.obj
 0002:00003834       ??_C@_0BJ@CKGOFLIA@Robot?1get?5offsets?1Memory?$AA@ 10046834     FingerStrokeAssistance_capi.obj
 0002:00003854       ??_C@_0BK@CLMPOKMJ@Robot?1get?5offsets?1Memory1?$AA@ 10046854     FingerStrokeAssistance_capi.obj
 0002:00003874       ??_C@_0BD@BNMELIGD@Robot?1gravDir?1gain?$AA@ 10046874     FingerStrokeAssistance_capi.obj
 0002:0000388c       ??_C@_0BC@NJKIOKBB@Robot?1gravDir?1Sum?$AA@ 1004688c     FingerStrokeAssistance_capi.obj
 0002:000038a4       ??_C@_0CK@CHCKBDCO@controller?1Discrete?5PID?5Controll@ 100468a4     FingerStrokeAssistance_capi.obj
 0002:000038d8       ??_C@_0CO@MLNDGNHC@controller?1Discrete?5PID?5Controll@ 100468d8     FingerStrokeAssistance_capi.obj
 0002:00003910       ??_C@_0DD@HHOIMMGL@controller?1Discrete?5PID?5Controll@ 10046910     FingerStrokeAssistance_capi.obj
 0002:00003950       ??_C@_0DG@EAOJDIGF@controller?1Discrete?5PID?5Controll@ 10046950     FingerStrokeAssistance_capi.obj
 0002:00003990       ??_C@_0DB@GEOAFBHH@controller?1Discrete?5PID?5Controll@ 10046990     FingerStrokeAssistance_capi.obj
 0002:000039cc       ??_C@_0DF@DFMKKNHO@controller?1Discrete?5PID?5Controll@ 100469cc     FingerStrokeAssistance_capi.obj
 0002:00003a0c       ??_C@_0CH@FBGAPMI@controller?1Discrete?5PID?5Controll@ 10046a0c     FingerStrokeAssistance_capi.obj
 0002:00003a3c       ??_C@_0CI@BKPNGIM@controller?1Discrete?5PID?5Controll@ 10046a3c     FingerStrokeAssistance_capi.obj
 0002:00003a6c       ??_C@_0CH@JENAFJLL@controller?1gain?5transition?1gainr@ 10046a6c     FingerStrokeAssistance_capi.obj
 0002:00003a9c       ??_C@_0CH@LPPNAKHI@controller?1gain?5transition?1gainr@ 10046a9c     FingerStrokeAssistance_capi.obj
 0002:00003acc       ??_C@_0CC@CNJLEECO@controller?1gain?5transition?1Memor@ 10046acc     FingerStrokeAssistance_capi.obj
 0002:00003af4       ??_C@_0CI@BKBPPDJE@controller?1initial?5ramp?1MATLAB?5F@ 10046af4     FingerStrokeAssistance_capi.obj
 0002:00003b24       ??_C@_0BN@EGBMGECM@controller?1initial?5ramp?1ramp?$AA@ 10046b24     FingerStrokeAssistance_capi.obj
 0002:00003b48       ??_C@_0CE@LCNLJGKG@controller?1initial?5ramp?1Saturati@ 10046b48     FingerStrokeAssistance_capi.obj
 0002:00003b74       ??_C@_0CH@KJDMLLPO@parameters?1gain?5transition?1gainr@ 10046b74     FingerStrokeAssistance_capi.obj
 0002:00003ba4       ??_C@_0CH@ICBBOIDN@parameters?1gain?5transition?1gainr@ 10046ba4     FingerStrokeAssistance_capi.obj
 0002:00003bd4       ??_C@_0CC@BDCPHDEE@parameters?1gain?5transition?1Memor@ 10046bd4     FingerStrokeAssistance_capi.obj
 0002:00003bfc       ??_C@_0CI@PJCJMMGB@parameters?1gain?5transition1?1gain@ 10046bfc     FingerStrokeAssistance_capi.obj
 0002:00003c2c       ??_C@_0CI@NCAEJPKC@parameters?1gain?5transition1?1gain@ 10046c2c     FingerStrokeAssistance_capi.obj
 0002:00003c5c       ??_C@_0CD@LNHEJADF@parameters?1gain?5transition1?1Memo@ 10046c5c     FingerStrokeAssistance_capi.obj
 0002:00003c88       ??_C@_0CI@IFEIOJLK@parameters?1gain?5transition2?1gain@ 10046c88     FingerStrokeAssistance_capi.obj
 0002:00003cb8       ??_C@_0CI@KOGFLKHJ@parameters?1gain?5transition2?1gain@ 10046cb8     FingerStrokeAssistance_capi.obj
 0002:00003ce8       ??_C@_0CD@IEPJKMPA@parameters?1gain?5transition2?1Memo@ 10046ce8     FingerStrokeAssistance_capi.obj
 0002:00003d14       ??_C@_0CI@BIEHAIMM@parameters?1gain?5transition3?1gain@ 10046d14     FingerStrokeAssistance_capi.obj
 0002:00003d44       ??_C@_0CI@DDGKFLAP@parameters?1gain?5transition3?1gain@ 10046d44     FingerStrokeAssistance_capi.obj
 0002:00003d74       ??_C@_0CD@JDICLILD@parameters?1gain?5transition3?1Memo@ 10046d74     FingerStrokeAssistance_capi.obj
 0002:00003da0       ??_C@_0CI@HNIKKCAM@parameters?1gain?5transition4?1gain@ 10046da0     FingerStrokeAssistance_capi.obj
 0002:00003dd0       ??_C@_0CI@FGKHPBMP@parameters?1gain?5transition4?1gain@ 10046dd0     FingerStrokeAssistance_capi.obj
 0002:00003e00       ??_C@_0CD@PHODNFHK@parameters?1gain?5transition4?1Memo@ 10046e00     FingerStrokeAssistance_capi.obj
 0002:00003e2c       ??_C@_0CI@OAIFEDHK@parameters?1gain?5transition5?1gain@ 10046e2c     FingerStrokeAssistance_capi.obj
 0002:00003e5c       ??_C@_0CI@MLKIBALJ@parameters?1gain?5transition5?1gain@ 10046e5c     FingerStrokeAssistance_capi.obj
 0002:00003e8c       ??_C@_0CD@OAJIMBDJ@parameters?1gain?5transition5?1Memo@ 10046e8c     FingerStrokeAssistance_capi.obj
 0002:00003eb8       ??_C@_0O@LGFGCGML@Detect?5Change?$AA@ 10046eb8     FingerStrokeAssistance_capi.obj
 0002:00003ec8       ??_C@_05NAMIGJNB@vinit?$AA@ 10046ec8     FingerStrokeAssistance_capi.obj
 0002:00003ed0       ??_C@_08CHMPKCOC@Constant?$AA@ 10046ed0     FingerStrokeAssistance_capi.obj
 0002:00003edc       ??_C@_05LPIJGKJ@Value?$AA@ 10046edc     FingerStrokeAssistance_capi.obj
 0002:00003ee4       ??_C@_09IIHOELEE@Constant1?$AA@ 10046ee4     FingerStrokeAssistance_capi.obj
 0002:00003ef0       ??_C@_09KDFDBIIH@Constant2?$AA@ 10046ef0     FingerStrokeAssistance_capi.obj
 0002:00003efc       ??_C@_09LKEICJMG@Constant3?$AA@ 10046efc     FingerStrokeAssistance_capi.obj
 0002:00003f08       ??_C@_08DJHKEEOK@Force?5On?$AA@ 10046f08     FingerStrokeAssistance_capi.obj
 0002:00003f14       ??_C@_07KKMCCDCH@gainval?$AA@ 10046f14     FingerStrokeAssistance_capi.obj
 0002:00003f20       ??_C@_0BB@CFEOEMDC@InitialCondition?$AA@ 10046f20     FingerStrokeAssistance_capi.obj
 0002:00003f34       ??_C@_0BF@GLIOIDJM@UpperSaturationLimit?$AA@ 10046f34     FingerStrokeAssistance_capi.obj
 0002:00003f50       ??_C@_0BF@EMCFELNH@LowerSaturationLimit?$AA@ 10046f50     FingerStrokeAssistance_capi.obj
 0002:00003f6c       ??_C@_0L@FBCGKKEN@UpperLimit?$AA@ 10046f6c     FingerStrokeAssistance_capi.obj
 0002:00003f7c       ??_C@_0L@DGFJOHKP@LowerLimit?$AA@ 10046f7c     FingerStrokeAssistance_capi.obj
 0002:00003f8c       ??_C@_09IHLJOMI@Amplitude?$AA@ 10046f8c     FingerStrokeAssistance_capi.obj
 0002:00003f98       ??_C@_09OGDICNME@Frequency?$AA@ 10046f98     FingerStrokeAssistance_capi.obj
 0002:00003fa4       ??_C@_04HKKJCGFH@SinH?$AA@ 10046fa4     FingerStrokeAssistance_capi.obj
 0002:00003fac       ??_C@_04CLNMNOCK@CosH?$AA@ 10046fac     FingerStrokeAssistance_capi.obj
 0002:00003fb4       ??_C@_06EAKBABMB@SinPhi?$AA@ 10046fb4     FingerStrokeAssistance_capi.obj
 0002:00003fbc       ??_C@_06GJFGCNCB@CosPhi?$AA@ 10046fbc     FingerStrokeAssistance_capi.obj
 0002:00003fc4       ??_C@_0P@HMEAEHIM@CurrentSetting?$AA@ 10046fc4     FingerStrokeAssistance_capi.obj
 0002:00003fd8       ??_C@_0M@KNNCJG@DelayLength?$AA@ 10046fd8     FingerStrokeAssistance_capi.obj
 0002:00003fe8       ??_C@_09OMDFKCLN@Numerator?$AA@ 10046fe8     FingerStrokeAssistance_capi.obj
 0002:00003ff4       ??_C@_0M@KDILNJPK@Denominator?$AA@ 10046ff4     FingerStrokeAssistance_capi.obj
 0002:00004004       ??_C@_0O@KHJPNGBD@InitialStates?$AA@ 10047004     FingerStrokeAssistance_capi.obj
 0002:00004014       ??_C@_0BN@IHFMIIFL@Feedback?1Discrete?5Derivative?$AA@ 10047014     FingerStrokeAssistance_capi.obj
 0002:00004038       ??_C@_0BC@DNAKAAEE@ICPrevScaledInput?$AA@ 10047038     FingerStrokeAssistance_capi.obj
 0002:00004050       ??_C@_0BO@DKGDNDEG@Feedback?1Discrete?5Derivative1?$AA@ 10047050     FingerStrokeAssistance_capi.obj
 0002:00004074       ??_C@_02KKFPAPOP@P1?$AA@   10047074     FingerStrokeAssistance_capi.obj
 0002:00004078       ??_C@_02IBHCFMCM@P2?$AA@   10047078     FingerStrokeAssistance_capi.obj
 0002:0000407c       ??_C@_02JIGJGNGN@P3?$AA@   1004707c     FingerStrokeAssistance_capi.obj
 0002:00004080       ??_C@_02NHCIPLKK@P4?$AA@   10047080     FingerStrokeAssistance_capi.obj
 0002:00004084       ??_C@_02MODDMKOL@P5?$AA@   10047084     FingerStrokeAssistance_capi.obj
 0002:00004088       ??_C@_02OFBOJJCI@P6?$AA@   10047088     FingerStrokeAssistance_capi.obj
 0002:0000408c       ??_C@_02PMAFKIGJ@P7?$AA@   1004708c     FingerStrokeAssistance_capi.obj
 0002:00004090       ??_C@_02HLJNLEKG@P8?$AA@   10047090     FingerStrokeAssistance_capi.obj
 0002:00004094       ??_C@_02GCIGIFOH@P9?$AA@   10047094     FingerStrokeAssistance_capi.obj
 0002:00004098       ??_C@_03OPFJJGBF@P10?$AA@  10047098     FingerStrokeAssistance_capi.obj
 0002:0000409c       ??_C@_0BD@HJHAJHEM@Robot?1PCI?96221?5AD1?$AA@ 1004709c     FingerStrokeAssistance_capi.obj
 0002:000040b4       ??_C@_0BC@IGENNOJN@Robot?1PCI?96221?5DA?$AA@ 100470b4     FingerStrokeAssistance_capi.obj
 0002:000040cc       ??_C@_0CD@JKMFIJIB@controller?1Discrete?5PID?5Controll@ 100470cc     FingerStrokeAssistance_capi.obj
 0002:000040f8       ??_C@_01EJNLAFE@P?$AA@     100470f8     FingerStrokeAssistance_capi.obj
 0002:000040fc       ??_C@_01JPJNBJEM@I?$AA@    100470fc     FingerStrokeAssistance_capi.obj
 0002:00004100       ??_C@_01CKDDGHAB@D?$AA@    10047100     FingerStrokeAssistance_capi.obj
 0002:00004104       ??_C@_01NANMIPIL@N?$AA@    10047104     FingerStrokeAssistance_capi.obj
 0002:00004108       ??_C@_0CD@NBHNHEJB@parameters?1paremeters_?5must_be_o@ 10047108     FingerStrokeAssistance_capi.obj
 0002:00004134       ??_C@_04GKLBNPCL@WtEt?$AA@ 10047134     FingerStrokeAssistance_capi.obj
 0002:0000413c       ??_C@_02LNFHGPBG@X0?$AA@   1004713c     FingerStrokeAssistance_capi.obj
 0002:00004140       ??_C@_0BH@BIOEOLDB@Robot?1gravDir?1Constant?$AA@ 10047140     FingerStrokeAssistance_capi.obj
 0002:0000415c       ??_C@_04OELFCIM@Alow?$AA@  1004715c     FingerStrokeAssistance_capi.obj
 0002:00004164       ??_C@_04EJOLCIFM@Blow?$AA@ 10047164     FingerStrokeAssistance_capi.obj
 0002:0000416c       ??_C@_04HEILABOM@Clow?$AA@ 1004716c     FingerStrokeAssistance_capi.obj
 0002:00004174       ??_C@_04MGKLNNPM@Dlow?$AA@ 10047174     FingerStrokeAssistance_capi.obj
 0002:0000417c       ??_C@_05FKGIECOB@x0low?$AA@ 1004717c     FingerStrokeAssistance_capi.obj
 0002:00004184       ??_C@_06BNJCAIGJ@double?$AA@ 10047184     FingerStrokeAssistance_capi.obj
 0002:0000418c       ??_C@_06CNMIJIPB@real_T?$AA@ 1004718c     FingerStrokeAssistance_capi.obj
 0002:00004194       ??_C@_0O@PPAIJIHF@unsigned?5char?$AA@ 10047194     FingerStrokeAssistance_capi.obj
 0002:000041a4       ??_C@_09JBMFCIMO@boolean_T?$AA@ 100471a4     FingerStrokeAssistance_capi.obj
 0002:000041b0       ??_C@_07NCEHLPOC@uint8_T?$AA@ 100471b0     FingerStrokeAssistance_capi.obj
 0002:000041bc       ??_C@_0N@OFHMGPAL@unsigned?5int?$AA@ 100471bc     FingerStrokeAssistance_capi.obj
 0002:000041cc       ??_C@_08CCMIKNJF@uint32_T?$AA@ 100471cc     FingerStrokeAssistance_capi.obj
 0002:000041d8       ??_C@_05KNFBNCOH@float?$AA@ 100471d8     FingerStrokeAssistance_capi.obj
 0002:000041e0       ??_C@_0CJ@GGPBKPNK@Could?5not?5start?5ToAsyncQueue?5app@ 100471e0     FingerStrokeAssistance_tgtconn.obj
 0002:00004a78       ??_C@_0DJ@FHKINPLE@Unexpected?5itemKind?5?$DN?5DATA_ITEM?5@ 10047a78     rt_logging.obj
 0002:00004abc       ??_C@_0DA@IEHFPFCJ@Unexpected?5itemKind?$DN?$CFd?5in?5rt_Pro@ 10047abc     rt_logging.obj
 0002:00004af8       ??_C@_0DA@IFLHJPBO@Unexpected?5itemKind?$DN?$CFd?5in?5rt_Pro@ 10047af8     rt_logging.obj
 0002:00004b34       ??_C@_0DA@IAPIIJJL@Unexpected?5itemKind?$DN?$CFd?5in?5rt_Pro@ 10047b34     rt_logging.obj
 0002:00004b70       ??_C@_0BE@LCIGPJIG@MATLAB?55?40?5MAT?9file?$AA@ 10047b70     rt_logging.obj
 0002:00004b88       ??_C@_0FB@PCJEAJIB@?$CK?$CK?$CK?5Log?5variable?5?$CFs?5has?5wrapped?5@ 10047b88     rt_logging.obj
 0002:00004bf0       ??_C@_0MG@NKMLMOGF@?$CK?$CK?$CK?5To?5avoid?5wrapping?0?5explicitl@ 10047bf0     rt_logging.obj
 0002:00004ce0       ??_C@_0N@IPAEOLLP@_rtw_tmw?4tmw?$AA@ 10047ce0     rt_logging.obj
 0002:00004cf0       ??_C@_04HDOCAJNK@?$CFs?$CFs?$AA@ 10047cf0     rt_logging.obj
 0002:00004cf8       ??_C@_03ELIABIOC@w?$CLb?$AA@ 10047cf8     rt_logging.obj
 0002:00004cfc       ??_C@_0BF@JPILDDFA@?$CK?$CK?$CK?5Error?5opening?5?$CFs?$AA@ 10047cfc     rt_logging.obj
 0002:00004d18       ??_C@_0BK@EEMDELA@unable?5to?5open?5data?5file?6?$AA@ 10047d18     rt_logging.obj
 0002:00004d38       ??_C@_04CGFJFPFD@none?$AA@ 10047d38     rt_logging.obj
 0002:00004d40       ??_C@_0EE@LCGFPNON@?$CK?$CK?$CK?5Error?5creating?5signals?5struc@ 10047d40     rt_logging.obj
 0002:00004d94       ??_C@_0CE@NHECEDMK@?$CK?$CK?$CK?5Error?5creating?5log?5variable?5@ 10047d94     rt_logging.obj
 0002:00004dc0       ??_C@_0DB@IOCGKAGH@?$CK?$CK?$CK?5Errors?5occurred?5when?5startin@ 10047dc0     rt_logging.obj
 0002:00004dfc       ??_C@_0BO@BBLOGEBK@?$CK?$CK?$CK?5Memory?5allocation?5error?4?6?$AA@ 10047dfc     rt_logging.obj
 0002:00004e20       ??_C@_0N@LGFBAGEL@?5?$CIreal?5part?$CJ?$AA@ 10047e20     rt_logging.obj
 0002:00004e30       ??_C@_0KH@CGNMHNFE@?5?5?5?5varName?5?5?5?5?5?5?5?5?5?5?$DN?5?$CFs?$CFs?6?5?5?5?5@ 10047e30     rt_logging.obj
 0002:00004ef8       ??_C@_0LE@OALKKEFM@?5?5?5?5varName?5?5?5?5?5?5?5?5?5?5?$DN?5?$CFs?5?$CIcompl@ 10047ef8     rt_logging.obj
 0002:00004fd0       ??_C@_0KF@JDDLEOKO@?5?5?5?5varName?5?5?5?5?5?5?5?5?5?5?$DN?5?$CFs?6?5?5?5?5nR@ 10047fd0     rt_logging.obj
 0002:00005098       ??_C@_0DP@HPDMIOFM@?$CK?$CK?$CK?5Using?5a?5default?5buffer?5of?5si@ 10048098     rt_logging.obj
 0002:000050e8       ??_C@_0KE@JEFOLKNF@?6?$CK?$CK?$CK?5Memory?5required?5to?5log?5vari@ 100480e8     rt_logging.obj
 0002:000051b0       ??_C@_0JP@DKLMHCBI@?$CK?$CK?$CK?5Details?3?6?5?5?5?5?5?5?5varName?5?5?5?5?5@ 100481b0     rt_logging.obj
 0002:00005270       ??_C@_0CM@CAMILBED@?$CK?$CK?$CK?5Error?5allocating?5memory?5for?5@ 10048270     rt_logging.obj
 0002:000052a4       ??_C@_0DF@BBCNMOPM@?$CK?$CK?$CK?5Error?5allocating?5memory?5for?5@ 100482a4     rt_logging.obj
 0002:000052e8       ??_C@_0JP@DBCLPCCI@?$CK?$CK?$CK?5Details?3?6?5?5?5?5?5?5?5varName?5?5?5?5?5@ 100482e8     rt_logging.obj
 0002:000053a8       ??_C@_0FK@DPGAOBGA@?$CK?$CK?$CK?5Error?5allocating?5memory?5for?5@ 100483a8     rt_logging.obj
 0002:00005414       ??_C@_0BI@GGDNPHLJ@?$CK?$CK?$CK?5Error?5writing?5to?5?$CFs?$AA@ 10048414     rt_logging.obj
 0002:00005430       ??_C@_0CB@IBGJGELG@?$CK?$CK?$CK?5Error?5writing?5?$CFs?5due?5to?3?5?$CFs?6@ 10048430     rt_logging.obj
 0002:00005458       ??_C@_0CN@FLMCHCPB@?$CK?$CK?$CK?5Error?5writing?5log?5variable?5?$CF@ 10048458     rt_logging.obj
 0002:00005490       ??_C@_0DH@GAJCNOJP@?$CK?$CK?$CK?5Error?5writing?5structure?5log?5@ 10048490     rt_logging.obj
 0002:000054d4       ??_C@_0BD@POEALECL@?$CK?$CK?5created?5?$CFs?5?$CK?$CK?6?6?$AA@ 100484d4     rt_logging.obj
 0002:000054f0       __real@4020000000000000    100484f0     rt_logging.obj
 0002:00005500       __real@41dfffffffc00000    10048500     rt_logging.obj
 0002:00005510       __real@41efffffffe00000    10048510     rt_logging.obj
 0002:00005520       __real@bfbf9add3afd2773    10048520     rt_logging.obj
 0002:00005530       __real@c000000000000000    10048530     rt_logging.obj
 0002:00005540       __xmm@20202020202020202020202020202020 10048540     rt_logging.obj
 0002:00005570       __real@3cb0000000000000    10048570     rt_matrx.obj
 0002:0000557c       ??_C@_0BI@INNPNFJN@Memory?5Allocation?5Error?$AA@ 1004857c     rtw_modelmap_utils.obj
 0002:00005598       ??_C@_1HC@OAPLBLFC@?$AAC?$AA?3?$AA?2?$AAP?$AAR?$AAO?$AAG?$AAR?$AAA?$AA?$HO?$AA1?$AA?2?$AAM?$AAA?$AAT?$AAL?$AAA?$AAB?$AA?2?$AAR?$AA2?$AA0?$AA1?$AA6?$AAa?$AA?2?$AAr?$AAt?$AAw?$AA?2?$AAc?$AA?2@ 10048598     rtw_modelmap_utils.obj
 0002:00005620       ??_C@_1CI@OEAJCJND@?$AAj?$AA?5?$AA?$DN?$AA?$DN?$AA?5?$AAe?$AAn?$AAc?$AAo?$AAd?$AAe?$AAd?$AAP?$AAa?$AAt?$AAh?$AAL?$AAe?$AAn?$AA?$AA@ 10048620     rtw_modelmap_utils.obj
 0002:00005650       ??_C@_1DC@NFAOIFKB@?$AAe?$AAn?$AAc?$AAo?$AAd?$AAe?$AAd?$AAP?$AAa?$AAt?$AAh?$AA?$FL?$AAj?$AA?9?$AA1?$AA?$FN?$AA?5?$AA?$DN?$AA?$DN?$AA?5?$AA?8?$AA?2?$AA0?$AA?8?$AA?$AA@ 10048650     rtw_modelmap_utils.obj
 0002:0000568c       ??_C@_1DI@FLNJGPEE@?$AAs?$AAi?$AAg?$AAC?$AAo?$AAm?$AAp?$AAl?$AAe?$AAx?$AAi?$AAt?$AAy?$AA?$FL?$AA?$CK?$AAs?$AAi?$AAg?$AAI?$AAd?$AAx?$AA?$FN?$AA?5?$AA?$CB?$AA?$DN?$AA?5?$AA1?$AA?$AA@ 1004868c     rtw_modelmap_utils.obj
 0002:000056d0       ??_C@_1KI@OFELMGBG@?$AA?$CI?$AA?$CI?$AA?$CI?$AAd?$AAa?$AAt?$AAa?$AAT?$AAy?$AAp?$AAe?$AAM?$AAa?$AAp?$AA?$CJ?$AA?$FL?$AA?$CI?$AA?$CI?$AA?$CI?$AAs?$AAt?$AAa?$AAt?$AAe?$AAs?$AA?$CJ?$AA?$FL?$AA?$CI?$AAi?$AA?$CJ?$AA?$FN?$AA?4@ 100486d0     rtw_modelmap_utils.obj
 0002:0000579c       ??_C@_1DA@ILCMPHNE@?$AAf?$AAu?$AAl?$AAl?$AAP?$AAa?$AAt?$AAh?$AA?5?$AA?$CB?$AA?$DN?$AA?5?$AA?$CI?$AA?$CI?$AAv?$AAo?$AAi?$AAd?$AA?5?$AA?$CK?$AA?$CJ?$AA0?$AA?$CJ?$AA?$AA@ 1004879c     rtw_modelmap_utils.obj
 0002:000057d8       ??_C@_1CI@OEPPFCCA@?$AAp?$AAa?$AAt?$AAh?$AA?5?$AA?$CB?$AA?$DN?$AA?5?$AA?$CI?$AA?$CI?$AAv?$AAo?$AAi?$AAd?$AA?5?$AA?$CK?$AA?$CJ?$AA0?$AA?$CJ?$AA?$AA@ 100487d8     rtw_modelmap_utils.obj
 0002:00005808       ??_C@_1FK@GLJIMFHB@?$AA?$CI?$AA?$CI?$AAm?$AAm?$AAi?$AA?$CJ?$AA?9?$AA?$DO?$AAI?$AAn?$AAs?$AAt?$AAa?$AAn?$AAc?$AAe?$AAM?$AAa?$AAp?$AA?4?$AAf?$AAu?$AAl?$AAl?$AAP?$AAa?$AAt?$AAh?$AA?$CJ?$AA?5?$AA?$DN?$AA?$DN@ 10048808     rtw_modelmap_utils.obj
 0002:00005874       ??_C@_1DG@HPCJGNCE@?$AAm?$AAm?$AAi?$AAP?$AAa?$AAt?$AAh?$AA?$FL?$AAp?$AAa?$AAt?$AAh?$AAL?$AAe?$AAn?$AA?9?$AA1?$AA?$FN?$AA?5?$AA?$DN?$AA?$DN?$AA?5?$AA?8?$AA?2?$AA0?$AA?8?$AA?$AA@ 10048874     rtw_modelmap_utils.obj
 0002:000058b4       ??_C@_1DM@DBAOGGOO@?$AAm?$AAm?$AAi?$AAP?$AAa?$AAt?$AAh?$AA?$FL?$AAm?$AAm?$AAi?$AAP?$AAa?$AAt?$AAh?$AAL?$AAe?$AAn?$AA?9?$AA1?$AA?$FN?$AA?5?$AA?$DN?$AA?$DN?$AA?5?$AA?8?$AA?2?$AA0?$AA?8?$AA?$AA@ 100488b4     rtw_modelmap_utils.obj
 0002:000058fc       ??_C@_1DC@LHIAKAFE@?$AAb?$AAl?$AAo?$AAc?$AAk?$AAP?$AAa?$AAt?$AAh?$AA?5?$AA?$CB?$AA?$DN?$AA?5?$AA?$CI?$AA?$CI?$AAv?$AAo?$AAi?$AAd?$AA?5?$AA?$CK?$AA?$CJ?$AA0?$AA?$CJ?$AA?$AA@ 100488fc     rtw_modelmap_utils.obj
 0002:00005938       ??_C@_1GI@KIEJKPGC@?$AAf?$AAu?$AAl?$AAl?$AAS?$AAt?$AAa?$AAt?$AAe?$AAB?$AAl?$AAo?$AAc?$AAk?$AAP?$AAa?$AAt?$AAh?$AA?$FL?$AAf?$AAu?$AAl?$AAl?$AAS?$AAt?$AAa?$AAt?$AAe?$AAB?$AAl?$AAo?$AAc@ 10048938     rtw_modelmap_utils.obj
 0002:000059b8       ??_C@_1EE@DNPIBJHC@?$AA?$CI?$AA?$CI?$AAd?$AAi?$AAm?$AAM?$AAa?$AAp?$AA?$CJ?$AA?$FL?$AA?$CI?$AAm?$AAa?$AAp?$AAI?$AAd?$AAx?$AA?$CJ?$AA?$FN?$AA?4?$AAn?$AAu?$AAm?$AAD?$AAi?$AAm?$AAs?$AA?$CJ?$AA?5?$AA?$DN?$AA?$DN?$AA?5@ 100489b8     rtw_modelmap_utils.obj
 0002:00005a0c       ??_C@_06JFOKFOED@CSTATE?$AA@ 10048a0c     rtw_modelmap_utils.obj
 0002:00005a14       ??_C@_06FAENGAMN@DSTATE?$AA@ 10048a14     rtw_modelmap_utils.obj
 0002:00005a1c       ??_C@_1BI@LEBJNOGG@?$AAc?$AAs?$AAv?$AAI?$AAd?$AAx?$AA?5?$AA?$DO?$AA?$DN?$AA?5?$AA0?$AA?$AA@ 10048a1c     rtw_modelmap_utils.obj
 0002:00005a38       ??_C@_1BA@KDMGHCHP@?$AAT?$AAI?$AAD?$AA?$DN?$AA?$DN?$AA?9?$AA1?$AA?$AA@ 10048a38     rtw_modelmap_utils.obj
 0002:00005a4c       ??_C@_1DM@DHGKBPCE@?$AAs?$AAi?$AAg?$AAP?$AAa?$AAt?$AAh?$AA?$FL?$AAs?$AAi?$AAg?$AAP?$AAa?$AAt?$AAh?$AAL?$AAe?$AAn?$AA?9?$AA1?$AA?$FN?$AA?5?$AA?$DN?$AA?$DN?$AA?5?$AA?8?$AA?2?$AA0?$AA?8?$AA?$AA@ 10048a4c     rtw_modelmap_utils.obj
 0002:00005a94       _serialfifoground          10048a94     xpc_datatype_ground.obj
 0002:00005aa0       _bcmsg1553ground           10048aa0     xpc_datatype_ground.obj
 0002:00005ab0       _bcstatground              10048ab0     xpc_datatype_ground.obj
 0002:00005ac8       _bmmsg1553ground           10048ac8     xpc_datatype_ground.obj
 0002:00005ae8       _ptsetfilename             10048ae8     xpctarget.obj
 0002:00005aec       _xmlfile                   10048aec     xpctarget.obj
 0002:00005af4       ??_C@_0BH@DNMKOCPI@FingerStrokeAssistance?$AA@ 10048af4     xpctarget.obj
 0002:00005b10       ??_C@_0L@CHBJKKFC@xpceSetVar?$AA@ 10048b10     xpctarget.obj
 0002:00005b20       ??_C@_03ICACBPID@6?44?$AA@ 10048b20     xpctarget.obj
 0002:00005b28       __real@408f400000000000    10048b28     xpctarget.obj
 0002:00005b38       _FingerStrokeAssistance_BIOMAP 10048b38     appmappingData.obj
 0002:000060e8       _FingerStrokeAssistance_LBLMAP 100490e8     appmappingData.obj
 0002:00006698       _FingerStrokeAssistance_SIDMAP 10049698     appmappingData.obj
 0002:00006c48       _FingerStrokeAssistance_SBIO 10049c48     appmappingData.obj
 0002:00006e30       _FingerStrokeAssistance_SLBL 10049e30     appmappingData.obj
 0002:00007018       _FingerStrokeAssistance_PTIDSMAP 1004a018     appmappingData.obj
 0002:00007460       _FingerStrokeAssistance_PTNAMESMAP 1004a460     appmappingData.obj
 0002:000078a8       _FingerStrokeAssistance_SPTMAP 1004a8a8     appmappingData.obj
 0002:00007acc       _FingerStrokeAssistance_dtmap 1004aacc     appmappingData.obj
 0002:00007b00       _appInfo                   1004ab00     appmappingData.obj
 0002:000081b8       ??_C@_0CC@FIFFDAB@?$CFd?5input?5args?5expected?0?5?$CFd?5passe@ 1004b1b8     encnipcim.obj
 0002:000081e0       ??_C@_0BN@JIEFLHEB@?$CFs?3?5Too?5many?5M?5series?5boards?$AA@ 1004b1e0     encnipcim.obj
 0002:00008208       ??_C@_0ED@LKHIFFLC@Wrong?5number?5of?5input?5arguments?5@ 1004b208     adnipcim.obj
 0002:00008258       ??_C@_0CI@FOFDKLAN@NI?5?$CFs?3?5Can?8t?5allocate?5temporary?5@ 1004b258     adnipcim.obj
 0002:00008288       ??_C@_0CK@PIIIKEIH@NI?5M?5series?3?5Channel?5?$CFf?5out?5of?5r@ 1004b288     adnipcim.obj
 0002:000082bc       ??_C@_0CF@LKNEFAOG@NI?5M?5series?3?5Timeout?5waiting?5for@ 1004b2bc     adnipcim.obj
 0002:000082e8       __real@417312d000000000    1004b2e8     adnipcim.obj
 0002:000082f4       ??_C@_0DB@HFHLNKLE@Channel?5?$CFd?5exceeds?5the?5max?5DA?5ch@ 1004b2f4     danipcim.obj
 0002:00008330       ??_C@_0CL@GCJHHCMG@Output?5range?5?$CFd?5is?5not?5supported@ 1004b330     danipcim.obj
 0002:00008364       ??_C@_0M@IMCLKBPP@NI?5PCI?96220?$AA@ 1004b364     xpcionim.obj
 0002:00008374       ??_C@_0M@JFDAJALO@NI?5PCI?96221?$AA@ 1004b374     xpcionim.obj
 0002:00008384       ??_C@_0P@NGCDCNKM@NI?5PCI?96221?137?$AA@ 1004b384     xpcionim.obj
 0002:00008398       ??_C@_0M@OIEHGEPL@NI?5PCI?96224?$AA@ 1004b398     xpcionim.obj
 0002:000083a8       ??_C@_0M@PBFMFFLK@NI?5PCI?96225?$AA@ 1004b3a8     xpcionim.obj
 0002:000083b8       ??_C@_0M@FNOJBKLG@NI?5PCI?96229?$AA@ 1004b3b8     xpcionim.obj
 0002:000083c8       ??_C@_0M@INOJMLMI@NI?5PCI?96230?$AA@ 1004b3c8     xpcionim.obj
 0002:000083d8       ??_C@_0M@LPNPKJEK@NI?5PCI?96232?$AA@ 1004b3d8     xpcionim.obj
 0002:000083e8       ??_C@_0M@KGMEJIAL@NI?5PCI?96233?$AA@ 1004b3e8     xpcionim.obj
 0002:000083f8       ??_C@_0M@NLLDGMEO@NI?5PCI?96236?$AA@ 1004b3f8     xpcionim.obj
 0002:00008408       ??_C@_0M@EFDAEBMA@NI?5PCI?96238?$AA@ 1004b408     xpcionim.obj
 0002:00008418       ??_C@_0M@FMCLHAIB@NI?5PCI?96239?$AA@ 1004b418     xpcionim.obj
 0002:00008428       ??_C@_0M@IJGELHHK@NI?5PCI?96250?$AA@ 1004b428     xpcionim.obj
 0002:00008438       ??_C@_0M@JAHPIGDL@NI?5PCI?96251?$AA@ 1004b438     xpcionim.obj
 0002:00008448       ??_C@_0M@ONAIHCHO@NI?5PCI?96254?$AA@ 1004b448     xpcionim.obj
 0002:00008458       ??_C@_0M@PEBDEDDP@NI?5PCI?96255?$AA@ 1004b458     xpcionim.obj
 0002:00008468       ??_C@_0M@FIKGAMDD@NI?5PCI?96259?$AA@ 1004b468     xpcionim.obj
 0002:00008478       ??_C@_0M@IBLMCECJ@NI?5PCI?96280?$AA@ 1004b478     xpcionim.obj
 0002:00008488       ??_C@_0M@JIKHBFGI@NI?5PCI?96281?$AA@ 1004b488     xpcionim.obj
 0002:00008498       ??_C@_0M@OFNAOBCN@NI?5PCI?96284?$AA@ 1004b498     xpcionim.obj
 0002:000084a8       ??_C@_0M@FAHOJPGA@NI?5PCI?96289?$AA@ 1004b4a8     xpcionim.obj
 0002:000084b8       ??_C@_0CI@NFFNBHJA@?$CFs?5?$CIbus?5?$CFd?0?5slot?5?$CFd?$CJ?3?5board?5not?5@ 1004b4b8     xpcionim.obj
 0002:000084e8       ??_C@_0CD@MBDNCLAI@NI?5M?5series?3?5Unknown?5board?5type?5@ 1004b4e8     xpcionim.obj
 0002:00008514       ??_C@_0CC@DMFKNLL@VendorId?5?$DN?50x?$CFx?0?5DeviceId?5?$DN?50x?$CFx@ 1004b514     xpcruntime:xpcimports.obj
 0002:00008538       ??_C@_0DH@OHCBLNMG@Subsystem?5Device?5ID?5?$DN?50x?$CFx?6Subsy@ 1004b538     xpcruntime:xpcimports.obj
 0002:00008570       ??_C@_0BD@MMMMEFCM@Class?5Code?5?$DN?50x?$CFx?6?$AA@ 1004b570     xpcruntime:xpcimports.obj
 0002:00008584       ??_C@_0BE@OLDDDNHM@InterruptLine?5?$DN?5?$CFd?6?$AA@ 1004b584     xpcruntime:xpcimports.obj
 0002:00008598       ??_C@_0BF@OLKLEKBD@bus?5?$DN?5?$CFd?0?5slot?5?$DN?5?$CFd?6?$AA@ 1004b598     xpcruntime:xpcimports.obj
 0002:000085b0       ??_C@_0CE@DGLLGDFH@?5?5?5?5Phys?5?5?5Virtual?5?5?5Length?5IO?1M@ 1004b5b0     xpcruntime:xpcimports.obj
 0002:000085d4       ??_C@_0BI@FEOPLEMG@?$CF08x?5?$CF08x?5?$CF08x?5?5?5?5?5?5?$CFc?6?$AA@ 1004b5d4     xpcruntime:xpcimports.obj
 0002:000085ec       ??_C@_0BB@BNNCEDPC@rl32eScopeExists?$AA@ 1004b5ec     xpcruntime:xpcimports.obj
 0002:00008600       ??_C@_0BM@FJBFEGFG@rl32eScopeExists?5not?5found?6?$AA@ 1004b600     xpcruntime:xpcimports.obj
 0002:0000861c       ??_C@_0O@BNNGKJEA@rl32eDefScope?$AA@ 1004b61c     xpcruntime:xpcimports.obj
 0002:0000862c       ??_C@_0BJ@CDNOENKA@rl32eDefScope?5not?5found?6?$AA@ 1004b62c     xpcruntime:xpcimports.obj
 0002:00008648       ??_C@_0P@CKNKILDP@rl32eAddSignal?$AA@ 1004b648     xpcruntime:xpcimports.obj
 0002:00008658       ??_C@_0BK@GMJAJBAI@rl32eAddSignal?5not?5found?6?$AA@ 1004b658     xpcruntime:xpcimports.obj
 0002:00008674       ??_C@_0BB@LDMIHGCE@rl32eGetSignalNo?$AA@ 1004b674     xpcruntime:xpcimports.obj
 0002:00008688       ??_C@_0BM@LGAMBAID@rl32eGetSignalNo?5not?5found?6?$AA@ 1004b688     xpcruntime:xpcimports.obj
 0002:000086a4       ??_C@_0O@CFDGALBP@rl32eSetScope?$AA@ 1004b6a4     xpcruntime:xpcimports.obj
 0002:000086b4       ??_C@_0BJ@JCLHHIN@rl32eSetScope?5not?5found?6?$AA@ 1004b6b4     xpcruntime:xpcimports.obj
 0002:000086d0       ??_C@_0P@IKMCBMHH@xpceFSScopeSet?$AA@ 1004b6d0     xpcruntime:xpcimports.obj
 0002:000086e0       ??_C@_0BK@JODJPNNH@xpceFSScopeSet?5not?5found?6?$AA@ 1004b6e0     xpcruntime:xpcimports.obj
 0002:000086fc       ??_C@_0BE@DLACEEJM@rl32eSetTargetScope?$AA@ 1004b6fc     xpcruntime:xpcimports.obj
 0002:00008710       ??_C@_0BP@JCHFMKPJ@rl32eSetTargetScope?5not?5found?6?$AA@ 1004b710     xpcruntime:xpcimports.obj
 0002:00008730       ??_C@_0BJ@LIDLNDHC@rl32eSetTargetScopeSigFt?$AA@ 1004b730     xpcruntime:xpcimports.obj
 0002:0000874c       ??_C@_0CE@JLGHCFHI@rl32eSetTargetScopeSigFt?5not?5fou@ 1004b74c     xpcruntime:xpcimports.obj
 0002:00008770       ??_C@_0BI@JAPOIDNG@rl32eRestartAcquisition?$AA@ 1004b770     xpcruntime:xpcimports.obj
 0002:00008788       ??_C@_0CD@LLBEFFBO@rl32eRestartAcquisition?5not?5foun@ 1004b788     xpcruntime:xpcimports.obj
 0002:000087ac       ??_C@_0P@IEIIADJB@xpceScopeAcqOK?$AA@ 1004b7ac     xpcruntime:xpcimports.obj
 0002:000087bc       ??_C@_0BK@NJCKNFPN@xpceScopeAcqOK?5not?5found?6?$AA@ 1004b7bc     xpcruntime:xpcimports.obj
 0002:000087d8       ??_C@_0BA@IJINKAHF@xpceRegisterISR?$AA@ 1004b7d8     xpcruntime:xpcimports.obj
 0002:000087e8       ??_C@_0BL@NNDLOEJE@xpceRegisterISR?5not?5found?6?$AA@ 1004b7e8     xpcruntime:xpcimports.obj
 0002:00008804       ??_C@_0BC@NLBADGKF@xpceDeRegisterISR?$AA@ 1004b804     xpcruntime:xpcimports.obj
 0002:00008818       ??_C@_0BN@DCAIKFFD@xpceDeRegisterISR?5not?5found?6?$AA@ 1004b818     xpcruntime:xpcimports.obj
 0002:00008838       ??_C@_0P@CPGPNKEB@xpceFTReadTime?$AA@ 1004b838     xpcruntime:xpcimports.obj
 0002:00008848       ??_C@_0BK@NMABIODN@xpceFTReadTime?5not?5found?6?$AA@ 1004b848     xpcruntime:xpcimports.obj
 0002:00008864       ??_C@_09PHNHCHFH@xpceFTAdd?$AA@ 1004b864     xpcruntime:xpcimports.obj
 0002:00008870       ??_C@_0BF@FJLEIILA@xpceFTAdd?5not?5found?6?$AA@ 1004b870     xpcruntime:xpcimports.obj
 0002:00008888       ??_C@_0P@KEODBLHO@xpceFTSubtract?$AA@ 1004b888     xpcruntime:xpcimports.obj
 0002:00008898       ??_C@_0BK@HONODOKP@xpceFTSubtract?5not?5found?6?$AA@ 1004b898     xpcruntime:xpcimports.obj
 0002:000088b4       ??_C@_07JPMEPILD@xpcInpB?$AA@ 1004b8b4     xpcruntime:xpcimports.obj
 0002:000088bc       ??_C@_0BD@PGABEJOL@xpcInpB?5not?5found?6?$AA@ 1004b8bc     xpcruntime:xpcimports.obj
 0002:000088d0       ??_C@_07KIHBBOKH@xpcInpW?$AA@ 1004b8d0     xpcruntime:xpcimports.obj
 0002:000088d8       ??_C@_0BD@FPCJFMCC@xpcInpW?5not?5found?6?$AA@ 1004b8d8     xpcruntime:xpcimports.obj
 0002:000088ec       ??_C@_08KDIAJBOP@xpcInpDW?$AA@ 1004b8ec     xpcruntime:xpcimports.obj
 0002:000088f8       ??_C@_0BE@PIELDNIL@xpcInpDW?5not?5found?6?$AA@ 1004b8f8     xpcruntime:xpcimports.obj
 0002:0000890c       ??_C@_08PJFMOIGO@xpcOutpB?$AA@ 1004b90c     xpcruntime:xpcimports.obj
 0002:00008918       ??_C@_0BE@HCKNCEKF@xpcOutpB?5not?5found?6?$AA@ 1004b918     xpcruntime:xpcimports.obj
 0002:0000892c       ??_C@_08MOOJAOHK@xpcOutpW?$AA@ 1004b92c     xpcruntime:xpcimports.obj
 0002:00008938       ??_C@_0BE@NLIFDBGM@xpcOutpW?5not?5found?6?$AA@ 1004b938     xpcruntime:xpcimports.obj
 0002:0000894c       ??_C@_09FLIEKHJG@xpcOutpDW?$AA@ 1004b94c     xpcruntime:xpcimports.obj
 0002:00008958       ??_C@_0BF@GJKLPNHB@xpcOutpDW?5not?5found?6?$AA@ 1004b958     xpcruntime:xpcimports.obj
 0002:00008970       ??_C@_0BH@EHOLELHH@xpcReserveMemoryRegion?$AA@ 1004b970     xpcruntime:xpcimports.obj
 0002:00008988       ??_C@_0CC@KAAAGPI@xpcReserveMemoryRegion?5not?5found@ 1004b988     xpcruntime:xpcimports.obj
 0002:000089ac       ??_C@_0BA@JGPMHGAF@rl32eShowPCIDev?$AA@ 1004b9ac     xpcruntime:xpcimports.obj
 0002:000089bc       ??_C@_0BL@DDFFLNHI@rl32eShowPCIDev?5not?5found?6?$AA@ 1004b9bc     xpcruntime:xpcimports.obj
 0002:000089d8       ??_C@_0BB@KBCOJPFB@rl32eShowPCIInfo?$AA@ 1004b9d8     xpcruntime:xpcimports.obj
 0002:000089ec       ??_C@_0BM@IFDMAGLO@rl32eShowPCIInfo?5not?5found?6?$AA@ 1004b9ec     xpcruntime:xpcimports.obj
 0002:00008a08       ??_C@_0BA@BGPAADB@rl32eGetPCIInfo?$AA@ 1004ba08     xpcruntime:xpcimports.obj
 0002:00008a18       ??_C@_0BL@IGOMLDCK@rl32eGetPCIInfo?5not?5found?6?$AA@ 1004ba18     xpcruntime:xpcimports.obj
 0002:00008a34       ??_C@_0BG@NJPFKFDP@rl32eGetPCIInfoAtSlot?$AA@ 1004ba34     xpcruntime:xpcimports.obj
 0002:00008a4c       ??_C@_0CB@BBKIPMLA@rl32eGetPCIInfoAtSlot?5not?5found?6@ 1004ba4c     xpcruntime:xpcimports.obj
 0002:00008a70       ??_C@_0BH@OKBOPNFG@xpceAssignPCIInterrupt?$AA@ 1004ba70     xpcruntime:xpcimports.obj
 0002:00008a88       ??_C@_0CC@CDNDNJBJ@xpceAssignPCIInterrupt?5not?5found@ 1004ba88     xpcruntime:xpcimports.obj
 0002:00008aac       ??_C@_0BB@FCHHFAAH@rl32eInitCOMPort?$AA@ 1004baac     xpcruntime:xpcimports.obj
 0002:00008ac0       ??_C@_0BM@DDJGKAHB@rl32eInitCOMPort?5not?5found?6?$AA@ 1004bac0     xpcruntime:xpcimports.obj
 0002:00008adc       ??_C@_0BC@CHEEFCP@rl32eCloseCOMPort?$AA@ 1004badc     xpcruntime:xpcimports.obj
 0002:00008af0       ??_C@_0BN@KCOFELEM@rl32eCloseCOMPort?5not?5found?6?$AA@ 1004baf0     xpcruntime:xpcimports.obj
 0002:00008b10       ??_C@_0O@LLJGKFOG@rl32eSendChar?$AA@ 1004bb10     xpcruntime:xpcimports.obj
 0002:00008b20       ??_C@_0BJ@JCJKDACJ@rl32eSendChar?5not?5found?6?$AA@ 1004bb20     xpcruntime:xpcimports.obj
 0002:00008b3c       ??_C@_0BB@OMFKCOEK@rl32eReceiveChar?$AA@ 1004bb3c     xpcruntime:xpcimports.obj
 0002:00008b50       ??_C@_0BM@HGAIOAND@rl32eReceiveChar?5not?5found?6?$AA@ 1004bb50     xpcruntime:xpcimports.obj
 0002:00008b6c       ??_C@_0BI@PKEJFHMJ@rl32eReceiveBufferCount?$AA@ 1004bb6c     xpcruntime:xpcimports.obj
 0002:00008b84       ??_C@_0CD@LNMOFLAH@rl32eReceiveBufferCount?5not?5foun@ 1004bb84     xpcruntime:xpcimports.obj
 0002:00008ba8       ??_C@_0BA@CFIJOJPK@rl32eLineStatus?$AA@ 1004bba8     xpcruntime:xpcimports.obj
 0002:00008bb8       ??_C@_0BL@PLIDKKGI@rl32eLineStatus?5not?5found?6?$AA@ 1004bbb8     xpcruntime:xpcimports.obj
 0002:00008bd4       ??_C@_0P@MDMKIJF@rl32eSendBlock?$AA@ 1004bbd4     xpcruntime:xpcimports.obj
 0002:00008be4       ??_C@_0BK@KNBNFIKH@rl32eSendBlock?5not?5found?6?$AA@ 1004bbe4     xpcruntime:xpcimports.obj
 0002:00008c00       ??_C@_0BD@PCKOKHO@xpceGetSignalValue?$AA@ 1004bc00     xpcruntime:xpcimports.obj
 0002:00008c14       ??_C@_0BO@GCBDJHMB@xpceGetSignalValue?5not?5found?6?$AA@ 1004bc14     xpcruntime:xpcimports.obj
 0002:00008c34       ??_C@_0BB@BJONJAGA@xpceSetParameter?$AA@ 1004bc34     xpcruntime:xpcimports.obj
 0002:00008c48       ??_C@_0BM@BJIKDLHA@xpceSetParameter?5not?5found?6?$AA@ 1004bc48     xpcruntime:xpcimports.obj
 0002:00008c64       ??_C@_0BB@GNFDFMCM@xpceGetParameter?$AA@ 1004bc64     xpcruntime:xpcimports.obj
 0002:00008c78       ??_C@_0BM@POHNKBC@xpceGetParameter?5not?5found?6?$AA@ 1004bc78     xpcruntime:xpcimports.obj
 0002:00008c94       ??_C@_0BB@CEIJLFCD@xpceGetParamDims?$AA@ 1004bc94     xpcruntime:xpcimports.obj
 0002:00008ca8       ??_C@_0BM@OABDBKAO@xpceGetParamDims?5not?5found?6?$AA@ 1004bca8     xpcruntime:xpcimports.obj
 0002:00008cc4       ??_C@_0L@OCBLLHBM@xpceGetTET?$AA@ 1004bcc4     xpcruntime:xpcimports.obj
 0002:00008cd0       ??_C@_0BG@HNOFBOB@xpceGetTET?5not?5found?6?$AA@ 1004bcd0     xpcruntime:xpcimports.obj
 0002:00008ce8       ??_C@_0BA@FHMIOKFL@xpceUDPOpenSend?$AA@ 1004bce8     xpcruntime:xpcimports.obj
 0002:00008cf8       ??_C@_0BL@HNLPFEK@xpceUDPOpenSend?5not?5found?6?$AA@ 1004bcf8     xpcruntime:xpcimports.obj
 0002:00008d14       ??_C@_0BD@BCELJJJL@xpceUDPOpenReceive?$AA@ 1004bd14     xpcruntime:xpcimports.obj
 0002:00008d28       ??_C@_0BO@IFKJBHKC@xpceUDPOpenReceive?5not?5found?6?$AA@ 1004bd28     xpcruntime:xpcimports.obj
 0002:00008d48       ??_C@_0M@OFPFLJGN@xpceUDPSend?$AA@ 1004bd48     xpcruntime:xpcimports.obj
 0002:00008d54       ??_C@_0BH@NOIKLPAB@xpceUDPSend?5not?5found?6?$AA@ 1004bd54     xpcruntime:xpcimports.obj
 0002:00008d6c       ??_C@_0P@PLFDECIN@xpceUDPReceive?$AA@ 1004bd6c     xpcruntime:xpcimports.obj
 0002:00008d7c       ??_C@_0BK@OPJMLDLH@xpceUDPReceive?5not?5found?6?$AA@ 1004bd7c     xpcruntime:xpcimports.obj
 0002:00008d98       ??_C@_0N@IEHPMFME@xpceUDPClose?$AA@ 1004bd98     xpcruntime:xpcimports.obj
 0002:00008da8       ??_C@_0BI@FHPFHECO@xpceUDPClose?5not?5found?6?$AA@ 1004bda8     xpcruntime:xpcimports.obj
 0002:00008dc0       ??_C@_0P@OKGNGAGH@xpcIsModelInit?$AA@ 1004bdc0     xpcruntime:xpcimports.obj
 0002:00008dd0       ??_C@_0BK@DHEMLBIM@xpcIsModelInit?5not?5found?6?$AA@ 1004bdd0     xpcruntime:xpcimports.obj
 0002:00008dec       ??_C@_0BH@KJJLCAOJ@xpcAllocPhysicalMemory?$AA@ 1004bdec     xpcruntime:xpcimports.obj
 0002:00008e04       ??_C@_0CC@MOJPNHKL@xpcAllocPhysicalMemory?5not?5found@ 1004be04     xpcruntime:xpcimports.obj
 0002:00008e28       ??_C@_0BG@CBNPGAEL@xpcFreePhysicalMemory?$AA@ 1004be28     xpcruntime:xpcimports.obj
 0002:00008e40       ??_C@_0CB@PKJEBPOG@xpcFreePhysicalMemory?5not?5found?6@ 1004be40     xpcruntime:xpcimports.obj
 0002:00008e64       ??_C@_0BC@JGKNLICL@xpcGetElapsedTime?$AA@ 1004be64     xpcruntime:xpcimports.obj
 0002:00008e78       ??_C@_0BN@OEOAHCIO@xpcGetElapsedTime?5not?5found?6?$AA@ 1004be78     xpcruntime:xpcimports.obj
 0002:00008e98       ??_C@_0M@ICBLMODA@xpcBusyWait?$AA@ 1004be98     xpcruntime:xpcimports.obj
 0002:00008ea4       ??_C@_0BH@FBOPECBI@xpcBusyWait?5not?5found?6?$AA@ 1004bea4     xpcruntime:xpcimports.obj
 0002:00008ebc       ??_C@_0N@LKKJEKKA@TBCreateSpin?$AA@ 1004bebc     xpcruntime:xpcimports.obj
 0002:00008ecc       ??_C@_0BI@FHKMLKOE@TBCreateSpin?5not?5found?6?$AA@ 1004becc     xpcruntime:xpcimports.obj
 0002:00008ee4       ??_C@_0N@HOAJHNBD@TBDeleteSpin?$AA@ 1004bee4     xpcruntime:xpcimports.obj
 0002:00008ef4       ??_C@_0BI@BKCPAAG@TBDeleteSpin?5not?5found?6?$AA@ 1004bef4     xpcruntime:xpcimports.obj
 0002:00008f0c       ??_C@_0P@DAHDDBJG@TBTakeSpinFast?$AA@ 1004bf0c     xpcruntime:xpcimports.obj
 0002:00008f1c       ??_C@_0BK@NKAIBHGB@TBTakeSpinFast?5not?5found?6?$AA@ 1004bf1c     xpcruntime:xpcimports.obj
 0002:00008f38       ??_C@_0P@FKNAAELA@TBGiveSpinFast?$AA@ 1004bf38     xpcruntime:xpcimports.obj
 0002:00008f48       ??_C@_0BK@KGPJBJND@TBGiveSpinFast?5not?5found?6?$AA@ 1004bf48     xpcruntime:xpcimports.obj
 0002:00008f64       ??_C@_0BE@IIGBFDHK@xpceCreateSemaphore?$AA@ 1004bf64     xpcruntime:xpcimports.obj
 0002:00008f78       ??_C@_0BP@KFBAFFKJ@xpceCreateSemaphore?5not?5found?6?$AA@ 1004bf78     xpcruntime:xpcimports.obj
 0002:00008f98       ??_C@_0BC@IFNIONKJ@xpceWaitSemaphore?$AA@ 1004bf98     xpcruntime:xpcimports.obj
 0002:00008fac       ??_C@_0BN@NMFAADIO@xpceWaitSemaphore?5not?5found?6?$AA@ 1004bfac     xpcruntime:xpcimports.obj
 0002:00008fcc       ??_C@_0BE@NNDIOBKE@xpceSignalSemaphore?$AA@ 1004bfcc     xpcruntime:xpcimports.obj
 0002:00008fe0       ??_C@_0BP@LBANMHJP@xpceSignalSemaphore?5not?5found?6?$AA@ 1004bfe0     xpcruntime:xpcimports.obj
 0002:00009000       ??_C@_0BE@MEBEKOIM@xpceDeleteSemaphore?$AA@ 1004c000     xpcruntime:xpcimports.obj
 0002:00009014       ??_C@_0BP@OFNCKOJH@xpceDeleteSemaphore?5not?5found?6?$AA@ 1004c014     xpcruntime:xpcimports.obj
 0002:00009034       ??_C@_0BD@MFNDMBOF@FindUsbVideoDevice?$AA@ 1004c034     xpcruntime:xpcimports.obj
 0002:00009048       ??_C@_0BO@POKLDHMI@FindUsbVideoDevice?5not?5found?6?$AA@ 1004c048     xpcruntime:xpcimports.obj
 0002:00009068       ??_C@_0BA@PLPAPNAB@GetVideoConfigs?$AA@ 1004c068     xpcruntime:xpcimports.obj
 0002:00009078       ??_C@_0BL@DALDHKHC@GetVideoConfigs?5not?5found?6?$AA@ 1004c078     xpcruntime:xpcimports.obj
 0002:00009094       ??_C@_0L@GBAEMHMH@StartVideo?$AA@ 1004c094     xpcruntime:xpcimports.obj
 0002:000090a0       ??_C@_0BG@HDCELEBP@StartVideo?5not?5found?6?$AA@ 1004c0a0     xpcruntime:xpcimports.obj
 0002:000090b8       ??_C@_0BA@FDNPOCLN@ReadFrameBuffer?$AA@ 1004c0b8     xpcruntime:xpcimports.obj
 0002:000090c8       ??_C@_0BL@JHGHPNBI@ReadFrameBuffer?5not?5found?6?$AA@ 1004c0c8     xpcruntime:xpcimports.obj
 0002:000090e4       ??_C@_09FAHCLKAG@StopVideo?$AA@ 1004c0e4     xpcruntime:xpcimports.obj
 0002:000090f0       ??_C@_0BF@NKGKKADL@StopVideo?5not?5found?6?$AA@ 1004c0f0     xpcruntime:xpcimports.obj
 0002:00009108       ??_C@_0O@MCPKDLLL@ConvertUImage?$AA@ 1004c108     xpcruntime:xpcimports.obj
 0002:00009118       ??_C@_0BJ@PHJKOAFL@ConvertUImage?5not?5found?6?$AA@ 1004c118     xpcruntime:xpcimports.obj
 0002:00009134       ??_C@_0BD@NKCBPBJJ@CreateVideoDisplay?$AA@ 1004c134     xpcruntime:xpcimports.obj
 0002:00009148       ??_C@_0BO@HPPLLNFP@CreateVideoDisplay?5not?5found?6?$AA@ 1004c148     xpcruntime:xpcimports.obj
 0002:00009168       ??_C@_0BE@KJCKGPHA@DestroyVideoDisplay?$AA@ 1004c168     xpcruntime:xpcimports.obj
 0002:0000917c       ??_C@_0BP@FMGLJAIJ@DestroyVideoDisplay?5not?5found?6?$AA@ 1004c17c     xpcruntime:xpcimports.obj
 0002:0000919c       ??_C@_0BC@HCMIMIDN@StartVideoDisplay?$AA@ 1004c19c     xpcruntime:xpcimports.obj
 0002:000091b0       ??_C@_0BN@EFIEBGOO@StartVideoDisplay?5not?5found?6?$AA@ 1004c1b0     xpcruntime:xpcimports.obj
 0002:000091d0       ??_C@_0BB@JBBLMILG@StopVideoDisplay?$AA@ 1004c1d0     xpcruntime:xpcimports.obj
 0002:000091e4       ??_C@_0BM@DBJBPLEL@StopVideoDisplay?5not?5found?6?$AA@ 1004c1e4     xpcruntime:xpcimports.obj
 0002:00009200       ??_C@_0M@MFJEGMHC@StreamVideo?$AA@ 1004c200     xpcruntime:xpcimports.obj
 0002:0000920c       ??_C@_0BH@OINCDMLA@StreamVideo?5not?5found?6?$AA@ 1004c20c     xpcruntime:xpcimports.obj
 0002:00009224       ??_C@_0N@IGGLCIGE@xpceaddEvent?$AA@ 1004c224     xpcruntime:xpcimports.obj
 0002:00009234       ??_C@_0BI@NHJNFMKH@xpceaddEvent?5not?5found?6?$AA@ 1004c234     xpcruntime:xpcimports.obj
 0002:0000924c       ??_C@_0BB@LCMHHHFN@getMemoryService?$AA@ 1004c24c     xpcruntime:xpcimports.obj
 0002:00009260       ??_C@_0BM@MPLCNIIE@getMemoryService?5not?5found?6?$AA@ 1004c260     xpcruntime:xpcimports.obj
 0002:0000927c       ??_C@_0P@KIKONDKK@getCommService?$AA@ 1004c27c     xpcruntime:xpcimports.obj
 0002:0000928c       ??_C@_0BK@NCECBKNM@getCommService?5not?5found?6?$AA@ 1004c28c     xpcruntime:xpcimports.obj
 0002:000092a8       ??_C@_0P@GDLHFECE@getStatusFlags?$AA@ 1004c2a8     xpcruntime:xpcimports.obj
 0002:000092b8       ??_C@_0BK@NEKDLJHG@getStatusFlags?5not?5found?6?$AA@ 1004c2b8     xpcruntime:xpcimports.obj
 0002:000092d4       ??_C@_0BL@CDFCLKOL@startToAsyncQueueTgtAppSvc?$AA@ 1004c2d4     xpcruntime:xpcimports.obj
 0002:000092f0       ??_C@_0CG@JGOFFKEL@startToAsyncQueueTgtAppSvc?5not?5f@ 1004c2f0     xpcruntime:xpcimports.obj
 0002:00009318       ??_C@_0BP@IJNGPPPE@terminateToAsyncQueueTgtAppSvc?$AA@ 1004c318     xpcruntime:xpcimports.obj
 0002:00009338       ??_C@_0CK@NDEMAMKF@terminateToAsyncQueueTgtAppSvc?5n@ 1004c338     xpcruntime:xpcimports.obj
 0002:00009364       ??_C@_0BK@IDACEHAO@sendToAsyncQueueTgtAppSvc?$AA@ 1004c364     xpcruntime:xpcimports.obj
 0002:00009380       ??_C@_0CF@PNCKPEHN@sendToAsyncQueueTgtAppSvc?5not?5fo@ 1004c380     xpcruntime:xpcimports.obj
 0002:000093a8       ??_C@_0BN@HJOHIFOM@xpceGetIntTimerGranularityNS?$AA@ 1004c3a8     xpcruntime:xpcimports.obj
 0002:000093c8       ??_C@_0CI@OADDPMKB@xpceGetIntTimerGranularityNS?5not@ 1004c3c8     xpcruntime:xpcimports.obj
 0002:000093f0       ??_C@_0BG@CCHICKPN@slrteSetStepSizeDelta?$AA@ 1004c3f0     xpcruntime:xpcimports.obj
 0002:00009408       ??_C@_0CB@MKHINEIJ@slrteSetStepSizeDelta?5not?5found?6@ 1004c408     xpcruntime:xpcimports.obj
 0002:0000942c       ??_C@_0BI@CLNBLDKJ@slrteGetCurrentStepSize?$AA@ 1004c42c     xpcruntime:xpcimports.obj
 0002:00009444       ??_C@_0CD@GIOJPGJA@slrteGetCurrentStepSize?5not?5foun@ 1004c444     xpcruntime:xpcimports.obj
 0002:00009468       ??_C@_0BE@FCLCBOC@registerPTPTimeRead?$AA@ 1004c468     xpcruntime:xpcimports.obj
 0002:0000947c       ??_C@_0BP@LHPKAJIP@registerPTPTimeRead?5not?5found?6?$AA@ 1004c47c     xpcruntime:xpcimports.obj
 0002:0000949c       ??_C@_0BG@KIGCDDJI@unRegisterPTPTimeRead?$AA@ 1004c49c     xpcruntime:xpcimports.obj
 0002:000094b4       ??_C@_0CB@MLFFBFCM@unRegisterPTPTimeRead?5not?5found?6@ 1004c4b4     xpcruntime:xpcimports.obj
 0002:000094d8       ??_C@_0BB@IPMDDBHK@slTestInitialize?$AA@ 1004c4d8     xpcruntime:xpcimports.obj
 0002:000094ec       ??_C@_0BM@LAJFCCJH@slTestInitialize?5not?5found?6?$AA@ 1004c4ec     xpcruntime:xpcimports.obj
 0002:00009508       ??_C@_0BF@OOMPMEBC@slTestLogAssessments?$AA@ 1004c508     xpcruntime:xpcimports.obj
 0002:00009520       ??_C@_0CA@FGJCEBAG@slTestLogAssessments?5not?5found?6?$AA@ 1004c520     xpcruntime:xpcimports.obj
 0002:00009540       ??_C@_0BB@HJHKONHO@slTestEvalOnFail?$AA@ 1004c540     xpcruntime:xpcimports.obj
 0002:00009554       ??_C@_0BM@JIKCFFNJ@slTestEvalOnFail?5not?5found?6?$AA@ 1004c554     xpcruntime:xpcimports.obj
 0002:00009570       ??_C@_0BA@LBHLABFP@slTestTerminate?$AA@ 1004c570     xpcruntime:xpcimports.obj
 0002:00009580       ??_C@_0BL@EMFGKAPA@slTestTerminate?5not?5found?6?$AA@ 1004c580     xpcruntime:xpcimports.obj
 0002:0000959c       ??_C@_0BE@JPNPBBEO@slTestRegAssessment?$AA@ 1004c59c     xpcruntime:xpcimports.obj
 0002:000095b0       ??_C@_0BP@FBDEJJJH@slTestRegAssessment?5not?5found?6?$AA@ 1004c5b0     xpcruntime:xpcimports.obj
 0002:0000e518       __FPinit                   10051518     LIBCMT:fpinit.obj
 0002:0000e524       ??_C@_1BI@BGOHAHKC@?$AAm?$AAs?$AAc?$AAo?$AAr?$AAe?$AAe?$AA?4?$AAd?$AAl?$AAl?$AA?$AA@ 10051524     LIBCMT:crt0dat.obj
 0002:0000e53c       ??_C@_0P@MIGLKIOC@CorExitProcess?$AA@ 1005153c     LIBCMT:crt0dat.obj
 0002:0000e5d4       ??_C@_17LGKOMLJ@?$AA?4?$AA?4?$AA?4?$AA?$AA@ 100515d4     LIBCMT:wassert.obj
 0002:0000e5dc       ??_C@_13LBAGMAIH@?$AA?6?$AA?$AA@ 100515dc     LIBCMT:wassert.obj
 0002:0000e5e0       ??_C@_15IABLJNFO@?$AA?6?$AA?6?$AA?$AA@ 100515e0     LIBCMT:wassert.obj
 0002:0000e5e8       ??_C@_1CE@OJBNHDMO@?$AAA?$AAs?$AAs?$AAe?$AAr?$AAt?$AAi?$AAo?$AAn?$AA?5?$AAf?$AAa?$AAi?$AAl?$AAe?$AAd?$AA?$CB?$AA?$AA@ 100515e8     LIBCMT:wassert.obj
 0002:0000e60c       ??_C@_1BE@PHKBBGE@?$AAP?$AAr?$AAo?$AAg?$AAr?$AAa?$AAm?$AA?3?$AA?5?$AA?$AA@ 1005160c     LIBCMT:wassert.obj
 0002:0000e620       ??_C@_1CO@EAEJAADC@?$AA?$DM?$AAp?$AAr?$AAo?$AAg?$AAr?$AAa?$AAm?$AA?5?$AAn?$AAa?$AAm?$AAe?$AA?5?$AAu?$AAn?$AAk?$AAn?$AAo?$AAw?$AAn?$AA?$DO?$AA?$AA@ 10051620     LIBCMT:wassert.obj
 0002:0000e650       ??_C@_1O@HEMHKNDC@?$AAF?$AAi?$AAl?$AAe?$AA?3?$AA?5?$AA?$AA@ 10051650     LIBCMT:wassert.obj
 0002:0000e660       ??_C@_1O@KCAFKHJE@?$AAL?$AAi?$AAn?$AAe?$AA?3?$AA?5?$AA?$AA@ 10051660     LIBCMT:wassert.obj
 0002:0000e670       ??_C@_1BK@PEDCIPMA@?$AAE?$AAx?$AAp?$AAr?$AAe?$AAs?$AAs?$AAi?$AAo?$AAn?$AA?3?$AA?5?$AA?$AA@ 10051670     LIBCMT:wassert.obj
 0002:0000e690       ??_C@_1OA@EGMLFBHJ@?$AAF?$AAo?$AAr?$AA?5?$AAi?$AAn?$AAf?$AAo?$AAr?$AAm?$AAa?$AAt?$AAi?$AAo?$AAn?$AA?5?$AAo?$AAn?$AA?5?$AAh?$AAo?$AAw?$AA?5?$AAy?$AAo?$AAu?$AAr?$AA?5?$AAp?$AAr?$AAo?$AAg@ 10051690     LIBCMT:wassert.obj
 0002:0000e770       ??_C@_1HK@POCJMFGK@?$AA?$CI?$AAP?$AAr?$AAe?$AAs?$AAs?$AA?5?$AAR?$AAe?$AAt?$AAr?$AAy?$AA?5?$AAt?$AAo?$AA?5?$AAd?$AAe?$AAb?$AAu?$AAg?$AA?5?$AAt?$AAh?$AAe?$AA?5?$AAa?$AAp?$AAp?$AAl?$AAi?$AAc@ 10051770     LIBCMT:wassert.obj
 0002:0000e7f0       ??_C@_1EK@MBDPDCGA@?$AAM?$AAi?$AAc?$AAr?$AAo?$AAs?$AAo?$AAf?$AAt?$AA?5?$AAV?$AAi?$AAs?$AAu?$AAa?$AAl?$AA?5?$AAC?$AA?$CL?$AA?$CL?$AA?5?$AAR?$AAu?$AAn?$AAt?$AAi?$AAm?$AAe?$AA?5?$AAL?$AAi?$AAb@ 100517f0     LIBCMT:wassert.obj
 0002:0000e83c       __pDefaultRawDllMain       1005183c     LIBCMT:dllcrt0.obj
 0002:0000e83c       __pRawDllMain              1005183c     LIBCMT:dllcrt0.obj
 0002:0000e840       ?ProcessDetach@NativeDll@<CrtImplementationDetails>@@0IB 10051840     LIBCMT:handler.obj
 0002:0000e844       ?ProcessAttach@NativeDll@<CrtImplementationDetails>@@0IB 10051844     LIBCMT:handler.obj
 0002:0000e848       ?ThreadAttach@NativeDll@<CrtImplementationDetails>@@0IB 10051848     LIBCMT:handler.obj
 0002:0000e84c       ?ThreadDetach@NativeDll@<CrtImplementationDetails>@@0IB 1005184c     LIBCMT:handler.obj
 0002:0000e850       ?ProcessVerifier@NativeDll@<CrtImplementationDetails>@@0IB 10051850     LIBCMT:handler.obj
 0002:0000e910       ??_C@_1FK@PGACCAFB@?$AAR?$AA6?$AA0?$AA0?$AA2?$AA?$AN?$AA?6?$AA?9?$AA?5?$AAf?$AAl?$AAo?$AAa?$AAt?$AAi?$AAn?$AAg?$AA?5?$AAp?$AAo?$AAi?$AAn?$AAt?$AA?5?$AAs?$AAu?$AAp?$AAp?$AAo?$AAr?$AAt?$AA?5@ 10051910     LIBCMT:crt0msg.obj
 0002:0000e970       ??_C@_1FE@LLNEDJMD@?$AAR?$AA6?$AA0?$AA0?$AA8?$AA?$AN?$AA?6?$AA?9?$AA?5?$AAn?$AAo?$AAt?$AA?5?$AAe?$AAn?$AAo?$AAu?$AAg?$AAh?$AA?5?$AAs?$AAp?$AAa?$AAc?$AAe?$AA?5?$AAf?$AAo?$AAr?$AA?5?$AAa?$AAr@ 10051970     LIBCMT:crt0msg.obj
 0002:0000e9c8       ??_C@_1FI@HONFMGBI@?$AAR?$AA6?$AA0?$AA0?$AA9?$AA?$AN?$AA?6?$AA?9?$AA?5?$AAn?$AAo?$AAt?$AA?5?$AAe?$AAn?$AAo?$AAu?$AAg?$AAh?$AA?5?$AAs?$AAp?$AAa?$AAc?$AAe?$AA?5?$AAf?$AAo?$AAr?$AA?5?$AAe?$AAn@ 100519c8     LIBCMT:crt0msg.obj
 0002:0000ea20       ??_C@_1EG@BEHAGFJD@?$AAR?$AA6?$AA0?$AA1?$AA0?$AA?$AN?$AA?6?$AA?9?$AA?5?$AAa?$AAb?$AAo?$AAr?$AAt?$AA?$CI?$AA?$CJ?$AA?5?$AAh?$AAa?$AAs?$AA?5?$AAb?$AAe?$AAe?$AAn?$AA?5?$AAc?$AAa?$AAl?$AAl?$AAe?$AAd@ 10051a20     LIBCMT:crt0msg.obj
 0002:0000ea68       ??_C@_1FI@LOGNIKDM@?$AAR?$AA6?$AA0?$AA1?$AA6?$AA?$AN?$AA?6?$AA?9?$AA?5?$AAn?$AAo?$AAt?$AA?5?$AAe?$AAn?$AAo?$AAu?$AAg?$AAh?$AA?5?$AAs?$AAp?$AAa?$AAc?$AAe?$AA?5?$AAf?$AAo?$AAr?$AA?5?$AAt?$AAh@ 10051a68     LIBCMT:crt0msg.obj
 0002:0000eac0       ??_C@_1FK@BEOGODMC@?$AAR?$AA6?$AA0?$AA1?$AA7?$AA?$AN?$AA?6?$AA?9?$AA?5?$AAu?$AAn?$AAe?$AAx?$AAp?$AAe?$AAc?$AAt?$AAe?$AAd?$AA?5?$AAm?$AAu?$AAl?$AAt?$AAi?$AAt?$AAh?$AAr?$AAe?$AAa?$AAd?$AA?5@ 10051ac0     LIBCMT:crt0msg.obj
 0002:0000eb20       ??_C@_1EC@JIBHAOPH@?$AAR?$AA6?$AA0?$AA1?$AA8?$AA?$AN?$AA?6?$AA?9?$AA?5?$AAu?$AAn?$AAe?$AAx?$AAp?$AAe?$AAc?$AAt?$AAe?$AAd?$AA?5?$AAh?$AAe?$AAa?$AAp?$AA?5?$AAe?$AAr?$AAr?$AAo?$AAr?$AA?$AN?$AA?6@ 10051b20     LIBCMT:crt0msg.obj
 0002:0000eb68       ??_C@_1FC@ECHBIFBC@?$AAR?$AA6?$AA0?$AA1?$AA9?$AA?$AN?$AA?6?$AA?9?$AA?5?$AAu?$AAn?$AAa?$AAb?$AAl?$AAe?$AA?5?$AAt?$AAo?$AA?5?$AAo?$AAp?$AAe?$AAn?$AA?5?$AAc?$AAo?$AAn?$AAs?$AAo?$AAl?$AAe?$AA?5@ 10051b68     LIBCMT:crt0msg.obj
 0002:0000ebc0       ??_C@_1GK@FHCKBEFA@?$AAR?$AA6?$AA0?$AA2?$AA4?$AA?$AN?$AA?6?$AA?9?$AA?5?$AAn?$AAo?$AAt?$AA?5?$AAe?$AAn?$AAo?$AAu?$AAg?$AAh?$AA?5?$AAs?$AAp?$AAa?$AAc?$AAe?$AA?5?$AAf?$AAo?$AAr?$AA?5?$AA_?$AAo@ 10051bc0     LIBCMT:crt0msg.obj
 0002:0000ec30       ??_C@_1EM@MAADIHMB@?$AAR?$AA6?$AA0?$AA2?$AA5?$AA?$AN?$AA?6?$AA?9?$AA?5?$AAp?$AAu?$AAr?$AAe?$AA?5?$AAv?$AAi?$AAr?$AAt?$AAu?$AAa?$AAl?$AA?5?$AAf?$AAu?$AAn?$AAc?$AAt?$AAi?$AAo?$AAn?$AA?5?$AAc@ 10051c30     LIBCMT:crt0msg.obj
 0002:0000ec80       ??_C@_1GK@MCAAGJMO@?$AAR?$AA6?$AA0?$AA2?$AA6?$AA?$AN?$AA?6?$AA?9?$AA?5?$AAn?$AAo?$AAt?$AA?5?$AAe?$AAn?$AAo?$AAu?$AAg?$AAh?$AA?5?$AAs?$AAp?$AAa?$AAc?$AAe?$AA?5?$AAf?$AAo?$AAr?$AA?5?$AAs?$AAt@ 10051c80     LIBCMT:crt0msg.obj
 0002:0000ecf0       ??_C@_1GK@MFGOKLAG@?$AAR?$AA6?$AA0?$AA2?$AA7?$AA?$AN?$AA?6?$AA?9?$AA?5?$AAn?$AAo?$AAt?$AA?5?$AAe?$AAn?$AAo?$AAu?$AAg?$AAh?$AA?5?$AAs?$AAp?$AAa?$AAc?$AAe?$AA?5?$AAf?$AAo?$AAr?$AA?5?$AAl?$AAo@ 10051cf0     LIBCMT:crt0msg.obj
 0002:0000ed60       ??_C@_1EK@HHFLMAOL@?$AAR?$AA6?$AA0?$AA2?$AA8?$AA?$AN?$AA?6?$AA?9?$AA?5?$AAu?$AAn?$AAa?$AAb?$AAl?$AAe?$AA?5?$AAt?$AAo?$AA?5?$AAi?$AAn?$AAi?$AAt?$AAi?$AAa?$AAl?$AAi?$AAz?$AAe?$AA?5?$AAh?$AAe@ 10051d60     LIBCMT:crt0msg.obj
 0002:0000edac       ??_C@_1DO@BMFCDCD@?$AAR?$AA6?$AA0?$AA3?$AA0?$AA?$AN?$AA?6?$AA?9?$AA?5?$AAC?$AAR?$AAT?$AA?5?$AAn?$AAo?$AAt?$AA?5?$AAi?$AAn?$AAi?$AAt?$AAi?$AAa?$AAl?$AAi?$AAz?$AAe?$AAd?$AA?$AN?$AA?6?$AA?$AA@ 10051dac     LIBCMT:crt0msg.obj
 0002:0000edf0       ??_C@_1MG@ENCOOIDF@?$AAR?$AA6?$AA0?$AA3?$AA1?$AA?$AN?$AA?6?$AA?9?$AA?5?$AAA?$AAt?$AAt?$AAe?$AAm?$AAp?$AAt?$AA?5?$AAt?$AAo?$AA?5?$AAi?$AAn?$AAi?$AAt?$AAi?$AAa?$AAl?$AAi?$AAz?$AAe?$AA?5?$AAt@ 10051df0     LIBCMT:crt0msg.obj
 0002:0000eeb8       ??_C@_1GG@GOPILAJP@?$AAR?$AA6?$AA0?$AA3?$AA2?$AA?$AN?$AA?6?$AA?9?$AA?5?$AAn?$AAo?$AAt?$AA?5?$AAe?$AAn?$AAo?$AAu?$AAg?$AAh?$AA?5?$AAs?$AAp?$AAa?$AAc?$AAe?$AA?5?$AAf?$AAo?$AAr?$AA?5?$AAl?$AAo@ 10051eb8     LIBCMT:crt0msg.obj
 0002:0000ef20       ??_C@_1BOO@KGEDBGAJ@?$AAR?$AA6?$AA0?$AA3?$AA3?$AA?$AN?$AA?6?$AA?9?$AA?5?$AAA?$AAt?$AAt?$AAe?$AAm?$AAp?$AAt?$AA?5?$AAt?$AAo?$AA?5?$AAu?$AAs?$AAe?$AA?5?$AAM?$AAS?$AAI?$AAL?$AA?5?$AAc?$AAo?$AAd@ 10051f20     LIBCMT:crt0msg.obj
 0002:0000f110       ??_C@_1GG@MKFPEKFO@?$AAR?$AA6?$AA0?$AA3?$AA4?$AA?$AN?$AA?6?$AA?9?$AA?5?$AAi?$AAn?$AAc?$AAo?$AAn?$AAs?$AAi?$AAs?$AAt?$AAe?$AAn?$AAt?$AA?5?$AAo?$AAn?$AAe?$AAx?$AAi?$AAt?$AA?5?$AAb?$AAe?$AAg@ 10052110     LIBCMT:crt0msg.obj
 0002:0000f178       ??_C@_1BO@BFCDCGC@?$AAD?$AAO?$AAM?$AAA?$AAI?$AAN?$AA?5?$AAe?$AAr?$AAr?$AAo?$AAr?$AA?$AN?$AA?6?$AA?$AA@ 10052178     LIBCMT:crt0msg.obj
 0002:0000f198       ??_C@_1BK@KMOMNAAI@?$AAS?$AAI?$AAN?$AAG?$AA?5?$AAe?$AAr?$AAr?$AAo?$AAr?$AA?$AN?$AA?6?$AA?$AA@ 10052198     LIBCMT:crt0msg.obj
 0002:0000f1b4       ??_C@_1BM@JBBEPPHI@?$AAT?$AAL?$AAO?$AAS?$AAS?$AA?5?$AAe?$AAr?$AAr?$AAo?$AAr?$AA?$AN?$AA?6?$AA?$AA@ 100521b4     LIBCMT:crt0msg.obj
 0002:0000f1d0       ??_C@_15JNBOKNOG@?$AA?$AN?$AA?6?$AA?$AA@ 100521d0     LIBCMT:crt0msg.obj
 0002:0000f1d8       ??_C@_1BO@BKOMIGKJ@?$AAr?$AAu?$AAn?$AAt?$AAi?$AAm?$AAe?$AA?5?$AAe?$AAr?$AAr?$AAo?$AAr?$AA?5?$AA?$AA@ 100521d8     LIBCMT:crt0msg.obj
 0002:0000f1f8       ??_C@_1DE@JNGNBFGO@?$AAR?$AAu?$AAn?$AAt?$AAi?$AAm?$AAe?$AA?5?$AAE?$AAr?$AAr?$AAo?$AAr?$AA?$CB?$AA?6?$AA?6?$AAP?$AAr?$AAo?$AAg?$AAr?$AAa?$AAm?$AA?3?$AA?5?$AA?$AA@ 100521f8     LIBCMT:crt0msg.obj
 0002:0000f22c       ??_C@_06OJHGLDPL@?$CInull?$CJ?$AA@ 1005222c     LIBCMT:output.obj
 0002:0000f234       ??_C@_1O@CEDCILHN@?$AA?$CI?$AAn?$AAu?$AAl?$AAl?$AA?$CJ?$AA?$AA@ 10052234     LIBCMT:output.obj
 0002:0000f248       ___lookuptable             10052248     LIBCMT:output.obj
 0002:0000f310       ??_C@_03MGHMBJCF@log?$AA@  10052310     LIBCMT:libm_error.obj
 0002:0000f314       ??_C@_05HGHHAHAP@log10?$AA@ 10052314     LIBCMT:libm_error.obj
 0002:0000f31c       ??_C@_03KHJOGHMM@exp?$AA@  1005231c     LIBCMT:libm_error.obj
 0002:0000f320       ??_C@_03JGHBODFD@pow?$AA@  10052320     LIBCMT:libm_error.obj
 0002:0000f324       ??_C@_04FIHNOPOL@asin?$AA@ 10052324     LIBCMT:libm_error.obj
 0002:0000f32c       ??_C@_04PDIFKINK@acos?$AA@ 1005232c     LIBCMT:libm_error.obj
 0002:0000f334       ??_C@_05EOHGHCHD@exp10?$AA@ 10052334     LIBCMT:libm_error.obj
 0002:0000f33c       ??_C@_04MLLJIGOK@atan?$AA@ 1005233c     LIBCMT:libm_error.obj
 0002:0000f344       ??_C@_04GFPJNGEK@ceil?$AA@ 10052344     LIBCMT:libm_error.obj
 0002:0000f34c       ??_C@_05PBJFFIGL@floor?$AA@ 1005234c     LIBCMT:libm_error.obj
 0002:0000f354       ??_C@_04EHEDPDJG@modf?$AA@ 10052354     LIBCMT:libm_error.obj
 0002:0000f35c       ??_C@_03BLEJJJBH@sin?$AA@  1005235c     LIBCMT:libm_error.obj
 0002:0000f360       ??_C@_03LALBNOCG@cos?$AA@  10052360     LIBCMT:libm_error.obj
 0002:0000f364       ??_C@_03IIINPABG@tan?$AA@  10052364     LIBCMT:libm_error.obj
 0002:0000f368       ??_C@_04EIAKFFMI@sqrt?$AA@ 10052368     LIBCMT:libm_error.obj
 0002:0000f370       ??_C@_05KLBDPFGC@e?$CL000?$AA@ 10052370     LIBCMT:cvt.obj
 0002:0000f378       ??_C@_1BK@MGMFAEKH@?$AAk?$AAe?$AAr?$AAn?$AAe?$AAl?$AA3?$AA2?$AA?4?$AAd?$AAl?$AAl?$AA?$AA@ 10052378     LIBCMT:winapisupp.obj
 0002:0000f394       ??_C@_08KNHFBNJ@FlsAlloc?$AA@ 10052394     LIBCMT:winapisupp.obj
 0002:0000f3a0       ??_C@_07PEJMOBNF@FlsFree?$AA@ 100523a0     LIBCMT:winapisupp.obj
 0002:0000f3a8       ??_C@_0M@GDNOONDI@FlsGetValue?$AA@ 100523a8     LIBCMT:winapisupp.obj
 0002:0000f3b4       ??_C@_0M@JCPCPOEF@FlsSetValue?$AA@ 100523b4     LIBCMT:winapisupp.obj
 0002:0000f3c0       ??_C@_0BM@HCFOFFN@InitializeCriticalSectionEx?$AA@ 100523c0     LIBCMT:winapisupp.obj
 0002:0000f3dc       ??_C@_0P@DLHPPCNH@CreateEventExW?$AA@ 100523dc     LIBCMT:winapisupp.obj
 0002:0000f3ec       ??_C@_0BD@KIEEOEEH@CreateSemaphoreExW?$AA@ 100523ec     LIBCMT:winapisupp.obj
 0002:0000f400       ??_C@_0BI@BKLFFAPO@SetThreadStackGuarantee?$AA@ 10052400     LIBCMT:winapisupp.obj
 0002:0000f418       ??_C@_0BG@OGFAJCKC@CreateThreadpoolTimer?$AA@ 10052418     LIBCMT:winapisupp.obj
 0002:0000f430       ??_C@_0BD@LPLEMMDI@SetThreadpoolTimer?$AA@ 10052430     LIBCMT:winapisupp.obj
 0002:0000f444       ??_C@_0CA@FMNJENH@WaitForThreadpoolTimerCallbacks?$AA@ 10052444     LIBCMT:winapisupp.obj
 0002:0000f464       ??_C@_0BF@DCFCCNOC@CloseThreadpoolTimer?$AA@ 10052464     LIBCMT:winapisupp.obj
 0002:0000f47c       ??_C@_0BF@FLABGKKM@CreateThreadpoolWait?$AA@ 1005247c     LIBCMT:winapisupp.obj
 0002:0000f494       ??_C@_0BC@MGCOHNA@SetThreadpoolWait?$AA@ 10052494     LIBCMT:winapisupp.obj
 0002:0000f4a8       ??_C@_0BE@OCIOMIMP@CloseThreadpoolWait?$AA@ 100524a8     LIBCMT:winapisupp.obj
 0002:0000f4bc       ??_C@_0BJ@LKGHFHBO@FlushProcessWriteBuffers?$AA@ 100524bc     LIBCMT:winapisupp.obj
 0002:0000f4d8       ??_C@_0BP@KALKKPMO@FreeLibraryWhenCallbackReturns?$AA@ 100524d8     LIBCMT:winapisupp.obj
 0002:0000f4f8       ??_C@_0BK@DFNBACLA@GetCurrentProcessorNumber?$AA@ 100524f8     LIBCMT:winapisupp.obj
 0002:0000f514       ??_C@_0BP@KHGALBC@GetLogicalProcessorInformation?$AA@ 10052514     LIBCMT:winapisupp.obj
 0002:0000f534       ??_C@_0BE@FKKLLFLM@CreateSymbolicLinkW?$AA@ 10052534     LIBCMT:winapisupp.obj
 0002:0000f548       ??_C@_0BJ@OHNKDLIJ@SetDefaultDllDirectories?$AA@ 10052548     LIBCMT:winapisupp.obj
 0002:0000f564       ??_C@_0BE@LJANKFHF@EnumSystemLocalesEx?$AA@ 10052564     LIBCMT:winapisupp.obj
 0002:0000f578       ??_C@_0BA@IHGNDAEB@CompareStringEx?$AA@ 10052578     LIBCMT:winapisupp.obj
 0002:0000f588       ??_C@_0BA@EPCJIIPD@GetDateFormatEx?$AA@ 10052588     LIBCMT:winapisupp.obj
 0002:0000f598       ??_C@_0BA@ONOKGCMP@GetLocaleInfoEx?$AA@ 10052598     LIBCMT:winapisupp.obj
 0002:0000f5a8       ??_C@_0BA@CIJJKCJJ@GetTimeFormatEx?$AA@ 100525a8     LIBCMT:winapisupp.obj
 0002:0000f5b8       ??_C@_0BJ@PBCCBIPI@GetUserDefaultLocaleName?$AA@ 100525b8     LIBCMT:winapisupp.obj
 0002:0000f5d4       ??_C@_0BC@CELBKLLA@IsValidLocaleName?$AA@ 100525d4     LIBCMT:winapisupp.obj
 0002:0000f5e8       ??_C@_0O@KKBNKAPF@LCMapStringEx?$AA@ 100525e8     LIBCMT:winapisupp.obj
 0002:0000f5f8       ??_C@_0BE@JOGNEJCI@GetCurrentPackageId?$AA@ 100525f8     LIBCMT:winapisupp.obj
 0002:0000f60c       ??_C@_0P@CDHHOHKP@GetTickCount64?$AA@ 1005260c     LIBCMT:winapisupp.obj
 0002:0000f61c       ??_C@_0BO@KPCLFDJJ@GetFileInformationByHandleExW?$AA@ 1005261c     LIBCMT:winapisupp.obj
 0002:0000f63c       ??_C@_0BM@MHIDLABK@SetFileInformationByHandleW?$AA@ 1005263c     LIBCMT:winapisupp.obj
 0002:0000f658       ??_C@_1BK@GAEMIDIL@?$AAA?$AAD?$AAV?$AAA?$AAP?$AAI?$AA3?$AA2?$AA?4?$AAD?$AAL?$AAL?$AA?$AA@ 10052658     LIBCMT:rand_s.obj
 0002:0000f674       ??_C@_0BC@JEAENNKH@SystemFunction036?$AA@ 10052674     LIBCMT:rand_s.obj
 0002:0000f698       ??_C@_1M@HPNHIDJI@?$AAj?$AAa?$AA?9?$AAJ?$AAP?$AA?$AA@ 10052698     LIBCMT:mbctype.obj
 0002:0000f6a4       ??_C@_1M@BIBDDEMK@?$AAz?$AAh?$AA?9?$AAC?$AAN?$AA?$AA@ 100526a4     LIBCMT:mbctype.obj
 0002:0000f6b0       ??_C@_1M@JLOOOEGK@?$AAk?$AAo?$AA?9?$AAK?$AAR?$AA?$AA@ 100526b0     LIBCMT:mbctype.obj
 0002:0000f6bc       ??_C@_1M@CLNBBOPM@?$AAz?$AAh?$AA?9?$AAT?$AAW?$AA?$AA@ 100526bc     LIBCMT:mbctype.obj
 0002:0000f6e8       ??_C@_04FJHINJAO@tanh?$AA@ 100526e8     LIBCMT:fpexcept.obj
 0002:0000f6f0       ??_C@_05KNGEOGJB@atan2?$AA@ 100526f0     LIBCMT:fpexcept.obj
 0002:0000f6f8       ??_C@_04ODHECPBC@fabs?$AA@ 100526f8     LIBCMT:fpexcept.obj
 0002:0000f700       ??_C@_05CEJMAHNP@ldexp?$AA@ 10052700     LIBCMT:fpexcept.obj
 0002:0000f708       ??_C@_05KBKMEMPO@_cabs?$AA@ 10052708     LIBCMT:fpexcept.obj
 0002:0000f710       ??_C@_06MEIMCGCF@_hypot?$AA@ 10052710     LIBCMT:fpexcept.obj
 0002:0000f718       ??_C@_04KEPJIHGP@fmod?$AA@ 10052718     LIBCMT:fpexcept.obj
 0002:0000f720       ??_C@_05GKKHEGJL@frexp?$AA@ 10052720     LIBCMT:fpexcept.obj
 0002:0000f728       ??_C@_03MJLDFKDL@_y0?$AA@  10052728     LIBCMT:fpexcept.obj
 0002:0000f72c       ??_C@_03NAKIGLHK@_y1?$AA@  1005272c     LIBCMT:fpexcept.obj
 0002:0000f730       ??_C@_03ONILCKOB@_yn?$AA@  10052730     LIBCMT:fpexcept.obj
 0002:0000f734       ??_C@_05JGDBENOH@_logb?$AA@ 10052734     LIBCMT:fpexcept.obj
 0002:0000f73c       ??_C@_0L@KDOEJCKC@_nextafter?$AA@ 1005273c     LIBCMT:fpexcept.obj
 0002:0000f748       ??_C@_04COOMCNPB@sinh?$AA@ 10052748     LIBCMT:fpexcept.obj
 0002:0000f750       ??_C@_04HPJJNFIM@cosh?$AA@ 10052750     LIBCMT:fpexcept.obj
 0002:0000f758       ??_C@_1BG@GOEBHBDC@?$AAU?$AAS?$AAE?$AAR?$AA3?$AA2?$AA?4?$AAD?$AAL?$AAL?$AA?$AA@ 10052758     LIBCMT:crtmboxw.obj
 0002:0000f770       ??_C@_0M@DLDCCGNP@MessageBoxW?$AA@ 10052770     LIBCMT:crtmboxw.obj
 0002:0000f77c       ??_C@_0BA@HNOPNCHB@GetActiveWindow?$AA@ 1005277c     LIBCMT:crtmboxw.obj
 0002:0000f78c       ??_C@_0BD@HHGDFDBJ@GetLastActivePopup?$AA@ 1005278c     LIBCMT:crtmboxw.obj
 0002:0000f7a0       ??_C@_0BK@DEKFELLI@GetUserObjectInformationW?$AA@ 100527a0     LIBCMT:crtmboxw.obj
 0002:0000f7bc       ??_C@_0BI@DFKBFLJE@GetProcessWindowStation?$AA@ 100527bc     LIBCMT:crtmboxw.obj
 0002:0000f7d8       __XcptActTab               100527d8     LIBCMT:winxfltr.obj
 0002:0000f868       __XcptActTabCount          10052868     LIBCMT:winxfltr.obj
 0002:0000f86c       __XcptActTabSize           1005286c     LIBCMT:winxfltr.obj
 0002:0000f870       __First_FPE_Indx           10052870     LIBCMT:winxfltr.obj
 0002:0000f874       __Num_FPE                  10052874     LIBCMT:winxfltr.obj
 0002:0000f878       ___lookuptable_s           10052878     LIBCMT:outputs.obj
 0002:0000f8d4       ??_C@_03KOEHGMDN@Sun?$AA@  100528d4     LIBCMT:nlsdata.obj
 0002:0000f8d8       ??_C@_03PDAGKDH@Mon?$AA@   100528d8     LIBCMT:nlsdata.obj
 0002:0000f8dc       ??_C@_03NAGEINEP@Tue?$AA@  100528dc     LIBCMT:nlsdata.obj
 0002:0000f8e0       ??_C@_03MHOMLAJA@Wed?$AA@  100528e0     LIBCMT:nlsdata.obj
 0002:0000f8e4       ??_C@_03IOFIKPDN@Thu?$AA@  100528e4     LIBCMT:nlsdata.obj
 0002:0000f8e8       ??_C@_03IDIOELNC@Fri?$AA@  100528e8     LIBCMT:nlsdata.obj
 0002:0000f8ec       ??_C@_03FEFJNEK@Sat?$AA@   100528ec     LIBCMT:nlsdata.obj
 0002:0000f8f0       ??_C@_06OOPIFAJ@Sunday?$AA@ 100528f0     LIBCMT:nlsdata.obj
 0002:0000f8f8       ??_C@_06JLEDEDGH@Monday?$AA@ 100528f8     LIBCMT:nlsdata.obj
 0002:0000f900       ??_C@_07BAAGCFCM@Tuesday?$AA@ 10052900     LIBCMT:nlsdata.obj
 0002:0000f908       ??_C@_09DLIGFAKA@Wednesday?$AA@ 10052908     LIBCMT:nlsdata.obj
 0002:0000f914       ??_C@_08HACCIKIA@Thursday?$AA@ 10052914     LIBCMT:nlsdata.obj
 0002:0000f920       ??_C@_06JECMNKMI@Friday?$AA@ 10052920     LIBCMT:nlsdata.obj
 0002:0000f928       ??_C@_08INBOOONO@Saturday?$AA@ 10052928     LIBCMT:nlsdata.obj
 0002:0000f934       ??_C@_03JIHJHPIE@Jan?$AA@  10052934     LIBCMT:nlsdata.obj
 0002:0000f938       ??_C@_03HJBDCHOM@Feb?$AA@  10052938     LIBCMT:nlsdata.obj
 0002:0000f93c       ??_C@_03ODNJBKGA@Mar?$AA@  1005293c     LIBCMT:nlsdata.obj
 0002:0000f940       ??_C@_03LEOLGMJP@Apr?$AA@  10052940     LIBCMT:nlsdata.obj
 0002:0000f944       ??_C@_03CNMDKL@May?$AA@    10052944     LIBCMT:nlsdata.obj
 0002:0000f948       ??_C@_03IDFGHECI@Jun?$AA@  10052948     LIBCMT:nlsdata.obj
 0002:0000f94c       ??_C@_03LBGABGKK@Jul?$AA@  1005294c     LIBCMT:nlsdata.obj
 0002:0000f950       ??_C@_03IFJFEIGA@Aug?$AA@  10052950     LIBCMT:nlsdata.obj
 0002:0000f954       ??_C@_03GGCAPAJC@Sep?$AA@  10052954     LIBCMT:nlsdata.obj
 0002:0000f958       ??_C@_03BMAOKBAD@Oct?$AA@  10052958     LIBCMT:nlsdata.obj
 0002:0000f95c       ??_C@_03JPJOFNIA@Nov?$AA@  1005295c     LIBCMT:nlsdata.obj
 0002:0000f960       ??_C@_03MKABNOCG@Dec?$AA@  10052960     LIBCMT:nlsdata.obj
 0002:0000f964       ??_C@_07CGJPFGJA@January?$AA@ 10052964     LIBCMT:nlsdata.obj
 0002:0000f96c       ??_C@_08GNJGEPFN@February?$AA@ 1005296c     LIBCMT:nlsdata.obj
 0002:0000f978       ??_C@_05HPCKOFNC@March?$AA@ 10052978     LIBCMT:nlsdata.obj
 0002:0000f980       ??_C@_05DMJDNLEJ@April?$AA@ 10052980     LIBCMT:nlsdata.obj
 0002:0000f988       ??_C@_04CNLMGBGM@June?$AA@ 10052988     LIBCMT:nlsdata.obj
 0002:0000f990       ??_C@_04MIEPOIFP@July?$AA@ 10052990     LIBCMT:nlsdata.obj
 0002:0000f998       ??_C@_06LBBHFDDG@August?$AA@ 10052998     LIBCMT:nlsdata.obj
 0002:0000f9a0       ??_C@_09BHHEALKD@September?$AA@ 100529a0     LIBCMT:nlsdata.obj
 0002:0000f9ac       ??_C@_07JJNFCEND@October?$AA@ 100529ac     LIBCMT:nlsdata.obj
 0002:0000f9b4       ??_C@_08HCHEGEOA@November?$AA@ 100529b4     LIBCMT:nlsdata.obj
 0002:0000f9c0       ??_C@_08EDHMEBNP@December?$AA@ 100529c0     LIBCMT:nlsdata.obj
 0002:0000f9cc       ??_C@_02DEDBPAFC@AM?$AA@   100529cc     LIBCMT:nlsdata.obj
 0002:0000f9d0       ??_C@_02CJNFDJBF@PM?$AA@   100529d0     LIBCMT:nlsdata.obj
 0002:0000f9d4       ??_C@_08BPBNCDIB@MM?1dd?1yy?$AA@ 100529d4     LIBCMT:nlsdata.obj
 0002:0000f9e0       ??_C@_0BE@CKGJFCPC@dddd?0?5MMMM?5dd?0?5yyyy?$AA@ 100529e0     LIBCMT:nlsdata.obj
 0002:0000f9f4       ??_C@_08JCCMCCIL@HH?3mm?3ss?$AA@ 100529f4     LIBCMT:nlsdata.obj
 0002:0000fa00       ??_C@_17MBGCMIPB@?$AAS?$AAu?$AAn?$AA?$AA@ 10052a00     LIBCMT:nlsdata.obj
 0002:0000fa08       ??_C@_17KBOMKBF@?$AAM?$AAo?$AAn?$AA?$AA@ 10052a08     LIBCMT:nlsdata.obj
 0002:0000fa10       ??_C@_17BMKGEGOJ@?$AAT?$AAu?$AAe?$AA?$AA@ 10052a10     LIBCMT:nlsdata.obj
 0002:0000fa18       ??_C@_17CJEDCEPE@?$AAW?$AAe?$AAd?$AA?$AA@ 10052a18     LIBCMT:nlsdata.obj
 0002:0000fa20       ??_C@_17PDPHAADD@?$AAT?$AAh?$AAu?$AA?$AA@ 10052a20     LIBCMT:nlsdata.obj
 0002:0000fa28       ??_C@_17HFOLPPLP@?$AAF?$AAr?$AAi?$AA?$AA@ 10052a28     LIBCMT:nlsdata.obj
 0002:0000fa30       ??_C@_17GGIBDPIH@?$AAS?$AAa?$AAt?$AA?$AA@ 10052a30     LIBCMT:nlsdata.obj
 0002:0000fa38       ??_C@_1O@IHNHDHPB@?$AAS?$AAu?$AAn?$AAd?$AAa?$AAy?$AA?$AA@ 10052a38     LIBCMT:nlsdata.obj
 0002:0000fa48       ??_C@_1O@MMNBFLIA@?$AAM?$AAo?$AAn?$AAd?$AAa?$AAy?$AA?$AA@ 10052a48     LIBCMT:nlsdata.obj
 0002:0000fa58       ??_C@_1BA@ENFBFFEK@?$AAT?$AAu?$AAe?$AAs?$AAd?$AAa?$AAy?$AA?$AA@ 10052a58     LIBCMT:nlsdata.obj
 0002:0000fa68       ??_C@_1BE@EBOGMDOH@?$AAW?$AAe?$AAd?$AAn?$AAe?$AAs?$AAd?$AAa?$AAy?$AA?$AA@ 10052a68     LIBCMT:nlsdata.obj
 0002:0000fa7c       ??_C@_1BC@HHMNLIHE@?$AAT?$AAh?$AAu?$AAr?$AAs?$AAd?$AAa?$AAy?$AA?$AA@ 10052a7c     LIBCMT:nlsdata.obj
 0002:0000fa90       ??_C@_1O@PDICJHAG@?$AAF?$AAr?$AAi?$AAd?$AAa?$AAy?$AA?$AA@ 10052a90     LIBCMT:nlsdata.obj
 0002:0000faa0       ??_C@_1BC@ENMNNPAJ@?$AAS?$AAa?$AAt?$AAu?$AAr?$AAd?$AAa?$AAy?$AA?$AA@ 10052aa0     LIBCMT:nlsdata.obj
 0002:0000fab4       ??_C@_17DKNBKCHM@?$AAJ?$AAa?$AAn?$AA?$AA@ 10052ab4     LIBCMT:nlsdata.obj
 0002:0000fabc       ??_C@_17LMDJEKJN@?$AAF?$AAe?$AAb?$AA?$AA@ 10052abc     LIBCMT:nlsdata.obj
 0002:0000fac4       ??_C@_17CKNLEDEC@?$AAM?$AAa?$AAr?$AA?$AA@ 10052ac4     LIBCMT:nlsdata.obj
 0002:0000facc       ??_C@_17LFPOIHDD@?$AAA?$AAp?$AAr?$AA?$AA@ 10052acc     LIBCMT:nlsdata.obj
 0002:0000fad4       ??_C@_17PNNKMEED@?$AAM?$AAa?$AAy?$AA?$AA@ 10052ad4     LIBCMT:nlsdata.obj
 0002:0000fadc       ??_C@_17KCJGOCPB@?$AAJ?$AAu?$AAn?$AA?$AA@ 10052adc     LIBCMT:nlsdata.obj
 0002:0000fae4       ??_C@_17IJPCKHK@?$AAJ?$AAu?$AAl?$AA?$AA@ 10052ae4     LIBCMT:nlsdata.obj
 0002:0000faec       ??_C@_17ICPELBCN@?$AAA?$AAu?$AAg?$AA?$AA@ 10052aec     LIBCMT:nlsdata.obj
 0002:0000faf4       ??_C@_17HCHCOKMG@?$AAS?$AAe?$AAp?$AA?$AA@ 10052af4     LIBCMT:nlsdata.obj
 0002:0000fafc       ??_C@_17FNLKOI@?$AAO?$AAc?$AAt?$AA?$AA@ 10052afc     LIBCMT:nlsdata.obj
 0002:0000fb04       ??_C@_17BBDMLCIG@?$AAN?$AAo?$AAv?$AA?$AA@ 10052b04     LIBCMT:nlsdata.obj
 0002:0000fb0c       ??_C@_17EGKACKIF@?$AAD?$AAe?$AAc?$AA?$AA@ 10052b0c     LIBCMT:nlsdata.obj
 0002:0000fb14       ??_C@_1BA@EFMEIEBA@?$AAJ?$AAa?$AAn?$AAu?$AAa?$AAr?$AAy?$AA?$AA@ 10052b14     LIBCMT:nlsdata.obj
 0002:0000fb24       ??_C@_1BC@JGDDFFAM@?$AAF?$AAe?$AAb?$AAr?$AAu?$AAa?$AAr?$AAy?$AA?$AA@ 10052b24     LIBCMT:nlsdata.obj
 0002:0000fb38       ??_C@_1M@IKEENEDF@?$AAM?$AAa?$AAr?$AAc?$AAh?$AA?$AA@ 10052b38     LIBCMT:nlsdata.obj
 0002:0000fb44       ??_C@_1M@GJNLMHFD@?$AAA?$AAp?$AAr?$AAi?$AAl?$AA?$AA@ 10052b44     LIBCMT:nlsdata.obj
 0002:0000fb50       ??_C@_19EPFLPGAP@?$AAJ?$AAu?$AAn?$AAe?$AA?$AA@ 10052b50     LIBCMT:nlsdata.obj
 0002:0000fb5c       ??_C@_19BIFMLPCD@?$AAJ?$AAu?$AAl?$AAy?$AA?$AA@ 10052b5c     LIBCMT:nlsdata.obj
 0002:0000fb68       ??_C@_1O@PAHLKOAC@?$AAA?$AAu?$AAg?$AAu?$AAs?$AAt?$AA?$AA@ 10052b68     LIBCMT:nlsdata.obj
 0002:0000fb78       ??_C@_1BE@DKAAMBJL@?$AAS?$AAe?$AAp?$AAt?$AAe?$AAm?$AAb?$AAe?$AAr?$AA?$AA@ 10052b78     LIBCMT:nlsdata.obj
 0002:0000fb8c       ??_C@_1BA@EPANDLNG@?$AAO?$AAc?$AAt?$AAo?$AAb?$AAe?$AAr?$AA?$AA@ 10052b8c     LIBCMT:nlsdata.obj
 0002:0000fb9c       ??_C@_1BC@BGLIFPF@?$AAN?$AAo?$AAv?$AAe?$AAm?$AAb?$AAe?$AAr?$AA?$AA@ 10052b9c     LIBCMT:nlsdata.obj
 0002:0000fbb0       ??_C@_1BC@FEMKIFH@?$AAD?$AAe?$AAc?$AAe?$AAm?$AAb?$AAe?$AAr?$AA?$AA@ 10052bb0     LIBCMT:nlsdata.obj
 0002:0000fbc4       ??_C@_15ODEHAHHF@?$AAA?$AAM?$AA?$AA@ 10052bc4     LIBCMT:nlsdata.obj
 0002:0000fbcc       ??_C@_15CLMNNGEL@?$AAP?$AAM?$AA?$AA@ 10052bcc     LIBCMT:nlsdata.obj
 0002:0000fbd4       ??_C@_1BC@IEBCMHCM@?$AAM?$AAM?$AA?1?$AAd?$AAd?$AA?1?$AAy?$AAy?$AA?$AA@ 10052bd4     LIBCMT:nlsdata.obj
 0002:0000fbe8       ??_C@_1CI@KNAKOEBC@?$AAd?$AAd?$AAd?$AAd?$AA?0?$AA?5?$AAM?$AAM?$AAM?$AAM?$AA?5?$AAd?$AAd?$AA?0?$AA?5?$AAy?$AAy?$AAy?$AAy?$AA?$AA@ 10052be8     LIBCMT:nlsdata.obj
 0002:0000fc10       ??_C@_1BC@GDGBMEMK@?$AAH?$AAH?$AA?3?$AAm?$AAm?$AA?3?$AAs?$AAs?$AA?$AA@ 10052c10     LIBCMT:nlsdata.obj
 0002:0000fc24       ??_C@_1M@BMHNFIME@?$AAe?$AAn?$AA?9?$AAU?$AAS?$AA?$AA@ 10052c24     LIBCMT:nlsdata.obj
 0002:000104e0       __indefinite               100534e0     LIBCMT:87disp.obj
 0002:000104ea       __piby2                    100534ea     LIBCMT:87disp.obj
 0002:00010518       __DEFAULT_CW_in_mem        10053518     LIBCMT:common.obj
 0002:0001051a       __pi_by_2_to_61            1005351a     LIBCMT:common.obj
 0002:00010e00       _LcidToLocaleNameTable     10053e00     LIBCMT:winapinls.obj
 0002:00011520       _LocaleNameToIndexTable    10054520     LIBCMT:winapinls.obj
 0002:00011c40       ??_C@_15EMKDOKLE@?$AAa?$AAr?$AA?$AA@ 10054c40     LIBCMT:winapinls.obj
 0002:00011c48       ??_C@_15KNPADPLH@?$AAb?$AAg?$AA?$AA@ 10054c48     LIBCMT:winapinls.obj
 0002:00011c50       ??_C@_15EDMHLDMO@?$AAc?$AAa?$AA?$AA@ 10054c50     LIBCMT:winapinls.obj
 0002:00011c58       ??_C@_1O@BPEAJADD@?$AAz?$AAh?$AA?9?$AAC?$AAH?$AAS?$AA?$AA@ 10054c58     LIBCMT:winapinls.obj
 0002:00011c68       ??_C@_15LJNHCMNK@?$AAc?$AAs?$AA?$AA@ 10054c68     LIBCMT:winapinls.obj
 0002:00011c70       ??_C@_15FOMCIDHG@?$AAd?$AAa?$AA?$AA@ 10054c70     LIBCMT:winapinls.obj
 0002:00011c78       ??_C@_15NBKABECB@?$AAd?$AAe?$AA?$AA@ 10054c78     LIBCMT:winapinls.obj
 0002:00011c80       ??_C@_15GHPEIIAO@?$AAe?$AAl?$AA?$AA@ 10054c80     LIBCMT:winapinls.obj
 0002:00011c88       ??_C@_15MNPNEAIF@?$AAe?$AAn?$AA?$AA@ 10054c88     LIBCMT:winapinls.obj
 0002:00011c90       ??_C@_15GPIOMPMH@?$AAe?$AAs?$AA?$AA@ 10054c90     LIBCMT:winapinls.obj
 0002:00011c98       ??_C@_15NGLOAKJC@?$AAf?$AAi?$AA?$AA@ 10054c98     LIBCMT:winapinls.obj
 0002:00011ca0       ??_C@_15FBKGNKAM@?$AAf?$AAr?$AA?$AA@ 10054ca0     LIBCMT:winapinls.obj
 0002:00011ca8       ??_C@_15KGGCNEFK@?$AAh?$AAe?$AA?$AA@ 10054ca8     LIBCMT:winapinls.obj
 0002:00011cb0       ??_C@_15PGHLIDMF@?$AAh?$AAu?$AA?$AA@ 10054cb0     LIBCMT:winapinls.obj
 0002:00011cb8       ??_C@_15BIEMAPLM@?$AAi?$AAs?$AA?$AA@ 10054cb8     LIBCMT:winapinls.obj
 0002:00011cc0       ??_C@_15IFJLDHAF@?$AAi?$AAt?$AA?$AA@ 10054cc0     LIBCMT:winapinls.obj
 0002:00011cc8       ??_C@_15GEMIOCAG@?$AAj?$AAa?$AA?$AA@ 10054cc8     LIBCMT:winapinls.obj
 0002:00011cd0       ??_C@_15EPELEGJA@?$AAk?$AAo?$AA?$AA@ 10054cd0     LIBCMT:winapinls.obj
 0002:00011cd8       ??_C@_15NDDHIMN@?$AAn?$AAl?$AA?$AA@ 10054cd8     LIBCMT:winapinls.obj
 0002:00011ce0       ??_C@_15BPIGNHCD@?$AAn?$AAo?$AA?$AA@ 10054ce0     LIBCMT:winapinls.obj
 0002:00011ce8       ??_C@_15DEOPBLCG@?$AAp?$AAl?$AA?$AA@ 10054ce8     LIBCMT:winapinls.obj
 0002:00011cf0       ??_C@_15KBECGEFG@?$AAp?$AAt?$AA?$AA@ 10054cf0     LIBCMT:winapinls.obj
 0002:00011cf8       ??_C@_15GLJCBFMD@?$AAr?$AAo?$AA?$AA@ 10054cf8     LIBCMT:winapinls.obj
 0002:00011d00       ??_C@_15FEDGKCDI@?$AAr?$AAu?$AA?$AA@ 10054d00     LIBCMT:winapinls.obj
 0002:00011d08       ??_C@_15GLKMLLHM@?$AAh?$AAr?$AA?$AA@ 10054d08     LIBCMT:winapinls.obj
 0002:00011d10       ??_C@_15CPKMFBDB@?$AAs?$AAk?$AA?$AA@ 10054d10     LIBCMT:winapinls.obj
 0002:00011d18       ??_C@_15BAAIOGMK@?$AAs?$AAq?$AA?$AA@ 10054d18     LIBCMT:winapinls.obj
 0002:00011d20       ??_C@_15INNPNOHD@?$AAs?$AAv?$AA?$AA@ 10054d20     LIBCMT:winapinls.obj
 0002:00011d28       ??_C@_15CABMMOGH@?$AAt?$AAh?$AA?$AA@ 10054d28     LIBCMT:winapinls.obj
 0002:00011d30       ??_C@_15BPLIHJJM@?$AAt?$AAr?$AA?$AA@ 10054d30     LIBCMT:winapinls.obj
 0002:00011d38       ??_C@_15NEOEKKDJ@?$AAu?$AAr?$AA?$AA@ 10054d38     LIBCMT:winapinls.obj
 0002:00011d40       ??_C@_15NFICGAJK@?$AAi?$AAd?$AA?$AA@ 10054d40     LIBCMT:winapinls.obj
 0002:00011d48       ??_C@_15PJPFLCCM@?$AAu?$AAk?$AA?$AA@ 10054d48     LIBCMT:winapinls.obj
 0002:00011d50       ??_C@_15HPJPHDM@?$AAb?$AAe?$AA?$AA@ 10054d50     LIBCMT:winapinls.obj
 0002:00011d58       ??_C@_15LCHLGJII@?$AAs?$AAl?$AA?$AA@ 10054d58     LIBCMT:winapinls.obj
 0002:00011d60       ??_C@_15PCFJPHHO@?$AAe?$AAt?$AA?$AA@ 10054d60     LIBCMT:winapinls.obj
 0002:00011d68       ??_C@_15HPFPGODN@?$AAl?$AAv?$AA?$AA@ 10054d68     LIBCMT:winapinls.obj
 0002:00011d70       ??_C@_15NFFGKGLG@?$AAl?$AAt?$AA?$AA@ 10054d70     LIBCMT:winapinls.obj
 0002:00011d78       ??_C@_15BDAKCCHN@?$AAf?$AAa?$AA?$AA@ 10054d78     LIBCMT:winapinls.obj
 0002:00011d80       ??_C@_15NFGIAIAJ@?$AAv?$AAi?$AA?$AA@ 10054d80     LIBCMT:winapinls.obj
 0002:00011d88       ??_C@_15LMKNDMHN@?$AAh?$AAy?$AA?$AA@ 10054d88     LIBCMT:winapinls.obj
 0002:00011d90       ??_C@_15IJBHMCFL@?$AAa?$AAz?$AA?$AA@ 10054d90     LIBCMT:winapinls.obj
 0002:00011d98       ??_C@_15EKOFJABL@?$AAe?$AAu?$AA?$AA@ 10054d98     LIBCMT:winapinls.obj
 0002:00011da0       ??_C@_15BGHADCNK@?$AAm?$AAk?$AA?$AA@ 10054da0     LIBCMT:winapinls.obj
 0002:00011da8       ??_C@_15JDNICKHM@?$AAa?$AAf?$AA?$AA@ 10054da8     LIBCMT:winapinls.obj
 0002:00011db0       ??_C@_15KPJEDBKD@?$AAk?$AAa?$AA?$AA@ 10054db0     LIBCMT:winapinls.obj
 0002:00011db8       ??_C@_15PDNFFFEO@?$AAf?$AAo?$AA?$AA@ 10054db8     LIBCMT:winapinls.obj
 0002:00011dc0       ??_C@_15OMLEGLOC@?$AAh?$AAi?$AA?$AA@ 10054dc0     LIBCMT:winapinls.obj
 0002:00011dc8       ??_C@_15IDNNENKK@?$AAm?$AAs?$AA?$AA@ 10054dc8     LIBCMT:winapinls.obj
 0002:00011dd0       ??_C@_15MACJNBMH@?$AAk?$AAk?$AA?$AA@ 10054dd0     LIBCMT:winapinls.obj
 0002:00011dd8       ??_C@_15DKDJEOND@?$AAk?$AAy?$AA?$AA@ 10054dd8     LIBCMT:winapinls.obj
 0002:00011de0       ??_C@_15DFGDLJBG@?$AAs?$AAw?$AA?$AA@ 10054de0     LIBCMT:winapinls.obj
 0002:00011de8       ??_C@_15BBFAICNG@?$AAu?$AAz?$AA?$AA@ 10054de8     LIBCMT:winapinls.obj
 0002:00011df0       ??_C@_15DKNDCGEA@?$AAt?$AAt?$AA?$AA@ 10054df0     LIBCMT:winapinls.obj
 0002:00011df8       ??_C@_15MGIFMDPL@?$AAp?$AAa?$AA?$AA@ 10054df8     LIBCMT:winapinls.obj
 0002:00011e00       ??_C@_15HCNDBBA@?$AAg?$AAu?$AA?$AA@ 10054e00     LIBCMT:winapinls.obj
 0002:00011e08       ??_C@_15FNBEIBON@?$AAt?$AAa?$AA?$AA@ 10054e08     LIBCMT:winapinls.obj
 0002:00011e10       ??_C@_15NCHGBGLK@?$AAt?$AAe?$AA?$AA@ 10054e10     LIBCMT:winapinls.obj
 0002:00011e18       ??_C@_15PHPHCBPF@?$AAk?$AAn?$AA?$AA@ 10054e18     LIBCMT:winapinls.obj
 0002:00011e20       ??_C@_15DLGBCKMP@?$AAm?$AAr?$AA?$AA@ 10054e20     LIBCMT:winapinls.obj
 0002:00011e28       ??_C@_15EABBLBFF@?$AAs?$AAa?$AA?$AA@ 10054e28     LIBCMT:winapinls.obj
 0002:00011e30       ??_C@_15CBKOMCOI@?$AAm?$AAn?$AA?$AA@ 10054e30     LIBCMT:winapinls.obj
 0002:00011e38       ??_C@_15CKDMCJAF@?$AAg?$AAl?$AA?$AA@ 10054e38     LIBCMT:winapinls.obj
 0002:00011e40       ??_C@_17CNJFBPG@?$AAk?$AAo?$AAk?$AA?$AA@ 10054e40     LIBCMT:winapinls.obj
 0002:00011e48       ??_C@_17FFBJICPL@?$AAs?$AAy?$AAr?$AA?$AA@ 10054e48     LIBCMT:winapinls.obj
 0002:00011e50       ??_C@_17KPNDCPAF@?$AAd?$AAi?$AAv?$AA?$AA@ 10054e50     LIBCMT:winapinls.obj
 0002:00011e58       ??_C@_11LOCGONAA@?$AA?$AA@ 10054e58     LIBCMT:winapinls.obj
 0002:00011e5c       ??_C@_1M@OKAHONE@?$AAa?$AAr?$AA?9?$AAS?$AAA?$AA?$AA@ 10054e5c     LIBCMT:winapinls.obj
 0002:00011e68       ??_C@_1M@FFFIGIGK@?$AAb?$AAg?$AA?9?$AAB?$AAG?$AA?$AA@ 10054e68     LIBCMT:winapinls.obj
 0002:00011e74       ??_C@_1M@BJNKEDC@?$AAc?$AAa?$AA?9?$AAE?$AAS?$AA?$AA@ 10054e74     LIBCMT:winapinls.obj
 0002:00011e80       ??_C@_1M@IJJHFJHA@?$AAc?$AAs?$AA?9?$AAC?$AAZ?$AA?$AA@ 10054e80     LIBCMT:winapinls.obj
 0002:00011e8c       ??_C@_1M@CLPEOBGI@?$AAd?$AAa?$AA?9?$AAD?$AAK?$AA?$AA@ 10054e8c     LIBCMT:winapinls.obj
 0002:00011e98       ??_C@_1M@MCMADGCB@?$AAd?$AAe?$AA?9?$AAD?$AAE?$AA?$AA@ 10054e98     LIBCMT:winapinls.obj
 0002:00011ea4       ??_C@_1M@OOCKEMAM@?$AAe?$AAl?$AA?9?$AAG?$AAR?$AA?$AA@ 10054ea4     LIBCMT:winapinls.obj
 0002:00011eb0       ??_C@_1M@DDNJFGID@?$AAf?$AAi?$AA?9?$AAF?$AAI?$AA?$AA@ 10054eb0     LIBCMT:winapinls.obj
 0002:00011ebc       ??_C@_1M@GLIPPMAC@?$AAf?$AAr?$AA?9?$AAF?$AAR?$AA?$AA@ 10054ebc     LIBCMT:winapinls.obj
 0002:00011ec8       ??_C@_1M@GFMCHPE@?$AAh?$AAe?$AA?9?$AAI?$AAL?$AA?$AA@ 10054ec8     LIBCMT:winapinls.obj
 0002:00011ed4       ??_C@_1M@MHLPGNKM@?$AAh?$AAu?$AA?9?$AAH?$AAU?$AA?$AA@ 10054ed4     LIBCMT:winapinls.obj
 0002:00011ee0       ??_C@_1M@LPDDNNPN@?$AAi?$AAs?$AA?9?$AAI?$AAS?$AA?$AA@ 10054ee0     LIBCMT:winapinls.obj
 0002:00011eec       ??_C@_1M@MADIPODN@?$AAi?$AAt?$AA?9?$AAI?$AAT?$AA?$AA@ 10054eec     LIBCMT:winapinls.obj
 0002:00011ef8       ??_C@_1M@IHBJJGG@?$AAn?$AAl?$AA?9?$AAN?$AAL?$AA?$AA@ 10054ef8     LIBCMT:winapinls.obj
 0002:00011f04       ??_C@_1M@EANAGDL@?$AAn?$AAb?$AA?9?$AAN?$AAO?$AA?$AA@ 10054f04     LIBCMT:winapinls.obj
 0002:00011f10       ??_C@_1M@NEIEMEGP@?$AAp?$AAl?$AA?9?$AAP?$AAL?$AA?$AA@ 10054f10     LIBCMT:winapinls.obj
 0002:00011f1c       ??_C@_1M@BOCFIGEP@?$AAp?$AAt?$AA?9?$AAB?$AAR?$AA?$AA@ 10054f1c     LIBCMT:winapinls.obj
 0002:00011f28       ??_C@_1M@IMPFOPBG@?$AAr?$AAo?$AA?9?$AAR?$AAO?$AA?$AA@ 10054f28     LIBCMT:winapinls.obj
 0002:00011f34       ??_C@_1M@IDNNEJMM@?$AAr?$AAu?$AA?9?$AAR?$AAU?$AA?$AA@ 10054f34     LIBCMT:winapinls.obj
 0002:00011f40       ??_C@_1M@LILEEOGM@?$AAh?$AAr?$AA?9?$AAH?$AAR?$AA?$AA@ 10054f40     LIBCMT:winapinls.obj
 0002:00011f4c       ??_C@_1M@FKIFEHPB@?$AAs?$AAk?$AA?9?$AAS?$AAK?$AA?$AA@ 10054f4c     LIBCMT:winapinls.obj
 0002:00011f58       ??_C@_1M@LJMAMNPJ@?$AAs?$AAq?$AA?9?$AAA?$AAL?$AA?$AA@ 10054f58     LIBCMT:winapinls.obj
 0002:00011f64       ??_C@_1M@GIAKDKJK@?$AAs?$AAv?$AA?9?$AAS?$AAE?$AA?$AA@ 10054f64     LIBCMT:winapinls.obj
 0002:00011f70       ??_C@_1M@MKJKIKCL@?$AAt?$AAh?$AA?9?$AAT?$AAH?$AA?$AA@ 10054f70     LIBCMT:winapinls.obj
 0002:00011f7c       ??_C@_1M@MFLCCMPB@?$AAt?$AAr?$AA?9?$AAT?$AAR?$AA?$AA@ 10054f7c     LIBCMT:winapinls.obj
 0002:00011f88       ??_C@_1M@OIJHDKJN@?$AAu?$AAr?$AA?9?$AAP?$AAK?$AA?$AA@ 10054f88     LIBCMT:winapinls.obj
 0002:00011f94       ??_C@_1M@LHIPCIEK@?$AAi?$AAd?$AA?9?$AAI?$AAD?$AA?$AA@ 10054f94     LIBCMT:winapinls.obj
 0002:00011fa0       ??_C@_1M@MFMOBGI@?$AAu?$AAk?$AA?9?$AAU?$AAA?$AA?$AA@ 10054fa0     LIBCMT:winapinls.obj
 0002:00011fac       ??_C@_1M@OBGLJIPL@?$AAb?$AAe?$AA?9?$AAB?$AAY?$AA?$AA@ 10054fac     LIBCMT:winapinls.obj
 0002:00011fb8       ??_C@_1M@BCFAJEAD@?$AAs?$AAl?$AA?9?$AAS?$AAI?$AA?$AA@ 10054fb8     LIBCMT:winapinls.obj
 0002:00011fc4       ??_C@_1M@FKFFEDDN@?$AAe?$AAt?$AA?9?$AAE?$AAE?$AA?$AA@ 10054fc4     LIBCMT:winapinls.obj
 0002:00011fd0       ??_C@_1M@KGKKAACI@?$AAl?$AAv?$AA?9?$AAL?$AAV?$AA?$AA@ 10054fd0     LIBCMT:winapinls.obj
 0002:00011fdc       ??_C@_1M@IFGBIJO@?$AAl?$AAt?$AA?9?$AAL?$AAT?$AA?$AA@ 10054fdc     LIBCMT:winapinls.obj
 0002:00011fe8       ??_C@_1M@FGEAHEDM@?$AAf?$AAa?$AA?9?$AAI?$AAR?$AA?$AA@ 10054fe8     LIBCMT:winapinls.obj
 0002:00011ff4       ??_C@_1M@KBMAIBFN@?$AAv?$AAi?$AA?9?$AAV?$AAN?$AA?$AA@ 10054ff4     LIBCMT:winapinls.obj
 0002:00012000       ??_C@_1M@GPCBKDJK@?$AAh?$AAy?$AA?9?$AAA?$AAM?$AA?$AA@ 10055000     LIBCMT:winapinls.obj
 0002:0001200c       ??_C@_1BG@BECMDDJB@?$AAa?$AAz?$AA?9?$AAA?$AAZ?$AA?9?$AAL?$AAa?$AAt?$AAn?$AA?$AA@ 1005500c     LIBCMT:winapinls.obj
 0002:00012024       ??_C@_1M@MAOFCAEA@?$AAe?$AAu?$AA?9?$AAE?$AAS?$AA?$AA@ 10055024     LIBCMT:winapinls.obj
 0002:00012030       ??_C@_1M@IGHABKPI@?$AAm?$AAk?$AA?9?$AAM?$AAK?$AA?$AA@ 10055030     LIBCMT:winapinls.obj
 0002:0001203c       ??_C@_1M@IAIGNEJG@?$AAt?$AAn?$AA?9?$AAZ?$AAA?$AA?$AA@ 1005503c     LIBCMT:winapinls.obj
 0002:00012048       ??_C@_1M@IIJCOJFA@?$AAx?$AAh?$AA?9?$AAZ?$AAA?$AA?$AA@ 10055048     LIBCMT:winapinls.obj
 0002:00012054       ??_C@_1M@LGPJHNJH@?$AAz?$AAu?$AA?9?$AAZ?$AAA?$AA?$AA@ 10055054     LIBCMT:winapinls.obj
 0002:00012060       ??_C@_1M@HOKAOIO@?$AAa?$AAf?$AA?9?$AAZ?$AAA?$AA?$AA@ 10055060     LIBCMT:winapinls.obj
 0002:0001206c       ??_C@_1M@DPCLHLIE@?$AAk?$AAa?$AA?9?$AAG?$AAE?$AA?$AA@ 1005506c     LIBCMT:winapinls.obj
 0002:00012078       ??_C@_1M@BLKMHJBI@?$AAf?$AAo?$AA?9?$AAF?$AAO?$AA?$AA@ 10055078     LIBCMT:winapinls.obj
 0002:00012084       ??_C@_1M@LGGJAPPB@?$AAh?$AAi?$AA?9?$AAI?$AAN?$AA?$AA@ 10055084     LIBCMT:winapinls.obj
 0002:00012090       ??_C@_1M@FIKPIHFE@?$AAm?$AAt?$AA?9?$AAM?$AAT?$AA?$AA@ 10055090     LIBCMT:winapinls.obj
 0002:0001209c       ??_C@_1M@HEGGPBFA@?$AAs?$AAe?$AA?9?$AAN?$AAO?$AA?$AA@ 1005509c     LIBCMT:winapinls.obj
 0002:000120a8       ??_C@_1M@EIBJEEPA@?$AAm?$AAs?$AA?9?$AAM?$AAY?$AA?$AA@ 100550a8     LIBCMT:winapinls.obj
 0002:000120b4       ??_C@_1M@FHLBGMPP@?$AAk?$AAk?$AA?9?$AAK?$AAZ?$AA?$AA@ 100550b4     LIBCMT:winapinls.obj
 0002:000120c0       ??_C@_1M@NGJJLCGI@?$AAk?$AAy?$AA?9?$AAK?$AAG?$AA?$AA@ 100550c0     LIBCMT:winapinls.obj
 0002:000120cc       ??_C@_1M@GIENNBFC@?$AAs?$AAw?$AA?9?$AAK?$AAE?$AA?$AA@ 100550cc     LIBCMT:winapinls.obj
 0002:000120d8       ??_C@_1BG@NDGMJIMJ@?$AAu?$AAz?$AA?9?$AAU?$AAZ?$AA?9?$AAL?$AAa?$AAt?$AAn?$AA?$AA@ 100550d8     LIBCMT:winapinls.obj
 0002:000120f0       ??_C@_1M@IDCCIHBC@?$AAt?$AAt?$AA?9?$AAR?$AAU?$AA?$AA@ 100550f0     LIBCMT:winapinls.obj
 0002:000120fc       ??_C@_1M@LOICPMOJ@?$AAb?$AAn?$AA?9?$AAI?$AAN?$AA?$AA@ 100550fc     LIBCMT:winapinls.obj
 0002:00012108       ??_C@_1M@KPKKNEAH@?$AAp?$AAa?$AA?9?$AAI?$AAN?$AA?$AA@ 10055108     LIBCMT:winapinls.obj
 0002:00012114       ??_C@_1M@PJGPPBOG@?$AAg?$AAu?$AA?9?$AAI?$AAN?$AA?$AA@ 10055114     LIBCMT:winapinls.obj
 0002:00012120       ??_C@_1M@KMKMOPHI@?$AAt?$AAa?$AA?9?$AAI?$AAN?$AA?$AA@ 10055120     LIBCMT:winapinls.obj
 0002:0001212c       ??_C@_1M@KFEHEPAC@?$AAt?$AAe?$AA?9?$AAI?$AAN?$AA?$AA@ 1005512c     LIBCMT:winapinls.obj
 0002:00012138       ??_C@_1M@CDCLMGHI@?$AAk?$AAn?$AA?9?$AAI?$AAN?$AA?$AA@ 10055138     LIBCMT:winapinls.obj
 0002:00012144       ??_C@_1M@MIODLDKF@?$AAm?$AAl?$AA?9?$AAI?$AAN?$AA?$AA@ 10055144     LIBCMT:winapinls.obj
 0002:00012150       ??_C@_1M@PBIEACPO@?$AAm?$AAr?$AA?9?$AAI?$AAN?$AA?$AA@ 10055150     LIBCMT:winapinls.obj
 0002:0001215c       ??_C@_1M@NIDEAGPH@?$AAs?$AAa?$AA?9?$AAI?$AAN?$AA?$AA@ 1005515c     LIBCMT:winapinls.obj
 0002:00012168       ??_C@_1M@FHIHCBIO@?$AAm?$AAn?$AA?9?$AAM?$AAN?$AA?$AA@ 10055168     LIBCMT:winapinls.obj
 0002:00012174       ??_C@_1M@JAIJPENP@?$AAc?$AAy?$AA?9?$AAG?$AAB?$AA?$AA@ 10055174     LIBCMT:winapinls.obj
 0002:00012180       ??_C@_1M@PHGFBEPN@?$AAg?$AAl?$AA?9?$AAE?$AAS?$AA?$AA@ 10055180     LIBCMT:winapinls.obj
 0002:0001218c       ??_C@_1O@KPIPDNCP@?$AAk?$AAo?$AAk?$AA?9?$AAI?$AAN?$AA?$AA@ 1005518c     LIBCMT:winapinls.obj
 0002:0001219c       ??_C@_1O@KNHJLDJA@?$AAs?$AAy?$AAr?$AA?9?$AAS?$AAY?$AA?$AA@ 1005519c     LIBCMT:winapinls.obj
 0002:000121ac       ??_C@_1O@MKEKBLAH@?$AAd?$AAi?$AAv?$AA?9?$AAM?$AAV?$AA?$AA@ 100551ac     LIBCMT:winapinls.obj
 0002:000121bc       ??_C@_1O@OHDCKDDF@?$AAq?$AAu?$AAz?$AA?9?$AAB?$AAO?$AA?$AA@ 100551bc     LIBCMT:winapinls.obj
 0002:000121cc       ??_C@_1M@LEPJNLFD@?$AAn?$AAs?$AA?9?$AAZ?$AAA?$AA?$AA@ 100551cc     LIBCMT:winapinls.obj
 0002:000121d8       ??_C@_1M@OMLEIIJB@?$AAm?$AAi?$AA?9?$AAN?$AAZ?$AA?$AA@ 100551d8     LIBCMT:winapinls.obj
 0002:000121e4       ??_C@_1M@PMPEAILG@?$AAa?$AAr?$AA?9?$AAI?$AAQ?$AA?$AA@ 100551e4     LIBCMT:winapinls.obj
 0002:000121f0       ??_C@_1M@CNKPNOEE@?$AAd?$AAe?$AA?9?$AAC?$AAH?$AA?$AA@ 100551f0     LIBCMT:winapinls.obj
 0002:000121fc       ??_C@_1M@LKMGMLKO@?$AAe?$AAn?$AA?9?$AAG?$AAB?$AA?$AA@ 100551fc     LIBCMT:winapinls.obj
 0002:00012208       ??_C@_1M@PGKJFFGL@?$AAe?$AAs?$AA?9?$AAM?$AAX?$AA?$AA@ 10055208     LIBCMT:winapinls.obj
 0002:00012214       ??_C@_1M@DNNANBDC@?$AAf?$AAr?$AA?9?$AAB?$AAE?$AA?$AA@ 10055214     LIBCMT:winapinls.obj
 0002:00012220       ??_C@_1M@HLGMDFHM@?$AAi?$AAt?$AA?9?$AAC?$AAH?$AA?$AA@ 10055220     LIBCMT:winapinls.obj
 0002:0001222c       ??_C@_1M@CLLBGJH@?$AAn?$AAl?$AA?9?$AAB?$AAE?$AA?$AA@ 1005522c     LIBCMT:winapinls.obj
 0002:00012238       ??_C@_1M@BODBOGLF@?$AAn?$AAn?$AA?9?$AAN?$AAO?$AA?$AA@ 10055238     LIBCMT:winapinls.obj
 0002:00012244       ??_C@_1M@HFFAHKAD@?$AAp?$AAt?$AA?9?$AAP?$AAT?$AA?$AA@ 10055244     LIBCMT:winapinls.obj
 0002:00012250       ??_C@_1BG@LNOAKHIE@?$AAs?$AAr?$AA?9?$AAS?$AAP?$AA?9?$AAL?$AAa?$AAt?$AAn?$AA?$AA@ 10055250     LIBCMT:winapinls.obj
 0002:00012268       ??_C@_1M@HBMHBGAK@?$AAs?$AAv?$AA?9?$AAF?$AAI?$AA?$AA@ 10055268     LIBCMT:winapinls.obj
 0002:00012274       ??_C@_1BG@DGCJGJBE@?$AAa?$AAz?$AA?9?$AAA?$AAZ?$AA?9?$AAC?$AAy?$AAr?$AAl?$AA?$AA@ 10055274     LIBCMT:winapinls.obj
 0002:0001228c       ??_C@_1M@KEJDAAHB@?$AAs?$AAe?$AA?9?$AAS?$AAE?$AA?$AA@ 1005528c     LIBCMT:winapinls.obj
 0002:00012298       ??_C@_1M@HEIBJJAD@?$AAm?$AAs?$AA?9?$AAB?$AAN?$AA?$AA@ 10055298     LIBCMT:winapinls.obj
 0002:000122a4       ??_C@_1BG@PBGJMCEM@?$AAu?$AAz?$AA?9?$AAU?$AAZ?$AA?9?$AAC?$AAy?$AAr?$AAl?$AA?$AA@ 100552a4     LIBCMT:winapinls.obj
 0002:000122bc       ??_C@_1O@LAOBCMDF@?$AAq?$AAu?$AAz?$AA?9?$AAE?$AAC?$AA?$AA@ 100552bc     LIBCMT:winapinls.obj
 0002:000122cc       ??_C@_1M@POEEMAIO@?$AAa?$AAr?$AA?9?$AAE?$AAG?$AA?$AA@ 100552cc     LIBCMT:winapinls.obj
 0002:000122d8       ??_C@_1M@EFAKDEDL@?$AAz?$AAh?$AA?9?$AAH?$AAK?$AA?$AA@ 100552d8     LIBCMT:winapinls.obj
 0002:000122e4       ??_C@_1M@HKKIJHGI@?$AAd?$AAe?$AA?9?$AAA?$AAT?$AA?$AA@ 100552e4     LIBCMT:winapinls.obj
 0002:000122f0       ??_C@_1M@KBFBEHJF@?$AAe?$AAn?$AA?9?$AAA?$AAU?$AA?$AA@ 100552f0     LIBCMT:winapinls.obj
 0002:000122fc       ??_C@_1M@MNPLFAAH@?$AAe?$AAs?$AA?9?$AAE?$AAS?$AA?$AA@ 100552fc     LIBCMT:winapinls.obj
 0002:00012308       ??_C@_1M@HJOOJFMA@?$AAf?$AAr?$AA?9?$AAC?$AAA?$AA?$AA@ 10055308     LIBCMT:winapinls.obj
 0002:00012314       ??_C@_1BG@JPOFPNAB@?$AAs?$AAr?$AA?9?$AAS?$AAP?$AA?9?$AAC?$AAy?$AAr?$AAl?$AA?$AA@ 10055314     LIBCMT:winapinls.obj
 0002:0001232c       ??_C@_1M@LNFOCMOB@?$AAs?$AAe?$AA?9?$AAF?$AAI?$AA?$AA@ 1005532c     LIBCMT:winapinls.obj
 0002:00012338       ??_C@_1O@MGJBOAMB@?$AAq?$AAu?$AAz?$AA?9?$AAP?$AAE?$AA?$AA@ 10055338     LIBCMT:winapinls.obj
 0002:00012348       ??_C@_1M@GJINLBOK@?$AAa?$AAr?$AA?9?$AAL?$AAY?$AA?$AA@ 10055348     LIBCMT:winapinls.obj
 0002:00012354       ??_C@_1M@GGMNHJNL@?$AAz?$AAh?$AA?9?$AAS?$AAG?$AA?$AA@ 10055354     LIBCMT:winapinls.obj
 0002:00012360       ??_C@_1M@HOIKODND@?$AAd?$AAe?$AA?9?$AAL?$AAU?$AA?$AA@ 10055360     LIBCMT:winapinls.obj
 0002:0001236c       ??_C@_1M@DDOCCGFG@?$AAe?$AAn?$AA?9?$AAC?$AAA?$AA?$AA@ 1005536c     LIBCMT:winapinls.obj
 0002:00012378       ??_C@_1M@BNOEMJLF@?$AAe?$AAs?$AA?9?$AAG?$AAT?$AA?$AA@ 10055378     LIBCMT:winapinls.obj
 0002:00012384       ??_C@_1M@EOGNKEK@?$AAf?$AAr?$AA?9?$AAC?$AAH?$AA?$AA@ 10055384     LIBCMT:winapinls.obj
 0002:00012390       ??_C@_1M@FLIDJFHL@?$AAh?$AAr?$AA?9?$AAB?$AAA?$AA?$AA@ 10055390     LIBCMT:winapinls.obj
 0002:0001239c       ??_C@_1O@FMCELNAJ@?$AAs?$AAm?$AAj?$AA?9?$AAN?$AAO?$AA?$AA@ 1005539c     LIBCMT:winapinls.obj
 0002:000123ac       ??_C@_1M@JHGLJMGJ@?$AAa?$AAr?$AA?9?$AAD?$AAZ?$AA?$AA@ 100553ac     LIBCMT:winapinls.obj
 0002:000123b8       ??_C@_1M@JKKFDCNP@?$AAz?$AAh?$AA?9?$AAM?$AAO?$AA?$AA@ 100553b8     LIBCMT:winapinls.obj
 0002:000123c4       ??_C@_1M@GEEFALPE@?$AAd?$AAe?$AA?9?$AAL?$AAI?$AA?$AA@ 100553c4     LIBCMT:winapinls.obj
 0002:000123d0       ??_C@_1M@IGEOFBG@?$AAe?$AAn?$AA?9?$AAN?$AAZ?$AA?$AA@ 100553d0     LIBCMT:winapinls.obj
 0002:000123dc       ??_C@_1M@KDBONEHP@?$AAe?$AAs?$AA?9?$AAC?$AAR?$AA?$AA@ 100553dc     LIBCMT:winapinls.obj
 0002:000123e8       ??_C@_1M@FHMDOHNN@?$AAf?$AAr?$AA?9?$AAL?$AAU?$AA?$AA@ 100553e8     LIBCMT:winapinls.obj
 0002:000123f4       ??_C@_1BG@NFKKMAFG@?$AAb?$AAs?$AA?9?$AAB?$AAA?$AA?9?$AAL?$AAa?$AAt?$AAn?$AA?$AA@ 100553f4     LIBCMT:winapinls.obj
 0002:0001240c       ??_C@_1O@IMNBEMCI@?$AAs?$AAm?$AAj?$AA?9?$AAS?$AAE?$AA?$AA@ 1005540c     LIBCMT:winapinls.obj
 0002:0001241c       ??_C@_1M@DHHMBNDP@?$AAa?$AAr?$AA?9?$AAM?$AAA?$AA?$AA@ 1005541c     LIBCMT:winapinls.obj
 0002:00012428       ??_C@_1M@BNBLJCGH@?$AAe?$AAn?$AA?9?$AAI?$AAE?$AA?$AA@ 10055428     LIBCMT:winapinls.obj
 0002:00012434       ??_C@_1M@GEPAFMDL@?$AAe?$AAs?$AA?9?$AAP?$AAA?$AA?$AA@ 10055434     LIBCMT:winapinls.obj
 0002:00012440       ??_C@_1M@OJONDMDL@?$AAf?$AAr?$AA?9?$AAM?$AAC?$AA?$AA@ 10055440     LIBCMT:winapinls.obj
 0002:0001244c       ??_C@_1BG@OBCNFJB@?$AAs?$AAr?$AA?9?$AAB?$AAA?$AA?9?$AAL?$AAa?$AAt?$AAn?$AA?$AA@ 1005544c     LIBCMT:winapinls.obj
 0002:00012464       ??_C@_1O@KEMEEGPO@?$AAs?$AAm?$AAa?$AA?9?$AAN?$AAO?$AA?$AA@ 10055464     LIBCMT:winapinls.obj
 0002:00012474       ??_C@_1M@ELMGFODK@?$AAa?$AAr?$AA?9?$AAT?$AAN?$AA?$AA@ 10055474     LIBCMT:winapinls.obj
 0002:00012480       ??_C@_1M@BHDLHFAF@?$AAe?$AAn?$AA?9?$AAZ?$AAA?$AA?$AA@ 10055480     LIBCMT:winapinls.obj
 0002:0001248c       ??_C@_1M@BMGIGLIF@?$AAe?$AAs?$AA?9?$AAD?$AAO?$AA?$AA@ 1005548c     LIBCMT:winapinls.obj
 0002:00012498       ??_C@_1BG@CMBHIPBE@?$AAs?$AAr?$AA?9?$AAB?$AAA?$AA?9?$AAC?$AAy?$AAr?$AAl?$AA?$AA@ 10055498     LIBCMT:winapinls.obj
 0002:000124b0       ??_C@_1O@HEDBLHNP@?$AAs?$AAm?$AAa?$AA?9?$AAS?$AAE?$AA?$AA@ 100554b0     LIBCMT:winapinls.obj
 0002:000124c0       ??_C@_1M@DAGCADIM@?$AAa?$AAr?$AA?9?$AAO?$AAM?$AA?$AA@ 100554c0     LIBCMT:winapinls.obj
 0002:000124cc       ??_C@_1M@FODLMICG@?$AAe?$AAn?$AA?9?$AAJ?$AAM?$AA?$AA@ 100554cc     LIBCMT:winapinls.obj
 0002:000124d8       ??_C@_1M@DNMLCIHB@?$AAe?$AAs?$AA?9?$AAV?$AAE?$AA?$AA@ 100554d8     LIBCMT:winapinls.obj
 0002:000124e4       ??_C@_1O@EOKHMKJK@?$AAs?$AAm?$AAs?$AA?9?$AAF?$AAI?$AA?$AA@ 100554e4     LIBCMT:winapinls.obj
 0002:000124f4       ??_C@_1M@CAFJMKOF@?$AAa?$AAr?$AA?9?$AAY?$AAE?$AA?$AA@ 100554f4     LIBCMT:winapinls.obj
 0002:00012500       ??_C@_1M@CBFHIJLI@?$AAe?$AAn?$AA?9?$AAC?$AAB?$AA?$AA@ 10055500     LIBCMT:winapinls.obj
 0002:0001250c       ??_C@_1M@BGNFLDN@?$AAe?$AAs?$AA?9?$AAC?$AAO?$AA?$AA@ 1005550c     LIBCMT:winapinls.obj
 0002:00012518       ??_C@_1O@JMPHMAMC@?$AAs?$AAm?$AAn?$AA?9?$AAF?$AAI?$AA?$AA@ 10055518     LIBCMT:winapinls.obj
 0002:00012528       ??_C@_1M@JLANABKE@?$AAa?$AAr?$AA?9?$AAS?$AAY?$AA?$AA@ 10055528     LIBCMT:winapinls.obj
 0002:00012534       ??_C@_1M@HPKGCFGN@?$AAe?$AAn?$AA?9?$AAB?$AAZ?$AA?$AA@ 10055534     LIBCMT:winapinls.obj
 0002:00012540       ??_C@_1M@OLJCMLGM@?$AAe?$AAs?$AA?9?$AAP?$AAE?$AA?$AA@ 10055540     LIBCMT:winapinls.obj
 0002:0001254c       ??_C@_1M@MKKGFKLE@?$AAa?$AAr?$AA?9?$AAJ?$AAO?$AA?$AA@ 1005554c     LIBCMT:winapinls.obj
 0002:00012558       ??_C@_1M@EKPGLDNI@?$AAe?$AAn?$AA?9?$AAT?$AAT?$AA?$AA@ 10055558     LIBCMT:winapinls.obj
 0002:00012564       ??_C@_1M@OONGHFHE@?$AAe?$AAs?$AA?9?$AAA?$AAR?$AA?$AA@ 10055564     LIBCMT:winapinls.obj
 0002:00012570       ??_C@_1M@OOJFGBHE@?$AAa?$AAr?$AA?9?$AAL?$AAB?$AA?$AA@ 10055570     LIBCMT:winapinls.obj
 0002:0001257c       ??_C@_1M@GCEJHNEG@?$AAe?$AAn?$AA?9?$AAZ?$AAW?$AA?$AA@ 1005557c     LIBCMT:winapinls.obj
 0002:00012588       ??_C@_1M@JNOCAHJI@?$AAe?$AAs?$AA?9?$AAE?$AAC?$AA?$AA@ 10055588     LIBCMT:winapinls.obj
 0002:00012594       ??_C@_1M@JEFHPGGB@?$AAa?$AAr?$AA?9?$AAK?$AAW?$AA?$AA@ 10055594     LIBCMT:winapinls.obj
 0002:000125a0       ??_C@_1M@MLKIBJOJ@?$AAe?$AAn?$AA?9?$AAP?$AAH?$AA?$AA@ 100555a0     LIBCMT:winapinls.obj
 0002:000125ac       ??_C@_1M@BDNIPEND@?$AAe?$AAs?$AA?9?$AAC?$AAL?$AA?$AA@ 100555ac     LIBCMT:winapinls.obj
 0002:000125b8       ??_C@_1M@MPNMEKBD@?$AAa?$AAr?$AA?9?$AAA?$AAE?$AA?$AA@ 100555b8     LIBCMT:winapinls.obj
 0002:000125c4       ??_C@_1M@KBJALCPI@?$AAe?$AAs?$AA?9?$AAU?$AAY?$AA?$AA@ 100555c4     LIBCMT:winapinls.obj
 0002:000125d0       ??_C@_1M@LLCCOAGA@?$AAa?$AAr?$AA?9?$AAB?$AAH?$AA?$AA@ 100555d0     LIBCMT:winapinls.obj
 0002:000125dc       ??_C@_1M@PBFNCDEL@?$AAe?$AAs?$AA?9?$AAP?$AAY?$AA?$AA@ 100555dc     LIBCMT:winapinls.obj
 0002:000125e8       ??_C@_1M@EDGINPNP@?$AAa?$AAr?$AA?9?$AAQ?$AAA?$AA?$AA@ 100555e8     LIBCMT:winapinls.obj
 0002:000125f4       ??_C@_1M@MKDBIIJI@?$AAe?$AAs?$AA?9?$AAB?$AAO?$AA?$AA@ 100555f4     LIBCMT:winapinls.obj
 0002:00012600       ??_C@_1M@CPKKEBLD@?$AAe?$AAs?$AA?9?$AAS?$AAV?$AA?$AA@ 10055600     LIBCMT:winapinls.obj
 0002:0001260c       ??_C@_1M@NDBGMMJL@?$AAe?$AAs?$AA?9?$AAH?$AAN?$AA?$AA@ 1005560c     LIBCMT:winapinls.obj
 0002:00012618       ??_C@_1M@JIJIBHDP@?$AAe?$AAs?$AA?9?$AAN?$AAI?$AA?$AA@ 10055618     LIBCMT:winapinls.obj
 0002:00012624       ??_C@_1M@CGFMKEEK@?$AAe?$AAs?$AA?9?$AAP?$AAR?$AA?$AA@ 10055624     LIBCMT:winapinls.obj
 0002:00012630       ??_C@_1O@ICJHKIIK@?$AAz?$AAh?$AA?9?$AAC?$AAH?$AAT?$AA?$AA@ 10055630     LIBCMT:winapinls.obj
 0002:00012640       ??_C@_15CLNEJCE@?$AAs?$AAr?$AA?$AA@ 10055640     LIBCMT:winapinls.obj
 0002:00012648       ??_C@_1M@KAHEKEIG@?$AAa?$AAf?$AA?9?$AAz?$AAa?$AA?$AA@ 10055648     LIBCMT:winapinls.obj
 0002:00012654       ??_C@_1M@GIECOABL@?$AAa?$AAr?$AA?9?$AAa?$AAe?$AA?$AA@ 10055654     LIBCMT:winapinls.obj
 0002:00012660       ??_C@_1M@BMLMEKGI@?$AAa?$AAr?$AA?9?$AAb?$AAh?$AA?$AA@ 10055660     LIBCMT:winapinls.obj
 0002:0001266c       ??_C@_1M@DAPFDGGB@?$AAa?$AAr?$AA?9?$AAd?$AAz?$AA?$AA@ 1005566c     LIBCMT:winapinls.obj
 0002:00012678       ??_C@_1M@FJNKGKIG@?$AAa?$AAr?$AA?9?$AAe?$AAg?$AA?$AA@ 10055678     LIBCMT:winapinls.obj
 0002:00012684       ??_C@_1M@FLGKKCLO@?$AAa?$AAr?$AA?9?$AAi?$AAq?$AA?$AA@ 10055684     LIBCMT:winapinls.obj
 0002:00012690       ??_C@_1M@GNDIPALM@?$AAa?$AAr?$AA?9?$AAj?$AAo?$AA?$AA@ 10055690     LIBCMT:winapinls.obj
 0002:0001269c       ??_C@_1M@DDMJFMGJ@?$AAa?$AAr?$AA?9?$AAk?$AAw?$AA?$AA@ 1005569c     LIBCMT:winapinls.obj
 0002:000126a8       ??_C@_1M@EJALMLHM@?$AAa?$AAr?$AA?9?$AAl?$AAb?$AA?$AA@ 100556a8     LIBCMT:winapinls.obj
 0002:000126b4       ??_C@_1M@MOBDBLOC@?$AAa?$AAr?$AA?9?$AAl?$AAy?$AA?$AA@ 100556b4     LIBCMT:winapinls.obj
 0002:000126c0       ??_C@_1M@JAOCLHDH@?$AAa?$AAr?$AA?9?$AAm?$AAa?$AA?$AA@ 100556c0     LIBCMT:winapinls.obj
 0002:000126cc       ??_C@_1M@JHPMKJIE@?$AAa?$AAr?$AA?9?$AAo?$AAm?$AA?$AA@ 100556cc     LIBCMT:winapinls.obj
 0002:000126d8       ??_C@_1M@OEPGHFNH@?$AAa?$AAr?$AA?9?$AAq?$AAa?$AA?$AA@ 100556d8     LIBCMT:winapinls.obj
 0002:000126e4       ??_C@_1M@KJDONENM@?$AAa?$AAr?$AA?9?$AAs?$AAa?$AA?$AA@ 100556e4     LIBCMT:winapinls.obj
 0002:000126f0       ??_C@_1M@DMJDKLKM@?$AAa?$AAr?$AA?9?$AAs?$AAy?$AA?$AA@ 100556f0     LIBCMT:winapinls.obj
 0002:000126fc       ??_C@_1M@OMFIPEDC@?$AAa?$AAr?$AA?9?$AAt?$AAn?$AA?$AA@ 100556fc     LIBCMT:winapinls.obj
 0002:00012708       ??_C@_1M@IHMHGAON@?$AAa?$AAr?$AA?9?$AAy?$AAe?$AA?$AA@ 10055708     LIBCMT:winapinls.obj
 0002:00012714       ??_C@_1BG@KDCPGJGB@?$AAa?$AAz?$AA?9?$AAa?$AAz?$AA?9?$AAc?$AAy?$AAr?$AAl?$AA?$AA@ 10055714     LIBCMT:winapinls.obj
 0002:0001272c       ??_C@_1BG@IBCKDDOE@?$AAa?$AAz?$AA?9?$AAa?$AAz?$AA?9?$AAl?$AAa?$AAt?$AAn?$AA?$AA@ 1005572c     LIBCMT:winapinls.obj
 0002:00012744       ??_C@_1M@EGPFDCPD@?$AAb?$AAe?$AA?9?$AAb?$AAy?$AA?$AA@ 10055744     LIBCMT:winapinls.obj
 0002:00012750       ??_C@_1M@PCMGMCGC@?$AAb?$AAg?$AA?9?$AAb?$AAg?$AA?$AA@ 10055750     LIBCMT:winapinls.obj
 0002:0001275c       ??_C@_1M@BJBMFGOB@?$AAb?$AAn?$AA?9?$AAi?$AAn?$AA?$AA@ 1005575c     LIBCMT:winapinls.obj
 0002:00012768       ??_C@_1BG@EAKMMACD@?$AAb?$AAs?$AA?9?$AAb?$AAa?$AA?9?$AAl?$AAa?$AAt?$AAn?$AA?$AA@ 10055768     LIBCMT:winapinls.obj
 0002:00012780       ??_C@_1M@KGADAODK@?$AAc?$AAa?$AA?9?$AAe?$AAs?$AA?$AA@ 10055780     LIBCMT:winapinls.obj
 0002:0001278c       ??_C@_1M@COAJPDHI@?$AAc?$AAs?$AA?9?$AAc?$AAz?$AA?$AA@ 1005578c     LIBCMT:winapinls.obj
 0002:00012798       ??_C@_1M@DHBHFONH@?$AAc?$AAy?$AA?9?$AAg?$AAb?$AA?$AA@ 10055798     LIBCMT:winapinls.obj
 0002:000127a4       ??_C@_1M@IMGKELGA@?$AAd?$AAa?$AA?9?$AAd?$AAk?$AA?$AA@ 100557a4     LIBCMT:winapinls.obj
 0002:000127b0       ??_C@_1M@NNDGDNGA@?$AAd?$AAe?$AA?9?$AAa?$AAt?$AA?$AA@ 100557b0     LIBCMT:winapinls.obj
 0002:000127bc       ??_C@_1M@IKDBHEEM@?$AAd?$AAe?$AA?9?$AAc?$AAh?$AA?$AA@ 100557bc     LIBCMT:winapinls.obj
 0002:000127c8       ??_C@_1M@GFFOJMCJ@?$AAd?$AAe?$AA?9?$AAd?$AAe?$AA?$AA@ 100557c8     LIBCMT:winapinls.obj
 0002:000127d4       ??_C@_1M@MDNLKBPM@?$AAd?$AAe?$AA?9?$AAl?$AAi?$AA?$AA@ 100557d4     LIBCMT:winapinls.obj
 0002:000127e0       ??_C@_1M@NJBEEJNL@?$AAd?$AAe?$AA?9?$AAl?$AAu?$AA?$AA@ 100557e0     LIBCMT:winapinls.obj
 0002:000127ec       ??_C@_1O@GNNELBAP@?$AAd?$AAi?$AAv?$AA?9?$AAm?$AAv?$AA?$AA@ 100557ec     LIBCMT:winapinls.obj
 0002:000127fc       ??_C@_1M@EJLEOGAE@?$AAe?$AAl?$AA?9?$AAg?$AAr?$AA?$AA@ 100557fc     LIBCMT:winapinls.obj
 0002:00012808       ??_C@_1M@GMPONJN@?$AAe?$AAn?$AA?9?$AAa?$AAu?$AA?$AA@ 10055808     LIBCMT:winapinls.obj
 0002:00012814       ??_C@_1M@NIDIIPGF@?$AAe?$AAn?$AA?9?$AAb?$AAz?$AA?$AA@ 10055814     LIBCMT:winapinls.obj
 0002:00012820       ??_C@_1M@JEHMIMFO@?$AAe?$AAn?$AA?9?$AAc?$AAa?$AA?$AA@ 10055820     LIBCMT:winapinls.obj
 0002:0001282c       ??_C@_1M@IGMJCDLA@?$AAe?$AAn?$AA?9?$AAc?$AAb?$AA?$AA@ 1005582c     LIBCMT:winapinls.obj
 0002:00012838       ??_C@_1M@BNFIGBKG@?$AAe?$AAn?$AA?9?$AAg?$AAb?$AA?$AA@ 10055838     LIBCMT:winapinls.obj
 0002:00012844       ??_C@_1M@LKIFDIGP@?$AAe?$AAn?$AA?9?$AAi?$AAe?$AA?$AA@ 10055844     LIBCMT:winapinls.obj
 0002:00012850       ??_C@_1M@PJKFGCCO@?$AAe?$AAn?$AA?9?$AAj?$AAm?$AA?$AA@ 10055850     LIBCMT:winapinls.obj
 0002:0001285c       ??_C@_1M@KPPKEPBO@?$AAe?$AAn?$AA?9?$AAn?$AAz?$AA?$AA@ 1005585c     LIBCMT:winapinls.obj
 0002:00012868       ??_C@_1M@GMDGLDOB@?$AAe?$AAn?$AA?9?$AAp?$AAh?$AA?$AA@ 10055868     LIBCMT:winapinls.obj
 0002:00012874       ??_C@_1M@ONGIBJNA@?$AAe?$AAn?$AA?9?$AAt?$AAt?$AA?$AA@ 10055874     LIBCMT:winapinls.obj
 0002:00012880       ??_C@_1M@LLODPCMM@?$AAe?$AAn?$AA?9?$AAu?$AAs?$AA?$AA@ 10055880     LIBCMT:winapinls.obj
 0002:0001288c       ??_C@_1M@LAKFNPAN@?$AAe?$AAn?$AA?9?$AAz?$AAa?$AA?$AA@ 1005588c     LIBCMT:winapinls.obj
 0002:00012898       ??_C@_1M@MFNHNHEO@?$AAe?$AAn?$AA?9?$AAz?$AAw?$AA?$AA@ 10055898     LIBCMT:winapinls.obj
 0002:000128a4       ??_C@_1M@EJEINPHM@?$AAe?$AAs?$AA?9?$AAa?$AAr?$AA?$AA@ 100558a4     LIBCMT:winapinls.obj
 0002:000128b0       ??_C@_1M@GNKPCCJA@?$AAe?$AAs?$AA?9?$AAb?$AAo?$AA?$AA@ 100558b0     LIBCMT:winapinls.obj
 0002:000128bc       ??_C@_1M@LEEGFONL@?$AAe?$AAs?$AA?9?$AAc?$AAl?$AA?$AA@ 100558bc     LIBCMT:winapinls.obj
 0002:000128c8       ??_C@_1M@KGPDPBDF@?$AAe?$AAs?$AA?9?$AAc?$AAo?$AA?$AA@ 100558c8     LIBCMT:winapinls.obj
 0002:000128d4       ??_C@_1M@EIAHOHH@?$AAe?$AAs?$AA?9?$AAc?$AAr?$AA?$AA@ 100558d4     LIBCMT:winapinls.obj
 0002:000128e0       ??_C@_1M@LLPGMBIN@?$AAe?$AAs?$AA?9?$AAd?$AAo?$AA?$AA@ 100558e0     LIBCMT:winapinls.obj
 0002:000128ec       ??_C@_1M@DKHMKNJA@?$AAe?$AAs?$AA?9?$AAe?$AAc?$AA?$AA@ 100558ec     LIBCMT:winapinls.obj
 0002:000128f8       ??_C@_1M@GKGFPKAP@?$AAe?$AAs?$AA?9?$AAe?$AAs?$AA?$AA@ 100558f8     LIBCMT:winapinls.obj
 0002:00012904       ??_C@_1M@LKHKGDLN@?$AAe?$AAs?$AA?9?$AAg?$AAt?$AA?$AA@ 10055904     LIBCMT:winapinls.obj
 0002:00012910       ??_C@_1M@HEIIGGJD@?$AAe?$AAs?$AA?9?$AAh?$AAn?$AA?$AA@ 10055910     LIBCMT:winapinls.obj
 0002:0001291c       ??_C@_1M@FBDHPPGD@?$AAe?$AAs?$AA?9?$AAm?$AAx?$AA?$AA@ 1005591c     LIBCMT:winapinls.obj
 0002:00012928       ??_C@_1M@DPAGLNDH@?$AAe?$AAs?$AA?9?$AAn?$AAi?$AA?$AA@ 10055928     LIBCMT:winapinls.obj
 0002:00012934       ??_C@_1M@MDGOPGDD@?$AAe?$AAs?$AA?9?$AAp?$AAa?$AA?$AA@ 10055934     LIBCMT:winapinls.obj
 0002:00012940       ??_C@_1M@EMAMGBGE@?$AAe?$AAs?$AA?9?$AAp?$AAe?$AA?$AA@ 10055940     LIBCMT:winapinls.obj
 0002:0001294c       ??_C@_1M@IBMCAOEC@?$AAe?$AAs?$AA?9?$AAp?$AAr?$AA?$AA@ 1005594c     LIBCMT:winapinls.obj
 0002:00012958       ??_C@_1M@FGMDIJED@?$AAe?$AAs?$AA?9?$AAp?$AAy?$AA?$AA@ 10055958     LIBCMT:winapinls.obj
 0002:00012964       ??_C@_1M@IIDEOLLL@?$AAe?$AAs?$AA?9?$AAs?$AAv?$AA?$AA@ 10055964     LIBCMT:winapinls.obj
 0002:00012970       ??_C@_1M@GAOBIPA@?$AAe?$AAs?$AA?9?$AAu?$AAy?$AA?$AA@ 10055970     LIBCMT:winapinls.obj
 0002:0001297c       ??_C@_1M@JKFFICHJ@?$AAe?$AAs?$AA?9?$AAv?$AAe?$AA?$AA@ 1005597c     LIBCMT:winapinls.obj
 0002:00012988       ??_C@_1M@PNMLOJDF@?$AAe?$AAt?$AA?9?$AAe?$AAe?$AA?$AA@ 10055988     LIBCMT:winapinls.obj
 0002:00012994       ??_C@_1M@GHHLIKEI@?$AAe?$AAu?$AA?9?$AAe?$AAs?$AA?$AA@ 10055994     LIBCMT:winapinls.obj
 0002:000129a0       ??_C@_1M@PBNONODE@?$AAf?$AAa?$AA?9?$AAi?$AAr?$AA?$AA@ 100559a0     LIBCMT:winapinls.obj
 0002:000129ac       ??_C@_1M@JEEHPMIL@?$AAf?$AAi?$AA?9?$AAf?$AAi?$AA?$AA@ 100559ac     LIBCMT:winapinls.obj
 0002:000129b8       ??_C@_1M@LMDCNDBA@?$AAf?$AAo?$AA?9?$AAf?$AAo?$AA?$AA@ 100559b8     LIBCMT:winapinls.obj
 0002:000129c4       ??_C@_1M@JKEOHLDK@?$AAf?$AAr?$AA?9?$AAb?$AAe?$AA?$AA@ 100559c4     LIBCMT:winapinls.obj
 0002:000129d0       ??_C@_1M@NOHADPMI@?$AAf?$AAr?$AA?9?$AAc?$AAa?$AA?$AA@ 100559d0     LIBCMT:winapinls.obj
 0002:000129dc       ??_C@_1M@KDHIHAEC@?$AAf?$AAr?$AA?9?$AAc?$AAh?$AA?$AA@ 100559dc     LIBCMT:winapinls.obj
 0002:000129e8       ??_C@_1M@MMBBFGAK@?$AAf?$AAr?$AA?9?$AAf?$AAr?$AA?$AA@ 100559e8     LIBCMT:winapinls.obj
 0002:000129f4       ??_C@_1M@PAFNENNF@?$AAf?$AAr?$AA?9?$AAl?$AAu?$AA?$AA@ 100559f4     LIBCMT:winapinls.obj
 0002:00012a00       ??_C@_1M@EOHDJGDD@?$AAf?$AAr?$AA?9?$AAm?$AAc?$AA?$AA@ 10055a00     LIBCMT:winapinls.obj
 0002:00012a0c       ??_C@_1M@FAPLLOPF@?$AAg?$AAl?$AA?9?$AAe?$AAs?$AA?$AA@ 10055a0c     LIBCMT:winapinls.obj
 0002:00012a18       ??_C@_1M@FOPBFLOO@?$AAg?$AAu?$AA?9?$AAi?$AAn?$AA?$AA@ 10055a18     LIBCMT:winapinls.obj
 0002:00012a24       ??_C@_1M@KBMCINPM@?$AAh?$AAe?$AA?9?$AAi?$AAl?$AA?$AA@ 10055a24     LIBCMT:winapinls.obj
 0002:00012a30       ??_C@_1M@BBPHKFPJ@?$AAh?$AAi?$AA?9?$AAi?$AAn?$AA?$AA@ 10055a30     LIBCMT:winapinls.obj
 0002:00012a3c       ??_C@_1M@PMBNDPHD@?$AAh?$AAr?$AA?9?$AAb?$AAa?$AA?$AA@ 10055a3c     LIBCMT:winapinls.obj
 0002:00012a48       ??_C@_1M@BPCKOEGE@?$AAh?$AAr?$AA?9?$AAh?$AAr?$AA?$AA@ 10055a48     LIBCMT:winapinls.obj
 0002:00012a54       ??_C@_1M@GACBMHKE@?$AAh?$AAu?$AA?9?$AAh?$AAu?$AA?$AA@ 10055a54     LIBCMT:winapinls.obj
 0002:00012a60       ??_C@_1M@MILPAJJC@?$AAh?$AAy?$AA?9?$AAa?$AAm?$AA?$AA@ 10055a60     LIBCMT:winapinls.obj
 0002:00012a6c       ??_C@_1M@BABBICEC@?$AAi?$AAd?$AA?9?$AAi?$AAd?$AA?$AA@ 10055a6c     LIBCMT:winapinls.obj
 0002:00012a78       ??_C@_1M@BIKNHHPF@?$AAi?$AAs?$AA?9?$AAi?$AAs?$AA?$AA@ 10055a78     LIBCMT:winapinls.obj
 0002:00012a84       ??_C@_1M@NMPCJPHE@?$AAi?$AAt?$AA?9?$AAc?$AAh?$AA?$AA@ 10055a84     LIBCMT:winapinls.obj
 0002:00012a90       ??_C@_1M@GHKGFEDF@?$AAi?$AAt?$AA?9?$AAi?$AAt?$AA?$AA@ 10055a90     LIBCMT:winapinls.obj
 0002:00012a9c       ??_C@_1M@NIEJCJJA@?$AAj?$AAa?$AA?9?$AAj?$AAp?$AA?$AA@ 10055a9c     LIBCMT:winapinls.obj
 0002:00012aa8       ??_C@_1M@JILFNBIM@?$AAk?$AAa?$AA?9?$AAg?$AAe?$AA?$AA@ 10055aa8     LIBCMT:winapinls.obj
 0002:00012ab4       ??_C@_1M@PACPMGPH@?$AAk?$AAk?$AA?9?$AAk?$AAz?$AA?$AA@ 10055ab4     LIBCMT:winapinls.obj
 0002:00012ac0       ??_C@_1M@IELFGMHA@?$AAk?$AAn?$AA?9?$AAi?$AAn?$AA?$AA@ 10055ac0     LIBCMT:winapinls.obj
 0002:00012acc       ??_C@_1O@IBBJHCH@?$AAk?$AAo?$AAk?$AA?9?$AAi?$AAn?$AA?$AA@ 10055acc     LIBCMT:winapinls.obj
 0002:00012adc       ??_C@_1M@DMHAEOGC@?$AAk?$AAo?$AA?9?$AAk?$AAr?$AA?$AA@ 10055adc     LIBCMT:winapinls.obj
 0002:00012ae8       ??_C@_1M@HBAHBIGA@?$AAk?$AAy?$AA?9?$AAk?$AAg?$AA?$AA@ 10055ae8     LIBCMT:winapinls.obj
 0002:00012af4       ??_C@_1M@KPMILCJG@?$AAl?$AAt?$AA?9?$AAl?$AAt?$AA?$AA@ 10055af4     LIBCMT:winapinls.obj
 0002:00012b00       ??_C@_1M@BDEKKCA@?$AAl?$AAv?$AA?9?$AAl?$AAv?$AA?$AA@ 10055b00     LIBCMT:winapinls.obj
 0002:00012b0c       ??_C@_1M@ELCKCCJJ@?$AAm?$AAi?$AA?9?$AAn?$AAz?$AA?$AA@ 10055b0c     LIBCMT:winapinls.obj
 0002:00012b18       ??_C@_1M@CBOOLAPA@?$AAm?$AAk?$AA?9?$AAm?$AAk?$AA?$AA@ 10055b18     LIBCMT:winapinls.obj
 0002:00012b24       ??_C@_1M@GPHNBJKN@?$AAm?$AAl?$AA?9?$AAi?$AAn?$AA?$AA@ 10055b24     LIBCMT:winapinls.obj
 0002:00012b30       ??_C@_1M@PABJILIG@?$AAm?$AAn?$AA?9?$AAm?$AAn?$AA?$AA@ 10055b30     LIBCMT:winapinls.obj
 0002:00012b3c       ??_C@_1M@FGBKKIPG@?$AAm?$AAr?$AA?9?$AAi?$AAn?$AA?$AA@ 10055b3c     LIBCMT:winapinls.obj
 0002:00012b48       ??_C@_1M@NDBPDDAL@?$AAm?$AAs?$AA?9?$AAb?$AAn?$AA?$AA@ 10055b48     LIBCMT:winapinls.obj
 0002:00012b54       ??_C@_1M@OPIHOOPI@?$AAm?$AAs?$AA?9?$AAm?$AAy?$AA?$AA@ 10055b54     LIBCMT:winapinls.obj
 0002:00012b60       ??_C@_1M@PPDBCNFM@?$AAm?$AAt?$AA?9?$AAm?$AAt?$AA?$AA@ 10055b60     LIBCMT:winapinls.obj
 0002:00012b6c       ??_C@_1M@KDJDKMDD@?$AAn?$AAb?$AA?9?$AAn?$AAo?$AA?$AA@ 10055b6c     LIBCMT:winapinls.obj
 0002:00012b78       ??_C@_1M@KFCFLMJP@?$AAn?$AAl?$AA?9?$AAb?$AAe?$AA?$AA@ 10055b78     LIBCMT:winapinls.obj
 0002:00012b84       ??_C@_1M@KPOPDDGO@?$AAn?$AAl?$AA?9?$AAn?$AAl?$AA?$AA@ 10055b84     LIBCMT:winapinls.obj
 0002:00012b90       ??_C@_1M@LJKPEMLN@?$AAn?$AAn?$AA?9?$AAn?$AAo?$AA?$AA@ 10055b90     LIBCMT:winapinls.obj
 0002:00012b9c       ??_C@_1M@BDGHHBFL@?$AAn?$AAs?$AA?9?$AAz?$AAa?$AA?$AA@ 10055b9c     LIBCMT:winapinls.obj
 0002:00012ba8       ??_C@_1M@IDEHOAP@?$AAp?$AAa?$AA?9?$AAi?$AAn?$AA?$AA@ 10055ba8     LIBCMT:winapinls.obj
 0002:00012bb4       ??_C@_1M@HDBKGOGH@?$AAp?$AAl?$AA?9?$AAp?$AAl?$AA?$AA@ 10055bb4     LIBCMT:winapinls.obj
 0002:00012bc0       ??_C@_1M@LJLLCMEH@?$AAp?$AAt?$AA?9?$AAb?$AAr?$AA?$AA@ 10055bc0     LIBCMT:winapinls.obj
 0002:00012bcc       ??_C@_1M@NCMONAAL@?$AAp?$AAt?$AA?9?$AAp?$AAt?$AA?$AA@ 10055bcc     LIBCMT:winapinls.obj
 0002:00012bd8       ??_C@_1O@EAKMAJDN@?$AAq?$AAu?$AAz?$AA?9?$AAb?$AAo?$AA?$AA@ 10055bd8     LIBCMT:winapinls.obj
 0002:00012be8       ??_C@_1O@BHHPIGDN@?$AAq?$AAu?$AAz?$AA?9?$AAe?$AAc?$AA?$AA@ 10055be8     LIBCMT:winapinls.obj
 0002:00012bf8       ??_C@_1O@GBAPEKMJ@?$AAq?$AAu?$AAz?$AA?9?$AAp?$AAe?$AA?$AA@ 10055bf8     LIBCMT:winapinls.obj
 0002:00012c08       ??_C@_1M@CLGLEFBO@?$AAr?$AAo?$AA?9?$AAr?$AAo?$AA?$AA@ 10055c08     LIBCMT:winapinls.obj
 0002:00012c14       ??_C@_1M@CEEDODME@?$AAr?$AAu?$AA?9?$AAr?$AAu?$AA?$AA@ 10055c14     LIBCMT:winapinls.obj
 0002:00012c20       ??_C@_1M@HPKKKMPP@?$AAs?$AAa?$AA?9?$AAi?$AAn?$AA?$AA@ 10055c20     LIBCMT:winapinls.obj
 0002:00012c2c       ??_C@_1M@BKMAIGOJ@?$AAs?$AAe?$AA?9?$AAf?$AAi?$AA?$AA@ 10055c2c     LIBCMT:winapinls.obj
 0002:00012c38       ??_C@_1M@NDPIFLFI@?$AAs?$AAe?$AA?9?$AAn?$AAo?$AA?$AA@ 10055c38     LIBCMT:winapinls.obj
 0002:00012c44       ??_C@_1M@DANKKHJ@?$AAs?$AAe?$AA?9?$AAs?$AAe?$AA?$AA@ 10055c44     LIBCMT:winapinls.obj
 0002:00012c50       ??_C@_1M@PNBLONPJ@?$AAs?$AAk?$AA?9?$AAs?$AAk?$AA?$AA@ 10055c50     LIBCMT:winapinls.obj
 0002:00012c5c       ??_C@_1M@LFMODOAL@?$AAs?$AAl?$AA?9?$AAs?$AAi?$AA?$AA@ 10055c5c     LIBCMT:winapinls.obj
 0002:00012c68       ??_C@_1O@DFKOMPG@?$AAs?$AAm?$AAa?$AA?9?$AAn?$AAo?$AA?$AA@ 10055c68     LIBCMT:winapinls.obj
 0002:00012c78       ??_C@_1O@NDKPBNNH@?$AAs?$AAm?$AAa?$AA?9?$AAs?$AAe?$AA?$AA@ 10055c78     LIBCMT:winapinls.obj
 0002:00012c88       ??_C@_1O@PLLKBHAB@?$AAs?$AAm?$AAj?$AA?9?$AAn?$AAo?$AA?$AA@ 10055c88     LIBCMT:winapinls.obj
 0002:00012c98       ??_C@_1O@CLEPOGCA@?$AAs?$AAm?$AAj?$AA?9?$AAs?$AAe?$AA?$AA@ 10055c98     LIBCMT:winapinls.obj
 0002:00012ca8       ??_C@_1O@DLGJGKMK@?$AAs?$AAm?$AAn?$AA?9?$AAf?$AAi?$AA?$AA@ 10055ca8     LIBCMT:winapinls.obj
 0002:00012cb8       ??_C@_1O@OJDJGAJC@?$AAs?$AAm?$AAs?$AA?9?$AAf?$AAi?$AA?$AA@ 10055cb8     LIBCMT:winapinls.obj
 0002:00012cc8       ??_C@_1M@BOFOGHPB@?$AAs?$AAq?$AA?9?$AAa?$AAl?$AA?$AA@ 10055cc8     LIBCMT:winapinls.obj
 0002:00012cd4       ??_C@_1BG@LJBBIPGB@?$AAs?$AAr?$AA?9?$AAb?$AAa?$AA?9?$AAc?$AAy?$AAr?$AAl?$AA?$AA@ 10055cd4     LIBCMT:winapinls.obj
 0002:00012cec       ??_C@_1BG@JLBENFOE@?$AAs?$AAr?$AA?9?$AAb?$AAa?$AA?9?$AAl?$AAa?$AAt?$AAn?$AA?$AA@ 10055cec     LIBCMT:winapinls.obj
 0002:00012d04       ??_C@_1BG@KODPNHE@?$AAs?$AAr?$AA?9?$AAs?$AAp?$AA?9?$AAc?$AAy?$AAr?$AAl?$AA?$AA@ 10055d04     LIBCMT:winapinls.obj
 0002:00012d1c       ??_C@_1BG@CIOGKHPB@?$AAs?$AAr?$AA?9?$AAs?$AAp?$AA?9?$AAl?$AAa?$AAt?$AAn?$AA?$AA@ 10055d1c     LIBCMT:winapinls.obj
 0002:00012d34       ??_C@_1M@NGFJLMAC@?$AAs?$AAv?$AA?9?$AAf?$AAi?$AA?$AA@ 10055d34     LIBCMT:winapinls.obj
 0002:00012d40       ??_C@_1M@MPJEJAJC@?$AAs?$AAv?$AA?9?$AAs?$AAe?$AA?$AA@ 10055d40     LIBCMT:winapinls.obj
 0002:00012d4c       ??_C@_1M@MPNDHLFK@?$AAs?$AAw?$AA?9?$AAk?$AAe?$AA?$AA@ 10055d4c     LIBCMT:winapinls.obj
 0002:00012d58       ??_C@_1O@KOHBJJI@?$AAs?$AAy?$AAr?$AA?9?$AAs?$AAy?$AA?$AA@ 10055d58     LIBCMT:winapinls.obj
 0002:00012d68       ??_C@_1M@LDCEFHA@?$AAt?$AAa?$AA?9?$AAi?$AAn?$AA?$AA@ 10055d68     LIBCMT:winapinls.obj
 0002:00012d74       ??_C@_1M@CNJOFAK@?$AAt?$AAe?$AA?9?$AAi?$AAn?$AA?$AA@ 10055d74     LIBCMT:winapinls.obj
 0002:00012d80       ??_C@_1M@GNAECACD@?$AAt?$AAh?$AA?9?$AAt?$AAh?$AA?$AA@ 10055d80     LIBCMT:winapinls.obj
 0002:00012d8c       ??_C@_1M@CHBIHOJO@?$AAt?$AAn?$AA?9?$AAz?$AAa?$AA?$AA@ 10055d8c     LIBCMT:winapinls.obj
 0002:00012d98       ??_C@_1M@GCCMIGPJ@?$AAt?$AAr?$AA?9?$AAt?$AAr?$AA?$AA@ 10055d98     LIBCMT:winapinls.obj
 0002:00012da4       ??_C@_1M@CELMCNBK@?$AAt?$AAt?$AA?9?$AAr?$AAu?$AA?$AA@ 10055da4     LIBCMT:winapinls.obj
 0002:00012db0       ??_C@_1M@KLMCELGA@?$AAu?$AAk?$AA?9?$AAu?$AAa?$AA?$AA@ 10055db0     LIBCMT:winapinls.obj
 0002:00012dbc       ??_C@_1M@EPAJJAJF@?$AAu?$AAr?$AA?9?$AAp?$AAk?$AA?$AA@ 10055dbc     LIBCMT:winapinls.obj
 0002:00012dc8       ??_C@_1BG@GEGPMCDJ@?$AAu?$AAz?$AA?9?$AAu?$AAz?$AA?9?$AAc?$AAy?$AAr?$AAl?$AA?$AA@ 10055dc8     LIBCMT:winapinls.obj
 0002:00012de0       ??_C@_1BG@EGGKJILM@?$AAu?$AAz?$AA?9?$AAu?$AAz?$AA?9?$AAl?$AAa?$AAt?$AAn?$AA?$AA@ 10055de0     LIBCMT:winapinls.obj
 0002:00012df8       ??_C@_1M@GFOCLFF@?$AAv?$AAi?$AA?9?$AAv?$AAn?$AA?$AA@ 10055df8     LIBCMT:winapinls.obj
 0002:00012e04       ??_C@_1M@CPAMEDFI@?$AAx?$AAh?$AA?9?$AAz?$AAa?$AA?$AA@ 10055e04     LIBCMT:winapinls.obj
 0002:00012e10       ??_C@_1O@EBKIFIGN@?$AAz?$AAh?$AA?9?$AAc?$AAh?$AAs?$AA?$AA@ 10055e10     LIBCMT:winapinls.obj
 0002:00012e20       ??_C@_1O@NMHPGANE@?$AAz?$AAh?$AA?9?$AAc?$AAh?$AAt?$AA?$AA@ 10055e20     LIBCMT:winapinls.obj
 0002:00012e30       ??_C@_1M@LPINJOMC@?$AAz?$AAh?$AA?9?$AAc?$AAn?$AA?$AA@ 10055e30     LIBCMT:winapinls.obj
 0002:00012e3c       ??_C@_1M@OCJEJODD@?$AAz?$AAh?$AA?9?$AAh?$AAk?$AA?$AA@ 10055e3c     LIBCMT:winapinls.obj
 0002:00012e48       ??_C@_1M@DNDLJINH@?$AAz?$AAh?$AA?9?$AAm?$AAo?$AA?$AA@ 10055e48     LIBCMT:winapinls.obj
 0002:00012e54       ??_C@_1M@MBFDNDND@?$AAz?$AAh?$AA?9?$AAs?$AAg?$AA?$AA@ 10055e54     LIBCMT:winapinls.obj
 0002:00012e60       ??_C@_1M@IMEPLEPE@?$AAz?$AAh?$AA?9?$AAt?$AAw?$AA?$AA@ 10055e60     LIBCMT:winapinls.obj
 0002:00012e6c       ??_C@_1M@BBGHNHJP@?$AAz?$AAu?$AA?9?$AAz?$AAa?$AA?$AA@ 10055e6c     LIBCMT:winapinls.obj
 0002:00012e78       ___newctype                10055e78     LIBCMT:ctype.obj
 0002:00013178       __wctype                   10056178     LIBCMT:ctype.obj
 0002:00013380       ___newclmap                10056380     LIBCMT:ctype.obj
 0002:00013500       ___newcumap                10056500     LIBCMT:ctype.obj
 0002:00013680       ___lc_category             10056680     LIBCMT:wsetloca.obj
 0002:000136c8       ??_C@_1O@GIFLHMA@?$AAL?$AAC?$AA_?$AAA?$AAL?$AAL?$AA?$AA@ 100566c8     LIBCMT:wsetloca.obj
 0002:000136d8       ??_C@_1BG@PPOMIBNJ@?$AAL?$AAC?$AA_?$AAC?$AAO?$AAL?$AAL?$AAA?$AAT?$AAE?$AA?$AA@ 100566d8     LIBCMT:wsetloca.obj
 0002:000136f0       ??_C@_1BC@FFJGAPJM@?$AAL?$AAC?$AA_?$AAC?$AAT?$AAY?$AAP?$AAE?$AA?$AA@ 100566f0     LIBCMT:wsetloca.obj
 0002:00013704       ??_C@_1BI@PCKFNJFB@?$AAL?$AAC?$AA_?$AAM?$AAO?$AAN?$AAE?$AAT?$AAA?$AAR?$AAY?$AA?$AA@ 10056704     LIBCMT:wsetloca.obj
 0002:0001371c       ??_C@_1BG@ENIEDKID@?$AAL?$AAC?$AA_?$AAN?$AAU?$AAM?$AAE?$AAR?$AAI?$AAC?$AA?$AA@ 1005671c     LIBCMT:wsetloca.obj
 0002:00013734       ??_C@_1BA@HAAOMIIG@?$AAL?$AAC?$AA_?$AAT?$AAI?$AAM?$AAE?$AA?$AA@ 10056734     LIBCMT:wsetloca.obj
 0002:000137c8       ??_C@_15NBPDDFIP@?$AA?$DN?$AA?$DL?$AA?$AA@ 100567c8     LIBCMT:wsetloca.obj
 0002:000137d0       ??_C@_13PJJBFPED@?$AA?$DL?$AA?$AA@ 100567d0     LIBCMT:wsetloca.obj
 0002:000137d4       ??_C@_13NMPKAAJP@?$AA?$DN?$AA?$AA@ 100567d4     LIBCMT:wsetloca.obj
 0002:000137d8       ??_C@_13FHBKNHDA@?$AAC?$AA?$AA@ 100567d8     LIBCMT:wsetloca.obj
 0002:000137dc       ??_C@_17MBJJLFDM@?$AA_?$AA?4?$AA?0?$AA?$AA@ 100567dc     LIBCMT:wsetloca.obj
 0002:000137e4       ??_C@_13ENNFDPBH@?$AA_?$AA?$AA@ 100567e4     LIBCMT:wsetloca.obj
 0002:000137e8       ??_C@_13JOFGPIOO@?$AA?4?$AA?$AA@ 100567e8     LIBCMT:wsetloca.obj
 0002:000137ec       ??_C@_06PGGFOGJG@1?$CDSNAN?$AA@ 100567ec     LIBCMT:x10fout.obj
 0002:000137f4       ??_C@_05PHHOCPM@1?$CDIND?$AA@ 100567f4     LIBCMT:x10fout.obj
 0002:000137fc       ??_C@_05DNEBIAHO@1?$CDINF?$AA@ 100567fc     LIBCMT:x10fout.obj
 0002:00013804       ??_C@_06IMKFLFPG@1?$CDQNAN?$AA@ 10056804     LIBCMT:x10fout.obj
 0002:0001380c       ??_C@_0M@HHGEPIBF@CreateFile2?$AA@ 1005680c     LIBCMT:wopen.obj
 0002:00013818       ??_C@_1BA@BALFACEM@?$AAC?$AAO?$AAN?$AAO?$AAU?$AAT?$AA$?$AA?$AA@ 10056818     LIBCMT:initcon.obj
 0002:00013828       ___rg_language             10056828     LIBCMT:getqloc.obj
 0002:00013b34       ??_C@_1BC@LLOKLNP@?$AAa?$AAm?$AAe?$AAr?$AAi?$AAc?$AAa?$AAn?$AA?$AA@ 10056b34     LIBCMT:getqloc.obj
 0002:00013b48       ??_C@_1CC@HEIGCDGG@?$AAa?$AAm?$AAe?$AAr?$AAi?$AAc?$AAa?$AAn?$AA?5?$AAe?$AAn?$AAg?$AAl?$AAi?$AAs?$AAh?$AA?$AA@ 10056b48     LIBCMT:getqloc.obj
 0002:00013b6c       ??_C@_1CC@IHCNOMIN@?$AAa?$AAm?$AAe?$AAr?$AAi?$AAc?$AAa?$AAn?$AA?9?$AAe?$AAn?$AAg?$AAl?$AAi?$AAs?$AAh?$AA?$AA@ 10056b6c     LIBCMT:getqloc.obj
 0002:00013b90       ??_C@_1BG@GKAGPCGG@?$AAa?$AAu?$AAs?$AAt?$AAr?$AAa?$AAl?$AAi?$AAa?$AAn?$AA?$AA@ 10056b90     LIBCMT:getqloc.obj
 0002:00013ba8       ??_C@_1BA@GMENCENF@?$AAb?$AAe?$AAl?$AAg?$AAi?$AAa?$AAn?$AA?$AA@ 10056ba8     LIBCMT:getqloc.obj
 0002:00013bb8       ??_C@_1BC@PJMIIAAN@?$AAc?$AAa?$AAn?$AAa?$AAd?$AAi?$AAa?$AAn?$AA?$AA@ 10056bb8     LIBCMT:getqloc.obj
 0002:00013bcc       ??_C@_17NOIMNFBF@?$AAc?$AAh?$AAh?$AA?$AA@ 10056bcc     LIBCMT:getqloc.obj
 0002:00013bd4       ??_C@_17GGDALCHA@?$AAc?$AAh?$AAi?$AA?$AA@ 10056bd4     LIBCMT:getqloc.obj
 0002:00013bdc       ??_C@_1BA@NPNJKIBL@?$AAc?$AAh?$AAi?$AAn?$AAe?$AAs?$AAe?$AA?$AA@ 10056bdc     LIBCMT:getqloc.obj
 0002:00013bec       ??_C@_1CC@DINBAMMJ@?$AAc?$AAh?$AAi?$AAn?$AAe?$AAs?$AAe?$AA?9?$AAh?$AAo?$AAn?$AAg?$AAk?$AAo?$AAn?$AAg?$AA?$AA@ 10056bec     LIBCMT:getqloc.obj
 0002:00013c10       ??_C@_1CG@IOBJPACO@?$AAc?$AAh?$AAi?$AAn?$AAe?$AAs?$AAe?$AA?9?$AAs?$AAi?$AAm?$AAp?$AAl?$AAi?$AAf?$AAi?$AAe?$AAd?$AA?$AA@ 10056c10     LIBCMT:getqloc.obj
 0002:00013c38       ??_C@_1CE@GAJNDCKG@?$AAc?$AAh?$AAi?$AAn?$AAe?$AAs?$AAe?$AA?9?$AAs?$AAi?$AAn?$AAg?$AAa?$AAp?$AAo?$AAr?$AAe?$AA?$AA@ 10056c38     LIBCMT:getqloc.obj
 0002:00013c5c       ??_C@_1CI@PAJPIOOD@?$AAc?$AAh?$AAi?$AAn?$AAe?$AAs?$AAe?$AA?9?$AAt?$AAr?$AAa?$AAd?$AAi?$AAt?$AAi?$AAo?$AAn?$AAa?$AAl?$AA?$AA@ 10056c5c     LIBCMT:getqloc.obj
 0002:00013c84       ??_C@_1BM@NILJBMMD@?$AAd?$AAu?$AAt?$AAc?$AAh?$AA?9?$AAb?$AAe?$AAl?$AAg?$AAi?$AAa?$AAn?$AA?$AA@ 10056c84     LIBCMT:getqloc.obj
 0002:00013ca0       ??_C@_1CC@OOJPJNEJ@?$AAe?$AAn?$AAg?$AAl?$AAi?$AAs?$AAh?$AA?9?$AAa?$AAm?$AAe?$AAr?$AAi?$AAc?$AAa?$AAn?$AA?$AA@ 10056ca0     LIBCMT:getqloc.obj
 0002:00013cc4       ??_C@_1BI@IOLFEEM@?$AAe?$AAn?$AAg?$AAl?$AAi?$AAs?$AAh?$AA?9?$AAa?$AAu?$AAs?$AA?$AA@ 10056cc4     LIBCMT:getqloc.obj
 0002:00013cdc       ??_C@_1BO@HFFNLENJ@?$AAe?$AAn?$AAg?$AAl?$AAi?$AAs?$AAh?$AA?9?$AAb?$AAe?$AAl?$AAi?$AAz?$AAe?$AA?$AA@ 10056cdc     LIBCMT:getqloc.obj
 0002:00013cfc       ??_C@_1BI@HAPKJMPO@?$AAe?$AAn?$AAg?$AAl?$AAi?$AAs?$AAh?$AA?9?$AAc?$AAa?$AAn?$AA?$AA@ 10056cfc     LIBCMT:getqloc.obj
 0002:00013d14       ??_C@_1CE@HLNDMIOJ@?$AAe?$AAn?$AAg?$AAl?$AAi?$AAs?$AAh?$AA?9?$AAc?$AAa?$AAr?$AAi?$AAb?$AAb?$AAe?$AAa?$AAn?$AA?$AA@ 10056d14     LIBCMT:getqloc.obj
 0002:00013d38       ??_C@_1BI@LDHJHHAC@?$AAe?$AAn?$AAg?$AAl?$AAi?$AAs?$AAh?$AA?9?$AAi?$AAr?$AAe?$AA?$AA@ 10056d38     LIBCMT:getqloc.obj
 0002:00013d50       ??_C@_1CA@NJMMCFOC@?$AAe?$AAn?$AAg?$AAl?$AAi?$AAs?$AAh?$AA?9?$AAj?$AAa?$AAm?$AAa?$AAi?$AAc?$AAa?$AA?$AA@ 10056d50     LIBCMT:getqloc.obj
 0002:00013d70       ??_C@_1BG@BHJEBBGG@?$AAe?$AAn?$AAg?$AAl?$AAi?$AAs?$AAh?$AA?9?$AAn?$AAz?$AA?$AA@ 10056d70     LIBCMT:getqloc.obj
 0002:00013d88       ??_C@_1CK@FGOEJJCO@?$AAe?$AAn?$AAg?$AAl?$AAi?$AAs?$AAh?$AA?9?$AAs?$AAo?$AAu?$AAt?$AAh?$AA?5?$AAa?$AAf?$AAr?$AAi?$AAc?$AAa?$AA?$AA@ 10056d88     LIBCMT:getqloc.obj
 0002:00013db4       ??_C@_1DE@PDBJPCJ@?$AAe?$AAn?$AAg?$AAl?$AAi?$AAs?$AAh?$AA?9?$AAt?$AAr?$AAi?$AAn?$AAi?$AAd?$AAa?$AAd?$AA?5?$AAy?$AA?5?$AAt?$AAo?$AAb?$AAa?$AAg?$AAo?$AA?$AA@ 10056db4     LIBCMT:getqloc.obj
 0002:00013de8       ??_C@_1BG@JGCANDME@?$AAe?$AAn?$AAg?$AAl?$AAi?$AAs?$AAh?$AA?9?$AAu?$AAk?$AA?$AA@ 10056de8     LIBCMT:getqloc.obj
 0002:00013e00       ??_C@_1BG@DINKMLE@?$AAe?$AAn?$AAg?$AAl?$AAi?$AAs?$AAh?$AA?9?$AAu?$AAs?$AA?$AA@ 10056e00     LIBCMT:getqloc.obj
 0002:00013e18       ??_C@_1BI@NMFDBHJE@?$AAe?$AAn?$AAg?$AAl?$AAi?$AAs?$AAh?$AA?9?$AAu?$AAs?$AAa?$AA?$AA@ 10056e18     LIBCMT:getqloc.obj
 0002:00013e30       ??_C@_1BO@OIHKJKII@?$AAf?$AAr?$AAe?$AAn?$AAc?$AAh?$AA?9?$AAb?$AAe?$AAl?$AAg?$AAi?$AAa?$AAn?$AA?$AA@ 10056e30     LIBCMT:getqloc.obj
 0002:00013e50       ??_C@_1CA@NKAELJKI@?$AAf?$AAr?$AAe?$AAn?$AAc?$AAh?$AA?9?$AAc?$AAa?$AAn?$AAa?$AAd?$AAi?$AAa?$AAn?$AA?$AA@ 10056e50     LIBCMT:getqloc.obj
 0002:00013e70       ??_C@_1CE@MGKCNLGN@?$AAf?$AAr?$AAe?$AAn?$AAc?$AAh?$AA?9?$AAl?$AAu?$AAx?$AAe?$AAm?$AAb?$AAo?$AAu?$AAr?$AAg?$AA?$AA@ 10056e70     LIBCMT:getqloc.obj
 0002:00013e94       ??_C@_1BK@CEGEAILM@?$AAf?$AAr?$AAe?$AAn?$AAc?$AAh?$AA?9?$AAs?$AAw?$AAi?$AAs?$AAs?$AA?$AA@ 10056e94     LIBCMT:getqloc.obj
 0002:00013eb0       ??_C@_1CA@PAFKEOCC@?$AAg?$AAe?$AAr?$AAm?$AAa?$AAn?$AA?9?$AAa?$AAu?$AAs?$AAt?$AAr?$AAi?$AAa?$AAn?$AA?$AA@ 10056eb0     LIBCMT:getqloc.obj
 0002:00013ed0       ??_C@_1CI@HCFHGOFD@?$AAg?$AAe?$AAr?$AAm?$AAa?$AAn?$AA?9?$AAl?$AAi?$AAc?$AAh?$AAt?$AAe?$AAn?$AAs?$AAt?$AAe?$AAi?$AAn?$AA?$AA@ 10056ed0     LIBCMT:getqloc.obj
 0002:00013ef8       ??_C@_1CE@FEDDNPDG@?$AAg?$AAe?$AAr?$AAm?$AAa?$AAn?$AA?9?$AAl?$AAu?$AAx?$AAe?$AAm?$AAb?$AAo?$AAu?$AAr?$AAg?$AA?$AA@ 10056ef8     LIBCMT:getqloc.obj
 0002:00013f1c       ??_C@_1BK@LIMINNMN@?$AAg?$AAe?$AAr?$AAm?$AAa?$AAn?$AA?9?$AAs?$AAw?$AAi?$AAs?$AAs?$AA?$AA@ 10056f1c     LIBCMT:getqloc.obj
 0002:00013f38       ??_C@_1BM@LGMDBEPD@?$AAi?$AAr?$AAi?$AAs?$AAh?$AA?9?$AAe?$AAn?$AAg?$AAl?$AAi?$AAs?$AAh?$AA?$AA@ 10056f38     LIBCMT:getqloc.obj
 0002:00013f54       ??_C@_1BM@NNCFBAEE@?$AAi?$AAt?$AAa?$AAl?$AAi?$AAa?$AAn?$AA?9?$AAs?$AAw?$AAi?$AAs?$AAs?$AA?$AA@ 10056f54     LIBCMT:getqloc.obj
 0002:00013f70       ??_C@_1BE@FEDJNPIB@?$AAn?$AAo?$AAr?$AAw?$AAe?$AAg?$AAi?$AAa?$AAn?$AA?$AA@ 10056f70     LIBCMT:getqloc.obj
 0002:00013f84       ??_C@_1CC@CILKDEIE@?$AAn?$AAo?$AAr?$AAw?$AAe?$AAg?$AAi?$AAa?$AAn?$AA?9?$AAb?$AAo?$AAk?$AAm?$AAa?$AAl?$AA?$AA@ 10056f84     LIBCMT:getqloc.obj
 0002:00013fa8       ??_C@_1CE@DHMMHEPL@?$AAn?$AAo?$AAr?$AAw?$AAe?$AAg?$AAi?$AAa?$AAn?$AA?9?$AAn?$AAy?$AAn?$AAo?$AAr?$AAs?$AAk?$AA?$AA@ 10056fa8     LIBCMT:getqloc.obj
 0002:00013fcc       ??_C@_1CK@OPNMHECD@?$AAp?$AAo?$AAr?$AAt?$AAu?$AAg?$AAu?$AAe?$AAs?$AAe?$AA?9?$AAb?$AAr?$AAa?$AAz?$AAi?$AAl?$AAi?$AAa?$AAn?$AA?$AA@ 10056fcc     LIBCMT:getqloc.obj
 0002:00013ff8       ??_C@_1CE@KEEHCDB@?$AAs?$AAp?$AAa?$AAn?$AAi?$AAs?$AAh?$AA?9?$AAa?$AAr?$AAg?$AAe?$AAn?$AAt?$AAi?$AAn?$AAa?$AA?$AA@ 10056ff8     LIBCMT:getqloc.obj
 0002:0001401c       ??_C@_1CA@GIAOLHJD@?$AAs?$AAp?$AAa?$AAn?$AAi?$AAs?$AAh?$AA?9?$AAb?$AAo?$AAl?$AAi?$AAv?$AAi?$AAa?$AA?$AA@ 1005701c     LIBCMT:getqloc.obj
 0002:0001403c       ??_C@_1BM@OJNDFNPD@?$AAs?$AAp?$AAa?$AAn?$AAi?$AAs?$AAh?$AA?9?$AAc?$AAh?$AAi?$AAl?$AAe?$AA?$AA@ 1005703c     LIBCMT:getqloc.obj
 0002:00014058       ??_C@_1CC@OCOLPALL@?$AAs?$AAp?$AAa?$AAn?$AAi?$AAs?$AAh?$AA?9?$AAc?$AAo?$AAl?$AAo?$AAm?$AAb?$AAi?$AAa?$AA?$AA@ 10057058     LIBCMT:getqloc.obj
 0002:0001407c       ??_C@_1CG@BPOFMKBB@?$AAs?$AAp?$AAa?$AAn?$AAi?$AAs?$AAh?$AA?9?$AAc?$AAo?$AAs?$AAt?$AAa?$AA?5?$AAr?$AAi?$AAc?$AAa?$AA?$AA@ 1005707c     LIBCMT:getqloc.obj
 0002:000140a4       ??_C@_1DG@IGOBAPBB@?$AAs?$AAp?$AAa?$AAn?$AAi?$AAs?$AAh?$AA?9?$AAd?$AAo?$AAm?$AAi?$AAn?$AAi?$AAc?$AAa?$AAn?$AA?5?$AAr?$AAe?$AAp?$AAu?$AAb?$AAl?$AAi?$AAc?$AA?$AA@ 100570a4     LIBCMT:getqloc.obj
 0002:000140dc       ??_C@_1CA@JHAPGEGI@?$AAs?$AAp?$AAa?$AAn?$AAi?$AAs?$AAh?$AA?9?$AAe?$AAc?$AAu?$AAa?$AAd?$AAo?$AAr?$AA?$AA@ 100570dc     LIBCMT:getqloc.obj
 0002:000140fc       ??_C@_1CI@LAPALJPP@?$AAs?$AAp?$AAa?$AAn?$AAi?$AAs?$AAh?$AA?9?$AAe?$AAl?$AA?5?$AAs?$AAa?$AAl?$AAv?$AAa?$AAd?$AAo?$AAr?$AA?$AA@ 100570fc     LIBCMT:getqloc.obj
 0002:00014124       ??_C@_1CE@PDGBOFOM@?$AAs?$AAp?$AAa?$AAn?$AAi?$AAs?$AAh?$AA?9?$AAg?$AAu?$AAa?$AAt?$AAe?$AAm?$AAa?$AAl?$AAa?$AA?$AA@ 10057124     LIBCMT:getqloc.obj
 0002:00014148       ??_C@_1CC@NBEBAODI@?$AAs?$AAp?$AAa?$AAn?$AAi?$AAs?$AAh?$AA?9?$AAh?$AAo?$AAn?$AAd?$AAu?$AAr?$AAa?$AAs?$AA?$AA@ 10057148     LIBCMT:getqloc.obj
 0002:0001416c       ??_C@_1CA@LLKGHBMF@?$AAs?$AAp?$AAa?$AAn?$AAi?$AAs?$AAh?$AA?9?$AAm?$AAe?$AAx?$AAi?$AAc?$AAa?$AAn?$AA?$AA@ 1005716c     LIBCMT:getqloc.obj
 0002:0001418c       ??_C@_1BO@LKNDOIGD@?$AAs?$AAp?$AAa?$AAn?$AAi?$AAs?$AAh?$AA?9?$AAm?$AAo?$AAd?$AAe?$AAr?$AAn?$AA?$AA@ 1005718c     LIBCMT:getqloc.obj
 0002:000141ac       ??_C@_1CE@NMDMOEEB@?$AAs?$AAp?$AAa?$AAn?$AAi?$AAs?$AAh?$AA?9?$AAn?$AAi?$AAc?$AAa?$AAr?$AAa?$AAg?$AAu?$AAa?$AA?$AA@ 100571ac     LIBCMT:getqloc.obj
 0002:000141d0       ??_C@_1BO@LLCBEJGB@?$AAs?$AAp?$AAa?$AAn?$AAi?$AAs?$AAh?$AA?9?$AAp?$AAa?$AAn?$AAa?$AAm?$AAa?$AA?$AA@ 100571d0     LIBCMT:getqloc.obj
 0002:000141f0       ??_C@_1CC@FKPGGIHO@?$AAs?$AAp?$AAa?$AAn?$AAi?$AAs?$AAh?$AA?9?$AAp?$AAa?$AAr?$AAa?$AAg?$AAu?$AAa?$AAy?$AA?$AA@ 100571f0     LIBCMT:getqloc.obj
 0002:00014214       ??_C@_1BK@CDEIHOOP@?$AAs?$AAp?$AAa?$AAn?$AAi?$AAs?$AAh?$AA?9?$AAp?$AAe?$AAr?$AAu?$AA?$AA@ 10057214     LIBCMT:getqloc.obj
 0002:00014230       ??_C@_1CI@GAHAKKGP@?$AAs?$AAp?$AAa?$AAn?$AAi?$AAs?$AAh?$AA?9?$AAp?$AAu?$AAe?$AAr?$AAt?$AAo?$AA?5?$AAr?$AAi?$AAc?$AAo?$AA?$AA@ 10057230     LIBCMT:getqloc.obj
 0002:00014258       ??_C@_1CA@NKJBCAGP@?$AAs?$AAp?$AAa?$AAn?$AAi?$AAs?$AAh?$AA?9?$AAu?$AAr?$AAu?$AAg?$AAu?$AAa?$AAy?$AA?$AA@ 10057258     LIBCMT:getqloc.obj
 0002:00014278       ??_C@_1CE@ODILCONM@?$AAs?$AAp?$AAa?$AAn?$AAi?$AAs?$AAh?$AA?9?$AAv?$AAe?$AAn?$AAe?$AAz?$AAu?$AAe?$AAl?$AAa?$AA?$AA@ 10057278     LIBCMT:getqloc.obj
 0002:0001429c       ??_C@_1CA@OBNMCGFO@?$AAs?$AAw?$AAe?$AAd?$AAi?$AAs?$AAh?$AA?9?$AAf?$AAi?$AAn?$AAl?$AAa?$AAn?$AAd?$AA?$AA@ 1005729c     LIBCMT:getqloc.obj
 0002:000142bc       ??_C@_1M@PIPDDPPI@?$AAs?$AAw?$AAi?$AAs?$AAs?$AA?$AA@ 100572bc     LIBCMT:getqloc.obj
 0002:000142c8       ??_C@_15GMFIMNFM@?$AAu?$AAs?$AA?$AA@ 100572c8     LIBCMT:getqloc.obj
 0002:000142d0       ??_C@_17HAEBFAGL@?$AAu?$AAs?$AAa?$AA?$AA@ 100572d0     LIBCMT:getqloc.obj
 0002:000142d8       ___rg_country              100572d8     LIBCMT:getqloc.obj
 0002:000143ec       ??_C@_1BA@DPFJEPHB@?$AAa?$AAm?$AAe?$AAr?$AAi?$AAc?$AAa?$AA?$AA@ 100573ec     LIBCMT:getqloc.obj
 0002:000143fc       ??_C@_1BA@ELOGGFK@?$AAb?$AAr?$AAi?$AAt?$AAa?$AAi?$AAn?$AA?$AA@ 100573fc     LIBCMT:getqloc.obj
 0002:0001440c       ??_C@_1M@GHBGIGDA@?$AAc?$AAh?$AAi?$AAn?$AAa?$AA?$AA@ 1005740c     LIBCMT:getqloc.obj
 0002:00014418       ??_C@_1M@NCHEJOPO@?$AAc?$AAz?$AAe?$AAc?$AAh?$AA?$AA@ 10057418     LIBCMT:getqloc.obj
 0002:00014424       ??_C@_1BA@BKPAPBLA@?$AAe?$AAn?$AAg?$AAl?$AAa?$AAn?$AAd?$AA?$AA@ 10057424     LIBCMT:getqloc.obj
 0002:00014434       ??_C@_1BM@HKBCKIPC@?$AAg?$AAr?$AAe?$AAa?$AAt?$AA?5?$AAb?$AAr?$AAi?$AAt?$AAa?$AAi?$AAn?$AA?$AA@ 10057434     LIBCMT:getqloc.obj
 0002:00014450       ??_C@_1BA@PPCHPGJB@?$AAh?$AAo?$AAl?$AAl?$AAa?$AAn?$AAd?$AA?$AA@ 10057450     LIBCMT:getqloc.obj
 0002:00014460       ??_C@_1BE@JBMPEGDG@?$AAh?$AAo?$AAn?$AAg?$AA?9?$AAk?$AAo?$AAn?$AAg?$AA?$AA@ 10057460     LIBCMT:getqloc.obj
 0002:00014474       ??_C@_1BI@KOELBBPJ@?$AAn?$AAe?$AAw?$AA?9?$AAz?$AAe?$AAa?$AAl?$AAa?$AAn?$AAd?$AA?$AA@ 10057474     LIBCMT:getqloc.obj
 0002:0001448c       ??_C@_15HIEBHAIO@?$AAn?$AAz?$AA?$AA@ 1005748c     LIBCMT:getqloc.obj
 0002:00014494       ??_C@_1BC@CHBCPFPI@?$AAp?$AAr?$AA?5?$AAc?$AAh?$AAi?$AAn?$AAa?$AA?$AA@ 10057494     LIBCMT:getqloc.obj
 0002:000144a8       ??_C@_1BC@JAOIIFKD@?$AAp?$AAr?$AA?9?$AAc?$AAh?$AAi?$AAn?$AAa?$AA?$AA@ 100574a8     LIBCMT:getqloc.obj
 0002:000144bc       ??_C@_1BI@BEHPPHKC@?$AAp?$AAu?$AAe?$AAr?$AAt?$AAo?$AA?9?$AAr?$AAi?$AAc?$AAo?$AA?$AA@ 100574bc     LIBCMT:getqloc.obj
 0002:000144d4       ??_C@_1O@PAEOFKDI@?$AAs?$AAl?$AAo?$AAv?$AAa?$AAk?$AA?$AA@ 100574d4     LIBCMT:getqloc.obj
 0002:000144e4       ??_C@_1BK@FIHMCKAM@?$AAs?$AAo?$AAu?$AAt?$AAh?$AA?5?$AAa?$AAf?$AAr?$AAi?$AAc?$AAa?$AA?$AA@ 100574e4     LIBCMT:getqloc.obj
 0002:00014500       ??_C@_1BI@NAEOODKB@?$AAs?$AAo?$AAu?$AAt?$AAh?$AA?5?$AAk?$AAo?$AAr?$AAe?$AAa?$AA?$AA@ 10057500     LIBCMT:getqloc.obj
 0002:00014518       ??_C@_1BK@FBDGGIFF@?$AAs?$AAo?$AAu?$AAt?$AAh?$AA?9?$AAa?$AAf?$AAr?$AAi?$AAc?$AAa?$AA?$AA@ 10057518     LIBCMT:getqloc.obj
 0002:00014534       ??_C@_1BI@GHLEJDPK@?$AAs?$AAo?$AAu?$AAt?$AAh?$AA?9?$AAk?$AAo?$AAr?$AAe?$AAa?$AA?$AA@ 10057534     LIBCMT:getqloc.obj
 0002:0001454c       ??_C@_1CE@PLHLOMJF@?$AAt?$AAr?$AAi?$AAn?$AAi?$AAd?$AAa?$AAd?$AA?5?$AA?$CG?$AA?5?$AAt?$AAo?$AAb?$AAa?$AAg?$AAo?$AA?$AA@ 1005754c     LIBCMT:getqloc.obj
 0002:00014570       ??_C@_1BO@MODIMHHI@?$AAu?$AAn?$AAi?$AAt?$AAe?$AAd?$AA?9?$AAk?$AAi?$AAn?$AAg?$AAd?$AAo?$AAm?$AA?$AA@ 10057570     LIBCMT:getqloc.obj
 0002:00014590       ??_C@_1BM@FFHJONBJ@?$AAu?$AAn?$AAi?$AAt?$AAe?$AAd?$AA?9?$AAs?$AAt?$AAa?$AAt?$AAe?$AAs?$AA?$AA@ 10057590     LIBCMT:getqloc.obj
 0002:000145ac       ___rg_language_count       100575ac     LIBCMT:getqloc.obj
 0002:000145b0       ___rg_country_count        100575b0     LIBCMT:getqloc.obj
 0002:000145b4       ??_C@_17DNCLJFIF@?$AAA?$AAC?$AAP?$AA?$AA@ 100575b4     LIBCMT:getqloc.obj
 0002:000145bc       ??_C@_17CIKBIHLH@?$AAO?$AAC?$AAP?$AA?$AA@ 100575bc     LIBCMT:getqloc.obj
 0002:000145c4       ___rglangidNotDefault      100575c4     LIBCMT:getqloc_downlevel.obj
 0002:000145d8       __real@00000000            100575d8     LIBCMT:wcstoq.obj
 0002:000145e0       __load_config_used         100575e0     LIBCMT:loadcfg.obj
 0002:000170b0       ___safe_se_handler_table   1005a0b0     <linker-defined>
 0002:000171c0       ___rtc_iaa                 1005a1c0     LIBCMT:initsect.obj
 0002:000172c4       ___rtc_izz                 1005a2c4     LIBCMT:initsect.obj
 0002:000173c8       ___rtc_taa                 1005a3c8     LIBCMT:initsect.obj
 0002:000174cc       ___rtc_tzz                 1005a4cc     LIBCMT:initsect.obj
 0003:00000550       _FingerStrokeAssistance_P  1005c550     FingerStrokeAssistance_data.obj
 0003:00000ef0       _pci20041digout            1005cef0     xpctarget.obj
 0003:00000ef4       _nipcdio24cnfg             1005cef4     xpctarget.obj
 0003:00000ef8       _rtddm6604cnfg             1005cef8     xpctarget.obj
 0003:00001620       _DefaultCOMIOBase          1005d620     xpcruntime:xpcimports.obj
 0003:00001630       _DefaultCOMIRQ             1005d630     xpcruntime:xpcimports.obj
 0003:00001640       __fltused                  1005d640     LIBCMT:fpinit.obj
 0003:00001644       __ldused                   1005d644     LIBCMT:fpinit.obj
 0003:00001650       __iob                      1005d650     LIBCMT:_file.obj
 0003:000018d0       ___isa_enabled             1005d8d0     LIBCMT:cpu_disp.obj
 0003:000018d4       ___security_cookie         1005d8d4     LIBCMT:gs_cookie.obj
 0003:000018d8       ___security_cookie_complement 1005d8d8     LIBCMT:gs_cookie.obj
 0003:00001ab0       ___nullstring              1005dab0     LIBCMT:output.obj
 0003:00001ab4       ___wnullstring             1005dab4     LIBCMT:output.obj
 0003:00001adc       __cfltcvt_tab              1005dadc     LIBCMT:cmiscdat.obj
 0003:00001c28       __mbctype                  1005dc28     LIBCMT:mbctype.obj
 0003:00001d30       __mbcasemap                1005dd30     LIBCMT:mbctype.obj
 0003:00001e30       ___initialmbcinfo          1005de30     LIBCMT:mbctype.obj
 0003:00002054       ___ptmbcinfo               1005e054     LIBCMT:mbctype.obj
 0003:00002150       ___badioinfo               1005e150     LIBCMT:ioinit.obj
 0003:00002190       __lookuptrailbytes         1005e190     LIBCMT:read.obj
 0003:00002290       __d_inf                    1005e290     LIBCMT:util.obj
 0003:00002298       __d_ind                    1005e298     LIBCMT:util.obj
 0003:000022a0       __d_max                    1005e2a0     LIBCMT:util.obj
 0003:000022a8       __d_min                    1005e2a8     LIBCMT:util.obj
 0003:000022b0       __d_mzero                  1005e2b0     LIBCMT:util.obj
 0003:000023bc       ___abort_behavior          1005e3bc     LIBCMT:abort.obj
 0003:000023c0       ___flsindex                1005e3c0     LIBCMT:tidtable.obj
 0003:000023d0       ___mb_cur_max              1005e3d0     LIBCMT:nlsdata.obj
 0003:000023d4       ___wclocalestr             1005e3d4     LIBCMT:nlsdata.obj
 0003:000023d8       ___lc_time_c               1005e3d8     LIBCMT:nlsdata.obj
 0003:0000253c       ___ptlocinfo               1005e53c     LIBCMT:nlsdata.obj
 0003:00002540       ___initiallocinfo          1005e540     LIBCMT:nlsdata.obj
 0003:000025f8       ___initiallocalestructinfo 1005e5f8     LIBCMT:nlsdata.obj
 0003:00002600       ___globallocalestatus      1005e600     LIBCMT:glstatus.obj
 0003:00002610       __matherr_flag             1005e610     LIBCMT:matherr.obj
 0003:00002620       __NLG_Destination          1005e620     LIBCMT:exsup.obj
 0003:00002630       ___lconv                   1005e630     LIBCMT:lconv.obj
 0003:00002634       ___lconv_static_decimal    1005e634     LIBCMT:lconv.obj
 0003:00002638       ___lconv_c                 1005e638     LIBCMT:lconv.obj
 0003:00002688       ___lconv_static_W_decimal  1005e688     LIBCMT:lconv.obj
 0003:0000268c       __pctype                   1005e68c     LIBCMT:ctype.obj
 0003:00002690       __pwctype                  1005e690     LIBCMT:ctype.obj
 0003:000026d0       __confh                    1005e6d0     LIBCMT:initcon.obj
 0003:000026d8       __pow10pos                 1005e6d8     LIBCMT:constpow.obj
 0003:00002838       __pow10neg                 1005e838     LIBCMT:constpow.obj
 0003:000029a0       __HUGE                     1005e9a0     LIBCMT:huge.obj
 0003:00002efc       ___isa_available_default   1005eefc     rt_logging.obj
 0003:00002f0c       _pci20098PortA             1005ef0c     xpctarget.obj
 0003:00002f10       _pci20098PortB             1005ef10     xpctarget.obj
 0003:00002f14       _siepowercan_firmware_initialized 1005ef14     xpctarget.obj
 0003:00002f18       _siepowercan_port1_configured 1005ef18     xpctarget.obj
 0003:00002f1c       _siepowercan_port2_configured 1005ef1c     xpctarget.obj
 0003:00002f20       _CANAC2_FIRMWARE_LOADED    1005ef20     xpctarget.obj
 0003:00002f24       _rs232ports                1005ef24     xpctarget.obj
 0003:00002f34       _NI_AT_MIO_16F_5_commreg2  1005ef34     xpctarget.obj
 0003:00002f38       _RTD_DM6430_init           1005ef38     xpctarget.obj
 0003:00002f3c       _RTD_DM6420_init           1005ef3c     xpctarget.obj
 0003:00002f40       _CANAC2_FIRMWARE_LOADED_mb1 1005ef40     xpctarget.obj
 0003:00002f44       _CANAC2_FIRMWARE_LOADED_mb2 1005ef44     xpctarget.obj
 0003:00002f48       _CANAC2_FIRMWARE_LOADED_mb3 1005ef48     xpctarget.obj
 0003:00002f4c       _xmlsize                   1005ef4c     xpctarget.obj
 0003:00003658       ___fastflag                1005f658     LIBCMT:fpinit.obj
 0003:00003980       __C_Exit_Done              1005f980     LIBCMT:crt0dat.obj
 0003:00003984       ___argc                    1005f984     LIBCMT:crt0dat.obj
 0003:00003988       ___argv                    1005f988     LIBCMT:crt0dat.obj
 0003:0000398c       ___wargv                   1005f98c     LIBCMT:crt0dat.obj
 0003:00003990       __environ                  1005f990     LIBCMT:crt0dat.obj
 0003:00003994       __wenviron                 1005f994     LIBCMT:crt0dat.obj
 0003:00003998       __pgmptr                   1005f998     LIBCMT:crt0dat.obj
 0003:0000399c       __wpgmptr                  1005f99c     LIBCMT:crt0dat.obj
 0003:000039a0       __umaskval                 1005f9a0     LIBCMT:crt0dat.obj
 0003:000039a4       __exitflag                 1005f9a4     LIBCMT:crt0dat.obj
 0003:000039a8       __C_Termination_Done       1005f9a8     LIBCMT:crt0dat.obj
 0003:000039ac       ___winitenv                1005f9ac     LIBCMT:crt0dat.obj
 0003:000039b0       ___initenv                 1005f9b0     LIBCMT:crt0dat.obj
 0003:000039b4       __cflush                   1005f9b4     LIBCMT:_file.obj
 0003:000039b8       ___isa_available           1005f9b8     LIBCMT:cpu_disp.obj
 0003:000039bc       ___favor                   1005f9bc     LIBCMT:cpu_disp.obj
 0003:000039c4       __aenvptr                  1005f9c4     LIBCMT:dllcrt0.obj
 0003:000039c8       __wenvptr                  1005f9c8     LIBCMT:dllcrt0.obj
 0003:000039cc       ?_pnhHeap@@3P6AHI@ZA       1005f9cc     LIBCMT:handler.obj
 0003:000039d0       ___app_type                1005f9d0     LIBCMT:crt0msg.obj
 0003:00004000       __newmode                  10060000     LIBCMT:_newmode.obj
 0003:00004004       __crtheap                  10060004     LIBCMT:heapinit.obj
 0003:00004008       ___pInvalidArgHandler      10060008     LIBCMT:invarg.obj
 0003:0000400c       __stdbuf                   1006000c     LIBCMT:_sftbuf.obj
 0003:00004168       __maxwait                  10060168     LIBCMT:crtheap.obj
 0003:0000416c       ?__pInconsistency@@3P6AXXZA 1006016c     LIBCMT:hooks.obj
 0003:00004170       ___pPurecall               10060170     LIBCMT:inithelp.obj
 0003:0000418c       ___mbcodepage              1006018c     LIBCMT:mbctype.obj
 0003:00004190       ___ismbcodepage            10060190     LIBCMT:mbctype.obj
 0003:00004194       ___mbulinfo                10060194     LIBCMT:mbctype.obj
 0003:000041a0       ___mblocalename            100601a0     LIBCMT:mbctype.obj
 0003:000041a8       ___pioinfo                 100601a8     LIBCMT:ioinit.obj
 0003:000042a8       ___error_mode              100602a8     LIBCMT:errmode.obj
 0003:000043c8       __outputformat             100603c8     LIBCMT:outputformat.obj
 0003:000043d0       __commode                  100603d0     LIBCMT:ncommode.obj
 0003:000043d4       ___lconv_static_null       100603d4     LIBCMT:lconv.obj
 0003:000043d8       ___lconv_static_W_null     100603d8     LIBCMT:lconv.obj
 0003:000043dc       ___locale_changed          100603dc     LIBCMT:wsetloca.obj
 0003:000043e0       __fmode                    100603e0     LIBCMT:txtmode.obj
 0003:00004400       _CANAC2_2_receiveindex_mb3 10060400     <common>
 0003:000074d4       _CANAC2_2_receivemaxindex_mb3 100634d4     <common>
 0003:000074e0       _CANAC2_2_sendindex_mb3    100634e0     <common>
 0003:00007800       _CANAC2_2_sendmaxindex_mb3 10063800     <common>
 0003:00007820       _CANAC2_1_receiveindex_mb3 10063820     <common>
 0003:00007b40       _CANAC2_1_receivemaxindex_mb3 10063b40     <common>
 0003:00007b60       _CANAC2_1_sendindex_mb3    10063b60     <common>
 0003:00007e80       _CANAC2_1_sendmaxindex_mb3 10063e80     <common>
 0003:00007ea0       _CANAC2_2_receive_mb3      10063ea0     <common>
 0003:000081c0       _CANAC2_2_send_mb3         100641c0     <common>
 0003:000084e0       _CANAC2_1_receive_mb3      100644e0     <common>
 0003:00008800       _CANAC2_1_send_mb3         10064800     <common>
 0003:00008b20       _CANAC2_2_receiveindex_mb2 10064b20     <common>
 0003:00008e40       _CANAC2_2_receivemaxindex_mb2 10064e40     <common>
 0003:00008e60       _CANAC2_2_sendindex_mb2    10064e60     <common>
 0003:00009180       _CANAC2_2_sendmaxindex_mb2 10065180     <common>
 0003:000091a0       _CANAC2_1_receiveindex_mb2 100651a0     <common>
 0003:000094c0       _CANAC2_1_receivemaxindex_mb2 100654c0     <common>
 0003:000094e0       _CANAC2_1_sendindex_mb2    100654e0     <common>
 0003:00009800       _CANAC2_1_sendmaxindex_mb2 10065800     <common>
 0003:00009820       _CANAC2_2_receive_mb2      10065820     <common>
 0003:00009b40       _CANAC2_2_send_mb2         10065b40     <common>
 0003:00009e60       _CANAC2_1_receive_mb2      10065e60     <common>
 0003:0000a180       _CANAC2_1_send_mb2         10066180     <common>
 0003:0000a4a0       _CANAC2_2_receiveindex_mb1 100664a0     <common>
 0003:0000a7c0       _CANAC2_2_receivemaxindex_mb1 100667c0     <common>
 0003:0000a7e0       _CANAC2_2_sendindex_mb1    100667e0     <common>
 0003:0000ab00       _CANAC2_2_sendmaxindex_mb1 10066b00     <common>
 0003:0000ab20       _CANAC2_1_receiveindex_mb1 10066b20     <common>
 0003:0000ae40       _CANAC2_1_receivemaxindex_mb1 10066e40     <common>
 0003:0000ae60       _CANAC2_1_sendindex_mb1    10066e60     <common>
 0003:0000b180       _CANAC2_1_sendmaxindex_mb1 10067180     <common>
 0003:0000b1a0       _CANAC2_2_receive_mb1      100671a0     <common>
 0003:0000b4c0       _CANAC2_2_send_mb1         100674c0     <common>
 0003:0000b7e0       _CANAC2_1_receive_mb1      100677e0     <common>
 0003:0000bb00       _CANAC2_1_send_mb1         10067b00     <common>
 0003:0000be20       _CANAC2_2_receiveindex     10067e20     <common>
 0003:0000c140       _CANAC2_2_receivemaxindex  10068140     <common>
 0003:0000c160       _CANAC2_2_sendindex        10068160     <common>
 0003:0000c480       _CANAC2_2_sendmaxindex     10068480     <common>
 0003:0000c4a0       _CANAC2_1_receiveindex     100684a0     <common>
 0003:0000c7c0       _CANAC2_1_receivemaxindex  100687c0     <common>
 0003:0000c7e0       _CANAC2_1_sendindex        100687e0     <common>
 0003:0000cb00       _CANAC2_1_sendmaxindex     10068b00     <common>
 0003:0000cb20       _CANAC2_2_receive          10068b20     <common>
 0003:0000ce40       _CANAC2_2_send             10068e40     <common>
 0003:0000d160       _CANAC2_1_receive          10069160     <common>
 0003:0000d480       _CANAC2_1_send             10069480     <common>
 0003:0000d7a0       _siepowercan_can_object_buffer_port2 100697a0     <common>
 0003:000117c0       _siepowercan_can_object_buffer_port1 1006d7c0     <common>
 0003:000157c0       _rtNaNF                    100717c0     <common>
 0003:000157d4       _rtMinusInfF               100717d4     <common>
 0003:000157d8       _rtInfF                    100717d8     <common>
 0003:000157e0       _rtNaN                     100717e0     <common>
 0003:000157e8       _rtMinusInf                100717e8     <common>
 0003:000157f0       _rtInf                     100717f0     <common>
 0003:00015800       _FingerStrokeAssistance_M_ 10071800     <common>
 0003:00017400       _FingerStrokeAssistance_DW 10073400     <common>
 0003:00017760       _FingerStrokeAssistance_B  10073760     <common>
 0003:00017d38       _xpceaddEvent              10073d38     <common>
 0003:00017d88       _xpceDeRegisterISR         10073d88     <common>
 0003:00017d8c       _xpceRegisterISR           10073d8c     <common>
 0003:00017d90       _xpcIsModelInit            10073d90     <common>
 0003:00017d94       _xpcGetElapsedTime         10073d94     <common>
 0003:00017d98       _xpcBusyWait               10073d98     <common>
 0003:00017d9c       _xpcFreePhysicalMemory     10073d9c     <common>
 0003:00017da0       _xpcAllocPhysicalMemory    10073da0     <common>
 0003:00017da4       _xpcReserveMemoryRegion    10073da4     <common>
 0003:00017da8       _xpcOutpB                  10073da8     <common>
 0003:00017dac       _xpcOutpW                  10073dac     <common>
 0003:00017db0       _xpcOutpDW                 10073db0     <common>
 0003:00017db4       _xpcInpB                   10073db4     <common>
 0003:00017db8       _xpcInpW                   10073db8     <common>
 0003:00017dbc       _xpcInpDW                  10073dbc     <common>
 0003:00017dc0       _slTestRegAssessment       10073dc0     <common>
 0003:00017dc4       _slTestTerminate           10073dc4     <common>
 0003:00017dc8       _slTestEvalOnFail          10073dc8     <common>
 0003:00017dcc       _slTestLogAssessments      10073dcc     <common>
 0003:00017dd0       _slTestInitialize          10073dd0     <common>
 0003:00017dd4       _unRegisterPTPTimeRead     10073dd4     <common>
 0003:00017dd8       _registerPTPTimeRead       10073dd8     <common>
 0003:00017ddc       _slrteGetCurrentStepSize   10073ddc     <common>
 0003:00017de0       _slrteSetStepSizeDelta     10073de0     <common>
 0003:00017de4       _xpceGetIntTimerGranularityNS 10073de4     <common>
 0003:00017de8       _sendToAsyncQueueTgtAppSvc 10073de8     <common>
 0003:00017dec       _terminateToAsyncQueueTgtAppSvc 10073dec     <common>
 0003:00017df0       _startToAsyncQueueTgtAppSvc 10073df0     <common>
 0003:00017df4       _getStatusFlags            10073df4     <common>
 0003:00017df8       _getCommService            10073df8     <common>
 0003:00017dfc       _getMemoryService          10073dfc     <common>
 0003:00017e00       _StreamVideo               10073e00     <common>
 0003:00017e04       _StopVideoDisplay          10073e04     <common>
 0003:00017e08       _StartVideoDisplay         10073e08     <common>
 0003:00017e0c       _DestroyVideoDisplay       10073e0c     <common>
 0003:00017e10       _CreateVideoDisplay        10073e10     <common>
 0003:00017e14       _ConvertUImage             10073e14     <common>
 0003:00017e18       _StopVideo                 10073e18     <common>
 0003:00017e1c       _ReadFrameBuffer           10073e1c     <common>
 0003:00017e20       _StartVideo                10073e20     <common>
 0003:00017e24       _GetVideoConfigs           10073e24     <common>
 0003:00017e28       _FindUsbVideoDevice        10073e28     <common>
 0003:00017e2c       _xpceDeleteSemaphore       10073e2c     <common>
 0003:00017e30       _xpceSignalSemaphore       10073e30     <common>
 0003:00017e34       _xpceWaitSemaphore         10073e34     <common>
 0003:00017e38       _xpceCreateSemaphore       10073e38     <common>
 0003:00017e3c       _TBGiveSpinFast            10073e3c     <common>
 0003:00017e40       _TBTakeSpinFast            10073e40     <common>
 0003:00017e44       _TBDeleteSpin              10073e44     <common>
 0003:00017e48       _TBCreateSpin              10073e48     <common>
 0003:00017e4c       _xpceScopeAcqOK            10073e4c     <common>
 0003:00017e50       _rl32eRestartAcquisition   10073e50     <common>
 0003:00017e54       _rl32eSetTargetScopeSigFt  10073e54     <common>
 0003:00017e58       _rl32eSetTargetScope       10073e58     <common>
 0003:00017e5c       _xpceFSScopeSet            10073e5c     <common>
 0003:00017e60       _rl32eSetScope             10073e60     <common>
 0003:00017e64       _rl32eAddSignal            10073e64     <common>
 0003:00017e68       _rl32eGetSignalNo          10073e68     <common>
 0003:00017e6c       _rl32eDefScope             10073e6c     <common>
 0003:00017e70       _rl32eScopeExists          10073e70     <common>
 0003:00017e74       _xpceUDPClose              10073e74     <common>
 0003:00017e78       _xpceUDPReceive            10073e78     <common>
 0003:00017e7c       _xpceUDPSend               10073e7c     <common>
 0003:00017e80       _xpceUDPOpenReceive        10073e80     <common>
 0003:00017e84       _xpceUDPOpenSend           10073e84     <common>
 0003:00017e88       _rl32eSendBlock            10073e88     <common>
 0003:00017e8c       _rl32eLineStatus           10073e8c     <common>
 0003:00017e90       _rl32eReceiveBufferCount   10073e90     <common>
 0003:00017e94       _rl32eReceiveChar          10073e94     <common>
 0003:00017e98       _rl32eSendChar             10073e98     <common>
 0003:00017e9c       _rl32eCloseCOMPort         10073e9c     <common>
 0003:00017ea0       _rl32eInitCOMPort          10073ea0     <common>
 0003:00017ea4       _xpceGetParamDims          10073ea4     <common>
 0003:00017ea8       _xpceGetParameter          10073ea8     <common>
 0003:00017eac       _xpceSetParameter          10073eac     <common>
 0003:00017eb0       _xpceGetSignalValue        10073eb0     <common>
 0003:00017eb4       _xpceAssignPCIInterrupt    10073eb4     <common>
 0003:00017eb8       _rl32eGetPCIInfoAtSlot     10073eb8     <common>
 0003:00017ebc       _rl32eGetPCIInfo           10073ebc     <common>
 0003:00017ec0       _rl32eShowPCIInfo          10073ec0     <common>
 0003:00017ec4       _rl32eShowPCIDev           10073ec4     <common>
 0003:00017ec8       _xpceGetTET                10073ec8     <common>
 0003:00017ecc       _xpceFTSubtract            10073ecc     <common>
 0003:00017ed0       _xpceFTAdd                 10073ed0     <common>
 0003:00017ed4       _xpceFTReadTime            10073ed4     <common>
 0003:00017ed8       ___unguarded_readlc_active 10073ed8     <common>
 0003:00017ee8       ___setlc_active            10073ee8     <common>
 0003:00017eec       __nhandle                  10073eec     <common>
 0003:00017f00       _encodedKERNEL32Functions  10073f00     <common>
 0003:00017fa8       __debugger_hook_dummy      10073fa8     <common>
 0003:00017fb4       ___use_sse2_mathfcns       10073fb4     <common>
 0003:00017fc0       __pmatherr                 10073fc0     <common>
 0003:00017fcc       __pDestructExceptionObject 10073fcc     <common>
 0003:00017fd8       __acmdln                   10073fd8     <common>
 0003:00018000       __bufin                    10074000     <common>
 0003:0001933c       ___piob                    1007533c     <common>
 0003:00019340       __nstream                  10075340     <common>
 0003:00019344       ___dyn_tls_init_callback   10075344     <common>
 0003:00019354       ___onexitend               10075354     <common>
 0003:00019358       ___onexitbegin             10075358     <common>
 0003:0001935c       ___mbctype_initialized     1007535c     <common>
 0003:00019360       ___env_initialized         10075360     <common>
 0004:00000000       __imp__GetModuleHandleA@4  10076000     kernel32:KERNEL32.dll
 0004:00000004       __imp__GetProcAddress@8    10076004     kernel32:KERNEL32.dll
 0004:00000008       __imp__HeapAlloc@12        10076008     kernel32:KERNEL32.dll
 0004:0000000c       __imp__IsDebuggerPresent@0 1007600c     kernel32:KERNEL32.dll
 0004:00000010       __imp__IsProcessorFeaturePresent@4 10076010     kernel32:KERNEL32.dll
 0004:00000014       __imp__EncodePointer@4     10076014     kernel32:KERNEL32.dll
 0004:00000018       __imp__DecodePointer@4     10076018     kernel32:KERNEL32.dll
 0004:0000001c       __imp__GetLastError@0      1007601c     kernel32:KERNEL32.dll
 0004:00000020       __imp__ExitProcess@4       10076020     kernel32:KERNEL32.dll
 0004:00000024       __imp__GetModuleHandleExW@12 10076024     kernel32:KERNEL32.dll
 0004:00000028       __imp__AreFileApisANSI@0   10076028     kernel32:KERNEL32.dll
 0004:0000002c       __imp__MultiByteToWideChar@24 1007602c     kernel32:KERNEL32.dll
 0004:00000030       __imp__WideCharToMultiByte@32 10076030     kernel32:KERNEL32.dll
 0004:00000034       __imp__HeapFree@12         10076034     kernel32:KERNEL32.dll
 0004:00000038       __imp__HeapReAlloc@16      10076038     kernel32:KERNEL32.dll
 0004:0000003c       __imp__EnterCriticalSection@4 1007603c     kernel32:KERNEL32.dll
 0004:00000040       __imp__LeaveCriticalSection@4 10076040     kernel32:KERNEL32.dll
 0004:00000044       __imp__GetStdHandle@4      10076044     kernel32:KERNEL32.dll
 0004:00000048       __imp__GetFileType@4       10076048     kernel32:KERNEL32.dll
 0004:0000004c       __imp__GetModuleFileNameW@12 1007604c     kernel32:KERNEL32.dll
 0004:00000050       __imp__WriteConsoleW@20    10076050     kernel32:KERNEL32.dll
 0004:00000054       __imp__GetCommandLineA@0   10076054     kernel32:KERNEL32.dll
 0004:00000058       __imp__GetCurrentThreadId@0 10076058     kernel32:KERNEL32.dll
 0004:0000005c       __imp__WriteFile@20        1007605c     kernel32:KERNEL32.dll
 0004:00000060       __imp__GetProcessHeap@0    10076060     kernel32:KERNEL32.dll
 0004:00000064       __imp__UnhandledExceptionFilter@4 10076064     kernel32:KERNEL32.dll
 0004:00000068       __imp__SetUnhandledExceptionFilter@4 10076068     kernel32:KERNEL32.dll
 0004:0000006c       __imp__SetLastError@4      1007606c     kernel32:KERNEL32.dll
 0004:00000070       __imp__InitializeCriticalSectionAndSpinCount@8 10076070     kernel32:KERNEL32.dll
 0004:00000074       __imp__CreateEventW@16     10076074     kernel32:KERNEL32.dll
 0004:00000078       __imp__Sleep@4             10076078     kernel32:KERNEL32.dll
 0004:0000007c       __imp__GetCurrentProcess@0 1007607c     kernel32:KERNEL32.dll
 0004:00000080       __imp__TerminateProcess@8  10076080     kernel32:KERNEL32.dll
 0004:00000084       __imp__TlsAlloc@0          10076084     kernel32:KERNEL32.dll
 0004:00000088       __imp__TlsGetValue@4       10076088     kernel32:KERNEL32.dll
 0004:0000008c       __imp__TlsSetValue@8       1007608c     kernel32:KERNEL32.dll
 0004:00000090       __imp__TlsFree@4           10076090     kernel32:KERNEL32.dll
 0004:00000094       __imp__GetStartupInfoW@4   10076094     kernel32:KERNEL32.dll
 0004:00000098       __imp__GetTickCount@0      10076098     kernel32:KERNEL32.dll
 0004:0000009c       __imp__GetModuleHandleW@4  1007609c     kernel32:KERNEL32.dll
 0004:000000a0       __imp__CreateSemaphoreW@16 100760a0     kernel32:KERNEL32.dll
 0004:000000a4       __imp__DeleteCriticalSection@4 100760a4     kernel32:KERNEL32.dll
 0004:000000a8       __imp__FatalAppExitA@8     100760a8     kernel32:KERNEL32.dll
 0004:000000ac       __imp__SetConsoleCtrlHandler@8 100760ac     kernel32:KERNEL32.dll
 0004:000000b0       __imp__FreeLibrary@4       100760b0     kernel32:KERNEL32.dll
 0004:000000b4       __imp__LoadLibraryExW@12   100760b4     kernel32:KERNEL32.dll
 0004:000000b8       __imp__IsValidCodePage@4   100760b8     kernel32:KERNEL32.dll
 0004:000000bc       __imp__GetACP@0            100760bc     kernel32:KERNEL32.dll
 0004:000000c0       __imp__GetOEMCP@0          100760c0     kernel32:KERNEL32.dll
 0004:000000c4       __imp__GetCPInfo@8         100760c4     kernel32:KERNEL32.dll
 0004:000000c8       __imp__CloseHandle@4       100760c8     kernel32:KERNEL32.dll
 0004:000000cc       __imp__RtlUnwind@16        100760cc     kernel32:KERNEL32.dll
 0004:000000d0       __imp__ReadFile@20         100760d0     kernel32:KERNEL32.dll
 0004:000000d4       __imp__GetConsoleMode@8    100760d4     kernel32:KERNEL32.dll
 0004:000000d8       __imp__ReadConsoleW@20     100760d8     kernel32:KERNEL32.dll
 0004:000000dc       __imp__GetConsoleCP@0      100760dc     kernel32:KERNEL32.dll
 0004:000000e0       __imp__DeleteFileW@4       100760e0     kernel32:KERNEL32.dll
 0004:000000e4       __imp__SetFilePointerEx@20 100760e4     kernel32:KERNEL32.dll
 0004:000000e8       __imp__RaiseException@16   100760e8     kernel32:KERNEL32.dll
 0004:000000ec       __imp__OutputDebugStringW@4 100760ec     kernel32:KERNEL32.dll
 0004:000000f0       __imp__GetCurrentThread@0  100760f0     kernel32:KERNEL32.dll
 0004:000000f4       __imp__GetModuleFileNameA@12 100760f4     kernel32:KERNEL32.dll
 0004:000000f8       __imp__QueryPerformanceCounter@4 100760f8     kernel32:KERNEL32.dll
 0004:000000fc       __imp__GetCurrentProcessId@0 100760fc     kernel32:KERNEL32.dll
 0004:00000100       __imp__GetSystemTimeAsFileTime@4 10076100     kernel32:KERNEL32.dll
 0004:00000104       __imp__GetEnvironmentStringsW@0 10076104     kernel32:KERNEL32.dll
 0004:00000108       __imp__FreeEnvironmentStringsW@4 10076108     kernel32:KERNEL32.dll
 0004:0000010c       __imp__HeapSize@12         1007610c     kernel32:KERNEL32.dll
 0004:00000110       __imp__GetDateFormatW@24   10076110     kernel32:KERNEL32.dll
 0004:00000114       __imp__GetTimeFormatW@24   10076114     kernel32:KERNEL32.dll
 0004:00000118       __imp__CompareStringW@24   10076118     kernel32:KERNEL32.dll
 0004:0000011c       __imp__LCMapStringW@24     1007611c     kernel32:KERNEL32.dll
 0004:00000120       __imp__GetLocaleInfoW@16   10076120     kernel32:KERNEL32.dll
 0004:00000124       __imp__IsValidLocale@8     10076124     kernel32:KERNEL32.dll
 0004:00000128       __imp__GetUserDefaultLCID@0 10076128     kernel32:KERNEL32.dll
 0004:0000012c       __imp__EnumSystemLocalesW@8 1007612c     kernel32:KERNEL32.dll
 0004:00000130       __imp__GetStringTypeW@16   10076130     kernel32:KERNEL32.dll
 0004:00000134       __imp__FlushFileBuffers@4  10076134     kernel32:KERNEL32.dll
 0004:00000138       __imp__SetStdHandle@8      10076138     kernel32:KERNEL32.dll
 0004:0000013c       __imp__CreateFileW@28      1007613c     kernel32:KERNEL32.dll
 0004:00000140       __imp__SetEndOfFile@4      10076140     kernel32:KERNEL32.dll
 0004:00000144       \177KERNEL32_NULL_THUNK_DATA 10076144     kernel32:KERNEL32.dll
 0004:000001b0       __IMPORT_DESCRIPTOR_KERNEL32 100761b0     kernel32:KERNEL32.dll
 0004:000001c4       __NULL_IMPORT_DESCRIPTOR   100761c4     kernel32:KERNEL32.dll

 entry point at        0001:00016aa3

